ARM GAS  C:\Users\ADMINI~1\AppData\Local\Temp\ccIVsY08.s 			page 1


   1              		.syntax unified
   2              		.cpu cortex-m0
   3              		.fpu softvfp
   4              		.eabi_attribute 20, 1
   5              		.eabi_attribute 21, 1
   6              		.eabi_attribute 23, 3
   7              		.eabi_attribute 24, 1
   8              		.eabi_attribute 25, 1
   9              		.eabi_attribute 26, 1
  10              		.eabi_attribute 30, 6
  11              		.eabi_attribute 34, 0
  12              		.eabi_attribute 18, 4
  13              		.thumb
  14              		.syntax unified
  15              		.file	"app.c"
  16              		.text
  17              	.Ltext0:
  18              		.cfi_sections	.debug_frame
  19              		.comm	uC_Probe_RGB_Val,4,4
  20              		.global	uC_Probe_PB_Trigger
  21              		.bss
  22              		.type	uC_Probe_PB_Trigger, %object
  23              		.size	uC_Probe_PB_Trigger, 1
  24              	uC_Probe_PB_Trigger:
  25 0000 00       		.space	1
  26              		.comm	uC_Probe_Temp_Val,4,4
  27              		.comm	uC_Probe_AmbientLight,2,2
  28              		.comm	uC_Probe_Accel_X_Axis,2,2
  29              		.comm	uC_Probe_Accel_Y_Axis,2,2
  30              		.comm	uC_Probe_Accel_Z_Axis,2,2
  31 0001 000000   		.align	2
  32              	App_TaskStartStk:
  33 0004 00000000 		.space	1024
  33      00000000 
  33      00000000 
  33      00000000 
  33      00000000 
  34              		.align	2
  35              	App_Demo_SensorTaskStk:
  36 0404 00000000 		.space	1024
  36      00000000 
  36      00000000 
  36      00000000 
  36      00000000 
  37              		.align	1
  38              	App_Demo_Ambient_InitVar:
  39 0804 0000     		.space	2
  40              		.section	.rodata
  41              		.align	2
  42              	.LC3:
  43 0000 41707020 		.ascii	"App Task Start\000"
  43      5461736B 
  43      20537461 
  43      727400
  44              		.section	.text.main,"ax",%progbits
  45              		.align	2
  46              		.global	main
ARM GAS  C:\Users\ADMINI~1\AppData\Local\Temp\ccIVsY08.s 			page 2


  47              		.code	16
  48              		.thumb_func
  49              		.type	main, %function
  50              	main:
  51              	.LFB34:
  52              		.file 1 "..\\..\\app.c"
   1:..\../app.c   **** /*
   2:..\../app.c   **** ***************************************************************************************************
   3:..\../app.c   **** *                                             EXAMPLE CODE
   4:..\../app.c   **** *
   5:..\../app.c   **** *                            (c) Copyright 2015; Micrium, Inc.; Weston, FL
   6:..\../app.c   **** *
   7:..\../app.c   **** *               This file is provided as an example on how to use Micrium products.
   8:..\../app.c   **** *
   9:..\../app.c   **** *               Please feel free to use any application code labeled as 'EXAMPLE CODE' in
  10:..\../app.c   **** *               your application products.  Example code may be used as is, in whole or in
  11:..\../app.c   **** *               part, or may be used as a reference only. This file can be modified as
  12:..\../app.c   **** *               required to meet the end-product requirements.
  13:..\../app.c   **** *
  14:..\../app.c   **** *               Please help us continue to provide the Embedded community with the finest
  15:..\../app.c   **** *               software available.  Your honesty is greatly appreciated.
  16:..\../app.c   **** *
  17:..\../app.c   **** *               You can find our product's user manual, API reference, release notes and
  18:..\../app.c   **** *               more information at https://doc.micrium.com.
  19:..\../app.c   **** *               You can contact us at www.micrium.com.
  20:..\../app.c   **** ***************************************************************************************************
  21:..\../app.c   **** */
  22:..\../app.c   **** 
  23:..\../app.c   **** /*
  24:..\../app.c   **** ***************************************************************************************************
  25:..\../app.c   **** *                                           APPLICATION CODE
  26:..\../app.c   **** *
  27:..\../app.c   **** *                                            CYPRESS PSoC4
  28:..\../app.c   **** *                                               with the
  29:..\../app.c   **** *                                      CY8CKIT-044 Development Kit
  30:..\../app.c   **** *
  31:..\../app.c   **** * Filename      : app.c
  32:..\../app.c   **** * Version       : V1.00
  33:..\../app.c   **** * Programmer(s) : DC
  34:..\../app.c   **** ***************************************************************************************************
  35:..\../app.c   **** */
  36:..\../app.c   **** 
  37:..\../app.c   **** /*
  38:..\../app.c   **** ***************************************************************************************************
  39:..\../app.c   **** *                                             INCLUDE FILES
  40:..\../app.c   **** ***************************************************************************************************
  41:..\../app.c   **** */
  42:..\../app.c   **** 
  43:..\../app.c   **** #include  "app_cfg.h"
  44:..\../app.c   **** #include  <bsp.h>
  45:..\../app.c   **** #include  <os.h>
  46:..\../app.c   **** #include  <cpu.h>
  47:..\../app.c   **** 
  48:..\../app.c   **** #include  <lib_math.h>
  49:..\../app.c   **** #include  <lib_mem.h>
  50:..\../app.c   **** 
  51:..\../app.c   **** 
ARM GAS  C:\Users\ADMINI~1\AppData\Local\Temp\ccIVsY08.s 			page 3


  52:..\../app.c   **** /*
  53:..\../app.c   **** ***************************************************************************************************
  54:..\../app.c   **** *                                             LOCAL DEFINES
  55:..\../app.c   **** ***************************************************************************************************
  56:..\../app.c   **** */
  57:..\../app.c   ****                                                                 /* ---------------- TEMP SENSOR DEF
  58:..\../app.c   **** #define  APP_TEMP_SENSOR_NUM                        0u
  59:..\../app.c   **** 
  60:..\../app.c   ****                                                                 /* --------------- AMBIENT LIGHT DE
  61:..\../app.c   **** #define  APP_AMBIENT_DEMO_MAX_VAL                  50u          /* See 'App_Demo_TempAccel' Task No
  62:..\../app.c   ****                                                                 
  63:..\../app.c   **** 
  64:..\../app.c   **** /*
  65:..\../app.c   **** ***************************************************************************************************
  66:..\../app.c   **** *                                            GLOBAL DEFINES
  67:..\../app.c   **** ***************************************************************************************************
  68:..\../app.c   **** */
  69:..\../app.c   ****                                                                 /* -------------- uC/PROBE GLOBAL D
  70:..\../app.c   **** CPU_INT32U   uC_Probe_RGB_Val;                                  /*  - RGB LED Color Value.         
  71:..\../app.c   **** CPU_BOOLEAN  uC_Probe_PB_Trigger = DEF_OFF;                     /*  - RGB LED ON/OFF Push Button Tr
  72:..\../app.c   **** CPU_FP32     uC_Probe_Temp_Val;                                 /*  - Temperature Sensor Value (*F)
  73:..\../app.c   **** CPU_INT16U   uC_Probe_AmbientLight;                             /*  - Ambient Light Sensor Value.  
  74:..\../app.c   **** CPU_INT16S   uC_Probe_Accel_X_Axis;                             /*  - Accelerometer X-Axis Value.  
  75:..\../app.c   **** CPU_INT16S   uC_Probe_Accel_Y_Axis;                             /*  - Accelerometer Y-Axis Value.  
  76:..\../app.c   **** CPU_INT16S   uC_Probe_Accel_Z_Axis;                             /*  - Accelerometer Z-Axis Value.  
  77:..\../app.c   **** 
  78:..\../app.c   **** 
  79:..\../app.c   **** /*
  80:..\../app.c   **** ***************************************************************************************************
  81:..\../app.c   **** *                                            LOCAL VARIABLES
  82:..\../app.c   **** ***************************************************************************************************
  83:..\../app.c   **** */
  84:..\../app.c   ****                                                                 /* ------------------ APP TASK VAR(
  85:..\../app.c   **** static  OS_STK      App_TaskStartStk[APP_CFG_TASK_START_STK_SIZE];
  86:..\../app.c   **** 
  87:..\../app.c   ****                                                                 /* ------------- TEMP & ACCEL TASK 
  88:..\../app.c   **** static  OS_STK      App_Demo_SensorTaskStk[APP_CFG_SENSOR_TASK_STK_SIZE];
  89:..\../app.c   **** 
  90:..\../app.c   ****                                                                 /* --------------- MISCELLANEOUS VA
  91:..\../app.c   **** static  CPU_INT16U  App_Demo_Ambient_InitVar;                   /*  - Ambient Light Initial DMA Sto
  92:..\../app.c   **** 
  93:..\../app.c   **** 
  94:..\../app.c   **** /*
  95:..\../app.c   **** ***************************************************************************************************
  96:..\../app.c   **** *                                         FUNCTION PROTOTYPES
  97:..\../app.c   **** ***************************************************************************************************
  98:..\../app.c   **** */
  99:..\../app.c   **** 
 100:..\../app.c   **** static  void  App_TaskStart      (void *p_arg);
 101:..\../app.c   **** static  void  App_Demo_SensorTask(void *p_arg);
 102:..\../app.c   **** 
 103:..\../app.c   **** static  void  App_TaskCreate     (void);
 104:..\../app.c   **** static  void  App_ObjCreate      (void);
 105:..\../app.c   **** 
 106:..\../app.c   **** 
 107:..\../app.c   **** /*
 108:..\../app.c   **** ***************************************************************************************************
ARM GAS  C:\Users\ADMINI~1\AppData\Local\Temp\ccIVsY08.s 			page 4


 109:..\../app.c   **** *                                                main()
 110:..\../app.c   **** *
 111:..\../app.c   **** * Description : This is the standard entry point for C code.  It is assumed that your code will cal
 112:..\../app.c   **** *               main() once you have performed all necessary initialization.
 113:..\../app.c   **** *
 114:..\../app.c   **** * Argument(s) : none
 115:..\../app.c   **** *
 116:..\../app.c   **** * Return(s)   : none
 117:..\../app.c   **** *
 118:..\../app.c   **** * Caller(s)   : Startup Code.
 119:..\../app.c   **** *
 120:..\../app.c   **** * Note(s)     : none.
 121:..\../app.c   **** ***************************************************************************************************
 122:..\../app.c   **** */
 123:..\../app.c   **** 
 124:..\../app.c   **** int  main (void)
 125:..\../app.c   **** {
  53              		.loc 1 125 0
  54              		.cfi_startproc
  55              		@ args = 0, pretend = 0, frame = 8
  56              		@ frame_needed = 1, uses_anonymous_args = 0
  57 0000 80B5     		push	{r7, lr}
  58              		.cfi_def_cfa_offset 8
  59              		.cfi_offset 7, -8
  60              		.cfi_offset 14, -4
  61 0002 88B0     		sub	sp, sp, #32
  62              		.cfi_def_cfa_offset 40
  63 0004 06AF     		add	r7, sp, #24
  64              		.cfi_def_cfa 7, 16
 126:..\../app.c   ****     OS_ERR  os_err;
 127:..\../app.c   **** 
 128:..\../app.c   **** 
 129:..\../app.c   ****     CPU_Init();                                                 /* Initialize the uC/CPU services  
  65              		.loc 1 129 0
  66 0006 FFF7FEFF 		bl	CPU_Init
 130:..\../app.c   **** 	Mem_Init();                                                 /* Initialize Memory Managment Module 
  67              		.loc 1 130 0
  68 000a FFF7FEFF 		bl	Mem_Init
 131:..\../app.c   ****     Math_Init();                                                /* Initialize Mathematical Module  
  69              		.loc 1 131 0
  70 000e FFF7FEFF 		bl	Math_Init
 132:..\../app.c   ****     
 133:..\../app.c   ****     BSP_Init();                                                 /* Initialize BSP Functions.       
  71              		.loc 1 133 0
  72 0012 FFF7FEFF 		bl	BSP_Init
 134:..\../app.c   ****     
 135:..\../app.c   ****     OSInit();                                                   /* Init uC/OS-II.                  
  73              		.loc 1 135 0
  74 0016 FFF7FEFF 		bl	OSInit
 136:..\../app.c   ****     
 137:..\../app.c   ****     OSTaskCreateExt( App_TaskStart,                             /* Create the Start Task           
  75              		.loc 1 137 0
  76 001a 0D4A     		ldr	r2, .L3
  77 001c 0D48     		ldr	r0, .L3+4
  78 001e 0323     		movs	r3, #3
  79 0020 0493     		str	r3, [sp, #16]
  80 0022 0023     		movs	r3, #0
ARM GAS  C:\Users\ADMINI~1\AppData\Local\Temp\ccIVsY08.s 			page 5


  81 0024 0393     		str	r3, [sp, #12]
  82 0026 8023     		movs	r3, #128
  83 0028 5B00     		lsls	r3, r3, #1
  84 002a 0293     		str	r3, [sp, #8]
  85 002c 0A4B     		ldr	r3, .L3+8
  86 002e 0193     		str	r3, [sp, #4]
  87 0030 0223     		movs	r3, #2
  88 0032 0093     		str	r3, [sp]
  89 0034 0223     		movs	r3, #2
  90 0036 0021     		movs	r1, #0
  91 0038 FFF7FEFF 		bl	OSTaskCreateExt
 138:..\../app.c   ****                      0u,
 139:..\../app.c   ****                     &App_TaskStartStk[APP_CFG_TASK_START_STK_SIZE - 1u],
 140:..\../app.c   ****                      APP_CFG_TASK_START_PRIO,
 141:..\../app.c   ****                      APP_CFG_TASK_START_PRIO,
 142:..\../app.c   ****                     &App_TaskStartStk[0u],
 143:..\../app.c   ****                      APP_CFG_TASK_START_STK_SIZE,
 144:..\../app.c   ****                      0u,
 145:..\../app.c   ****                     (OS_TASK_OPT_STK_CHK | OS_TASK_OPT_STK_CLR));
 146:..\../app.c   **** 
 147:..\../app.c   **** #if (OS_TASK_NAME_EN > 0u)
 148:..\../app.c   ****     OSTaskNameSet(          APP_CFG_TASK_START_PRIO,
  92              		.loc 1 148 0
  93 003c FA1D     		adds	r2, r7, #7
  94 003e 074B     		ldr	r3, .L3+12
  95 0040 1900     		movs	r1, r3
  96 0042 0220     		movs	r0, #2
  97 0044 FFF7FEFF 		bl	OSTaskNameSet
 149:..\../app.c   ****                   (INT8U *)"App Task Start",
 150:..\../app.c   ****                            &os_err);
 151:..\../app.c   **** #endif
 152:..\../app.c   **** 
 153:..\../app.c   ****     OSStart();                                                  /* Start multitasking (i.e. give co
  98              		.loc 1 153 0
  99 0048 FFF7FEFF 		bl	OSStart
 100              	.L2:
 154:..\../app.c   ****     
 155:..\../app.c   ****     while (DEF_ON);                                             /* Should Never Get Here.          
 101              		.loc 1 155 0 discriminator 1
 102 004c FEE7     		b	.L2
 103              	.L4:
 104 004e C046     		.align	2
 105              	.L3:
 106 0050 00040000 		.word	App_TaskStartStk+1020
 107 0054 00000000 		.word	App_TaskStart
 108 0058 04000000 		.word	App_TaskStartStk
 109 005c 00000000 		.word	.LC3
 110              		.cfi_endproc
 111              	.LFE34:
 112              		.size	main, .-main
 113              		.section	.text.App_TaskStart,"ax",%progbits
 114              		.align	2
 115              		.code	16
 116              		.thumb_func
 117              		.type	App_TaskStart, %function
 118              	App_TaskStart:
 119              	.LFB35:
ARM GAS  C:\Users\ADMINI~1\AppData\Local\Temp\ccIVsY08.s 			page 6


 156:..\../app.c   **** }
 157:..\../app.c   **** 
 158:..\../app.c   **** 
 159:..\../app.c   **** /*
 160:..\../app.c   **** ***************************************************************************************************
 161:..\../app.c   **** *                                          App_TaskStart()
 162:..\../app.c   **** *
 163:..\../app.c   **** * Description : This is an example of a startup task.  As mentioned in the book's text, you MUST
 164:..\../app.c   **** *               initialize the ticker only once multitasking has started.
 165:..\../app.c   **** *
 166:..\../app.c   **** * Argument(s) : p_arg   is the argument passed to 'App_TaskStart()' by 'OSTaskCreate()'.
 167:..\../app.c   **** *
 168:..\../app.c   **** * Return(s)   : none
 169:..\../app.c   **** *
 170:..\../app.c   **** * Caller(s)   : main()
 171:..\../app.c   **** *
 172:..\../app.c   **** * Note(s)     : (1) The first line of code is used to prevent a compiler warning because 'p_arg' is
 173:..\../app.c   **** *                   used.  The compiler should not generate any code for this statement.
 174:..\../app.c   **** *
 175:..\../app.c   **** *               (2) App_TaskStart Task will manage the RGB LED as well as the Push Button to Turn O
 176:..\../app.c   **** *                   and OFF the RGB LED.
 177:..\../app.c   **** ***************************************************************************************************
 178:..\../app.c   **** */
 179:..\../app.c   **** 
 180:..\../app.c   **** void  App_TaskStart (void *p_arg)
 181:..\../app.c   **** {
 120              		.loc 1 181 0
 121              		.cfi_startproc
 122              		@ args = 0, pretend = 0, frame = 16
 123              		@ frame_needed = 1, uses_anonymous_args = 0
 124 0000 90B5     		push	{r4, r7, lr}
 125              		.cfi_def_cfa_offset 12
 126              		.cfi_offset 4, -12
 127              		.cfi_offset 7, -8
 128              		.cfi_offset 14, -4
 129 0002 85B0     		sub	sp, sp, #20
 130              		.cfi_def_cfa_offset 32
 131 0004 00AF     		add	r7, sp, #0
 132              		.cfi_def_cfa_register 7
 133 0006 7860     		str	r0, [r7, #4]
 182:..\../app.c   ****     CPU_BOOLEAN  pb_status;
 183:..\../app.c   ****     CPU_BOOLEAN  pb_prev;
 184:..\../app.c   ****     CPU_BOOLEAN  led_status;
 185:..\../app.c   ****         
 186:..\../app.c   **** 
 187:..\../app.c   ****    (void)p_arg;
 188:..\../app.c   ****     led_status = DEF_OFF;                                       /* Initialize Var(s).              
 134              		.loc 1 188 0
 135 0008 0E23     		movs	r3, #14
 136 000a FB18     		adds	r3, r7, r3
 137 000c 0022     		movs	r2, #0
 138 000e 1A70     		strb	r2, [r3]
 189:..\../app.c   **** 
 190:..\../app.c   ****     BSP_CPU_TickInit();                                         /* Initialize the Tick Interrupt.  
 139              		.loc 1 190 0
 140 0010 FFF7FEFF 		bl	BSP_CPU_TickInit
 191:..\../app.c   ****                                                                 /* --------------- ACCELEROMETER SE
ARM GAS  C:\Users\ADMINI~1\AppData\Local\Temp\ccIVsY08.s 			page 7


 192:..\../app.c   ****     BSP_Accel_Init();                                           /* Init & Cfg I2C & Accelerometer a
 141              		.loc 1 192 0
 142 0014 FFF7FEFF 		bl	BSP_Accel_Init
 193:..\../app.c   **** 
 194:..\../app.c   **** #if (OS_TASK_STAT_EN > 0u)
 195:..\../app.c   ****     OSStatInit();                                               /* Determine CPU capacity          
 143              		.loc 1 195 0
 144 0018 FFF7FEFF 		bl	OSStatInit
 196:..\../app.c   **** #endif
 197:..\../app.c   **** 
 198:..\../app.c   **** #ifdef CPU_CFG_INT_DIS_MEAS_EN
 199:..\../app.c   ****     CPU_IntDisMeasMaxCurReset();
 145              		.loc 1 199 0
 146 001c FFF7FEFF 		bl	CPU_IntDisMeasMaxCurReset
 200:..\../app.c   **** #endif
 201:..\../app.c   **** 
 202:..\../app.c   ****     APP_TRACE_INFO(("Creating Kernel Objects...\n\r"));
 203:..\../app.c   ****     App_ObjCreate();                                            /* Create Kernel Objects           
 147              		.loc 1 203 0
 148 0020 FFF7FEFF 		bl	App_ObjCreate
 204:..\../app.c   ****     
 205:..\../app.c   ****     APP_TRACE_INFO(("Creating Application Tasks...\n\r"));
 206:..\../app.c   ****     App_TaskCreate();                                           /* Create Application Tasks.       
 149              		.loc 1 206 0
 150 0024 FFF7FEFF 		bl	App_TaskCreate
 207:..\../app.c   ****     
 208:..\../app.c   ****     BSP_RGB_Off();                                              /* Initially Turn off the RGB LED. 
 151              		.loc 1 208 0
 152 0028 FFF7FEFF 		bl	BSP_RGB_Off
 153              	.L12:
 209:..\../app.c   ****     
 210:..\../app.c   ****     while (DEF_TRUE) {                                          /* Task body, always written as an 
 211:..\../app.c   ****         pb_status = BSP_PB_StatusGet();                         /* ------------- PUSH BUTTON (SW2) 
 154              		.loc 1 211 0
 155 002c 0D23     		movs	r3, #13
 156 002e FC18     		adds	r4, r7, r3
 157 0030 FFF7FEFF 		bl	BSP_PB_StatusGet
 158 0034 0300     		movs	r3, r0
 159 0036 2370     		strb	r3, [r4]
 212:..\../app.c   **** 		
 213:..\../app.c   ****         if((pb_status == DEF_OFF) && (pb_prev != DEF_OFF)) {    /* Push Button Triggers change on B
 160              		.loc 1 213 0
 161 0038 0D23     		movs	r3, #13
 162 003a FB18     		adds	r3, r7, r3
 163 003c 1B78     		ldrb	r3, [r3]
 164 003e 002B     		cmp	r3, #0
 165 0040 0FD1     		bne	.L6
 166              		.loc 1 213 0 is_stmt 0 discriminator 1
 167 0042 0F23     		movs	r3, #15
 168 0044 FB18     		adds	r3, r7, r3
 169 0046 1B78     		ldrb	r3, [r3]
 170 0048 002B     		cmp	r3, #0
 171 004a 0AD0     		beq	.L6
 214:..\../app.c   ****             if (uC_Probe_PB_Trigger == DEF_ON) {                /* If the Probe Button is Turned ON
 172              		.loc 1 214 0 is_stmt 1
 173 004c 1E4B     		ldr	r3, .L13
 174 004e 1B78     		ldrb	r3, [r3]
ARM GAS  C:\Users\ADMINI~1\AppData\Local\Temp\ccIVsY08.s 			page 8


 175 0050 012B     		cmp	r3, #1
 176 0052 03D1     		bne	.L7
 215:..\../app.c   ****                 uC_Probe_PB_Trigger = DEF_OFF;
 177              		.loc 1 215 0
 178 0054 1C4B     		ldr	r3, .L13
 179 0056 0022     		movs	r2, #0
 180 0058 1A70     		strb	r2, [r3]
 181 005a 02E0     		b	.L6
 182              	.L7:
 216:..\../app.c   ****             } else {                                            /* If the Probe Button is Turned OF
 217:..\../app.c   ****                 uC_Probe_PB_Trigger = DEF_ON;
 183              		.loc 1 217 0
 184 005c 1A4B     		ldr	r3, .L13
 185 005e 0122     		movs	r2, #1
 186 0060 1A70     		strb	r2, [r3]
 187              	.L6:
 218:..\../app.c   ****             }
 219:..\../app.c   ****         }
 220:..\../app.c   ****         
 221:..\../app.c   ****         pb_prev = pb_status;                                    /* Set the Status as the Button's P
 188              		.loc 1 221 0
 189 0062 0F23     		movs	r3, #15
 190 0064 FB18     		adds	r3, r7, r3
 191 0066 0D22     		movs	r2, #13
 192 0068 BA18     		adds	r2, r7, r2
 193 006a 1278     		ldrb	r2, [r2]
 194 006c 1A70     		strb	r2, [r3]
 222:..\../app.c   ****         
 223:..\../app.c   ****         if (uC_Probe_PB_Trigger == DEF_ON) {                    /* ---------- uC/PROBE BUTTON TRIGG
 195              		.loc 1 223 0
 196 006e 164B     		ldr	r3, .L13
 197 0070 1B78     		ldrb	r3, [r3]
 198 0072 012B     		cmp	r3, #1
 199 0074 0BD1     		bne	.L8
 224:..\../app.c   ****             if (led_status == DEF_INACTIVE) {                   /* if LED Status Flag is currently 
 200              		.loc 1 224 0
 201 0076 0E23     		movs	r3, #14
 202 0078 FB18     		adds	r3, r7, r3
 203 007a 1B78     		ldrb	r3, [r3]
 204 007c 002B     		cmp	r3, #0
 205 007e 11D1     		bne	.L10
 225:..\../app.c   ****                 led_status = DEF_ACTIVE;                        /* ... Status Flag and Turn ON The 
 206              		.loc 1 225 0
 207 0080 0E23     		movs	r3, #14
 208 0082 FB18     		adds	r3, r7, r3
 209 0084 0122     		movs	r2, #1
 210 0086 1A70     		strb	r2, [r3]
 226:..\../app.c   ****                 BSP_RGB_On();
 211              		.loc 1 226 0
 212 0088 FFF7FEFF 		bl	BSP_RGB_On
 213 008c 0AE0     		b	.L10
 214              	.L8:
 227:..\../app.c   ****             }
 228:..\../app.c   ****         } else {
 229:..\../app.c   ****             if (led_status == DEF_YES) {                        /* if LED Status Flag is currently 
 215              		.loc 1 229 0
 216 008e 0E23     		movs	r3, #14
ARM GAS  C:\Users\ADMINI~1\AppData\Local\Temp\ccIVsY08.s 			page 9


 217 0090 FB18     		adds	r3, r7, r3
 218 0092 1B78     		ldrb	r3, [r3]
 219 0094 012B     		cmp	r3, #1
 220 0096 05D1     		bne	.L10
 230:..\../app.c   ****                 led_status = DEF_INACTIVE;                      /* .. Status Flag and Turn OFF The 
 221              		.loc 1 230 0
 222 0098 0E23     		movs	r3, #14
 223 009a FB18     		adds	r3, r7, r3
 224 009c 0022     		movs	r2, #0
 225 009e 1A70     		strb	r2, [r3]
 231:..\../app.c   ****                 BSP_RGB_Off();
 226              		.loc 1 231 0
 227 00a0 FFF7FEFF 		bl	BSP_RGB_Off
 228              	.L10:
 232:..\../app.c   ****             }
 233:..\../app.c   ****         }
 234:..\../app.c   ****         
 235:..\../app.c   ****         if (led_status == DEF_ACTIVE) {                         /* -------------- UPDATE RGB COLOR 
 229              		.loc 1 235 0
 230 00a4 0E23     		movs	r3, #14
 231 00a6 FB18     		adds	r3, r7, r3
 232 00a8 1B78     		ldrb	r3, [r3]
 233 00aa 012B     		cmp	r3, #1
 234 00ac 04D1     		bne	.L11
 236:..\../app.c   ****             BSP_RGB_ColorSet(uC_Probe_RGB_Val);                 /* IF LED Status Flag is Active, Up
 235              		.loc 1 236 0
 236 00ae 074B     		ldr	r3, .L13+4
 237 00b0 1B68     		ldr	r3, [r3]
 238 00b2 1800     		movs	r0, r3
 239 00b4 FFF7FEFF 		bl	BSP_RGB_ColorSet
 240              	.L11:
 237:..\../app.c   ****         }
 238:..\../app.c   ****         
 239:..\../app.c   ****         OSTimeDlyHMSM(0u, 0u, 0u, 100u);
 241              		.loc 1 239 0
 242 00b8 6423     		movs	r3, #100
 243 00ba 0022     		movs	r2, #0
 244 00bc 0021     		movs	r1, #0
 245 00be 0020     		movs	r0, #0
 246 00c0 FFF7FEFF 		bl	OSTimeDlyHMSM
 240:..\../app.c   ****     }
 247              		.loc 1 240 0
 248 00c4 B2E7     		b	.L12
 249              	.L14:
 250 00c6 C046     		.align	2
 251              	.L13:
 252 00c8 00000000 		.word	uC_Probe_PB_Trigger
 253 00cc 00000000 		.word	uC_Probe_RGB_Val
 254              		.cfi_endproc
 255              	.LFE35:
 256              		.size	App_TaskStart, .-App_TaskStart
 257              		.section	.rodata
 258 000f 00       		.align	2
 259              	.LC10:
 260 0010 44656D6F 		.ascii	"Demo: Sensor Task\000"
 260      3A205365 
 260      6E736F72 
ARM GAS  C:\Users\ADMINI~1\AppData\Local\Temp\ccIVsY08.s 			page 10


 260      20546173 
 260      6B00
 261              		.section	.text.App_TaskCreate,"ax",%progbits
 262              		.align	2
 263              		.code	16
 264              		.thumb_func
 265              		.type	App_TaskCreate, %function
 266              	App_TaskCreate:
 267              	.LFB36:
 241:..\../app.c   **** }
 242:..\../app.c   **** 
 243:..\../app.c   **** 
 244:..\../app.c   **** /*
 245:..\../app.c   **** ***************************************************************************************************
 246:..\../app.c   **** *                                          App_TaskCreate()
 247:..\../app.c   **** *
 248:..\../app.c   **** * Description : Create Application Tasks.
 249:..\../app.c   **** *
 250:..\../app.c   **** * Argument(s) : none
 251:..\../app.c   **** *
 252:..\../app.c   **** * Return(s)   : none
 253:..\../app.c   **** *
 254:..\../app.c   **** * Caller(s)   : AppTaskStart()
 255:..\../app.c   **** *
 256:..\../app.c   **** * Note(s)     : (1) The Following Task(s) were created to simulate Cypress' CY8CKIT-044 Sensor Hub
 257:..\../app.c   **** *                   demo using Micrium's uC/OS-III Kernel.
 258:..\../app.c   **** *
 259:..\../app.c   **** *               (2) Although Multiple Tasks were used for this demo, One (1) Task can manage all 
 260:..\../app.c   **** *                   services required to simulate the demo. The use of Mutiple tasks is used as an
 261:..\../app.c   **** *                   example for Multitasking with uC/OS-III.
 262:..\../app.c   **** ***************************************************************************************************
 263:..\../app.c   **** */
 264:..\../app.c   **** 
 265:..\../app.c   **** void  App_TaskCreate (void)
 266:..\../app.c   **** {
 268              		.loc 1 266 0
 269              		.cfi_startproc
 270              		@ args = 0, pretend = 0, frame = 8
 271              		@ frame_needed = 1, uses_anonymous_args = 0
 272 0000 80B5     		push	{r7, lr}
 273              		.cfi_def_cfa_offset 8
 274              		.cfi_offset 7, -8
 275              		.cfi_offset 14, -4
 276 0002 88B0     		sub	sp, sp, #32
 277              		.cfi_def_cfa_offset 40
 278 0004 06AF     		add	r7, sp, #24
 279              		.cfi_def_cfa 7, 16
 267:..\../app.c   ****     OS_ERR  os_err;
 268:..\../app.c   **** 
 269:..\../app.c   ****     
 270:..\../app.c   ****     OSTaskCreateExt( App_Demo_SensorTask,                       /* Task that Manages Temp, Accel & 
 280              		.loc 1 270 0
 281 0006 0D4A     		ldr	r2, .L16
 282 0008 0D48     		ldr	r0, .L16+4
 283 000a 0323     		movs	r3, #3
 284 000c 0493     		str	r3, [sp, #16]
 285 000e 0023     		movs	r3, #0
ARM GAS  C:\Users\ADMINI~1\AppData\Local\Temp\ccIVsY08.s 			page 11


 286 0010 0393     		str	r3, [sp, #12]
 287 0012 8023     		movs	r3, #128
 288 0014 5B00     		lsls	r3, r3, #1
 289 0016 0293     		str	r3, [sp, #8]
 290 0018 0A4B     		ldr	r3, .L16+8
 291 001a 0193     		str	r3, [sp, #4]
 292 001c 0323     		movs	r3, #3
 293 001e 0093     		str	r3, [sp]
 294 0020 0323     		movs	r3, #3
 295 0022 0021     		movs	r1, #0
 296 0024 FFF7FEFF 		bl	OSTaskCreateExt
 271:..\../app.c   ****                      0u,
 272:..\../app.c   ****                     &App_Demo_SensorTaskStk[APP_CFG_SENSOR_TASK_STK_SIZE - 1u],
 273:..\../app.c   ****                      APP_CFG_SENSOR_TASK_PRIO,
 274:..\../app.c   ****                      APP_CFG_SENSOR_TASK_PRIO,
 275:..\../app.c   ****                     &App_Demo_SensorTaskStk[0u],
 276:..\../app.c   ****                      APP_CFG_SENSOR_TASK_STK_SIZE,
 277:..\../app.c   ****                      0u,
 278:..\../app.c   ****                     (OS_TASK_OPT_STK_CHK | OS_TASK_OPT_STK_CLR));
 279:..\../app.c   **** 
 280:..\../app.c   **** #if (OS_TASK_NAME_EN > 0u)
 281:..\../app.c   ****     OSTaskNameSet(          APP_CFG_SENSOR_TASK_PRIO,
 297              		.loc 1 281 0
 298 0028 FA1D     		adds	r2, r7, #7
 299 002a 074B     		ldr	r3, .L16+12
 300 002c 1900     		movs	r1, r3
 301 002e 0320     		movs	r0, #3
 302 0030 FFF7FEFF 		bl	OSTaskNameSet
 282:..\../app.c   ****                   (INT8U *)"Demo: Sensor Task",
 283:..\../app.c   ****                            &os_err);
 284:..\../app.c   **** #endif
 285:..\../app.c   **** }
 303              		.loc 1 285 0
 304 0034 C046     		nop
 305 0036 BD46     		mov	sp, r7
 306 0038 02B0     		add	sp, sp, #8
 307              		@ sp needed
 308 003a 80BD     		pop	{r7, pc}
 309              	.L17:
 310              		.align	2
 311              	.L16:
 312 003c 00080000 		.word	App_Demo_SensorTaskStk+1020
 313 0040 00000000 		.word	App_Demo_SensorTask
 314 0044 04040000 		.word	App_Demo_SensorTaskStk
 315 0048 10000000 		.word	.LC10
 316              		.cfi_endproc
 317              	.LFE36:
 318              		.size	App_TaskCreate, .-App_TaskCreate
 319              		.section	.text.App_ObjCreate,"ax",%progbits
 320              		.align	2
 321              		.code	16
 322              		.thumb_func
 323              		.type	App_ObjCreate, %function
 324              	App_ObjCreate:
 325              	.LFB37:
 286:..\../app.c   **** 
 287:..\../app.c   **** 
ARM GAS  C:\Users\ADMINI~1\AppData\Local\Temp\ccIVsY08.s 			page 12


 288:..\../app.c   **** /*
 289:..\../app.c   **** ***************************************************************************************************
 290:..\../app.c   **** *                                          App_ObjCreate()
 291:..\../app.c   **** *
 292:..\../app.c   **** * Description : Create Application Kernel Objects Tasks.
 293:..\../app.c   **** *
 294:..\../app.c   **** * Argument(s) : none
 295:..\../app.c   **** *
 296:..\../app.c   **** * Return(s)   : none
 297:..\../app.c   **** *
 298:..\../app.c   **** * Caller(s)   : AppTaskStart()
 299:..\../app.c   **** *
 300:..\../app.c   **** * Note(s)     : none.
 301:..\../app.c   **** ***************************************************************************************************
 302:..\../app.c   **** */
 303:..\../app.c   **** 
 304:..\../app.c   **** void  App_ObjCreate (void)
 305:..\../app.c   **** {
 326              		.loc 1 305 0
 327              		.cfi_startproc
 328              		@ args = 0, pretend = 0, frame = 0
 329              		@ frame_needed = 1, uses_anonymous_args = 0
 330 0000 80B5     		push	{r7, lr}
 331              		.cfi_def_cfa_offset 8
 332              		.cfi_offset 7, -8
 333              		.cfi_offset 14, -4
 334 0002 00AF     		add	r7, sp, #0
 335              		.cfi_def_cfa_register 7
 306:..\../app.c   ****     
 307:..\../app.c   **** }
 336              		.loc 1 307 0
 337 0004 C046     		nop
 338 0006 BD46     		mov	sp, r7
 339              		@ sp needed
 340 0008 80BD     		pop	{r7, pc}
 341              		.cfi_endproc
 342              	.LFE37:
 343              		.size	App_ObjCreate, .-App_ObjCreate
 344              		.global	__aeabi_uidiv
 345              		.global	__aeabi_ui2f
 346              		.global	__aeabi_f2d
 347              		.global	__aeabi_dmul
 348              		.global	__aeabi_dadd
 349              		.global	__aeabi_d2f
 350 000a C046     		.section	.text.App_Demo_SensorTask,"ax",%progbits
 351              		.align	2
 352              		.code	16
 353              		.thumb_func
 354              		.type	App_Demo_SensorTask, %function
 355              	App_Demo_SensorTask:
 356              	.LFB38:
 308:..\../app.c   **** 
 309:..\../app.c   **** 
 310:..\../app.c   **** /*
 311:..\../app.c   **** ***************************************************************************************************
 312:..\../app.c   **** ***************************************************************************************************
 313:..\../app.c   **** *                                             LOCAL TASKS
ARM GAS  C:\Users\ADMINI~1\AppData\Local\Temp\ccIVsY08.s 			page 13


 314:..\../app.c   **** ***************************************************************************************************
 315:..\../app.c   **** ***************************************************************************************************
 316:..\../app.c   **** */
 317:..\../app.c   **** 
 318:..\../app.c   **** /*
 319:..\../app.c   **** ***************************************************************************************************
 320:..\../app.c   **** *                                        App_Demo_SensorTask()
 321:..\../app.c   **** *
 322:..\../app.c   **** * Description : Manage CY8CKIT-044's Temperature Sensor, Ambient Light Sensor, and I2C Communicatio
 323:..\../app.c   **** *               to the KXTJ2-1009 3-Axis Accelerometer.
 324:..\../app.c   **** *
 325:..\../app.c   **** * Argument(s) : none
 326:..\../app.c   **** *
 327:..\../app.c   **** * Return(s)   : none
 328:..\../app.c   **** *
 329:..\../app.c   **** * Caller(s)   : AppTaskStart()
 330:..\../app.c   **** *
 331:..\../app.c   **** * Note(s)     : (1) The use/start of the DMA Component also sets the source of the Global Variable 
 332:..\../app.c   **** *                   will be used to house the Ambient Light data Autiomatically that uC/Probe will
 333:..\../app.c   **** *                   Display.
 334:..\../app.c   **** *
 335:..\../app.c   **** *               (2) The Ambient Light Sensor can go to a max range of 2000, however in normal 'indo
 336:..\../app.c   **** *                   light the Light doesn't go higher than 50. For this reason, an initial Variable
 337:..\../app.c   **** *                   was introduced to regulate the Probe Variable. When surrounded in Total Darknes
 338:..\../app.c   **** *                   the Ambient Light Sensor cannot successfully read the proper Lighting value, an
 339:..\../app.c   **** *                   simulate a variable overflow. To keep this from occurring, a check has been int
 340:..\../app.c   **** *                   to check if the 'Light Value' is greater than the configured range (50), the
 341:..\../app.c   **** *                   uC/Probe variable will be defaulted to '0'.
 342:..\../app.c   **** ***************************************************************************************************
 343:..\../app.c   **** */
 344:..\../app.c   **** 
 345:..\../app.c   **** void  App_Demo_SensorTask (void *p_arg)
 346:..\../app.c   **** {
 357              		.loc 1 346 0
 358              		.cfi_startproc
 359              		@ args = 0, pretend = 0, frame = 16
 360              		@ frame_needed = 1, uses_anonymous_args = 0
 361 0000 90B5     		push	{r4, r7, lr}
 362              		.cfi_def_cfa_offset 12
 363              		.cfi_offset 4, -12
 364              		.cfi_offset 7, -8
 365              		.cfi_offset 14, -4
 366 0002 85B0     		sub	sp, sp, #20
 367              		.cfi_def_cfa_offset 32
 368 0004 00AF     		add	r7, sp, #0
 369              		.cfi_def_cfa_register 7
 370 0006 7860     		str	r0, [r7, #4]
 347:..\../app.c   ****     OS_ERR      os_err;
 348:..\../app.c   ****     CPU_INT08U  temp_status;
 349:..\../app.c   ****     CPU_INT16U  temp_val;
 350:..\../app.c   ****     CPU_FP32    temp_conv;
 351:..\../app.c   ****     
 352:..\../app.c   ****     
 353:..\../app.c   ****     (void)p_arg;
 354:..\../app.c   ****                                                                 /* ---------------- AMBIENT LIGHT I
 355:..\../app.c   ****                                                                 /* Enable the DMA Component and set
 356:..\../app.c   ****                                                                 /* .. DMA transfer as well as the D
ARM GAS  C:\Users\ADMINI~1\AppData\Local\Temp\ccIVsY08.s 			page 14


 357:..\../app.c   ****     DMA_Start((void *)ADC_SAR_CHAN0_RESULT_PTR, &App_Demo_Ambient_InitVar);
 371              		.loc 1 357 0
 372 0008 2D4B     		ldr	r3, .L24
 373 000a 2E4A     		ldr	r2, .L24+4
 374 000c 1900     		movs	r1, r3
 375 000e 1000     		movs	r0, r2
 376 0010 FFF7FEFF 		bl	DMA_Start
 358:..\../app.c   ****     
 359:..\../app.c   ****     ADC_StartConvert();                                         /* Start ADC Conversions, Save to G
 377              		.loc 1 359 0
 378 0014 FFF7FEFF 		bl	ADC_StartConvert
 379              	.L23:
 360:..\../app.c   ****     
 361:..\../app.c   ****     while (DEF_TRUE) {                                          /* Task body, always written as an 
 362:..\../app.c   ****                                                                 /* ----------------- TEMP SENSOR RE
 363:..\../app.c   ****         temp_status = Temp_Sensor_ConversionStatus();           /* Get the Temperature Sensor's Con
 380              		.loc 1 363 0
 381 0018 0F23     		movs	r3, #15
 382 001a FC18     		adds	r4, r7, r3
 383 001c FFF7FEFF 		bl	Temp_Sensor_ConversionStatus
 384 0020 0300     		movs	r3, r0
 385 0022 2370     		strb	r3, [r4]
 364:..\../app.c   ****         
 365:..\../app.c   ****         if (temp_status == Temp_Sensor_STATUS_COMPLETE) {       /* If Conversion is Complete, Rd & 
 386              		.loc 1 365 0
 387 0024 0F23     		movs	r3, #15
 388 0026 FB18     		adds	r3, r7, r3
 389 0028 1B78     		ldrb	r3, [r3]
 390 002a 012B     		cmp	r3, #1
 391 002c 2FD1     		bne	.L20
 366:..\../app.c   ****                                                                 /* Temperature Returned is in (*C).
 367:..\../app.c   ****             temp_val          = Temp_Sensor_GetTemperature(APP_TEMP_SENSOR_NUM);
 392              		.loc 1 367 0
 393 002e 0020     		movs	r0, #0
 394 0030 FFF7FEFF 		bl	Temp_Sensor_GetTemperature
 395 0034 0300     		movs	r3, r0
 396 0036 1A00     		movs	r2, r3
 397 0038 0C23     		movs	r3, #12
 398 003a FB18     		adds	r3, r7, r3
 399 003c 1A80     		strh	r2, [r3]
 368:..\../app.c   ****             temp_conv         = (temp_val / 100u);              /* Temp Value must be Factored Down
 400              		.loc 1 368 0
 401 003e 0C23     		movs	r3, #12
 402 0040 FB18     		adds	r3, r7, r3
 403 0042 1B88     		ldrh	r3, [r3]
 404 0044 6421     		movs	r1, #100
 405 0046 1800     		movs	r0, r3
 406 0048 FFF7FEFF 		bl	__aeabi_uidiv
 407 004c 0300     		movs	r3, r0
 408 004e 9BB2     		uxth	r3, r3
 409 0050 1800     		movs	r0, r3
 410 0052 FFF7FEFF 		bl	__aeabi_ui2f
 411 0056 031C     		adds	r3, r0, #0
 412 0058 BB60     		str	r3, [r7, #8]
 369:..\../app.c   ****             uC_Probe_Temp_Val = ((temp_conv * 1.8) + 32u);      /* Convert Temp from (*C) to (*F) t
 413              		.loc 1 369 0
 414 005a B868     		ldr	r0, [r7, #8]
ARM GAS  C:\Users\ADMINI~1\AppData\Local\Temp\ccIVsY08.s 			page 15


 415 005c FFF7FEFF 		bl	__aeabi_f2d
 416 0060 194A     		ldr	r2, .L24+8
 417 0062 1A4B     		ldr	r3, .L24+12
 418 0064 FFF7FEFF 		bl	__aeabi_dmul
 419 0068 0300     		movs	r3, r0
 420 006a 0C00     		movs	r4, r1
 421 006c 1800     		movs	r0, r3
 422 006e 2100     		movs	r1, r4
 423 0070 0022     		movs	r2, #0
 424 0072 174B     		ldr	r3, .L24+16
 425 0074 FFF7FEFF 		bl	__aeabi_dadd
 426 0078 0300     		movs	r3, r0
 427 007a 0C00     		movs	r4, r1
 428 007c 1800     		movs	r0, r3
 429 007e 2100     		movs	r1, r4
 430 0080 FFF7FEFF 		bl	__aeabi_d2f
 431 0084 021C     		adds	r2, r0, #0
 432 0086 134B     		ldr	r3, .L24+20
 433 0088 1A60     		str	r2, [r3]
 370:..\../app.c   ****             
 371:..\../app.c   ****             Temp_Sensor_Trigger();                              /* Trigger next conversion when thi
 434              		.loc 1 371 0
 435 008a FFF7FEFF 		bl	Temp_Sensor_Trigger
 436              	.L20:
 372:..\../app.c   ****         }
 373:..\../app.c   ****                                                                 /* --------------- AMBIENT LIGHT SE
 374:..\../app.c   ****         if (App_Demo_Ambient_InitVar > APP_AMBIENT_DEMO_MAX_VAL) {
 437              		.loc 1 374 0
 438 008e 0C4B     		ldr	r3, .L24
 439 0090 1B88     		ldrh	r3, [r3]
 440 0092 322B     		cmp	r3, #50
 441 0094 03D9     		bls	.L21
 375:..\../app.c   ****             uC_Probe_AmbientLight = 0u;                         /* See Note (2).                   
 442              		.loc 1 375 0
 443 0096 104B     		ldr	r3, .L24+24
 444 0098 0022     		movs	r2, #0
 445 009a 1A80     		strh	r2, [r3]
 446 009c 03E0     		b	.L22
 447              	.L21:
 376:..\../app.c   ****         } else {
 377:..\../app.c   ****             uC_Probe_AmbientLight = App_Demo_Ambient_InitVar;
 448              		.loc 1 377 0
 449 009e 084B     		ldr	r3, .L24
 450 00a0 1A88     		ldrh	r2, [r3]
 451 00a2 0D4B     		ldr	r3, .L24+24
 452 00a4 1A80     		strh	r2, [r3]
 453              	.L22:
 378:..\../app.c   ****         }
 379:..\../app.c   ****         
 380:..\../app.c   ****                                                                 /* --------------- ACCELEROMETER SE
 381:..\../app.c   ****         BSP_Accel_Rd(&uC_Probe_Accel_X_Axis,                    /* Read Accelerometer's X, Y, & Z-A
 454              		.loc 1 381 0
 455 00a6 0D4A     		ldr	r2, .L24+28
 456 00a8 0D49     		ldr	r1, .L24+32
 457 00aa 0E4B     		ldr	r3, .L24+36
 458 00ac 1800     		movs	r0, r3
 459 00ae FFF7FEFF 		bl	BSP_Accel_Rd
ARM GAS  C:\Users\ADMINI~1\AppData\Local\Temp\ccIVsY08.s 			page 16


 382:..\../app.c   ****                      &uC_Probe_Accel_Y_Axis,
 383:..\../app.c   ****                      &uC_Probe_Accel_Z_Axis);
 384:..\../app.c   ****         
 385:..\../app.c   ****         OSTimeDlyHMSM(0u, 0u, 0u, 50u);
 460              		.loc 1 385 0
 461 00b2 3223     		movs	r3, #50
 462 00b4 0022     		movs	r2, #0
 463 00b6 0021     		movs	r1, #0
 464 00b8 0020     		movs	r0, #0
 465 00ba FFF7FEFF 		bl	OSTimeDlyHMSM
 386:..\../app.c   ****     }
 466              		.loc 1 386 0
 467 00be ABE7     		b	.L23
 468              	.L25:
 469              		.align	2
 470              	.L24:
 471 00c0 04080000 		.word	App_Demo_Ambient_InitVar
 472 00c4 80013A40 		.word	1077543296
 473 00c8 CDCCCCCC 		.word	-858993459
 474 00cc CCCCFC3F 		.word	1073532108
 475 00d0 00004040 		.word	1077936128
 476 00d4 00000000 		.word	uC_Probe_Temp_Val
 477 00d8 00000000 		.word	uC_Probe_AmbientLight
 478 00dc 00000000 		.word	uC_Probe_Accel_Z_Axis
 479 00e0 00000000 		.word	uC_Probe_Accel_Y_Axis
 480 00e4 00000000 		.word	uC_Probe_Accel_X_Axis
 481              		.cfi_endproc
 482              	.LFE38:
 483              		.size	App_Demo_SensorTask, .-App_Demo_SensorTask
 484              		.text
 485              	.Letext0:
 486              		.file 2 "..\\..\\..\\..\\..\\..\\Software\\uCOS-II\\Ports\\ARM-Cortex-M0\\Generic\\GNU/os_cpu.h"
 487              		.file 3 "..\\..\\..\\..\\..\\..\\Software\\uC-CPU\\ARM-Cortex-M0\\GNU/cpu.h"
 488              		.file 4 "Generated_Source\\PSoC4/cytypes.h"
 489              		.file 5 "..\\..\\..\\..\\..\\..\\Software\\uCOS-II\\Source/os.h"