ARM GAS  C:\Users\ADMINI~1\AppData\Local\Temp\ccV12XFA.s 			page 1


   1              		.syntax unified
   2              		.cpu cortex-m0
   3              		.fpu softvfp
   4              		.eabi_attribute 20, 1
   5              		.eabi_attribute 21, 1
   6              		.eabi_attribute 23, 3
   7              		.eabi_attribute 24, 1
   8              		.eabi_attribute 25, 1
   9              		.eabi_attribute 26, 1
  10              		.eabi_attribute 30, 6
  11              		.eabi_attribute 34, 0
  12              		.eabi_attribute 18, 4
  13              		.thumb
  14              		.syntax unified
  15              		.file	"app_hooks.c"
  16              		.text
  17              	.Ltext0:
  18              		.cfi_sections	.debug_frame
  19              		.section	.text.App_TaskCreateHook,"ax",%progbits
  20              		.align	2
  21              		.global	App_TaskCreateHook
  22              		.code	16
  23              		.thumb_func
  24              		.type	App_TaskCreateHook, %function
  25              	App_TaskCreateHook:
  26              	.LFB1:
  27              		.file 1 "..\\..\\app_hooks.c"
   1:..\../app_hooks.c **** /*
   2:..\../app_hooks.c **** ***************************************************************************************************
   3:..\../app_hooks.c **** *                                              EXAMPLE CODE
   4:..\../app_hooks.c **** *
   5:..\../app_hooks.c **** *                          (c) Copyright 2003-2009; Micrium, Inc.; Weston, FL
   6:..\../app_hooks.c **** *
   7:..\../app_hooks.c **** *               All rights reserved.  Protected by international copyright laws.
   8:..\../app_hooks.c **** *               Knowledge of the source code may NOT be used to develop a similar product.
   9:..\../app_hooks.c **** *               Please help us continue to provide the Embedded community with the finest
  10:..\../app_hooks.c **** *               software available.  Your honesty is greatly appreciated.
  11:..\../app_hooks.c **** ***************************************************************************************************
  12:..\../app_hooks.c **** */
  13:..\../app_hooks.c **** 
  14:..\../app_hooks.c **** /*
  15:..\../app_hooks.c **** ***************************************************************************************************
  16:..\../app_hooks.c **** *
  17:..\../app_hooks.c **** *                                             uC/OS-II 
  18:..\../app_hooks.c **** *                                         Application Hooks
  19:..\../app_hooks.c **** *
  20:..\../app_hooks.c **** * Filename      : app_hooks.c
  21:..\../app_hooks.c **** * Version       : V1.00
  22:..\../app_hooks.c **** * Programmer(s) : FT
  23:..\../app_hooks.c **** ***************************************************************************************************
  24:..\../app_hooks.c **** */
  25:..\../app_hooks.c **** 
  26:..\../app_hooks.c **** /*
  27:..\../app_hooks.c **** ***************************************************************************************************
  28:..\../app_hooks.c **** *                                             INCLUDE FILES
  29:..\../app_hooks.c **** ***************************************************************************************************
  30:..\../app_hooks.c **** */
ARM GAS  C:\Users\ADMINI~1\AppData\Local\Temp\ccV12XFA.s 			page 2


  31:..\../app_hooks.c **** 
  32:..\../app_hooks.c **** #include  <os.h>
  33:..\../app_hooks.c **** 
  34:..\../app_hooks.c **** /*
  35:..\../app_hooks.c **** ***************************************************************************************************
  36:..\../app_hooks.c **** *                                       EXTERN  GLOBAL VARIABLES
  37:..\../app_hooks.c **** ***************************************************************************************************
  38:..\../app_hooks.c **** */
  39:..\../app_hooks.c **** 
  40:..\../app_hooks.c **** 
  41:..\../app_hooks.c **** /*
  42:..\../app_hooks.c **** ***************************************************************************************************
  43:..\../app_hooks.c **** *                                           LOCAL CONSTANTS
  44:..\../app_hooks.c **** ***************************************************************************************************
  45:..\../app_hooks.c **** */
  46:..\../app_hooks.c **** 
  47:..\../app_hooks.c **** 
  48:..\../app_hooks.c **** /*
  49:..\../app_hooks.c **** ***************************************************************************************************
  50:..\../app_hooks.c **** *                                          LOCAL DATA TYPES
  51:..\../app_hooks.c **** ***************************************************************************************************
  52:..\../app_hooks.c **** */
  53:..\../app_hooks.c **** 
  54:..\../app_hooks.c **** /*
  55:..\../app_hooks.c **** ***************************************************************************************************
  56:..\../app_hooks.c **** *                                            LOCAL TABLES
  57:..\../app_hooks.c **** ***************************************************************************************************
  58:..\../app_hooks.c **** */
  59:..\../app_hooks.c **** 
  60:..\../app_hooks.c **** 
  61:..\../app_hooks.c **** /*
  62:..\../app_hooks.c **** ***************************************************************************************************
  63:..\../app_hooks.c **** *                                       LOCAL GLOBAL VARIABLES
  64:..\../app_hooks.c **** ***************************************************************************************************
  65:..\../app_hooks.c **** */
  66:..\../app_hooks.c **** 
  67:..\../app_hooks.c **** 
  68:..\../app_hooks.c **** /*
  69:..\../app_hooks.c **** ***************************************************************************************************
  70:..\../app_hooks.c **** *                                      LOCAL FUNCTION PROTOTYPES
  71:..\../app_hooks.c **** ***************************************************************************************************
  72:..\../app_hooks.c **** */
  73:..\../app_hooks.c **** 
  74:..\../app_hooks.c **** 
  75:..\../app_hooks.c **** 
  76:..\../app_hooks.c **** /*
  77:..\../app_hooks.c **** ***************************************************************************************************
  78:..\../app_hooks.c **** ***************************************************************************************************
  79:..\../app_hooks.c **** **                                        GLOBAL FUNCTIONS
  80:..\../app_hooks.c **** ***************************************************************************************************
  81:..\../app_hooks.c **** ***************************************************************************************************
  82:..\../app_hooks.c **** */
  83:..\../app_hooks.c **** 
  84:..\../app_hooks.c **** /*
  85:..\../app_hooks.c **** ***************************************************************************************************
  86:..\../app_hooks.c **** ***************************************************************************************************
  87:..\../app_hooks.c **** **                                         uC/OS-II APP HOOKS
ARM GAS  C:\Users\ADMINI~1\AppData\Local\Temp\ccV12XFA.s 			page 3


  88:..\../app_hooks.c **** ***************************************************************************************************
  89:..\../app_hooks.c **** ***************************************************************************************************
  90:..\../app_hooks.c **** */
  91:..\../app_hooks.c **** 
  92:..\../app_hooks.c **** #if (OS_APP_HOOKS_EN > 0)
  93:..\../app_hooks.c **** 
  94:..\../app_hooks.c **** /*
  95:..\../app_hooks.c **** ***************************************************************************************************
  96:..\../app_hooks.c **** *                                      TASK CREATION HOOK (APPLICATION)
  97:..\../app_hooks.c **** *
  98:..\../app_hooks.c **** * Description : This function is called when a task is created.
  99:..\../app_hooks.c **** *
 100:..\../app_hooks.c **** * Argument(s) : ptcb   is a pointer to the task control block of the task being created.
 101:..\../app_hooks.c **** *
 102:..\../app_hooks.c **** * Note(s)     : (1) Interrupts are disabled during this call.
 103:..\../app_hooks.c **** ***************************************************************************************************
 104:..\../app_hooks.c **** */
 105:..\../app_hooks.c **** 
 106:..\../app_hooks.c **** void  App_TaskCreateHook (OS_TCB *ptcb)
 107:..\../app_hooks.c **** {
  28              		.loc 1 107 0
  29              		.cfi_startproc
  30              		@ args = 0, pretend = 0, frame = 8
  31              		@ frame_needed = 1, uses_anonymous_args = 0
  32 0000 80B5     		push	{r7, lr}
  33              		.cfi_def_cfa_offset 8
  34              		.cfi_offset 7, -8
  35              		.cfi_offset 14, -4
  36 0002 82B0     		sub	sp, sp, #8
  37              		.cfi_def_cfa_offset 16
  38 0004 00AF     		add	r7, sp, #0
  39              		.cfi_def_cfa_register 7
  40 0006 7860     		str	r0, [r7, #4]
 108:..\../app_hooks.c **** #if (APP_CFG_PROBE_OS_PLUGIN_EN == DEF_ENABLED) && (OS_PROBE_HOOKS_EN > 0)
 109:..\../app_hooks.c ****     OSProbe_TaskCreateHook(ptcb);
 110:..\../app_hooks.c **** #endif
 111:..\../app_hooks.c **** }
  41              		.loc 1 111 0
  42 0008 C046     		nop
  43 000a BD46     		mov	sp, r7
  44 000c 02B0     		add	sp, sp, #8
  45              		@ sp needed
  46 000e 80BD     		pop	{r7, pc}
  47              		.cfi_endproc
  48              	.LFE1:
  49              		.size	App_TaskCreateHook, .-App_TaskCreateHook
  50              		.section	.text.App_TaskDelHook,"ax",%progbits
  51              		.align	2
  52              		.global	App_TaskDelHook
  53              		.code	16
  54              		.thumb_func
  55              		.type	App_TaskDelHook, %function
  56              	App_TaskDelHook:
  57              	.LFB2:
 112:..\../app_hooks.c **** 
 113:..\../app_hooks.c **** /*
 114:..\../app_hooks.c **** ***************************************************************************************************
ARM GAS  C:\Users\ADMINI~1\AppData\Local\Temp\ccV12XFA.s 			page 4


 115:..\../app_hooks.c **** *                                    TASK DELETION HOOK (APPLICATION)
 116:..\../app_hooks.c **** *
 117:..\../app_hooks.c **** * Description : This function is called when a task is deleted.
 118:..\../app_hooks.c **** *
 119:..\../app_hooks.c **** * Argument(s) : ptcb   is a pointer to the task control block of the task being deleted.
 120:..\../app_hooks.c **** *
 121:..\../app_hooks.c **** * Note(s)     : (1) Interrupts are disabled during this call.
 122:..\../app_hooks.c **** ***************************************************************************************************
 123:..\../app_hooks.c **** */
 124:..\../app_hooks.c **** 
 125:..\../app_hooks.c **** void  App_TaskDelHook (OS_TCB *ptcb)
 126:..\../app_hooks.c **** {
  58              		.loc 1 126 0
  59              		.cfi_startproc
  60              		@ args = 0, pretend = 0, frame = 8
  61              		@ frame_needed = 1, uses_anonymous_args = 0
  62 0000 80B5     		push	{r7, lr}
  63              		.cfi_def_cfa_offset 8
  64              		.cfi_offset 7, -8
  65              		.cfi_offset 14, -4
  66 0002 82B0     		sub	sp, sp, #8
  67              		.cfi_def_cfa_offset 16
  68 0004 00AF     		add	r7, sp, #0
  69              		.cfi_def_cfa_register 7
  70 0006 7860     		str	r0, [r7, #4]
 127:..\../app_hooks.c ****     (void)ptcb;
 128:..\../app_hooks.c **** }
  71              		.loc 1 128 0
  72 0008 C046     		nop
  73 000a BD46     		mov	sp, r7
  74 000c 02B0     		add	sp, sp, #8
  75              		@ sp needed
  76 000e 80BD     		pop	{r7, pc}
  77              		.cfi_endproc
  78              	.LFE2:
  79              		.size	App_TaskDelHook, .-App_TaskDelHook
  80              		.section	.text.App_TaskIdleHook,"ax",%progbits
  81              		.align	2
  82              		.global	App_TaskIdleHook
  83              		.code	16
  84              		.thumb_func
  85              		.type	App_TaskIdleHook, %function
  86              	App_TaskIdleHook:
  87              	.LFB3:
 129:..\../app_hooks.c **** 
 130:..\../app_hooks.c **** /*
 131:..\../app_hooks.c **** ***************************************************************************************************
 132:..\../app_hooks.c **** *                                      IDLE TASK HOOK (APPLICATION)
 133:..\../app_hooks.c **** *
 134:..\../app_hooks.c **** * Description : This function is called by OSTaskIdleHook(), which is called by the idle task.  Thi
 135:..\../app_hooks.c **** *               has been added to allow you to do such things as STOP the CPU to conserve power.
 136:..\../app_hooks.c **** *
 137:..\../app_hooks.c **** * Argument(s) : none.
 138:..\../app_hooks.c **** *
 139:..\../app_hooks.c **** * Note(s)     : (1) Interrupts are enabled during this call.
 140:..\../app_hooks.c **** ***************************************************************************************************
 141:..\../app_hooks.c **** */
ARM GAS  C:\Users\ADMINI~1\AppData\Local\Temp\ccV12XFA.s 			page 5


 142:..\../app_hooks.c **** 
 143:..\../app_hooks.c **** #if OS_VERSION >= 251
 144:..\../app_hooks.c **** void  App_TaskIdleHook (void)
 145:..\../app_hooks.c **** {
  88              		.loc 1 145 0
  89              		.cfi_startproc
  90              		@ args = 0, pretend = 0, frame = 0
  91              		@ frame_needed = 1, uses_anonymous_args = 0
  92 0000 80B5     		push	{r7, lr}
  93              		.cfi_def_cfa_offset 8
  94              		.cfi_offset 7, -8
  95              		.cfi_offset 14, -4
  96 0002 00AF     		add	r7, sp, #0
  97              		.cfi_def_cfa_register 7
 146:..\../app_hooks.c **** }
  98              		.loc 1 146 0
  99 0004 C046     		nop
 100 0006 BD46     		mov	sp, r7
 101              		@ sp needed
 102 0008 80BD     		pop	{r7, pc}
 103              		.cfi_endproc
 104              	.LFE3:
 105              		.size	App_TaskIdleHook, .-App_TaskIdleHook
 106              		.section	.text.App_TaskStatHook,"ax",%progbits
 107              		.align	2
 108              		.global	App_TaskStatHook
 109              		.code	16
 110              		.thumb_func
 111              		.type	App_TaskStatHook, %function
 112              	App_TaskStatHook:
 113              	.LFB4:
 147:..\../app_hooks.c **** #endif
 148:..\../app_hooks.c **** 
 149:..\../app_hooks.c **** /*
 150:..\../app_hooks.c **** ***************************************************************************************************
 151:..\../app_hooks.c **** *                                        STATISTIC TASK HOOK (APPLICATION)
 152:..\../app_hooks.c **** *
 153:..\../app_hooks.c **** * Description : This function is called by OSTaskStatHook(), which is called every second by uC/OS-
 154:..\../app_hooks.c **** *               statistics task.  This allows your application to add functionality to the statisti
 155:..\../app_hooks.c **** *
 156:..\../app_hooks.c **** * Argument(s) : none.
 157:..\../app_hooks.c **** ***************************************************************************************************
 158:..\../app_hooks.c **** */
 159:..\../app_hooks.c **** 
 160:..\../app_hooks.c **** void  App_TaskStatHook (void)
 161:..\../app_hooks.c **** {
 114              		.loc 1 161 0
 115              		.cfi_startproc
 116              		@ args = 0, pretend = 0, frame = 0
 117              		@ frame_needed = 1, uses_anonymous_args = 0
 118 0000 80B5     		push	{r7, lr}
 119              		.cfi_def_cfa_offset 8
 120              		.cfi_offset 7, -8
 121              		.cfi_offset 14, -4
 122 0002 00AF     		add	r7, sp, #0
 123              		.cfi_def_cfa_register 7
 162:..\../app_hooks.c **** }
ARM GAS  C:\Users\ADMINI~1\AppData\Local\Temp\ccV12XFA.s 			page 6


 124              		.loc 1 162 0
 125 0004 C046     		nop
 126 0006 BD46     		mov	sp, r7
 127              		@ sp needed
 128 0008 80BD     		pop	{r7, pc}
 129              		.cfi_endproc
 130              	.LFE4:
 131              		.size	App_TaskStatHook, .-App_TaskStatHook
 132              		.section	.text.App_TaskReturnHook,"ax",%progbits
 133              		.align	2
 134              		.global	App_TaskReturnHook
 135              		.code	16
 136              		.thumb_func
 137              		.type	App_TaskReturnHook, %function
 138              	App_TaskReturnHook:
 139              	.LFB5:
 163:..\../app_hooks.c **** 
 164:..\../app_hooks.c **** /*
 165:..\../app_hooks.c **** ***************************************************************************************************
 166:..\../app_hooks.c **** *                                            TASK RETURN HOOK (APPLICATION)
 167:..\../app_hooks.c **** *
 168:..\../app_hooks.c **** * Description: This function is called if a task accidentally returns.  In other words, a task shou
 169:..\../app_hooks.c **** *              either be an infinite loop or delete itself when done.
 170:..\../app_hooks.c **** *
 171:..\../app_hooks.c **** * Arguments  : ptcb      is a pointer to the task control block of the task that is returning.
 172:..\../app_hooks.c **** *
 173:..\../app_hooks.c **** * Note(s)    : none
 174:..\../app_hooks.c **** ***************************************************************************************************
 175:..\../app_hooks.c **** */
 176:..\../app_hooks.c **** 
 177:..\../app_hooks.c **** 
 178:..\../app_hooks.c **** #if OS_VERSION >= 289
 179:..\../app_hooks.c **** void  App_TaskReturnHook (OS_TCB  *ptcb)
 180:..\../app_hooks.c **** {
 140              		.loc 1 180 0
 141              		.cfi_startproc
 142              		@ args = 0, pretend = 0, frame = 8
 143              		@ frame_needed = 1, uses_anonymous_args = 0
 144 0000 80B5     		push	{r7, lr}
 145              		.cfi_def_cfa_offset 8
 146              		.cfi_offset 7, -8
 147              		.cfi_offset 14, -4
 148 0002 82B0     		sub	sp, sp, #8
 149              		.cfi_def_cfa_offset 16
 150 0004 00AF     		add	r7, sp, #0
 151              		.cfi_def_cfa_register 7
 152 0006 7860     		str	r0, [r7, #4]
 181:..\../app_hooks.c ****     (void)ptcb;
 182:..\../app_hooks.c **** }
 153              		.loc 1 182 0
 154 0008 C046     		nop
 155 000a BD46     		mov	sp, r7
 156 000c 02B0     		add	sp, sp, #8
 157              		@ sp needed
 158 000e 80BD     		pop	{r7, pc}
 159              		.cfi_endproc
 160              	.LFE5:
ARM GAS  C:\Users\ADMINI~1\AppData\Local\Temp\ccV12XFA.s 			page 7


 161              		.size	App_TaskReturnHook, .-App_TaskReturnHook
 162              		.section	.text.App_TaskSwHook,"ax",%progbits
 163              		.align	2
 164              		.global	App_TaskSwHook
 165              		.code	16
 166              		.thumb_func
 167              		.type	App_TaskSwHook, %function
 168              	App_TaskSwHook:
 169              	.LFB6:
 183:..\../app_hooks.c **** #endif
 184:..\../app_hooks.c **** 
 185:..\../app_hooks.c **** /*
 186:..\../app_hooks.c **** ***************************************************************************************************
 187:..\../app_hooks.c **** *                                        TASK SWITCH HOOK (APPLICATION)
 188:..\../app_hooks.c **** *
 189:..\../app_hooks.c **** * Description : This function is called when a task switch is performed.  This allows you to perfor
 190:..\../app_hooks.c **** *               operations during a context switch.
 191:..\../app_hooks.c **** *
 192:..\../app_hooks.c **** * Argument(s) : none.
 193:..\../app_hooks.c **** *
 194:..\../app_hooks.c **** * Note(s)     : (1) Interrupts are disabled during this call.
 195:..\../app_hooks.c **** *
 196:..\../app_hooks.c **** *               (2) It is assumed that the global pointer 'OSTCBHighRdy' points to the TCB of the t
 197:..\../app_hooks.c **** *                   will be 'switched in' (i.e. the highest priority task) and, 'OSTCBCur' points t
 198:..\../app_hooks.c **** *                  task being switched out (i.e. the preempted task).
 199:..\../app_hooks.c **** ***************************************************************************************************
 200:..\../app_hooks.c **** */
 201:..\../app_hooks.c **** 
 202:..\../app_hooks.c **** #if OS_TASK_SW_HOOK_EN > 0
 203:..\../app_hooks.c **** void  App_TaskSwHook (void)
 204:..\../app_hooks.c **** {
 170              		.loc 1 204 0
 171              		.cfi_startproc
 172              		@ args = 0, pretend = 0, frame = 0
 173              		@ frame_needed = 1, uses_anonymous_args = 0
 174 0000 80B5     		push	{r7, lr}
 175              		.cfi_def_cfa_offset 8
 176              		.cfi_offset 7, -8
 177              		.cfi_offset 14, -4
 178 0002 00AF     		add	r7, sp, #0
 179              		.cfi_def_cfa_register 7
 205:..\../app_hooks.c **** #if (APP_CFG_PROBE_OS_PLUGIN_EN > 0) && (OS_PROBE_HOOKS_EN > 0)
 206:..\../app_hooks.c ****     OSProbe_TaskSwHook();
 207:..\../app_hooks.c **** #endif
 208:..\../app_hooks.c **** }
 180              		.loc 1 208 0
 181 0004 C046     		nop
 182 0006 BD46     		mov	sp, r7
 183              		@ sp needed
 184 0008 80BD     		pop	{r7, pc}
 185              		.cfi_endproc
 186              	.LFE6:
 187              		.size	App_TaskSwHook, .-App_TaskSwHook
 188              		.section	.text.App_TCBInitHook,"ax",%progbits
 189              		.align	2
 190              		.global	App_TCBInitHook
 191              		.code	16
ARM GAS  C:\Users\ADMINI~1\AppData\Local\Temp\ccV12XFA.s 			page 8


 192              		.thumb_func
 193              		.type	App_TCBInitHook, %function
 194              	App_TCBInitHook:
 195              	.LFB7:
 209:..\../app_hooks.c **** #endif
 210:..\../app_hooks.c **** 
 211:..\../app_hooks.c **** /*
 212:..\../app_hooks.c **** ***************************************************************************************************
 213:..\../app_hooks.c **** *                                     OS_TCBInit() HOOK (APPLICATION)
 214:..\../app_hooks.c **** *
 215:..\../app_hooks.c **** * Description : This function is called by OSTCBInitHook(), which is called by OS_TCBInit() after s
 216:..\../app_hooks.c **** *               up most of the TCB.
 217:..\../app_hooks.c **** *
 218:..\../app_hooks.c **** * Argument(s) : ptcb    is a pointer to the TCB of the task being created.
 219:..\../app_hooks.c **** *
 220:..\../app_hooks.c **** * Note(s)     : (1) Interrupts may or may not be ENABLED during this call.
 221:..\../app_hooks.c **** ***************************************************************************************************
 222:..\../app_hooks.c **** */
 223:..\../app_hooks.c **** 
 224:..\../app_hooks.c **** #if OS_VERSION >= 204
 225:..\../app_hooks.c **** void  App_TCBInitHook (OS_TCB *ptcb)
 226:..\../app_hooks.c **** {
 196              		.loc 1 226 0
 197              		.cfi_startproc
 198              		@ args = 0, pretend = 0, frame = 8
 199              		@ frame_needed = 1, uses_anonymous_args = 0
 200 0000 80B5     		push	{r7, lr}
 201              		.cfi_def_cfa_offset 8
 202              		.cfi_offset 7, -8
 203              		.cfi_offset 14, -4
 204 0002 82B0     		sub	sp, sp, #8
 205              		.cfi_def_cfa_offset 16
 206 0004 00AF     		add	r7, sp, #0
 207              		.cfi_def_cfa_register 7
 208 0006 7860     		str	r0, [r7, #4]
 227:..\../app_hooks.c ****     (void)ptcb;
 228:..\../app_hooks.c **** }
 209              		.loc 1 228 0
 210 0008 C046     		nop
 211 000a BD46     		mov	sp, r7
 212 000c 02B0     		add	sp, sp, #8
 213              		@ sp needed
 214 000e 80BD     		pop	{r7, pc}
 215              		.cfi_endproc
 216              	.LFE7:
 217              		.size	App_TCBInitHook, .-App_TCBInitHook
 218              		.section	.text.App_TimeTickHook,"ax",%progbits
 219              		.align	2
 220              		.global	App_TimeTickHook
 221              		.code	16
 222              		.thumb_func
 223              		.type	App_TimeTickHook, %function
 224              	App_TimeTickHook:
 225              	.LFB8:
 229:..\../app_hooks.c **** #endif
 230:..\../app_hooks.c **** 
 231:..\../app_hooks.c **** /*
ARM GAS  C:\Users\ADMINI~1\AppData\Local\Temp\ccV12XFA.s 			page 9


 232:..\../app_hooks.c **** ***************************************************************************************************
 233:..\../app_hooks.c **** *                                        TICK HOOK (APPLICATION)
 234:..\../app_hooks.c **** *
 235:..\../app_hooks.c **** * Description : This function is called every tick.
 236:..\../app_hooks.c **** *
 237:..\../app_hooks.c **** * Argument(s) : none.
 238:..\../app_hooks.c **** *
 239:..\../app_hooks.c **** * Note(s)     : (1) Interrupts may or may not be ENABLED during this call.
 240:..\../app_hooks.c **** ***************************************************************************************************
 241:..\../app_hooks.c **** */
 242:..\../app_hooks.c **** 
 243:..\../app_hooks.c **** #if OS_TIME_TICK_HOOK_EN > 0
 244:..\../app_hooks.c **** void  App_TimeTickHook (void)
 245:..\../app_hooks.c **** {
 226              		.loc 1 245 0
 227              		.cfi_startproc
 228              		@ args = 0, pretend = 0, frame = 0
 229              		@ frame_needed = 1, uses_anonymous_args = 0
 230 0000 80B5     		push	{r7, lr}
 231              		.cfi_def_cfa_offset 8
 232              		.cfi_offset 7, -8
 233              		.cfi_offset 14, -4
 234 0002 00AF     		add	r7, sp, #0
 235              		.cfi_def_cfa_register 7
 246:..\../app_hooks.c **** #if (APP_CFG_PROBE_OS_PLUGIN_EN == DEF_ENABLED) && (OS_PROBE_HOOKS_EN > 0)
 247:..\../app_hooks.c ****     OSProbe_TickHook();
 248:..\../app_hooks.c **** #endif
 249:..\../app_hooks.c **** }
 236              		.loc 1 249 0
 237 0004 C046     		nop
 238 0006 BD46     		mov	sp, r7
 239              		@ sp needed
 240 0008 80BD     		pop	{r7, pc}
 241              		.cfi_endproc
 242              	.LFE8:
 243              		.size	App_TimeTickHook, .-App_TimeTickHook
 244              		.text
 245              	.Letext0:
 246              		.file 2 "..\\..\\..\\..\\..\\..\\Software\\uCOS-II\\Ports\\ARM-Cortex-M0\\Generic\\GNU/os_cpu.h"
 247              		.file 3 "..\\..\\..\\..\\..\\..\\Software\\uCOS-II\\Source/ucos_ii.h"