ARM GAS  C:\Users\ADMINI~1\AppData\Local\Temp\cckWWWWy.s 			page 1


   1              		.syntax unified
   2              		.cpu cortex-m0
   3              		.fpu softvfp
   4              		.eabi_attribute 20, 1
   5              		.eabi_attribute 21, 1
   6              		.eabi_attribute 23, 3
   7              		.eabi_attribute 24, 1
   8              		.eabi_attribute 25, 1
   9              		.eabi_attribute 26, 1
  10              		.eabi_attribute 30, 6
  11              		.eabi_attribute 34, 0
  12              		.eabi_attribute 18, 4
  13              		.thumb
  14              		.syntax unified
  15              		.file	"bsp.c"
  16              		.text
  17              	.Ltext0:
  18              		.cfi_sections	.debug_frame
  19              		.global	RGB_PrevVal
  20              		.data
  21              		.align	2
  22              		.type	RGB_PrevVal, %object
  23              		.size	RGB_PrevVal, 4
  24              	RGB_PrevVal:
  25 0000 000000FF 		.word	-16777216
  26              		.section	.text.BSP_Init,"ax",%progbits
  27              		.align	2
  28              		.global	BSP_Init
  29              		.code	16
  30              		.thumb_func
  31              		.type	BSP_Init, %function
  32              	BSP_Init:
  33              	.LFB34:
  34              		.file 1 "..\\..\\..\\BSP\\bsp.c"
   1:..\..\..\BSP/bsp.c **** /*
   2:..\..\..\BSP/bsp.c **** ***************************************************************************************************
   3:..\..\..\BSP/bsp.c **** *                                     MICIRUM BOARD SUPPORT PACKAGE
   4:..\..\..\BSP/bsp.c **** *
   5:..\..\..\BSP/bsp.c **** *                             (c) Copyright 2015; Micrium, Inc.; Weston, FL
   6:..\..\..\BSP/bsp.c **** *
   7:..\..\..\BSP/bsp.c **** *               All rights reserved.  Protected by international copyright laws.
   8:..\..\..\BSP/bsp.c **** *               Knowledge of the source code may NOT be used to develop a similar product.
   9:..\..\..\BSP/bsp.c **** *               Please help us continue to provide the Embedded community with the finest
  10:..\..\..\BSP/bsp.c **** *               software available.  Your honesty is greatly appreciated.
  11:..\..\..\BSP/bsp.c **** ***************************************************************************************************
  12:..\..\..\BSP/bsp.c **** */
  13:..\..\..\BSP/bsp.c **** 
  14:..\..\..\BSP/bsp.c **** /*
  15:..\..\..\BSP/bsp.c **** ***************************************************************************************************
  16:..\..\..\BSP/bsp.c **** *                                        BOARD SUPPORT PACKAGE
  17:..\..\..\BSP/bsp.c **** *
  18:..\..\..\BSP/bsp.c **** *                                           CYPRESS PSoC5
  19:..\..\..\BSP/bsp.c **** *                                              with the
  20:..\..\..\BSP/bsp.c **** *                                     CY8CKIT-050 Development Kit
  21:..\..\..\BSP/bsp.c **** *
  22:..\..\..\BSP/bsp.c **** * Filename      : bsp.c
  23:..\..\..\BSP/bsp.c **** * Version       : V1.00
ARM GAS  C:\Users\ADMINI~1\AppData\Local\Temp\cckWWWWy.s 			page 2


  24:..\..\..\BSP/bsp.c **** * Programmer(s) : DC
  25:..\..\..\BSP/bsp.c **** ***************************************************************************************************
  26:..\..\..\BSP/bsp.c **** */
  27:..\..\..\BSP/bsp.c **** 
  28:..\..\..\BSP/bsp.c **** /*
  29:..\..\..\BSP/bsp.c **** ***************************************************************************************************
  30:..\..\..\BSP/bsp.c **** *                                             INCLUDE FILES
  31:..\..\..\BSP/bsp.c **** ***************************************************************************************************
  32:..\..\..\BSP/bsp.c **** */
  33:..\..\..\BSP/bsp.c **** 
  34:..\..\..\BSP/bsp.c **** #define   BSP_MODULE
  35:..\..\..\BSP/bsp.c **** #include  "bsp.h"
  36:..\..\..\BSP/bsp.c **** 
  37:..\..\..\BSP/bsp.c **** #include  <Accel_ISR.h>
  38:..\..\..\BSP/bsp.c **** #include  <Accel_Pin.h>
  39:..\..\..\BSP/bsp.c **** 
  40:..\..\..\BSP/bsp.c **** 
  41:..\..\..\BSP/bsp.c **** /*
  42:..\..\..\BSP/bsp.c **** ***************************************************************************************************
  43:..\..\..\BSP/bsp.c **** *                                            LOCAL DEFINES
  44:..\..\..\BSP/bsp.c **** ***************************************************************************************************
  45:..\..\..\BSP/bsp.c **** */
  46:..\..\..\BSP/bsp.c ****                                                                 /* ------------------- COLOR DEFINE
  47:..\..\..\BSP/bsp.c **** #define  BSP_RGB_BRIGHT_SAT_SHIFT               0x01u
  48:..\..\..\BSP/bsp.c **** #define  BSP_RGB_MAX_ALPHA_VAL                  0xFFu
  49:..\..\..\BSP/bsp.c **** 
  50:..\..\..\BSP/bsp.c ****                                                                 /* -------------- COLOR POSITION DE
  51:..\..\..\BSP/bsp.c **** #define  BSP_RGB_ALPHA_POS_SHIFT                24u             /* Shift to set the Alpha Value to 
  52:..\..\..\BSP/bsp.c **** #define  BSP_RGB_RED_POS_SHIFT                  16u             /* Shift to set the RED   Value to 
  53:..\..\..\BSP/bsp.c **** #define  BSP_RGB_GREEN_POS_SHIFT                 8u             /* Shift to set the Green Value to 
  54:..\..\..\BSP/bsp.c **** #define  BSP_RGB_BLUE_POS_SHIFT                  0u             /* Shift to set the Blue  Value to 
  55:..\..\..\BSP/bsp.c **** 
  56:..\..\..\BSP/bsp.c ****                                                                 /* ------------------ ACCEL: DEFINE
  57:..\..\..\BSP/bsp.c **** #define  BSP_ACCEL_INVALID_MSK                  0xF000u         /* Mask Accelerometer Value if Over
  58:..\..\..\BSP/bsp.c **** 
  59:..\..\..\BSP/bsp.c ****                                                                 /* --------------- ACCEL: WAKEUP VA
  60:..\..\..\BSP/bsp.c **** #define  BSP_ACCEL_WAKEUP_CNTS                  50u             /* Desired Delay : 1 sec; Cnts:   1
  61:..\..\..\BSP/bsp.c **** #define  BSP_ACCEL_WAKEUP_THRESH_CNTS            8u             /* Desired Thresh: 0.5g ; Cnts: 0.5
  62:..\..\..\BSP/bsp.c **** 
  63:..\..\..\BSP/bsp.c **** 
  64:..\..\..\BSP/bsp.c **** /*
  65:..\..\..\BSP/bsp.c **** ***************************************************************************************************
  66:..\..\..\BSP/bsp.c **** *                                           LOCAL CONSTANTS
  67:..\..\..\BSP/bsp.c **** ***************************************************************************************************
  68:..\..\..\BSP/bsp.c **** */
  69:..\..\..\BSP/bsp.c **** 
  70:..\..\..\BSP/bsp.c **** 
  71:..\..\..\BSP/bsp.c **** /*
  72:..\..\..\BSP/bsp.c **** ***************************************************************************************************
  73:..\..\..\BSP/bsp.c **** *                                             LOCAL MACROs
  74:..\..\..\BSP/bsp.c **** ***************************************************************************************************
  75:..\..\..\BSP/bsp.c **** */
  76:..\..\..\BSP/bsp.c **** 
  77:..\..\..\BSP/bsp.c **** 
  78:..\..\..\BSP/bsp.c **** /*
  79:..\..\..\BSP/bsp.c **** ***************************************************************************************************
  80:..\..\..\BSP/bsp.c **** *                                       LOCAL GLOBAL VARIABLES
ARM GAS  C:\Users\ADMINI~1\AppData\Local\Temp\cckWWWWy.s 			page 3


  81:..\..\..\BSP/bsp.c **** ***************************************************************************************************
  82:..\..\..\BSP/bsp.c **** */
  83:..\..\..\BSP/bsp.c ****                                                                 /* ------------------- RGB LED VARs
  84:..\..\..\BSP/bsp.c **** CPU_INT32U  RGB_PrevVal = BSP_RGB_COLOR_OFF;
  85:..\..\..\BSP/bsp.c **** 
  86:..\..\..\BSP/bsp.c **** 
  87:..\..\..\BSP/bsp.c **** /*
  88:..\..\..\BSP/bsp.c **** ***************************************************************************************************
  89:..\..\..\BSP/bsp.c **** *                                      LOCAL FUNCTION PROTOTYPES
  90:..\..\..\BSP/bsp.c **** ***************************************************************************************************
  91:..\..\..\BSP/bsp.c **** */
  92:..\..\..\BSP/bsp.c ****                                                                 /* --------------- ACCEL LOCAL FUNC
  93:..\..\..\BSP/bsp.c **** static  CPU_BOOLEAN  BSP_Accel_InitSelfTst (void);
  94:..\..\..\BSP/bsp.c **** 
  95:..\..\..\BSP/bsp.c **** static  CPU_BOOLEAN  BSP_Accel_RegRdWr     (BSP_KXTJ2_DATA_DIR   rd_wr,
  96:..\..\..\BSP/bsp.c ****                                             CPU_INT08U           reg,
  97:..\..\..\BSP/bsp.c ****                                             CPU_INT08U          *value);
  98:..\..\..\BSP/bsp.c ****                                                                 
  99:..\..\..\BSP/bsp.c **** /*
 100:..\..\..\BSP/bsp.c **** ***************************************************************************************************
 101:..\..\..\BSP/bsp.c **** *                                         LOCAL ISR PROTOTYPES
 102:..\..\..\BSP/bsp.c **** ***************************************************************************************************
 103:..\..\..\BSP/bsp.c **** */
 104:..\..\..\BSP/bsp.c ****                                                                 /* -------------- BSP ACCELEROMETER
 105:..\..\..\BSP/bsp.c **** CY_ISR_PROTO(BSP_Accel_ISR_Handler);                            /* See BSP_Init Note (2B) For more 
 106:..\..\..\BSP/bsp.c **** 
 107:..\..\..\BSP/bsp.c **** 
 108:..\..\..\BSP/bsp.c **** /*
 109:..\..\..\BSP/bsp.c **** ***************************************************************************************************
 110:..\..\..\BSP/bsp.c **** *                                              BSP_Init()
 111:..\..\..\BSP/bsp.c **** *
 112:..\..\..\BSP/bsp.c **** * Description : Initialize Board Support Package.
 113:..\..\..\BSP/bsp.c **** *
 114:..\..\..\BSP/bsp.c **** * Argument(s) : none.
 115:..\..\..\BSP/bsp.c **** *
 116:..\..\..\BSP/bsp.c **** * Return(s)   : none.
 117:..\..\..\BSP/bsp.c **** *
 118:..\..\..\BSP/bsp.c **** * Caller(s)   : main().
 119:..\..\..\BSP/bsp.c **** *
 120:..\..\..\BSP/bsp.c **** * Note(s)     : (1) This funtion initializes Peripherals required. For this BSP, the BSP_Init() mus
 121:..\..\..\BSP/bsp.c **** *                   called before the OS Initializes due to the Configuration of the OS Interrupt a
 122:..\..\..\BSP/bsp.c **** *                   PendSV Handlers being done here. Since these are Interrupts are based on the CP
 123:..\..\..\BSP/bsp.c **** *                   NVIC Interrupt Sources, they are handled differently than Peripheral Interrupts
 124:..\..\..\BSP/bsp.c **** *
 125:..\..\..\BSP/bsp.c **** *               (2) For Peripheral Interrupts, each Interrupt 'name' (set in the 'TopDesign.cysch' 
 126:..\..\..\BSP/bsp.c **** *                   will generate source code files with that specific name. under the Interrupt's
 127:..\..\..\BSP/bsp.c **** *                   <name.c> file, there the <name's> default ISR handler will be generated and you
 128:..\..\..\BSP/bsp.c **** *                   code's ISR Handler should be added there within the comments to not be removed 
 129:..\..\..\BSP/bsp.c **** *                   the next necessary compile of the 'Generated Sources'.
 130:..\..\..\BSP/bsp.c **** *                   (A) Another option would be to call the <name's>_StartEx(ISR Handler) call wher
 131:..\..\..\BSP/bsp.c **** *                       argument passed is the address of the ISR to set in the IVT.
 132:..\..\..\BSP/bsp.c **** *
 133:..\..\..\BSP/bsp.c **** *                   (B) Each ISR Function should use the CY_ISR and CY_ISR_PROTO macros to provide
 134:..\..\..\BSP/bsp.c **** *                       consistency definition across compilers using the following examples:
 135:..\..\..\BSP/bsp.c **** *                           - Function Definition Example:
 136:..\..\..\BSP/bsp.c **** *                               CY_ISR(MyISR) {...}
 137:..\..\..\BSP/bsp.c **** *                           - Function Prototype  Example:
ARM GAS  C:\Users\ADMINI~1\AppData\Local\Temp\cckWWWWy.s 			page 4


 138:..\..\..\BSP/bsp.c **** *                               CY_ISR_PROTO(MyISR);
 139:..\..\..\BSP/bsp.c **** *
 140:..\..\..\BSP/bsp.c **** *               (3) Every OS-Aware ISR should follow the following example setup:
 141:..\..\..\BSP/bsp.c **** *                       CY_ISR(MyISR)
 142:..\..\..\BSP/bsp.c **** *                       {
 143:..\..\..\BSP/bsp.c **** *                           CPU_SR_ALLOC();
 144:..\..\..\BSP/bsp.c **** *
 145:..\..\..\BSP/bsp.c **** *
 146:..\..\..\BSP/bsp.c **** *                           CPU_CRITICAL_ENTER();
 147:..\..\..\BSP/bsp.c **** *                           OSIntEnter();
 148:..\..\..\BSP/bsp.c **** *                           CPU_CRITICAL_EXIT();
 149:..\..\..\BSP/bsp.c **** *
 150:..\..\..\BSP/bsp.c **** *                           <Handle ISR Here>
 151:..\..\..\BSP/bsp.c **** *
 152:..\..\..\BSP/bsp.c **** *                           OSIntExit();
 153:..\..\..\BSP/bsp.c **** *                       }
 154:..\..\..\BSP/bsp.c **** ***************************************************************************************************
 155:..\..\..\BSP/bsp.c **** */
 156:..\..\..\BSP/bsp.c **** 
 157:..\..\..\BSP/bsp.c **** 
 158:..\..\..\BSP/bsp.c **** void BSP_Init (void)
 159:..\..\..\BSP/bsp.c **** {
  35              		.loc 1 159 0
  36              		.cfi_startproc
  37              		@ args = 0, pretend = 0, frame = 8
  38              		@ frame_needed = 1, uses_anonymous_args = 0
  39 0000 80B5     		push	{r7, lr}
  40              		.cfi_def_cfa_offset 8
  41              		.cfi_offset 7, -8
  42              		.cfi_offset 14, -4
  43 0002 82B0     		sub	sp, sp, #8
  44              		.cfi_def_cfa_offset 16
  45 0004 00AF     		add	r7, sp, #0
  46              		.cfi_def_cfa_register 7
 160:..\..\..\BSP/bsp.c ****     CPU_INT32U   reg_val;
 161:..\..\..\BSP/bsp.c ****     CPU_INT32U  *p_vect_tbl;
 162:..\..\..\BSP/bsp.c ****     
 163:..\..\..\BSP/bsp.c ****                                                                 /* -------------- SET PENDSV & TICK
 164:..\..\..\BSP/bsp.c ****     reg_val = CPU_REG_NVIC_VTOR;                                /* Get the NVIC Offset Table       
  47              		.loc 1 164 0
  48 0006 114B     		ldr	r3, .L2
  49 0008 1B68     		ldr	r3, [r3]
  50 000a 7B60     		str	r3, [r7, #4]
 165:..\..\..\BSP/bsp.c ****     DEF_BIT_CLR(reg_val, DEF_BIT_29);                           /* Clear the TBLBASE Bit           
  51              		.loc 1 165 0
  52 000c 7B68     		ldr	r3, [r7, #4]
  53 000e 104A     		ldr	r2, .L2+4
  54 0010 1340     		ands	r3, r2
  55 0012 7B60     		str	r3, [r7, #4]
 166:..\..\..\BSP/bsp.c ****     
 167:..\..\..\BSP/bsp.c ****     p_vect_tbl                  = (CPU_INT32U *)reg_val;           
  56              		.loc 1 167 0
  57 0014 7B68     		ldr	r3, [r7, #4]
  58 0016 3B60     		str	r3, [r7]
 168:..\..\..\BSP/bsp.c ****                                                                 /* Install the PendSV & Systick Int
 169:..\..\..\BSP/bsp.c ****     p_vect_tbl[CPU_INT_PENDSV]  = (CPU_INT32U  )PendSV_Handler;
  59              		.loc 1 169 0
ARM GAS  C:\Users\ADMINI~1\AppData\Local\Temp\cckWWWWy.s 			page 5


  60 0018 3B68     		ldr	r3, [r7]
  61 001a 3833     		adds	r3, r3, #56
  62 001c 0D4A     		ldr	r2, .L2+8
  63 001e 1A60     		str	r2, [r3]
 170:..\..\..\BSP/bsp.c ****     p_vect_tbl[CPU_INT_SYSTICK] = (CPU_INT32U  )SysTick_Handler;
  64              		.loc 1 170 0
  65 0020 3B68     		ldr	r3, [r7]
  66 0022 3C33     		adds	r3, r3, #60
  67 0024 0C4A     		ldr	r2, .L2+12
  68 0026 1A60     		str	r2, [r3]
 171:..\..\..\BSP/bsp.c ****     
 172:..\..\..\BSP/bsp.c ****                                                                 /* ----------------- INIT RGB LED P
 173:..\..\..\BSP/bsp.c ****     PWM_Red_Start();                                            /* Enable and Start the PWM Block f
  69              		.loc 1 173 0
  70 0028 FFF7FEFF 		bl	PWM_Red_Start
 174:..\..\..\BSP/bsp.c **** 	PWM_Green_Start();
  71              		.loc 1 174 0
  72 002c FFF7FEFF 		bl	PWM_Green_Start
 175:..\..\..\BSP/bsp.c **** 	PWM_Blue_Start();
  73              		.loc 1 175 0
  74 0030 FFF7FEFF 		bl	PWM_Blue_Start
 176:..\..\..\BSP/bsp.c ****     
 177:..\..\..\BSP/bsp.c ****                                                                 /* ----------------- INIT TEMP SENS
 178:..\..\..\BSP/bsp.c ****     Temp_Sensor_Start();                                        /* Initialize and Start the TMP05 T
  75              		.loc 1 178 0
  76 0034 FFF7FEFF 		bl	Temp_Sensor_Start
 179:..\..\..\BSP/bsp.c ****     Temp_Sensor_Trigger();                                      /* Trigger the Temp Sensor Componen
  77              		.loc 1 179 0
  78 0038 FFF7FEFF 		bl	Temp_Sensor_Trigger
 180:..\..\..\BSP/bsp.c ****     
 181:..\..\..\BSP/bsp.c ****                                                                 /* --------------- AMBIENT LIGHT SE
 182:..\..\..\BSP/bsp.c ****     Opamp_Start();                                              /* Start the OpAmp Hardware require
  79              		.loc 1 182 0
  80 003c FFF7FEFF 		bl	Opamp_Start
 183:..\..\..\BSP/bsp.c ****     ADC_Start();                                                /* Enable and Start the ADC Block. 
  81              		.loc 1 183 0
  82 0040 FFF7FEFF 		bl	ADC_Start
 184:..\..\..\BSP/bsp.c **** }
  83              		.loc 1 184 0
  84 0044 C046     		nop
  85 0046 BD46     		mov	sp, r7
  86 0048 02B0     		add	sp, sp, #8
  87              		@ sp needed
  88 004a 80BD     		pop	{r7, pc}
  89              	.L3:
  90              		.align	2
  91              	.L2:
  92 004c 08ED00E0 		.word	-536810232
  93 0050 FFFFFFDF 		.word	-536870913
  94 0054 00000000 		.word	PendSV_Handler
  95 0058 00000000 		.word	SysTick_Handler
  96              		.cfi_endproc
  97              	.LFE34:
  98              		.size	BSP_Init, .-BSP_Init
  99              		.section	.text.BSP_CPU_TickInit,"ax",%progbits
 100              		.align	2
 101              		.global	BSP_CPU_TickInit
ARM GAS  C:\Users\ADMINI~1\AppData\Local\Temp\cckWWWWy.s 			page 6


 102              		.code	16
 103              		.thumb_func
 104              		.type	BSP_CPU_TickInit, %function
 105              	BSP_CPU_TickInit:
 106              	.LFB35:
 185:..\..\..\BSP/bsp.c **** 
 186:..\..\..\BSP/bsp.c **** 
 187:..\..\..\BSP/bsp.c **** /*
 188:..\..\..\BSP/bsp.c **** ***************************************************************************************************
 189:..\..\..\BSP/bsp.c **** *                                          BSP_CPU_TickInit()
 190:..\..\..\BSP/bsp.c **** *
 191:..\..\..\BSP/bsp.c **** * Description : Configure and Initialize the Tick Interrupt.
 192:..\..\..\BSP/bsp.c **** *
 193:..\..\..\BSP/bsp.c **** * Argument(s) : none.
 194:..\..\..\BSP/bsp.c **** *
 195:..\..\..\BSP/bsp.c **** * Return(s)   : none.
 196:..\..\..\BSP/bsp.c **** *
 197:..\..\..\BSP/bsp.c **** * Caller(s)   : App_TaskStart().
 198:..\..\..\BSP/bsp.c **** *
 199:..\..\..\BSP/bsp.c **** * Note(s)     : (1) The ARM-Cortex-M0 Port figures out the necessary qty of Ticks required for the
 200:..\..\..\BSP/bsp.c **** *                   Periodic Time Source (SysTick) by just passing the CPU Clock Frequency to the
 201:..\..\..\BSP/bsp.c **** *                   OS_CPU_SysTickInit function.
 202:..\..\..\BSP/bsp.c **** ***************************************************************************************************
 203:..\..\..\BSP/bsp.c **** */
 204:..\..\..\BSP/bsp.c **** 
 205:..\..\..\BSP/bsp.c **** void  BSP_CPU_TickInit (void)
 206:..\..\..\BSP/bsp.c **** {
 107              		.loc 1 206 0
 108              		.cfi_startproc
 109              		@ args = 0, pretend = 0, frame = 8
 110              		@ frame_needed = 1, uses_anonymous_args = 0
 111 0000 80B5     		push	{r7, lr}
 112              		.cfi_def_cfa_offset 8
 113              		.cfi_offset 7, -8
 114              		.cfi_offset 14, -4
 115 0002 82B0     		sub	sp, sp, #8
 116              		.cfi_def_cfa_offset 16
 117 0004 00AF     		add	r7, sp, #0
 118              		.cfi_def_cfa_register 7
 207:..\..\..\BSP/bsp.c ****     CPU_INT32U  cpu_clk_freq;
 208:..\..\..\BSP/bsp.c ****     
 209:..\..\..\BSP/bsp.c ****     
 210:..\..\..\BSP/bsp.c ****     cpu_clk_freq = BSP_CPU_ClkFreq();                           /* Determine CPU Clock Frequency fo
 119              		.loc 1 210 0
 120 0006 FFF7FEFF 		bl	BSP_CPU_ClkFreq
 121 000a 0300     		movs	r3, r0
 122 000c 7B60     		str	r3, [r7, #4]
 211:..\..\..\BSP/bsp.c **** 
 212:..\..\..\BSP/bsp.c ****     OS_CPU_SysTickInit(cpu_clk_freq);                           /* Init uC/OS Periodic Time Source 
 123              		.loc 1 212 0
 124 000e 7B68     		ldr	r3, [r7, #4]
 125 0010 1800     		movs	r0, r3
 126 0012 FFF7FEFF 		bl	OS_CPU_SysTickInit
 213:..\..\..\BSP/bsp.c **** }
 127              		.loc 1 213 0
 128 0016 C046     		nop
 129 0018 BD46     		mov	sp, r7
ARM GAS  C:\Users\ADMINI~1\AppData\Local\Temp\cckWWWWy.s 			page 7


 130 001a 02B0     		add	sp, sp, #8
 131              		@ sp needed
 132 001c 80BD     		pop	{r7, pc}
 133              		.cfi_endproc
 134              	.LFE35:
 135              		.size	BSP_CPU_TickInit, .-BSP_CPU_TickInit
 136 001e C046     		.section	.text.BSP_CPU_ClkFreq,"ax",%progbits
 137              		.align	2
 138              		.global	BSP_CPU_ClkFreq
 139              		.code	16
 140              		.thumb_func
 141              		.type	BSP_CPU_ClkFreq, %function
 142              	BSP_CPU_ClkFreq:
 143              	.LFB36:
 214:..\..\..\BSP/bsp.c **** 
 215:..\..\..\BSP/bsp.c **** 
 216:..\..\..\BSP/bsp.c **** /*
 217:..\..\..\BSP/bsp.c **** ***************************************************************************************************
 218:..\..\..\BSP/bsp.c **** *                                          BSP_CPU_ClkFreq()
 219:..\..\..\BSP/bsp.c **** *
 220:..\..\..\BSP/bsp.c **** * Description : Returns the CPU's Clock Frequency Configured.
 221:..\..\..\BSP/bsp.c **** *
 222:..\..\..\BSP/bsp.c **** * Argument(s) : none.
 223:..\..\..\BSP/bsp.c **** *
 224:..\..\..\BSP/bsp.c **** * Return(s)   : The CPU clock frequency, in Hz.
 225:..\..\..\BSP/bsp.c **** *
 226:..\..\..\BSP/bsp.c **** * Caller(s)   : BSP_CPU_TickInit().
 227:..\..\..\BSP/bsp.c **** *
 228:..\..\..\BSP/bsp.c **** * Note(s)     : none.
 229:..\..\..\BSP/bsp.c **** ***************************************************************************************************
 230:..\..\..\BSP/bsp.c **** */
 231:..\..\..\BSP/bsp.c **** 
 232:..\..\..\BSP/bsp.c **** CPU_INT32U  BSP_CPU_ClkFreq (void)
 233:..\..\..\BSP/bsp.c **** {
 144              		.loc 1 233 0
 145              		.cfi_startproc
 146              		@ args = 0, pretend = 0, frame = 0
 147              		@ frame_needed = 1, uses_anonymous_args = 0
 148 0000 80B5     		push	{r7, lr}
 149              		.cfi_def_cfa_offset 8
 150              		.cfi_offset 7, -8
 151              		.cfi_offset 14, -4
 152 0002 00AF     		add	r7, sp, #0
 153              		.cfi_def_cfa_register 7
 234:..\..\..\BSP/bsp.c ****     return (BSP_PSOC_CPU_FREQ);
 154              		.loc 1 234 0
 155 0004 014B     		ldr	r3, .L7
 235:..\..\..\BSP/bsp.c **** }
 156              		.loc 1 235 0
 157 0006 1800     		movs	r0, r3
 158 0008 BD46     		mov	sp, r7
 159              		@ sp needed
 160 000a 80BD     		pop	{r7, pc}
 161              	.L8:
 162              		.align	2
 163              	.L7:
 164 000c 006CDC02 		.word	48000000
ARM GAS  C:\Users\ADMINI~1\AppData\Local\Temp\cckWWWWy.s 			page 8


 165              		.cfi_endproc
 166              	.LFE36:
 167              		.size	BSP_CPU_ClkFreq, .-BSP_CPU_ClkFreq
 168              		.section	.text.BSP_RGB_On,"ax",%progbits
 169              		.align	2
 170              		.global	BSP_RGB_On
 171              		.code	16
 172              		.thumb_func
 173              		.type	BSP_RGB_On, %function
 174              	BSP_RGB_On:
 175              	.LFB37:
 236:..\..\..\BSP/bsp.c **** 
 237:..\..\..\BSP/bsp.c **** 
 238:..\..\..\BSP/bsp.c **** /*
 239:..\..\..\BSP/bsp.c **** ***************************************************************************************************
 240:..\..\..\BSP/bsp.c **** ***************************************************************************************************
 241:..\..\..\BSP/bsp.c **** *                                            LED FUNCTIONS
 242:..\..\..\BSP/bsp.c **** ***************************************************************************************************
 243:..\..\..\BSP/bsp.c **** ***************************************************************************************************
 244:..\..\..\BSP/bsp.c **** */
 245:..\..\..\BSP/bsp.c **** 
 246:..\..\..\BSP/bsp.c **** 
 247:..\..\..\BSP/bsp.c **** /*
 248:..\..\..\BSP/bsp.c **** ***************************************************************************************************
 249:..\..\..\BSP/bsp.c **** *                                             BSP_RGB_On()
 250:..\..\..\BSP/bsp.c **** *
 251:..\..\..\BSP/bsp.c **** * Description : Turn ON the RBG LED on the Board with the Last Value saved before an BSP_RGB_Off() 
 252:..\..\..\BSP/bsp.c **** *
 253:..\..\..\BSP/bsp.c **** * Argument(s) : none.
 254:..\..\..\BSP/bsp.c **** *
 255:..\..\..\BSP/bsp.c **** * Return(s)   : none.
 256:..\..\..\BSP/bsp.c **** *
 257:..\..\..\BSP/bsp.c **** * Caller(s)   : Application.
 258:..\..\..\BSP/bsp.c **** *
 259:..\..\..\BSP/bsp.c **** * Note(s)     : (1) The RGB_PrevVal holds the Hex (0x) value previously saved when the RGB LED was 
 260:..\..\..\BSP/bsp.c **** *                   turned off.
 261:..\..\..\BSP/bsp.c **** ***************************************************************************************************
 262:..\..\..\BSP/bsp.c **** */
 263:..\..\..\BSP/bsp.c **** 
 264:..\..\..\BSP/bsp.c **** void  BSP_RGB_On (void)
 265:..\..\..\BSP/bsp.c **** {
 176              		.loc 1 265 0
 177              		.cfi_startproc
 178              		@ args = 0, pretend = 0, frame = 0
 179              		@ frame_needed = 1, uses_anonymous_args = 0
 180 0000 80B5     		push	{r7, lr}
 181              		.cfi_def_cfa_offset 8
 182              		.cfi_offset 7, -8
 183              		.cfi_offset 14, -4
 184 0002 00AF     		add	r7, sp, #0
 185              		.cfi_def_cfa_register 7
 266:..\..\..\BSP/bsp.c ****     BSP_RGB_ColorSet(RGB_PrevVal);                              /* Restore the RGB Color of the Pre
 186              		.loc 1 266 0
 187 0004 034B     		ldr	r3, .L10
 188 0006 1B68     		ldr	r3, [r3]
 189 0008 1800     		movs	r0, r3
 190 000a FFF7FEFF 		bl	BSP_RGB_ColorSet
ARM GAS  C:\Users\ADMINI~1\AppData\Local\Temp\cckWWWWy.s 			page 9


 267:..\..\..\BSP/bsp.c **** }
 191              		.loc 1 267 0
 192 000e C046     		nop
 193 0010 BD46     		mov	sp, r7
 194              		@ sp needed
 195 0012 80BD     		pop	{r7, pc}
 196              	.L11:
 197              		.align	2
 198              	.L10:
 199 0014 00000000 		.word	RGB_PrevVal
 200              		.cfi_endproc
 201              	.LFE37:
 202              		.size	BSP_RGB_On, .-BSP_RGB_On
 203              		.section	.text.BSP_RGB_Off,"ax",%progbits
 204              		.align	2
 205              		.global	BSP_RGB_Off
 206              		.code	16
 207              		.thumb_func
 208              		.type	BSP_RGB_Off, %function
 209              	BSP_RGB_Off:
 210              	.LFB38:
 268:..\..\..\BSP/bsp.c **** 
 269:..\..\..\BSP/bsp.c **** 
 270:..\..\..\BSP/bsp.c **** /*
 271:..\..\..\BSP/bsp.c **** ***************************************************************************************************
 272:..\..\..\BSP/bsp.c **** *                                            BSP_RGB_Off()
 273:..\..\..\BSP/bsp.c **** *
 274:..\..\..\BSP/bsp.c **** * Description : Turn OFF the RBG LED on the Board and save the Current Color Value.
 275:..\..\..\BSP/bsp.c **** *
 276:..\..\..\BSP/bsp.c **** * Argument(s) : none.
 277:..\..\..\BSP/bsp.c **** *
 278:..\..\..\BSP/bsp.c **** * Return(s)   : none.
 279:..\..\..\BSP/bsp.c **** *
 280:..\..\..\BSP/bsp.c **** * Caller(s)   : Application.
 281:..\..\..\BSP/bsp.c **** *
 282:..\..\..\BSP/bsp.c **** * Note(s)     : (1) The RGB_PrevVal will save the current value of the RBG LED, in Hex (0x), to res
 283:..\..\..\BSP/bsp.c **** *                   the same color next time the RGB LED is turned on.
 284:..\..\..\BSP/bsp.c **** *
 285:..\..\..\BSP/bsp.c **** *               (2) RGB Black Value = 0xFF000000u, which signifies LED is OFF.
 286:..\..\..\BSP/bsp.c **** ***************************************************************************************************
 287:..\..\..\BSP/bsp.c **** */
 288:..\..\..\BSP/bsp.c **** 
 289:..\..\..\BSP/bsp.c **** void  BSP_RGB_Off (void)
 290:..\..\..\BSP/bsp.c **** {
 211              		.loc 1 290 0
 212              		.cfi_startproc
 213              		@ args = 0, pretend = 0, frame = 0
 214              		@ frame_needed = 1, uses_anonymous_args = 0
 215 0000 80B5     		push	{r7, lr}
 216              		.cfi_def_cfa_offset 8
 217              		.cfi_offset 7, -8
 218              		.cfi_offset 14, -4
 219 0002 00AF     		add	r7, sp, #0
 220              		.cfi_def_cfa_register 7
 291:..\..\..\BSP/bsp.c ****     RGB_PrevVal = BSP_RGB_ColorRead();                          /* Save the Current RBG Color Value
 221              		.loc 1 291 0
 222 0004 FFF7FEFF 		bl	BSP_RGB_ColorRead
ARM GAS  C:\Users\ADMINI~1\AppData\Local\Temp\cckWWWWy.s 			page 10


 223 0008 0200     		movs	r2, r0
 224 000a 054B     		ldr	r3, .L13
 225 000c 1A60     		str	r2, [r3]
 292:..\..\..\BSP/bsp.c ****     BSP_RGB_ColorSet(BSP_RGB_COLOR_OFF);                        /* Turn the RGB Color LED OFF.     
 226              		.loc 1 292 0
 227 000e FF23     		movs	r3, #255
 228 0010 1B06     		lsls	r3, r3, #24
 229 0012 1800     		movs	r0, r3
 230 0014 FFF7FEFF 		bl	BSP_RGB_ColorSet
 293:..\..\..\BSP/bsp.c **** }
 231              		.loc 1 293 0
 232 0018 C046     		nop
 233 001a BD46     		mov	sp, r7
 234              		@ sp needed
 235 001c 80BD     		pop	{r7, pc}
 236              	.L14:
 237 001e C046     		.align	2
 238              	.L13:
 239 0020 00000000 		.word	RGB_PrevVal
 240              		.cfi_endproc
 241              	.LFE38:
 242              		.size	BSP_RGB_Off, .-BSP_RGB_Off
 243              		.section	.text.BSP_RGB_ColorSet,"ax",%progbits
 244              		.align	2
 245              		.global	BSP_RGB_ColorSet
 246              		.code	16
 247              		.thumb_func
 248              		.type	BSP_RGB_ColorSet, %function
 249              	BSP_RGB_ColorSet:
 250              	.LFB39:
 294:..\..\..\BSP/bsp.c **** 
 295:..\..\..\BSP/bsp.c **** 
 296:..\..\..\BSP/bsp.c **** /*
 297:..\..\..\BSP/bsp.c **** ***************************************************************************************************
 298:..\..\..\BSP/bsp.c **** *                                          BSP_RGB_ColorSet()
 299:..\..\..\BSP/bsp.c **** *
 300:..\..\..\BSP/bsp.c **** * Description : TOGGLE any or all the LEDs on the board.
 301:..\..\..\BSP/bsp.c **** *
 302:..\..\..\BSP/bsp.c **** * Argument(s) : color   The Color Value (in Hex) desired to Set.
 303:..\..\..\BSP/bsp.c **** *
 304:..\..\..\BSP/bsp.c **** * Return(s)   : none.
 305:..\..\..\BSP/bsp.c **** *
 306:..\..\..\BSP/bsp.c **** * Caller(s)   : Application.
 307:..\..\..\BSP/bsp.c **** *
 308:..\..\..\BSP/bsp.c **** * Note(s)     : (1) The RGBA Color Value (in Hex) is represented in the following way:
 309:..\..\..\BSP/bsp.c **** *                       Color = 0x FF 12 34 56
 310:..\..\..\BSP/bsp.c **** *                                   \  \  \  \
 311:..\..\..\BSP/bsp.c **** *                                    \  \  \  - Blue  LED Color.
 312:..\..\..\BSP/bsp.c **** *                                     \  \  - - Green LED Color.
 313:..\..\..\BSP/bsp.c **** *                                      \  - - - Red   LED Color.
 314:..\..\..\BSP/bsp.c **** *                                       - - - - Alpha Index Value.
 315:..\..\..\BSP/bsp.c **** ***************************************************************************************************
 316:..\..\..\BSP/bsp.c **** */
 317:..\..\..\BSP/bsp.c **** 
 318:..\..\..\BSP/bsp.c **** void  BSP_RGB_ColorSet (CPU_INT32U  color)
 319:..\..\..\BSP/bsp.c **** {
 251              		.loc 1 319 0
ARM GAS  C:\Users\ADMINI~1\AppData\Local\Temp\cckWWWWy.s 			page 11


 252              		.cfi_startproc
 253              		@ args = 0, pretend = 0, frame = 16
 254              		@ frame_needed = 1, uses_anonymous_args = 0
 255 0000 80B5     		push	{r7, lr}
 256              		.cfi_def_cfa_offset 8
 257              		.cfi_offset 7, -8
 258              		.cfi_offset 14, -4
 259 0002 84B0     		sub	sp, sp, #16
 260              		.cfi_def_cfa_offset 24
 261 0004 00AF     		add	r7, sp, #0
 262              		.cfi_def_cfa_register 7
 263 0006 7860     		str	r0, [r7, #4]
 320:..\..\..\BSP/bsp.c ****     CPU_INT08U  alpha;
 321:..\..\..\BSP/bsp.c ****     CPU_INT08U  color_val;
 322:..\..\..\BSP/bsp.c ****     CPU_INT16U  pwm_color;
 323:..\..\..\BSP/bsp.c ****     
 324:..\..\..\BSP/bsp.c **** 
 325:..\..\..\BSP/bsp.c ****     alpha     = HI8(HI16(color));                               /* Get Alpha Index from Hex Color V
 264              		.loc 1 325 0
 265 0008 7B68     		ldr	r3, [r7, #4]
 266 000a 1B0C     		lsrs	r3, r3, #16
 267 000c 1A12     		asrs	r2, r3, #8
 268 000e 0F23     		movs	r3, #15
 269 0010 FB18     		adds	r3, r7, r3
 270 0012 1A70     		strb	r2, [r3]
 326:..\..\..\BSP/bsp.c ****     
 327:..\..\..\BSP/bsp.c ****                                                                 /* ---------------- SET LED COLOR: 
 328:..\..\..\BSP/bsp.c ****     color_val = LO8(HI16(color));                               /* Get Red Value from the Desired R
 271              		.loc 1 328 0
 272 0014 7B68     		ldr	r3, [r7, #4]
 273 0016 1A0C     		lsrs	r2, r3, #16
 274 0018 0E23     		movs	r3, #14
 275 001a FB18     		adds	r3, r7, r3
 276 001c 1A70     		strb	r2, [r3]
 329:..\..\..\BSP/bsp.c ****     
 330:..\..\..\BSP/bsp.c ****                                                                 /* Convert the RGBA Value to a PWM 
 331:..\..\..\BSP/bsp.c ****     pwm_color = ((((0xFFu - alpha) * 0xFFu) + (alpha * color_val)) >> BSP_RGB_BRIGHT_SAT_SHIFT);
 277              		.loc 1 331 0
 278 001e 0F23     		movs	r3, #15
 279 0020 FB18     		adds	r3, r7, r3
 280 0022 1B78     		ldrb	r3, [r3]
 281 0024 1A00     		movs	r2, r3
 282 0026 1B02     		lsls	r3, r3, #8
 283 0028 D31A     		subs	r3, r2, r3
 284 002a 0F22     		movs	r2, #15
 285 002c BA18     		adds	r2, r7, r2
 286 002e 1278     		ldrb	r2, [r2]
 287 0030 0E21     		movs	r1, #14
 288 0032 7918     		adds	r1, r7, r1
 289 0034 0978     		ldrb	r1, [r1]
 290 0036 4A43     		muls	r2, r1
 291 0038 9B18     		adds	r3, r3, r2
 292 003a 284A     		ldr	r2, .L16
 293 003c 9446     		mov	ip, r2
 294 003e 6344     		add	r3, r3, ip
 295 0040 5A08     		lsrs	r2, r3, #1
 296 0042 0C23     		movs	r3, #12
ARM GAS  C:\Users\ADMINI~1\AppData\Local\Temp\cckWWWWy.s 			page 12


 297 0044 FB18     		adds	r3, r7, r3
 298 0046 1A80     		strh	r2, [r3]
 332:..\..\..\BSP/bsp.c ****     PWM_Red_WriteCompare(pwm_color);
 299              		.loc 1 332 0
 300 0048 0C23     		movs	r3, #12
 301 004a FB18     		adds	r3, r7, r3
 302 004c 1B88     		ldrh	r3, [r3]
 303 004e 1800     		movs	r0, r3
 304 0050 FFF7FEFF 		bl	PWM_Red_WriteCompare
 333:..\..\..\BSP/bsp.c ****     
 334:..\..\..\BSP/bsp.c ****                                                                 /* --------------- SET LED COLOR: G
 335:..\..\..\BSP/bsp.c ****     color_val = HI8(LO16(color));                               /* Get Green Value from the Desired
 305              		.loc 1 335 0
 306 0054 7B68     		ldr	r3, [r7, #4]
 307 0056 1A12     		asrs	r2, r3, #8
 308 0058 0E23     		movs	r3, #14
 309 005a FB18     		adds	r3, r7, r3
 310 005c 1A70     		strb	r2, [r3]
 336:..\..\..\BSP/bsp.c ****     
 337:..\..\..\BSP/bsp.c ****                                                                 /* Convert the RGBA Value to a PWM 
 338:..\..\..\BSP/bsp.c ****     pwm_color = ((((0xFFu - alpha) * 0xFFu) + (alpha * color_val)) >> BSP_RGB_BRIGHT_SAT_SHIFT);
 311              		.loc 1 338 0
 312 005e 0F23     		movs	r3, #15
 313 0060 FB18     		adds	r3, r7, r3
 314 0062 1B78     		ldrb	r3, [r3]
 315 0064 1A00     		movs	r2, r3
 316 0066 1B02     		lsls	r3, r3, #8
 317 0068 D31A     		subs	r3, r2, r3
 318 006a 0F22     		movs	r2, #15
 319 006c BA18     		adds	r2, r7, r2
 320 006e 1278     		ldrb	r2, [r2]
 321 0070 0E21     		movs	r1, #14
 322 0072 7918     		adds	r1, r7, r1
 323 0074 0978     		ldrb	r1, [r1]
 324 0076 4A43     		muls	r2, r1
 325 0078 9B18     		adds	r3, r3, r2
 326 007a 184A     		ldr	r2, .L16
 327 007c 9446     		mov	ip, r2
 328 007e 6344     		add	r3, r3, ip
 329 0080 5A08     		lsrs	r2, r3, #1
 330 0082 0C23     		movs	r3, #12
 331 0084 FB18     		adds	r3, r7, r3
 332 0086 1A80     		strh	r2, [r3]
 339:..\..\..\BSP/bsp.c ****     PWM_Green_WriteCompare(pwm_color);
 333              		.loc 1 339 0
 334 0088 0C23     		movs	r3, #12
 335 008a FB18     		adds	r3, r7, r3
 336 008c 1B88     		ldrh	r3, [r3]
 337 008e 1800     		movs	r0, r3
 338 0090 FFF7FEFF 		bl	PWM_Green_WriteCompare
 340:..\..\..\BSP/bsp.c ****     
 341:..\..\..\BSP/bsp.c ****                                                                 /* ---------------- SET LED COLOR: 
 342:..\..\..\BSP/bsp.c ****     color_val = LO8(LO16(color));                               /* Get Blue Value from the Desired 
 339              		.loc 1 342 0
 340 0094 0E23     		movs	r3, #14
 341 0096 FB18     		adds	r3, r7, r3
 342 0098 7A68     		ldr	r2, [r7, #4]
ARM GAS  C:\Users\ADMINI~1\AppData\Local\Temp\cckWWWWy.s 			page 13


 343 009a 1A70     		strb	r2, [r3]
 343:..\..\..\BSP/bsp.c ****     
 344:..\..\..\BSP/bsp.c ****                                                                 /* Convert the RGBA Value to a PWM 
 345:..\..\..\BSP/bsp.c ****     pwm_color = ((((0xFFu - alpha) * 0xFFu) + (alpha * color_val)) >> BSP_RGB_BRIGHT_SAT_SHIFT);
 344              		.loc 1 345 0
 345 009c 0F23     		movs	r3, #15
 346 009e FB18     		adds	r3, r7, r3
 347 00a0 1B78     		ldrb	r3, [r3]
 348 00a2 1A00     		movs	r2, r3
 349 00a4 1B02     		lsls	r3, r3, #8
 350 00a6 D31A     		subs	r3, r2, r3
 351 00a8 0F22     		movs	r2, #15
 352 00aa BA18     		adds	r2, r7, r2
 353 00ac 1278     		ldrb	r2, [r2]
 354 00ae 0E21     		movs	r1, #14
 355 00b0 7918     		adds	r1, r7, r1
 356 00b2 0978     		ldrb	r1, [r1]
 357 00b4 4A43     		muls	r2, r1
 358 00b6 9B18     		adds	r3, r3, r2
 359 00b8 084A     		ldr	r2, .L16
 360 00ba 9446     		mov	ip, r2
 361 00bc 6344     		add	r3, r3, ip
 362 00be 5A08     		lsrs	r2, r3, #1
 363 00c0 0C23     		movs	r3, #12
 364 00c2 FB18     		adds	r3, r7, r3
 365 00c4 1A80     		strh	r2, [r3]
 346:..\..\..\BSP/bsp.c ****     PWM_Blue_WriteCompare(pwm_color);
 366              		.loc 1 346 0
 367 00c6 0C23     		movs	r3, #12
 368 00c8 FB18     		adds	r3, r7, r3
 369 00ca 1B88     		ldrh	r3, [r3]
 370 00cc 1800     		movs	r0, r3
 371 00ce FFF7FEFF 		bl	PWM_Blue_WriteCompare
 347:..\..\..\BSP/bsp.c **** }
 372              		.loc 1 347 0
 373 00d2 C046     		nop
 374 00d4 BD46     		mov	sp, r7
 375 00d6 04B0     		add	sp, sp, #16
 376              		@ sp needed
 377 00d8 80BD     		pop	{r7, pc}
 378              	.L17:
 379 00da C046     		.align	2
 380              	.L16:
 381 00dc 01FE0000 		.word	65025
 382              		.cfi_endproc
 383              	.LFE39:
 384              		.size	BSP_RGB_ColorSet, .-BSP_RGB_ColorSet
 385              		.global	__aeabi_uidiv
 386              		.section	.text.BSP_RGB_ColorRead,"ax",%progbits
 387              		.align	2
 388              		.global	BSP_RGB_ColorRead
 389              		.code	16
 390              		.thumb_func
 391              		.type	BSP_RGB_ColorRead, %function
 392              	BSP_RGB_ColorRead:
 393              	.LFB40:
 348:..\..\..\BSP/bsp.c **** 
ARM GAS  C:\Users\ADMINI~1\AppData\Local\Temp\cckWWWWy.s 			page 14


 349:..\..\..\BSP/bsp.c **** 
 350:..\..\..\BSP/bsp.c **** /*
 351:..\..\..\BSP/bsp.c **** ***************************************************************************************************
 352:..\..\..\BSP/bsp.c **** *                                         BSP_RGB_ColorRead()
 353:..\..\..\BSP/bsp.c **** *
 354:..\..\..\BSP/bsp.c **** * Description : Read and Return the latest Color Value of the RGB LED PWM Signals.
 355:..\..\..\BSP/bsp.c **** *
 356:..\..\..\BSP/bsp.c **** * Argument(s) : none.
 357:..\..\..\BSP/bsp.c **** *
 358:..\..\..\BSP/bsp.c **** * Return(s)   : Converted Color Value of the RGB LED.
 359:..\..\..\BSP/bsp.c **** *
 360:..\..\..\BSP/bsp.c **** * Caller(s)   : Application.
 361:..\..\..\BSP/bsp.c **** *
 362:..\..\..\BSP/bsp.c **** * Note(s)     : (1) This Function reads the PWM Signals for the Red, Green, and Blue (LED) Signals 
 363:..\..\..\BSP/bsp.c **** *                   conver the Individual RGB Value to an RGBA value to return.
 364:..\..\..\BSP/bsp.c **** *
 365:..\..\..\BSP/bsp.c **** *               (2) This Function assumes a maximum Alpha value (0xFF) will be assigned and used to
 366:..\..\..\BSP/bsp.c **** *                   convert PWM signals to RGB color values (in hex).
 367:..\..\..\BSP/bsp.c **** *
 368:..\..\..\BSP/bsp.c **** *               (3) The RGBA Color Value (in Hex) is represented in the following way:
 369:..\..\..\BSP/bsp.c **** *                       Color = 0x FF 12 34 56
 370:..\..\..\BSP/bsp.c **** *                                   \  \  \  \
 371:..\..\..\BSP/bsp.c **** *                                    \  \  \  - Blue  LED Color.
 372:..\..\..\BSP/bsp.c **** *                                     \  \  - - Green LED Color.
 373:..\..\..\BSP/bsp.c **** *                                      \  - - - Red   LED Color.
 374:..\..\..\BSP/bsp.c **** *                                       - - - - Alpha Index Value.
 375:..\..\..\BSP/bsp.c **** ***************************************************************************************************
 376:..\..\..\BSP/bsp.c **** */
 377:..\..\..\BSP/bsp.c **** 
 378:..\..\..\BSP/bsp.c **** CPU_INT32U  BSP_RGB_ColorRead (void)
 379:..\..\..\BSP/bsp.c **** {
 394              		.loc 1 379 0
 395              		.cfi_startproc
 396              		@ args = 0, pretend = 0, frame = 8
 397              		@ frame_needed = 1, uses_anonymous_args = 0
 398 0000 80B5     		push	{r7, lr}
 399              		.cfi_def_cfa_offset 8
 400              		.cfi_offset 7, -8
 401              		.cfi_offset 14, -4
 402 0002 82B0     		sub	sp, sp, #8
 403              		.cfi_def_cfa_offset 16
 404 0004 00AF     		add	r7, sp, #0
 405              		.cfi_def_cfa_register 7
 380:..\..\..\BSP/bsp.c ****     CPU_INT32U  color;
 381:..\..\..\BSP/bsp.c ****     CPU_INT16U  pwm_color;
 382:..\..\..\BSP/bsp.c ****     CPU_INT08U  color_val;
 383:..\..\..\BSP/bsp.c ****     
 384:..\..\..\BSP/bsp.c ****     
 385:..\..\..\BSP/bsp.c ****     color = (BSP_RGB_MAX_ALPHA_VAL << BSP_RGB_ALPHA_POS_SHIFT); /* Set the Max Alpha Value to RGBA 
 406              		.loc 1 385 0
 407 0006 FF23     		movs	r3, #255
 408 0008 1B06     		lsls	r3, r3, #24
 409 000a 7B60     		str	r3, [r7, #4]
 386:..\..\..\BSP/bsp.c ****     
 387:..\..\..\BSP/bsp.c ****                                                                 /* ---------------- GET LED COLOR: 
 388:..\..\..\BSP/bsp.c ****     pwm_color = PWM_Red_ReadCompare();                          /* Get the PWM Compared Value to co
 410              		.loc 1 388 0
ARM GAS  C:\Users\ADMINI~1\AppData\Local\Temp\cckWWWWy.s 			page 15


 411 000c FFF7FEFF 		bl	PWM_Red_ReadCompare
 412 0010 0200     		movs	r2, r0
 413 0012 BB1C     		adds	r3, r7, #2
 414 0014 1A80     		strh	r2, [r3]
 389:..\..\..\BSP/bsp.c ****     color_val = ((pwm_color << BSP_RGB_BRIGHT_SAT_SHIFT) / BSP_RGB_MAX_ALPHA_VAL);
 415              		.loc 1 389 0
 416 0016 BB1C     		adds	r3, r7, #2
 417 0018 1B88     		ldrh	r3, [r3]
 418 001a 5B00     		lsls	r3, r3, #1
 419 001c FF21     		movs	r1, #255
 420 001e 1800     		movs	r0, r3
 421 0020 FFF7FEFF 		bl	__aeabi_uidiv
 422 0024 0300     		movs	r3, r0
 423 0026 1A00     		movs	r2, r3
 424 0028 7B1C     		adds	r3, r7, #1
 425 002a 1A70     		strb	r2, [r3]
 390:..\..\..\BSP/bsp.c ****     
 391:..\..\..\BSP/bsp.c ****     color    |= (color_val << BSP_RGB_RED_POS_SHIFT);           /* Set the RED Converted value to R
 426              		.loc 1 391 0
 427 002c 7B1C     		adds	r3, r7, #1
 428 002e 1B78     		ldrb	r3, [r3]
 429 0030 1B04     		lsls	r3, r3, #16
 430 0032 1A00     		movs	r2, r3
 431 0034 7B68     		ldr	r3, [r7, #4]
 432 0036 1343     		orrs	r3, r2
 433 0038 7B60     		str	r3, [r7, #4]
 392:..\..\..\BSP/bsp.c ****     
 393:..\..\..\BSP/bsp.c ****                                                                 /* --------------- GET LED COLOR: G
 394:..\..\..\BSP/bsp.c ****     pwm_color = PWM_Green_ReadCompare();                        /* Get the PWM Compared Value to co
 434              		.loc 1 394 0
 435 003a FFF7FEFF 		bl	PWM_Green_ReadCompare
 436 003e 0200     		movs	r2, r0
 437 0040 BB1C     		adds	r3, r7, #2
 438 0042 1A80     		strh	r2, [r3]
 395:..\..\..\BSP/bsp.c ****     color_val = ((pwm_color << BSP_RGB_BRIGHT_SAT_SHIFT) / BSP_RGB_MAX_ALPHA_VAL);
 439              		.loc 1 395 0
 440 0044 BB1C     		adds	r3, r7, #2
 441 0046 1B88     		ldrh	r3, [r3]
 442 0048 5B00     		lsls	r3, r3, #1
 443 004a FF21     		movs	r1, #255
 444 004c 1800     		movs	r0, r3
 445 004e FFF7FEFF 		bl	__aeabi_uidiv
 446 0052 0300     		movs	r3, r0
 447 0054 1A00     		movs	r2, r3
 448 0056 7B1C     		adds	r3, r7, #1
 449 0058 1A70     		strb	r2, [r3]
 396:..\..\..\BSP/bsp.c ****     
 397:..\..\..\BSP/bsp.c ****     color    |= (color_val << BSP_RGB_GREEN_POS_SHIFT);         /* Set the GREEN Converted value to
 450              		.loc 1 397 0
 451 005a 7B1C     		adds	r3, r7, #1
 452 005c 1B78     		ldrb	r3, [r3]
 453 005e 1B02     		lsls	r3, r3, #8
 454 0060 1A00     		movs	r2, r3
 455 0062 7B68     		ldr	r3, [r7, #4]
 456 0064 1343     		orrs	r3, r2
 457 0066 7B60     		str	r3, [r7, #4]
 398:..\..\..\BSP/bsp.c ****     
ARM GAS  C:\Users\ADMINI~1\AppData\Local\Temp\cckWWWWy.s 			page 16


 399:..\..\..\BSP/bsp.c ****                                                                 /* ---------------- GET LED COLOR: 
 400:..\..\..\BSP/bsp.c ****     pwm_color = PWM_Blue_ReadCompare();                         /* Get the PWM Compared Value to co
 458              		.loc 1 400 0
 459 0068 FFF7FEFF 		bl	PWM_Blue_ReadCompare
 460 006c 0200     		movs	r2, r0
 461 006e BB1C     		adds	r3, r7, #2
 462 0070 1A80     		strh	r2, [r3]
 401:..\..\..\BSP/bsp.c ****     color_val = ((pwm_color << BSP_RGB_BRIGHT_SAT_SHIFT) / BSP_RGB_MAX_ALPHA_VAL);
 463              		.loc 1 401 0
 464 0072 BB1C     		adds	r3, r7, #2
 465 0074 1B88     		ldrh	r3, [r3]
 466 0076 5B00     		lsls	r3, r3, #1
 467 0078 FF21     		movs	r1, #255
 468 007a 1800     		movs	r0, r3
 469 007c FFF7FEFF 		bl	__aeabi_uidiv
 470 0080 0300     		movs	r3, r0
 471 0082 1A00     		movs	r2, r3
 472 0084 7B1C     		adds	r3, r7, #1
 473 0086 1A70     		strb	r2, [r3]
 402:..\..\..\BSP/bsp.c ****     
 403:..\..\..\BSP/bsp.c ****     color    |= (color_val << BSP_RGB_BLUE_POS_SHIFT);          /* Set the BLUE Converted value to 
 474              		.loc 1 403 0
 475 0088 7B1C     		adds	r3, r7, #1
 476 008a 1B78     		ldrb	r3, [r3]
 477 008c 7A68     		ldr	r2, [r7, #4]
 478 008e 1343     		orrs	r3, r2
 479 0090 7B60     		str	r3, [r7, #4]
 404:..\..\..\BSP/bsp.c ****     
 405:..\..\..\BSP/bsp.c ****     return (color);
 480              		.loc 1 405 0
 481 0092 7B68     		ldr	r3, [r7, #4]
 406:..\..\..\BSP/bsp.c **** }
 482              		.loc 1 406 0
 483 0094 1800     		movs	r0, r3
 484 0096 BD46     		mov	sp, r7
 485 0098 02B0     		add	sp, sp, #8
 486              		@ sp needed
 487 009a 80BD     		pop	{r7, pc}
 488              		.cfi_endproc
 489              	.LFE40:
 490              		.size	BSP_RGB_ColorRead, .-BSP_RGB_ColorRead
 491              		.section	.text.BSP_PB_StatusGet,"ax",%progbits
 492              		.align	2
 493              		.global	BSP_PB_StatusGet
 494              		.code	16
 495              		.thumb_func
 496              		.type	BSP_PB_StatusGet, %function
 497              	BSP_PB_StatusGet:
 498              	.LFB41:
 407:..\..\..\BSP/bsp.c **** 
 408:..\..\..\BSP/bsp.c **** 
 409:..\..\..\BSP/bsp.c **** /*
 410:..\..\..\BSP/bsp.c **** ***************************************************************************************************
 411:..\..\..\BSP/bsp.c **** ***************************************************************************************************
 412:..\..\..\BSP/bsp.c **** *                                        PUSH BUTTON FUNCTIONS
 413:..\..\..\BSP/bsp.c **** ***************************************************************************************************
 414:..\..\..\BSP/bsp.c **** ***************************************************************************************************
ARM GAS  C:\Users\ADMINI~1\AppData\Local\Temp\cckWWWWy.s 			page 17


 415:..\..\..\BSP/bsp.c **** */
 416:..\..\..\BSP/bsp.c **** 
 417:..\..\..\BSP/bsp.c **** /*
 418:..\..\..\BSP/bsp.c **** ***************************************************************************************************
 419:..\..\..\BSP/bsp.c **** *                                          BSP_PB_StatusGet()
 420:..\..\..\BSP/bsp.c **** *
 421:..\..\..\BSP/bsp.c **** * Description : Get the current status of the push buttons.
 422:..\..\..\BSP/bsp.c **** *
 423:..\..\..\BSP/bsp.c **** * Argument(s) : none.
 424:..\..\..\BSP/bsp.c **** *
 425:..\..\..\BSP/bsp.c **** * Return(s)   : Status of the Push Button (Active Low).
 426:..\..\..\BSP/bsp.c **** *                   - DEF_ON    If the push button is pressed.
 427:..\..\..\BSP/bsp.c **** *                   - DEF_OFF,  Otherwise.
 428:..\..\..\BSP/bsp.c **** *
 429:..\..\..\BSP/bsp.c **** * Caller(s)   : Application
 430:..\..\..\BSP/bsp.c **** *
 431:..\..\..\BSP/bsp.c **** * Note(s)     : (1) 'SW2' is the Set name of the only Push button (USER SW) found on the board. If 
 432:..\..\..\BSP/bsp.c **** *                   push button name changes, this Function call must be updated.
 433:..\..\..\BSP/bsp.c **** ***************************************************************************************************
 434:..\..\..\BSP/bsp.c **** */
 435:..\..\..\BSP/bsp.c **** 
 436:..\..\..\BSP/bsp.c **** CPU_BOOLEAN  BSP_PB_StatusGet (void)
 437:..\..\..\BSP/bsp.c **** {
 499              		.loc 1 437 0
 500              		.cfi_startproc
 501              		@ args = 0, pretend = 0, frame = 8
 502              		@ frame_needed = 1, uses_anonymous_args = 0
 503 0000 90B5     		push	{r4, r7, lr}
 504              		.cfi_def_cfa_offset 12
 505              		.cfi_offset 4, -12
 506              		.cfi_offset 7, -8
 507              		.cfi_offset 14, -4
 508 0002 83B0     		sub	sp, sp, #12
 509              		.cfi_def_cfa_offset 24
 510 0004 00AF     		add	r7, sp, #0
 511              		.cfi_def_cfa_register 7
 438:..\..\..\BSP/bsp.c ****     CPU_BOOLEAN  pb_status;
 439:..\..\..\BSP/bsp.c ****     CPU_INT08U   sw_val;
 440:..\..\..\BSP/bsp.c **** 
 441:..\..\..\BSP/bsp.c ****     
 442:..\..\..\BSP/bsp.c ****     sw_val = SW2_Read();                                        /* Get Push Button 'SW2' Status.   
 512              		.loc 1 442 0
 513 0006 FC1D     		adds	r4, r7, #7
 514 0008 FFF7FEFF 		bl	SW2_Read
 515 000c 0300     		movs	r3, r0
 516 000e 2370     		strb	r3, [r4]
 443:..\..\..\BSP/bsp.c ****     pb_status = DEF_BIT_IS_CLR(sw_val, DEF_BIT_00);             /* Check if 'SW2' was pressed. Acti
 517              		.loc 1 443 0
 518 0010 FB1D     		adds	r3, r7, #7
 519 0012 1B78     		ldrb	r3, [r3]
 520 0014 0122     		movs	r2, #1
 521 0016 1340     		ands	r3, r2
 522 0018 01D1     		bne	.L21
 523              		.loc 1 443 0 is_stmt 0 discriminator 1
 524 001a 0122     		movs	r2, #1
 525 001c 00E0     		b	.L22
 526              	.L21:
ARM GAS  C:\Users\ADMINI~1\AppData\Local\Temp\cckWWWWy.s 			page 18


 527              		.loc 1 443 0 discriminator 2
 528 001e 0022     		movs	r2, #0
 529              	.L22:
 530              		.loc 1 443 0 discriminator 4
 531 0020 BB1D     		adds	r3, r7, #6
 532 0022 1A70     		strb	r2, [r3]
 444:..\..\..\BSP/bsp.c **** 
 445:..\..\..\BSP/bsp.c ****     return (pb_status);
 533              		.loc 1 445 0 is_stmt 1 discriminator 4
 534 0024 BB1D     		adds	r3, r7, #6
 535 0026 1B78     		ldrb	r3, [r3]
 446:..\..\..\BSP/bsp.c **** }
 536              		.loc 1 446 0 discriminator 4
 537 0028 1800     		movs	r0, r3
 538 002a BD46     		mov	sp, r7
 539 002c 03B0     		add	sp, sp, #12
 540              		@ sp needed
 541 002e 90BD     		pop	{r4, r7, pc}
 542              		.cfi_endproc
 543              	.LFE41:
 544              		.size	BSP_PB_StatusGet, .-BSP_PB_StatusGet
 545              		.section	.text.BSP_Accel_Init,"ax",%progbits
 546              		.align	2
 547              		.global	BSP_Accel_Init
 548              		.code	16
 549              		.thumb_func
 550              		.type	BSP_Accel_Init, %function
 551              	BSP_Accel_Init:
 552              	.LFB42:
 447:..\..\..\BSP/bsp.c **** 
 448:..\..\..\BSP/bsp.c **** 
 449:..\..\..\BSP/bsp.c **** /*
 450:..\..\..\BSP/bsp.c **** ***************************************************************************************************
 451:..\..\..\BSP/bsp.c **** ***************************************************************************************************
 452:..\..\..\BSP/bsp.c **** *                                    ACCELEROMETER (I2C) FUNCTIONS
 453:..\..\..\BSP/bsp.c **** ***************************************************************************************************
 454:..\..\..\BSP/bsp.c **** ***************************************************************************************************
 455:..\..\..\BSP/bsp.c **** */
 456:..\..\..\BSP/bsp.c **** 
 457:..\..\..\BSP/bsp.c **** /*
 458:..\..\..\BSP/bsp.c **** ***************************************************************************************************
 459:..\..\..\BSP/bsp.c **** *                                           BSP_Accel_Init()
 460:..\..\..\BSP/bsp.c **** *
 461:..\..\..\BSP/bsp.c **** * Description : Initialize the Accelerometer, connected via I2C communication, for proper operation
 462:..\..\..\BSP/bsp.c **** *
 463:..\..\..\BSP/bsp.c **** * Argument(s) : none.
 464:..\..\..\BSP/bsp.c **** *
 465:..\..\..\BSP/bsp.c **** * Return(s)   : none.
 466:..\..\..\BSP/bsp.c **** *
 467:..\..\..\BSP/bsp.c **** * Caller(s)   : BSP_Init().
 468:..\..\..\BSP/bsp.c **** *
 469:..\..\..\BSP/bsp.c **** * Note(s)     : (1) The Desired Wake Up Timer Counts should be Calculated using the following equat
 470:..\..\..\BSP/bsp.c **** *                       Counts = Desired Delay Time (sec) x ODR Period (Hz) [OWUF]
 471:..\..\..\BSP/bsp.c **** *
 472:..\..\..\BSP/bsp.c **** *                   Every Count is Calculated as 1/OWUF Delay Period.
 473:..\..\..\BSP/bsp.c **** *
 474:..\..\..\BSP/bsp.c **** *               (2) The Desired Wake Up Threshold Counts should be Calculated using the following e
ARM GAS  C:\Users\ADMINI~1\AppData\Local\Temp\cckWWWWy.s 			page 19


 475:..\..\..\BSP/bsp.c **** *                       Threshold Counts = Desired Threshold (g) x 16 (counts/g)
 476:..\..\..\BSP/bsp.c **** *
 477:..\..\..\BSP/bsp.c **** *                   The Factory Setting of the value is set to a change in Acceleration of 0.5g
 478:..\..\..\BSP/bsp.c **** ***************************************************************************************************
 479:..\..\..\BSP/bsp.c **** */
 480:..\..\..\BSP/bsp.c **** 
 481:..\..\..\BSP/bsp.c **** void  BSP_Accel_Init (void)
 482:..\..\..\BSP/bsp.c **** {
 553              		.loc 1 482 0
 554              		.cfi_startproc
 555              		@ args = 0, pretend = 0, frame = 8
 556              		@ frame_needed = 1, uses_anonymous_args = 0
 557 0000 90B5     		push	{r4, r7, lr}
 558              		.cfi_def_cfa_offset 12
 559              		.cfi_offset 4, -12
 560              		.cfi_offset 7, -8
 561              		.cfi_offset 14, -4
 562 0002 83B0     		sub	sp, sp, #12
 563              		.cfi_def_cfa_offset 24
 564 0004 00AF     		add	r7, sp, #0
 565              		.cfi_def_cfa_register 7
 483:..\..\..\BSP/bsp.c ****     CPU_BOOLEAN  accel_status;
 484:..\..\..\BSP/bsp.c ****     CPU_INT08U   data_resp;
 485:..\..\..\BSP/bsp.c ****     
 486:..\..\..\BSP/bsp.c ****                                                                 /* ----------- INIT I2C BLOCK & ISR
 487:..\..\..\BSP/bsp.c ****     I2C_Start();                                                /* Enable and Start the I2C Block f
 566              		.loc 1 487 0
 567 0006 FFF7FEFF 		bl	I2C_Start
 488:..\..\..\BSP/bsp.c ****     Accel_ISR_StartEx(BSP_Accel_ISR_Handler);                   /* Enable, Start, and Set the ISR H
 568              		.loc 1 488 0
 569 000a 374B     		ldr	r3, .L28
 570 000c 1800     		movs	r0, r3
 571 000e FFF7FEFF 		bl	Accel_ISR_StartEx
 489:..\..\..\BSP/bsp.c ****     
 490:..\..\..\BSP/bsp.c ****     BSP_OS_TimeDlyMs(50u);                                      /* Delay for 50ms to Allow the Acce
 572              		.loc 1 490 0
 573 0012 3220     		movs	r0, #50
 574 0014 FFF7FEFF 		bl	BSP_OS_TimeDlyMs
 491:..\..\..\BSP/bsp.c ****     
 492:..\..\..\BSP/bsp.c ****     accel_status = BSP_Accel_InitSelfTst();                     /* Run the Accel Self-Test to Ensur
 575              		.loc 1 492 0
 576 0018 FC1D     		adds	r4, r7, #7
 577 001a FFF7FEFF 		bl	BSP_Accel_InitSelfTst
 578 001e 0300     		movs	r3, r0
 579 0020 2370     		strb	r3, [r4]
 493:..\..\..\BSP/bsp.c ****     if (accel_status != DEF_OK) {
 580              		.loc 1 493 0
 581 0022 FB1D     		adds	r3, r7, #7
 582 0024 1B78     		ldrb	r3, [r3]
 583 0026 012B     		cmp	r3, #1
 584 0028 59D1     		bne	.L27
 494:..\..\..\BSP/bsp.c ****         return;                                                 /* Error Checking, if Self Test Fai
 495:..\..\..\BSP/bsp.c ****     }
 496:..\..\..\BSP/bsp.c ****                                                                 /* ------------- SET CONTROL REG 1 
 497:..\..\..\BSP/bsp.c ****     data_resp = (BSP_ACC_KXTJ2_CTRL_REG1_RES      |             /* CTRL_REG1: High Current 12-Bit/1
 585              		.loc 1 497 0
 586 002a BB1D     		adds	r3, r7, #6
ARM GAS  C:\Users\ADMINI~1\AppData\Local\Temp\cckWWWWy.s 			page 20


 587 002c 6222     		movs	r2, #98
 588 002e 1A70     		strb	r2, [r3]
 498:..\..\..\BSP/bsp.c ****                  BSP_ACC_KXTJ2_CTRL_REG1_DRDYE    |             /*          : Reflect New Accel Dat
 499:..\..\..\BSP/bsp.c ****                  BSP_ACC_KXTJ2_CTRL_REG1_GSELx_2G |             /*          : Acceleration Range of
 500:..\..\..\BSP/bsp.c ****                  BSP_ACC_KXTJ2_CTRL_REG1_WUFE     );            /*          : Wake Up on Motion Det
 501:..\..\..\BSP/bsp.c ****                                                                 /*          : Set Stand-By Mode. (B
 502:..\..\..\BSP/bsp.c ****     BSP_Accel_RegRdWr( BSP_KXTJ2_DIR_WRITE,                     /* Write the Control Register #1 Se
 589              		.loc 1 502 0
 590 0030 BB1D     		adds	r3, r7, #6
 591 0032 1A00     		movs	r2, r3
 592 0034 1B21     		movs	r1, #27
 593 0036 0020     		movs	r0, #0
 594 0038 FFF7FEFF 		bl	BSP_Accel_RegRdWr
 503:..\..\..\BSP/bsp.c ****                        BSP_ACCEL_REG_CTRL_REG1,
 504:..\..\..\BSP/bsp.c ****                       &data_resp);
 505:..\..\..\BSP/bsp.c ****                                                                 /* ------------- SET CONTROL REG 2 
 506:..\..\..\BSP/bsp.c ****     data_resp =  BSP_ACC_KXTJ2_CTRL_REG2_OWUFx_12_5Hz;          /* CTRL_REG2: Wake Up Fnct Output D
 595              		.loc 1 506 0
 596 003c BB1D     		adds	r3, r7, #6
 597 003e 0422     		movs	r2, #4
 598 0040 1A70     		strb	r2, [r3]
 507:..\..\..\BSP/bsp.c ****                                                                 /*          : DISABLE Software Rese
 508:..\..\..\BSP/bsp.c ****                                                                 /*          : Do Not Perform Self-T
 509:..\..\..\BSP/bsp.c ****     BSP_Accel_RegRdWr( BSP_KXTJ2_DIR_WRITE,                     /* Write the Control Register #2 Se
 599              		.loc 1 509 0
 600 0042 BB1D     		adds	r3, r7, #6
 601 0044 1A00     		movs	r2, r3
 602 0046 1D21     		movs	r1, #29
 603 0048 0020     		movs	r0, #0
 604 004a FFF7FEFF 		bl	BSP_Accel_RegRdWr
 510:..\..\..\BSP/bsp.c ****                        BSP_ACCEL_REG_CTRL_REG2,
 511:..\..\..\BSP/bsp.c ****                       &data_resp);
 512:..\..\..\BSP/bsp.c ****                                                                 /* ----------- SET INTERRUPT CONTRO
 513:..\..\..\BSP/bsp.c ****     data_resp = (BSP_ACC_KXTJ2_INT_CTRL_REG1_IEN |              /* INT_CTRL1: ENABLE Interrupt Pin.
 605              		.loc 1 513 0
 606 004e BB1D     		adds	r3, r7, #6
 607 0050 3022     		movs	r2, #48
 608 0052 1A70     		strb	r2, [r3]
 514:..\..\..\BSP/bsp.c ****                  BSP_ACC_KXTJ2_INT_CTRL_REG1_IEA );             /*          : Interrupt Polarity, A
 515:..\..\..\BSP/bsp.c ****                                                                 /*          : Interrupt Latches Unt
 516:..\..\..\BSP/bsp.c ****     BSP_Accel_RegRdWr( BSP_KXTJ2_DIR_WRITE,                     /* Write the Interrupt Control Regi
 609              		.loc 1 516 0
 610 0054 BB1D     		adds	r3, r7, #6
 611 0056 1A00     		movs	r2, r3
 612 0058 1E21     		movs	r1, #30
 613 005a 0020     		movs	r0, #0
 614 005c FFF7FEFF 		bl	BSP_Accel_RegRdWr
 517:..\..\..\BSP/bsp.c ****                        BSP_ACCEL_REG_INT_CTRL_REG1,
 518:..\..\..\BSP/bsp.c ****                       &data_resp);
 519:..\..\..\BSP/bsp.c ****     
 520:..\..\..\BSP/bsp.c ****     data_resp = (BSP_ACC_KXTJ2_INT_CTRL_REG2_XNWUE |            /* INT_CTRL2: Enable Interrupt Moti
 615              		.loc 1 520 0
 616 0060 BB1D     		adds	r3, r7, #6
 617 0062 3F22     		movs	r2, #63
 618 0064 1A70     		strb	r2, [r3]
 521:..\..\..\BSP/bsp.c ****                  BSP_ACC_KXTJ2_INT_CTRL_REG2_XPWUE |            /*          :                      
 522:..\..\..\BSP/bsp.c ****                  BSP_ACC_KXTJ2_INT_CTRL_REG2_YNWUE |            /*          :                      
ARM GAS  C:\Users\ADMINI~1\AppData\Local\Temp\cckWWWWy.s 			page 21


 523:..\..\..\BSP/bsp.c ****                  BSP_ACC_KXTJ2_INT_CTRL_REG2_YPWUE |            /*          :                      
 524:..\..\..\BSP/bsp.c ****                  BSP_ACC_KXTJ2_INT_CTRL_REG2_ZNWUE |            /*          :                      
 525:..\..\..\BSP/bsp.c ****                  BSP_ACC_KXTJ2_INT_CTRL_REG2_ZPWUE );           /*          :                      
 526:..\..\..\BSP/bsp.c ****     BSP_Accel_RegRdWr( BSP_KXTJ2_DIR_WRITE,                     /* Write the Interrupt Control Regi
 619              		.loc 1 526 0
 620 0066 BB1D     		adds	r3, r7, #6
 621 0068 1A00     		movs	r2, r3
 622 006a 1F21     		movs	r1, #31
 623 006c 0020     		movs	r0, #0
 624 006e FFF7FEFF 		bl	BSP_Accel_RegRdWr
 527:..\..\..\BSP/bsp.c ****                        BSP_ACCEL_REG_INT_CTRL_REG2,
 528:..\..\..\BSP/bsp.c ****                       &data_resp);
 529:..\..\..\BSP/bsp.c ****                                                                 /* --------------- DATA CONTROL OPT
 530:..\..\..\BSP/bsp.c ****     data_resp =  BSP_ACC_KXTJ2_DATA_CTRL_OSAx_50Hz;             /* DATA_CTRL_REG: Set Accel Output 
 625              		.loc 1 530 0
 626 0072 BB1D     		adds	r3, r7, #6
 627 0074 0222     		movs	r2, #2
 628 0076 1A70     		strb	r2, [r3]
 531:..\..\..\BSP/bsp.c ****     BSP_Accel_RegRdWr( BSP_KXTJ2_DIR_WRITE,                     /* Write the Data Control Register 
 629              		.loc 1 531 0
 630 0078 BB1D     		adds	r3, r7, #6
 631 007a 1A00     		movs	r2, r3
 632 007c 2121     		movs	r1, #33
 633 007e 0020     		movs	r0, #0
 634 0080 FFF7FEFF 		bl	BSP_Accel_RegRdWr
 532:..\..\..\BSP/bsp.c ****                        BSP_ACCEL_REG_DATA_CTRL_REG,
 533:..\..\..\BSP/bsp.c ****                       &data_resp);
 534:..\..\..\BSP/bsp.c ****                                                                 /* ------------------ WAKEUP OPTION
 535:..\..\..\BSP/bsp.c ****     data_resp = BSP_ACCEL_WAKEUP_CNTS;                          /* Set the Wake Up Timer Counts. Se
 635              		.loc 1 535 0
 636 0084 BB1D     		adds	r3, r7, #6
 637 0086 3222     		movs	r2, #50
 638 0088 1A70     		strb	r2, [r3]
 536:..\..\..\BSP/bsp.c ****     BSP_Accel_RegRdWr( BSP_KXTJ2_DIR_WRITE,                     /* Write the Wakeup Timer Register 
 639              		.loc 1 536 0
 640 008a BB1D     		adds	r3, r7, #6
 641 008c 1A00     		movs	r2, r3
 642 008e 2921     		movs	r1, #41
 643 0090 0020     		movs	r0, #0
 644 0092 FFF7FEFF 		bl	BSP_Accel_RegRdWr
 537:..\..\..\BSP/bsp.c ****                        BSP_ACCEL_REG_WAKEUP_TIMER,
 538:..\..\..\BSP/bsp.c ****                       &data_resp);
 539:..\..\..\BSP/bsp.c ****     
 540:..\..\..\BSP/bsp.c ****     data_resp = BSP_ACCEL_WAKEUP_THRESH_CNTS;                   /* Set the Wake Up Threshold Counts
 645              		.loc 1 540 0
 646 0096 BB1D     		adds	r3, r7, #6
 647 0098 0822     		movs	r2, #8
 648 009a 1A70     		strb	r2, [r3]
 541:..\..\..\BSP/bsp.c ****     BSP_Accel_RegRdWr( BSP_KXTJ2_DIR_WRITE,                     /* Write the Wakeup Threshold Regis
 649              		.loc 1 541 0
 650 009c BB1D     		adds	r3, r7, #6
 651 009e 1A00     		movs	r2, r3
 652 00a0 6A21     		movs	r1, #106
 653 00a2 0020     		movs	r0, #0
 654 00a4 FFF7FEFF 		bl	BSP_Accel_RegRdWr
 542:..\..\..\BSP/bsp.c ****                        BSP_ACCEL_REG_WAKUP_THRESHOLD,
 543:..\..\..\BSP/bsp.c ****                       &data_resp);
ARM GAS  C:\Users\ADMINI~1\AppData\Local\Temp\cckWWWWy.s 			page 22


 544:..\..\..\BSP/bsp.c ****                                                                 /* ---------------- START ACCELEROM
 545:..\..\..\BSP/bsp.c ****     BSP_Accel_RegRdWr( BSP_KXTJ2_DIR_READ,                      /* Get Control Register #1 Current 
 655              		.loc 1 545 0
 656 00a8 BB1D     		adds	r3, r7, #6
 657 00aa 1A00     		movs	r2, r3
 658 00ac 1B21     		movs	r1, #27
 659 00ae 0120     		movs	r0, #1
 660 00b0 FFF7FEFF 		bl	BSP_Accel_RegRdWr
 546:..\..\..\BSP/bsp.c ****                        BSP_ACCEL_REG_CTRL_REG1,
 547:..\..\..\BSP/bsp.c ****                       &data_resp);
 548:..\..\..\BSP/bsp.c ****     
 549:..\..\..\BSP/bsp.c ****     DEF_BIT_SET(data_resp, BSP_ACC_KXTJ2_CTRL_REG1_PC1);        /* Clear PC1 Bit to set KXTJ2 Modul
 661              		.loc 1 549 0
 662 00b4 BB1D     		adds	r3, r7, #6
 663 00b6 1B78     		ldrb	r3, [r3]
 664 00b8 8022     		movs	r2, #128
 665 00ba 5242     		rsbs	r2, r2, #0
 666 00bc 1343     		orrs	r3, r2
 667 00be DAB2     		uxtb	r2, r3
 668 00c0 BB1D     		adds	r3, r7, #6
 669 00c2 1A70     		strb	r2, [r3]
 550:..\..\..\BSP/bsp.c ****     
 551:..\..\..\BSP/bsp.c ****     BSP_Accel_RegRdWr( BSP_KXTJ2_DIR_WRITE,                     /* Write the Updated Control Regist
 670              		.loc 1 551 0
 671 00c4 BB1D     		adds	r3, r7, #6
 672 00c6 1A00     		movs	r2, r3
 673 00c8 1B21     		movs	r1, #27
 674 00ca 0020     		movs	r0, #0
 675 00cc FFF7FEFF 		bl	BSP_Accel_RegRdWr
 552:..\..\..\BSP/bsp.c ****                        BSP_ACCEL_REG_CTRL_REG1,
 553:..\..\..\BSP/bsp.c ****                       &data_resp);
 554:..\..\..\BSP/bsp.c ****                                                                 /* ----------------- CLR PENDING IN
 555:..\..\..\BSP/bsp.c ****     BSP_Accel_RegRdWr( BSP_KXTJ2_DIR_READ,                      /* Read INT_REL to Clear any Int Sr
 676              		.loc 1 555 0
 677 00d0 BB1D     		adds	r3, r7, #6
 678 00d2 1A00     		movs	r2, r3
 679 00d4 1A21     		movs	r1, #26
 680 00d6 0120     		movs	r0, #1
 681 00d8 FFF7FEFF 		bl	BSP_Accel_RegRdWr
 682 00dc 00E0     		b	.L24
 683              	.L27:
 494:..\..\..\BSP/bsp.c ****     }
 684              		.loc 1 494 0
 685 00de C046     		nop
 686              	.L24:
 556:..\..\..\BSP/bsp.c ****                        BSP_ACCEL_REG_INT_REL,
 557:..\..\..\BSP/bsp.c ****                       &data_resp);
 558:..\..\..\BSP/bsp.c **** }
 687              		.loc 1 558 0
 688 00e0 BD46     		mov	sp, r7
 689 00e2 03B0     		add	sp, sp, #12
 690              		@ sp needed
 691 00e4 90BD     		pop	{r4, r7, pc}
 692              	.L29:
 693 00e6 C046     		.align	2
 694              	.L28:
 695 00e8 00000000 		.word	BSP_Accel_ISR_Handler
ARM GAS  C:\Users\ADMINI~1\AppData\Local\Temp\cckWWWWy.s 			page 23


 696              		.cfi_endproc
 697              	.LFE42:
 698              		.size	BSP_Accel_Init, .-BSP_Accel_Init
 699              		.section	.text.BSP_Accel_InitSelfTst,"ax",%progbits
 700              		.align	2
 701              		.code	16
 702              		.thumb_func
 703              		.type	BSP_Accel_InitSelfTst, %function
 704              	BSP_Accel_InitSelfTst:
 705              	.LFB43:
 559:..\..\..\BSP/bsp.c **** 
 560:..\..\..\BSP/bsp.c **** 
 561:..\..\..\BSP/bsp.c **** /*
 562:..\..\..\BSP/bsp.c **** ***************************************************************************************************
 563:..\..\..\BSP/bsp.c **** *                                       BSP_Accel_InitSelfTst()
 564:..\..\..\BSP/bsp.c **** *
 565:..\..\..\BSP/bsp.c **** * Description : Runs a Test Routine to make sure the Accelerometer Communication is Functional at I
 566:..\..\..\BSP/bsp.c **** *
 567:..\..\..\BSP/bsp.c **** * Argument(s) : none.
 568:..\..\..\BSP/bsp.c **** *
 569:..\..\..\BSP/bsp.c **** * Return(s)   : I2C Communication Status
 570:..\..\..\BSP/bsp.c **** *                   - DEF_FAIL: If Error in I2C Communication Sequence.
 571:..\..\..\BSP/bsp.c **** *                   - DEF_OK  : Otherwise, Everything went OK.
 572:..\..\..\BSP/bsp.c **** *
 573:..\..\..\BSP/bsp.c **** * Caller(s)   : BSP_Accel_Init()
 574:..\..\..\BSP/bsp.c **** *
 575:..\..\..\BSP/bsp.c **** * Note(s)     : none.
 576:..\..\..\BSP/bsp.c **** ***************************************************************************************************
 577:..\..\..\BSP/bsp.c **** */
 578:..\..\..\BSP/bsp.c **** 
 579:..\..\..\BSP/bsp.c **** CPU_BOOLEAN  BSP_Accel_InitSelfTst (void)
 580:..\..\..\BSP/bsp.c **** {
 706              		.loc 1 580 0
 707              		.cfi_startproc
 708              		@ args = 0, pretend = 0, frame = 8
 709              		@ frame_needed = 1, uses_anonymous_args = 0
 710 0000 90B5     		push	{r4, r7, lr}
 711              		.cfi_def_cfa_offset 12
 712              		.cfi_offset 4, -12
 713              		.cfi_offset 7, -8
 714              		.cfi_offset 14, -4
 715 0002 83B0     		sub	sp, sp, #12
 716              		.cfi_def_cfa_offset 24
 717 0004 00AF     		add	r7, sp, #0
 718              		.cfi_def_cfa_register 7
 581:..\..\..\BSP/bsp.c ****     CPU_BOOLEAN  test_status;
 582:..\..\..\BSP/bsp.c ****     CPU_BOOLEAN  accel_resp;
 583:..\..\..\BSP/bsp.c ****     CPU_INT08U   data_resp;
 584:..\..\..\BSP/bsp.c ****     
 585:..\..\..\BSP/bsp.c ****                                                                 /* ------------ MODULE/CIRCUIT VERI
 586:..\..\..\BSP/bsp.c ****     accel_resp = BSP_Accel_RegRdWr( BSP_KXTJ2_DIR_READ,         /* Read DCST Reg to verify proper C
 719              		.loc 1 586 0
 720 0006 FC1D     		adds	r4, r7, #7
 721 0008 BB1D     		adds	r3, r7, #6
 722 000a 1A00     		movs	r2, r3
 723 000c 0C21     		movs	r1, #12
 724 000e 0120     		movs	r0, #1
ARM GAS  C:\Users\ADMINI~1\AppData\Local\Temp\cckWWWWy.s 			page 24


 725 0010 FFF7FEFF 		bl	BSP_Accel_RegRdWr
 726 0014 0300     		movs	r3, r0
 727 0016 2370     		strb	r3, [r4]
 587:..\..\..\BSP/bsp.c ****                                     BSP_ACCEL_REG_DCST_RESP,
 588:..\..\..\BSP/bsp.c ****                                    &data_resp);
 589:..\..\..\BSP/bsp.c ****     if ((accel_resp != DEF_OK) ||
 728              		.loc 1 589 0
 729 0018 FB1D     		adds	r3, r7, #7
 730 001a 1B78     		ldrb	r3, [r3]
 731 001c 012B     		cmp	r3, #1
 732 001e 03D1     		bne	.L31
 590:..\..\..\BSP/bsp.c ****         (data_resp  != BSP_ACC_KXTJ2_DCST_RESP_1)) {            /* If Communication was OK & Data R
 733              		.loc 1 590 0 discriminator 1
 734 0020 BB1D     		adds	r3, r7, #6
 735 0022 1B78     		ldrb	r3, [r3]
 589:..\..\..\BSP/bsp.c ****         (data_resp  != BSP_ACC_KXTJ2_DCST_RESP_1)) {            /* If Communication was OK & Data R
 736              		.loc 1 589 0 discriminator 1
 737 0024 552B     		cmp	r3, #85
 738 0026 01D0     		beq	.L32
 739              	.L31:
 591:..\..\..\BSP/bsp.c ****         return (DEF_FAIL);                                      /* ... Key #1, then Continue with S
 740              		.loc 1 591 0
 741 0028 0023     		movs	r3, #0
 742 002a 4CE0     		b	.L38
 743              	.L32:
 592:..\..\..\BSP/bsp.c ****     }
 593:..\..\..\BSP/bsp.c ****                                                                 /* ---------------- SET OPERATING M
 594:..\..\..\BSP/bsp.c ****     BSP_Accel_RegRdWr( BSP_KXTJ2_DIR_READ,                      /* Get current Control Register #1 
 744              		.loc 1 594 0
 745 002c BB1D     		adds	r3, r7, #6
 746 002e 1A00     		movs	r2, r3
 747 0030 1B21     		movs	r1, #27
 748 0032 0120     		movs	r0, #1
 749 0034 FFF7FEFF 		bl	BSP_Accel_RegRdWr
 595:..\..\..\BSP/bsp.c ****                        BSP_ACCEL_REG_CTRL_REG1,
 596:..\..\..\BSP/bsp.c ****                       &data_resp);
 597:..\..\..\BSP/bsp.c ****     
 598:..\..\..\BSP/bsp.c ****     DEF_BIT_CLR(data_resp, BSP_ACC_KXTJ2_CTRL_REG1_PC1);        /* Clear PC1 Bit to set KXTJ2 Modul
 750              		.loc 1 598 0
 751 0038 BB1D     		adds	r3, r7, #6
 752 003a 1B78     		ldrb	r3, [r3]
 753 003c 7F22     		movs	r2, #127
 754 003e 1340     		ands	r3, r2
 755 0040 DAB2     		uxtb	r2, r3
 756 0042 BB1D     		adds	r3, r7, #6
 757 0044 1A70     		strb	r2, [r3]
 599:..\..\..\BSP/bsp.c ****     
 600:..\..\..\BSP/bsp.c ****     BSP_Accel_RegRdWr( BSP_KXTJ2_DIR_WRITE,                     /* Write the Updated Control Regist
 758              		.loc 1 600 0
 759 0046 BB1D     		adds	r3, r7, #6
 760 0048 1A00     		movs	r2, r3
 761 004a 1B21     		movs	r1, #27
 762 004c 0020     		movs	r0, #0
 763 004e FFF7FEFF 		bl	BSP_Accel_RegRdWr
 601:..\..\..\BSP/bsp.c ****                        BSP_ACCEL_REG_CTRL_REG1,
 602:..\..\..\BSP/bsp.c ****                       &data_resp);
 603:..\..\..\BSP/bsp.c ****                                                                 /* ----------------- PERFORM SELF-T
ARM GAS  C:\Users\ADMINI~1\AppData\Local\Temp\cckWWWWy.s 			page 25


 604:..\..\..\BSP/bsp.c ****     BSP_Accel_RegRdWr( BSP_KXTJ2_DIR_READ,                      /* Get current Control Register #2 
 764              		.loc 1 604 0
 765 0052 BB1D     		adds	r3, r7, #6
 766 0054 1A00     		movs	r2, r3
 767 0056 1D21     		movs	r1, #29
 768 0058 0120     		movs	r0, #1
 769 005a FFF7FEFF 		bl	BSP_Accel_RegRdWr
 605:..\..\..\BSP/bsp.c ****                        BSP_ACCEL_REG_CTRL_REG2,
 606:..\..\..\BSP/bsp.c ****                       &data_resp);
 607:..\..\..\BSP/bsp.c ****     
 608:..\..\..\BSP/bsp.c ****     DEF_BIT_SET(data_resp, BSP_ACC_KXTJ2_CTRL_REG2_DCST);       /* Set the DCST Bit to Perform the 
 770              		.loc 1 608 0
 771 005e BB1D     		adds	r3, r7, #6
 772 0060 1B78     		ldrb	r3, [r3]
 773 0062 1022     		movs	r2, #16
 774 0064 1343     		orrs	r3, r2
 775 0066 DAB2     		uxtb	r2, r3
 776 0068 BB1D     		adds	r3, r7, #6
 777 006a 1A70     		strb	r2, [r3]
 609:..\..\..\BSP/bsp.c ****     
 610:..\..\..\BSP/bsp.c ****     BSP_Accel_RegRdWr( BSP_KXTJ2_DIR_WRITE,                     /* Write the Updated Control Regist
 778              		.loc 1 610 0
 779 006c BB1D     		adds	r3, r7, #6
 780 006e 1A00     		movs	r2, r3
 781 0070 1D21     		movs	r1, #29
 782 0072 0020     		movs	r0, #0
 783 0074 FFF7FEFF 		bl	BSP_Accel_RegRdWr
 611:..\..\..\BSP/bsp.c ****                        BSP_ACCEL_REG_CTRL_REG2,
 612:..\..\..\BSP/bsp.c ****                       &data_resp);
 613:..\..\..\BSP/bsp.c ****                                                                 /* ------------------- STATUS CHECK
 614:..\..\..\BSP/bsp.c ****     accel_resp = BSP_Accel_RegRdWr( BSP_KXTJ2_DIR_READ,         /* Read DCST Reg to Confirm Self-Te
 784              		.loc 1 614 0
 785 0078 FC1D     		adds	r4, r7, #7
 786 007a BB1D     		adds	r3, r7, #6
 787 007c 1A00     		movs	r2, r3
 788 007e 0C21     		movs	r1, #12
 789 0080 0120     		movs	r0, #1
 790 0082 FFF7FEFF 		bl	BSP_Accel_RegRdWr
 791 0086 0300     		movs	r3, r0
 792 0088 2370     		strb	r3, [r4]
 615:..\..\..\BSP/bsp.c ****                                     BSP_ACCEL_REG_DCST_RESP,
 616:..\..\..\BSP/bsp.c ****                                    &data_resp);
 617:..\..\..\BSP/bsp.c ****     if ((accel_resp != DEF_OK) ||
 793              		.loc 1 617 0
 794 008a FB1D     		adds	r3, r7, #7
 795 008c 1B78     		ldrb	r3, [r3]
 796 008e 012B     		cmp	r3, #1
 797 0090 03D1     		bne	.L34
 618:..\..\..\BSP/bsp.c ****         (data_resp  != BSP_ACC_KXTJ2_DCST_RESP_2)) {            /* If Communication was OK & Data R
 798              		.loc 1 618 0 discriminator 1
 799 0092 BB1D     		adds	r3, r7, #6
 800 0094 1B78     		ldrb	r3, [r3]
 617:..\..\..\BSP/bsp.c ****         (data_resp  != BSP_ACC_KXTJ2_DCST_RESP_2)) {            /* If Communication was OK & Data R
 801              		.loc 1 617 0 discriminator 1
 802 0096 AA2B     		cmp	r3, #170
 803 0098 01D0     		beq	.L35
 804              	.L34:
ARM GAS  C:\Users\ADMINI~1\AppData\Local\Temp\cckWWWWy.s 			page 26


 619:..\..\..\BSP/bsp.c ****         return (DEF_FAIL);                                      /* ... Key #2, then Continue with S
 805              		.loc 1 619 0
 806 009a 0023     		movs	r3, #0
 807 009c 13E0     		b	.L38
 808              	.L35:
 620:..\..\..\BSP/bsp.c ****     }
 621:..\..\..\BSP/bsp.c ****     
 622:..\..\..\BSP/bsp.c ****     accel_resp = BSP_Accel_RegRdWr( BSP_KXTJ2_DIR_READ,         /* Read DCST Reg Once More, Value M
 809              		.loc 1 622 0
 810 009e FC1D     		adds	r4, r7, #7
 811 00a0 BB1D     		adds	r3, r7, #6
 812 00a2 1A00     		movs	r2, r3
 813 00a4 0C21     		movs	r1, #12
 814 00a6 0120     		movs	r0, #1
 815 00a8 FFF7FEFF 		bl	BSP_Accel_RegRdWr
 816 00ac 0300     		movs	r3, r0
 817 00ae 2370     		strb	r3, [r4]
 623:..\..\..\BSP/bsp.c ****                                     BSP_ACCEL_REG_DCST_RESP,
 624:..\..\..\BSP/bsp.c ****                                    &data_resp);
 625:..\..\..\BSP/bsp.c ****     if ((accel_resp != DEF_OK) ||
 818              		.loc 1 625 0
 819 00b0 FB1D     		adds	r3, r7, #7
 820 00b2 1B78     		ldrb	r3, [r3]
 821 00b4 012B     		cmp	r3, #1
 822 00b6 03D1     		bne	.L36
 626:..\..\..\BSP/bsp.c ****         (data_resp  != BSP_ACC_KXTJ2_DCST_RESP_1)) {            /* If Communication was OK & Data R
 823              		.loc 1 626 0 discriminator 1
 824 00b8 BB1D     		adds	r3, r7, #6
 825 00ba 1B78     		ldrb	r3, [r3]
 625:..\..\..\BSP/bsp.c ****         (data_resp  != BSP_ACC_KXTJ2_DCST_RESP_1)) {            /* If Communication was OK & Data R
 826              		.loc 1 625 0 discriminator 1
 827 00bc 552B     		cmp	r3, #85
 828 00be 01D0     		beq	.L37
 829              	.L36:
 627:..\..\..\BSP/bsp.c ****         return (DEF_FAIL);                                      /* ... Key #1, then end the Init Se
 830              		.loc 1 627 0
 831 00c0 0023     		movs	r3, #0
 832 00c2 00E0     		b	.L38
 833              	.L37:
 628:..\..\..\BSP/bsp.c ****     }
 629:..\..\..\BSP/bsp.c ****     
 630:..\..\..\BSP/bsp.c ****     return (DEF_OK);
 834              		.loc 1 630 0
 835 00c4 0123     		movs	r3, #1
 836              	.L38:
 631:..\..\..\BSP/bsp.c **** }
 837              		.loc 1 631 0 discriminator 1
 838 00c6 1800     		movs	r0, r3
 839 00c8 BD46     		mov	sp, r7
 840 00ca 03B0     		add	sp, sp, #12
 841              		@ sp needed
 842 00cc 90BD     		pop	{r4, r7, pc}
 843              		.cfi_endproc
 844              	.LFE43:
 845              		.size	BSP_Accel_InitSelfTst, .-BSP_Accel_InitSelfTst
 846 00ce C046     		.section	.text.BSP_Accel_RegRdWr,"ax",%progbits
 847              		.align	2
ARM GAS  C:\Users\ADMINI~1\AppData\Local\Temp\cckWWWWy.s 			page 27


 848              		.code	16
 849              		.thumb_func
 850              		.type	BSP_Accel_RegRdWr, %function
 851              	BSP_Accel_RegRdWr:
 852              	.LFB44:
 632:..\..\..\BSP/bsp.c **** 
 633:..\..\..\BSP/bsp.c **** 
 634:..\..\..\BSP/bsp.c **** /*
 635:..\..\..\BSP/bsp.c **** ***************************************************************************************************
 636:..\..\..\BSP/bsp.c **** *                                         BSP_Accel_RegRdWr()
 637:..\..\..\BSP/bsp.c **** *
 638:..\..\..\BSP/bsp.c **** * Description : Read or Write a Byte from a specific Register location via I2C Communication.
 639:..\..\..\BSP/bsp.c **** *
 640:..\..\..\BSP/bsp.c **** * Argument(s) : rd_wr       Direction Status Flag:
 641:..\..\..\BSP/bsp.c **** *                               - BSP_KXTJ2_DIR_WRITE: Write a Data Byte
 642:..\..\..\BSP/bsp.c **** *                               - BSP_KXTJ2_DIR_READ : Read  a Data Byte
 643:..\..\..\BSP/bsp.c **** *
 644:..\..\..\BSP/bsp.c **** *               reg         Address of Desired Register to either Read or Write from.
 645:..\..\..\BSP/bsp.c **** *
 646:..\..\..\BSP/bsp.c **** *               value       When Writing: The Value Desired Byte to Write.
 647:..\..\..\BSP/bsp.c **** *                           When Reading: The Location to Store the Read Byte.
 648:..\..\..\BSP/bsp.c **** *
 649:..\..\..\BSP/bsp.c **** * Return(s)   : I2C Communication Status
 650:..\..\..\BSP/bsp.c **** *                   - DEF_FAIL: If Error in I2C Communication Sequence.
 651:..\..\..\BSP/bsp.c **** *                   - DEF_OK  : Otherwise, Everything went OK.
 652:..\..\..\BSP/bsp.c **** *
 653:..\..\..\BSP/bsp.c **** * Caller(s)   : BSP_Accel_Init().
 654:..\..\..\BSP/bsp.c **** *               BSP_Accel_InitSelfTst().
 655:..\..\..\BSP/bsp.c **** *               BSP_Accel_Rd().
 656:..\..\..\BSP/bsp.c **** *
 657:..\..\..\BSP/bsp.c **** * Note(s)     : none.
 658:..\..\..\BSP/bsp.c **** ***************************************************************************************************
 659:..\..\..\BSP/bsp.c **** */
 660:..\..\..\BSP/bsp.c **** 
 661:..\..\..\BSP/bsp.c **** CPU_BOOLEAN  BSP_Accel_RegRdWr (BSP_KXTJ2_DATA_DIR   rd_wr,
 662:..\..\..\BSP/bsp.c ****                                 CPU_INT08U           reg,
 663:..\..\..\BSP/bsp.c ****                                 CPU_INT08U          *value)
 664:..\..\..\BSP/bsp.c **** {
 853              		.loc 1 664 0
 854              		.cfi_startproc
 855              		@ args = 0, pretend = 0, frame = 16
 856              		@ frame_needed = 1, uses_anonymous_args = 0
 857 0000 80B5     		push	{r7, lr}
 858              		.cfi_def_cfa_offset 8
 859              		.cfi_offset 7, -8
 860              		.cfi_offset 14, -4
 861 0002 84B0     		sub	sp, sp, #16
 862              		.cfi_def_cfa_offset 24
 863 0004 00AF     		add	r7, sp, #0
 864              		.cfi_def_cfa_register 7
 865 0006 3A60     		str	r2, [r7]
 866 0008 FB1D     		adds	r3, r7, #7
 867 000a 021C     		adds	r2, r0, #0
 868 000c 1A70     		strb	r2, [r3]
 869 000e BB1D     		adds	r3, r7, #6
 870 0010 0A1C     		adds	r2, r1, #0
 871 0012 1A70     		strb	r2, [r3]
ARM GAS  C:\Users\ADMINI~1\AppData\Local\Temp\cckWWWWy.s 			page 28


 665:..\..\..\BSP/bsp.c ****     CPU_INT08U   i2c_status;
 666:..\..\..\BSP/bsp.c ****     CPU_BOOLEAN  accel_status;
 667:..\..\..\BSP/bsp.c ****     
 668:..\..\..\BSP/bsp.c ****                                                                 /* ------------- START SEQUENCE CON
 669:..\..\..\BSP/bsp.c ****     i2c_status = I2C_I2CMasterSendStart(BSP_I2C_KXTJ2_ACC_SLV_ADDR, BSP_KXTJ2_DIR_WRITE);
 872              		.loc 1 669 0
 873 0014 0021     		movs	r1, #0
 874 0016 0F20     		movs	r0, #15
 875 0018 FFF7FEFF 		bl	I2C_I2CMasterSendStart
 876 001c 0200     		movs	r2, r0
 877 001e 0E23     		movs	r3, #14
 878 0020 FB18     		adds	r3, r7, r3
 879 0022 1A70     		strb	r2, [r3]
 670:..\..\..\BSP/bsp.c ****     if (i2c_status == I2C_I2C_MSTR_NO_ERROR) {                  /* Sequence Start Successful, Perfo
 880              		.loc 1 670 0
 881 0024 0E23     		movs	r3, #14
 882 0026 FB18     		adds	r3, r7, r3
 883 0028 1B78     		ldrb	r3, [r3]
 884 002a 002B     		cmp	r3, #0
 885 002c 37D1     		bne	.L40
 671:..\..\..\BSP/bsp.c ****         i2c_status = I2C_I2CMasterWriteByte(reg);               /* Select Register Address to Read/
 886              		.loc 1 671 0
 887 002e BB1D     		adds	r3, r7, #6
 888 0030 1B78     		ldrb	r3, [r3]
 889 0032 1800     		movs	r0, r3
 890 0034 FFF7FEFF 		bl	I2C_I2CMasterWriteByte
 891 0038 0200     		movs	r2, r0
 892 003a 0E23     		movs	r3, #14
 893 003c FB18     		adds	r3, r7, r3
 894 003e 1A70     		strb	r2, [r3]
 672:..\..\..\BSP/bsp.c ****         
 673:..\..\..\BSP/bsp.c ****         if (rd_wr == BSP_KXTJ2_DIR_WRITE) {                     /* -------------------- WRITE DATA 
 895              		.loc 1 673 0
 896 0040 FB1D     		adds	r3, r7, #7
 897 0042 1B78     		ldrb	r3, [r3]
 898 0044 002B     		cmp	r3, #0
 899 0046 0DD1     		bne	.L41
 674:..\..\..\BSP/bsp.c ****             i2c_status   = I2C_I2CMasterWriteByte(*value);      /* Write Data Byte to the Desired R
 900              		.loc 1 674 0
 901 0048 3B68     		ldr	r3, [r7]
 902 004a 1B78     		ldrb	r3, [r3]
 903 004c 1800     		movs	r0, r3
 904 004e FFF7FEFF 		bl	I2C_I2CMasterWriteByte
 905 0052 0200     		movs	r2, r0
 906 0054 0E23     		movs	r3, #14
 907 0056 FB18     		adds	r3, r7, r3
 908 0058 1A70     		strb	r2, [r3]
 675:..\..\..\BSP/bsp.c ****             accel_status = DEF_OK;
 909              		.loc 1 675 0
 910 005a 0F23     		movs	r3, #15
 911 005c FB18     		adds	r3, r7, r3
 912 005e 0122     		movs	r2, #1
 913 0060 1A70     		strb	r2, [r3]
 914 0062 20E0     		b	.L44
 915              	.L41:
 676:..\..\..\BSP/bsp.c ****             
 677:..\..\..\BSP/bsp.c ****         } else if (rd_wr == BSP_KXTJ2_DIR_READ) {               /* --------------------- READ DATA 
ARM GAS  C:\Users\ADMINI~1\AppData\Local\Temp\cckWWWWy.s 			page 29


 916              		.loc 1 677 0
 917 0064 FB1D     		adds	r3, r7, #7
 918 0066 1B78     		ldrb	r3, [r3]
 919 0068 012B     		cmp	r3, #1
 920 006a 13D1     		bne	.L43
 678:..\..\..\BSP/bsp.c ****                                                                 /* Restart Start Condition to Read 
 679:..\..\..\BSP/bsp.c ****             i2c_status   = I2C_I2CMasterSendRestart(BSP_I2C_KXTJ2_ACC_SLV_ADDR,
 921              		.loc 1 679 0
 922 006c 0121     		movs	r1, #1
 923 006e 0F20     		movs	r0, #15
 924 0070 FFF7FEFF 		bl	I2C_I2CMasterSendRestart
 925 0074 0200     		movs	r2, r0
 926 0076 0E23     		movs	r3, #14
 927 0078 FB18     		adds	r3, r7, r3
 928 007a 1A70     		strb	r2, [r3]
 680:..\..\..\BSP/bsp.c ****                                                     BSP_KXTJ2_DIR_READ);
 681:..\..\..\BSP/bsp.c ****                                                                 /* Read Data Byte from Register, Re
 682:..\..\..\BSP/bsp.c ****            *value        = I2C_I2CMasterReadByte(I2C_I2C_NAK_DATA);
 929              		.loc 1 682 0
 930 007c 0120     		movs	r0, #1
 931 007e FFF7FEFF 		bl	I2C_I2CMasterReadByte
 932 0082 0300     		movs	r3, r0
 933 0084 DAB2     		uxtb	r2, r3
 934 0086 3B68     		ldr	r3, [r7]
 935 0088 1A70     		strb	r2, [r3]
 683:..\..\..\BSP/bsp.c ****             accel_status = DEF_OK;
 936              		.loc 1 683 0
 937 008a 0F23     		movs	r3, #15
 938 008c FB18     		adds	r3, r7, r3
 939 008e 0122     		movs	r2, #1
 940 0090 1A70     		strb	r2, [r3]
 941 0092 08E0     		b	.L44
 942              	.L43:
 684:..\..\..\BSP/bsp.c ****             
 685:..\..\..\BSP/bsp.c ****         } else {
 686:..\..\..\BSP/bsp.c ****             accel_status = DEF_FAIL;                            /* Wrong Direction, Either Read or 
 943              		.loc 1 686 0
 944 0094 0F23     		movs	r3, #15
 945 0096 FB18     		adds	r3, r7, r3
 946 0098 0022     		movs	r2, #0
 947 009a 1A70     		strb	r2, [r3]
 948 009c 03E0     		b	.L44
 949              	.L40:
 687:..\..\..\BSP/bsp.c ****         }
 688:..\..\..\BSP/bsp.c ****     } else {                                                    /* Sequence Start Failed, Return wi
 689:..\..\..\BSP/bsp.c ****         accel_status = DEF_FAIL;
 950              		.loc 1 689 0
 951 009e 0F23     		movs	r3, #15
 952 00a0 FB18     		adds	r3, r7, r3
 953 00a2 0022     		movs	r2, #0
 954 00a4 1A70     		strb	r2, [r3]
 955              	.L44:
 690:..\..\..\BSP/bsp.c ****     }
 691:..\..\..\BSP/bsp.c ****                                                                 /* -------------- STOP SEQUENCE CON
 692:..\..\..\BSP/bsp.c ****     i2c_status = I2C_I2CMasterSendStop();                       /* Send the Stop Condition to Stop 
 956              		.loc 1 692 0
 957 00a6 FFF7FEFF 		bl	I2C_I2CMasterSendStop
ARM GAS  C:\Users\ADMINI~1\AppData\Local\Temp\cckWWWWy.s 			page 30


 958 00aa 0200     		movs	r2, r0
 959 00ac 0E23     		movs	r3, #14
 960 00ae FB18     		adds	r3, r7, r3
 961 00b0 1A70     		strb	r2, [r3]
 693:..\..\..\BSP/bsp.c ****     if (i2c_status != I2C_I2C_MSTR_NO_ERROR) {                  /* Sequence Failed to Stopped, Retu
 962              		.loc 1 693 0
 963 00b2 0E23     		movs	r3, #14
 964 00b4 FB18     		adds	r3, r7, r3
 965 00b6 1B78     		ldrb	r3, [r3]
 966 00b8 002B     		cmp	r3, #0
 967 00ba 03D0     		beq	.L45
 694:..\..\..\BSP/bsp.c ****         accel_status = DEF_FAIL;
 968              		.loc 1 694 0
 969 00bc 0F23     		movs	r3, #15
 970 00be FB18     		adds	r3, r7, r3
 971 00c0 0022     		movs	r2, #0
 972 00c2 1A70     		strb	r2, [r3]
 973              	.L45:
 695:..\..\..\BSP/bsp.c ****     }
 696:..\..\..\BSP/bsp.c ****     
 697:..\..\..\BSP/bsp.c ****     return (accel_status);
 974              		.loc 1 697 0
 975 00c4 0F23     		movs	r3, #15
 976 00c6 FB18     		adds	r3, r7, r3
 977 00c8 1B78     		ldrb	r3, [r3]
 698:..\..\..\BSP/bsp.c **** }
 978              		.loc 1 698 0
 979 00ca 1800     		movs	r0, r3
 980 00cc BD46     		mov	sp, r7
 981 00ce 04B0     		add	sp, sp, #16
 982              		@ sp needed
 983 00d0 80BD     		pop	{r7, pc}
 984              		.cfi_endproc
 985              	.LFE44:
 986              		.size	BSP_Accel_RegRdWr, .-BSP_Accel_RegRdWr
 987 00d2 C046     		.section	.text.BSP_Accel_Rd,"ax",%progbits
 988              		.align	2
 989              		.global	BSP_Accel_Rd
 990              		.code	16
 991              		.thumb_func
 992              		.type	BSP_Accel_Rd, %function
 993              	BSP_Accel_Rd:
 994              	.LFB45:
 699:..\..\..\BSP/bsp.c **** 
 700:..\..\..\BSP/bsp.c **** 
 701:..\..\..\BSP/bsp.c **** /*
 702:..\..\..\BSP/bsp.c **** ***************************************************************************************************
 703:..\..\..\BSP/bsp.c **** *                                            BSP_Accel_Rd()
 704:..\..\..\BSP/bsp.c **** *
 705:..\..\..\BSP/bsp.c **** * Description : Reads the Accelerometer's Acceleration Values in the X, Y, and Z Directions.
 706:..\..\..\BSP/bsp.c **** *
 707:..\..\..\BSP/bsp.c **** * Argument(s) : x_axis      Variable in where the X-Direction's Acceleration Data will be Stored.
 708:..\..\..\BSP/bsp.c **** *
 709:..\..\..\BSP/bsp.c **** *               y_axis      Variable in where the Y-Direction's Acceleration Data will be Stored.
 710:..\..\..\BSP/bsp.c **** *
 711:..\..\..\BSP/bsp.c **** *               z_axis      Variable in where the Z-Direction's Acceleration Data will be Stored.
 712:..\..\..\BSP/bsp.c **** *
ARM GAS  C:\Users\ADMINI~1\AppData\Local\Temp\cckWWWWy.s 			page 31


 713:..\..\..\BSP/bsp.c **** * Return(s)   : none.
 714:..\..\..\BSP/bsp.c **** *
 715:..\..\..\BSP/bsp.c **** * Caller(s)   : Application
 716:..\..\..\BSP/bsp.c **** *
 717:..\..\..\BSP/bsp.c **** * Note(s)     : none.
 718:..\..\..\BSP/bsp.c **** ***************************************************************************************************
 719:..\..\..\BSP/bsp.c **** */
 720:..\..\..\BSP/bsp.c **** 
 721:..\..\..\BSP/bsp.c **** void  BSP_Accel_Rd (CPU_INT16S  *x_axis,
 722:..\..\..\BSP/bsp.c ****                     CPU_INT16S  *y_axis,
 723:..\..\..\BSP/bsp.c ****                     CPU_INT16S  *z_axis)
 724:..\..\..\BSP/bsp.c **** {
 995              		.loc 1 724 0
 996              		.cfi_startproc
 997              		@ args = 0, pretend = 0, frame = 24
 998              		@ frame_needed = 1, uses_anonymous_args = 0
 999 0000 80B5     		push	{r7, lr}
 1000              		.cfi_def_cfa_offset 8
 1001              		.cfi_offset 7, -8
 1002              		.cfi_offset 14, -4
 1003 0002 86B0     		sub	sp, sp, #24
 1004              		.cfi_def_cfa_offset 32
 1005 0004 00AF     		add	r7, sp, #0
 1006              		.cfi_def_cfa_register 7
 1007 0006 F860     		str	r0, [r7, #12]
 1008 0008 B960     		str	r1, [r7, #8]
 1009 000a 7A60     		str	r2, [r7, #4]
 725:..\..\..\BSP/bsp.c ****     CPU_INT16S  axis_val;
 726:..\..\..\BSP/bsp.c ****     CPU_INT08U  data_resp;
 727:..\..\..\BSP/bsp.c ****     
 728:..\..\..\BSP/bsp.c ****                                                                 /* ----------------- READ X-AXIS DA
 729:..\..\..\BSP/bsp.c ****     BSP_Accel_RegRdWr( BSP_KXTJ2_DIR_READ,                      /* Read the X-Axis HIGH Register fo
 1010              		.loc 1 729 0
 1011 000c 1523     		movs	r3, #21
 1012 000e FB18     		adds	r3, r7, r3
 1013 0010 1A00     		movs	r2, r3
 1014 0012 0721     		movs	r1, #7
 1015 0014 0120     		movs	r0, #1
 1016 0016 FFF7FEFF 		bl	BSP_Accel_RegRdWr
 730:..\..\..\BSP/bsp.c ****                        BSP_ACCEL_REG_XOUT_H,
 731:..\..\..\BSP/bsp.c ****                       &data_resp);
 732:..\..\..\BSP/bsp.c ****     
 733:..\..\..\BSP/bsp.c ****     axis_val  = (data_resp << DEF_OCTET_NBR_BITS);              /* Place X-Axis TOP Half Value onto
 1017              		.loc 1 733 0
 1018 001a 1523     		movs	r3, #21
 1019 001c FB18     		adds	r3, r7, r3
 1020 001e 1B78     		ldrb	r3, [r3]
 1021 0020 1A02     		lsls	r2, r3, #8
 1022 0022 1623     		movs	r3, #22
 1023 0024 FB18     		adds	r3, r7, r3
 1024 0026 1A80     		strh	r2, [r3]
 734:..\..\..\BSP/bsp.c **** 
 735:..\..\..\BSP/bsp.c ****     BSP_Accel_RegRdWr( BSP_KXTJ2_DIR_READ,                      /* Read the X-Axis LOW  Register fo
 1025              		.loc 1 735 0
 1026 0028 1523     		movs	r3, #21
 1027 002a FB18     		adds	r3, r7, r3
 1028 002c 1A00     		movs	r2, r3
ARM GAS  C:\Users\ADMINI~1\AppData\Local\Temp\cckWWWWy.s 			page 32


 1029 002e 0621     		movs	r1, #6
 1030 0030 0120     		movs	r0, #1
 1031 0032 FFF7FEFF 		bl	BSP_Accel_RegRdWr
 736:..\..\..\BSP/bsp.c ****                        BSP_ACCEL_REG_XOUT_L,
 737:..\..\..\BSP/bsp.c ****                       &data_resp);
 738:..\..\..\BSP/bsp.c ****     
 739:..\..\..\BSP/bsp.c ****     axis_val |=  data_resp;                                     /* Add the X-Axis BOTTOM Half Value
 1032              		.loc 1 739 0
 1033 0036 1523     		movs	r3, #21
 1034 0038 FB18     		adds	r3, r7, r3
 1035 003a 1B78     		ldrb	r3, [r3]
 1036 003c 19B2     		sxth	r1, r3
 1037 003e 1623     		movs	r3, #22
 1038 0040 FB18     		adds	r3, r7, r3
 1039 0042 1622     		movs	r2, #22
 1040 0044 BA18     		adds	r2, r7, r2
 1041 0046 1288     		ldrh	r2, [r2]
 1042 0048 0A43     		orrs	r2, r1
 1043 004a 1A80     		strh	r2, [r3]
 740:..\..\..\BSP/bsp.c ****     
 741:..\..\..\BSP/bsp.c ****     if (DEF_BIT_IS_SET(axis_val, DEF_BIT_15) == DEF_YES) {      /* Adjust X-Axis Value if Over Limi
 1044              		.loc 1 741 0
 1045 004c 1623     		movs	r3, #22
 1046 004e FB18     		adds	r3, r7, r3
 1047 0050 0022     		movs	r2, #0
 1048 0052 9B5E     		ldrsh	r3, [r3, r2]
 1049 0054 002B     		cmp	r3, #0
 1050 0056 11DA     		bge	.L48
 742:..\..\..\BSP/bsp.c ****         axis_val >>= DEF_NIBBLE_NBR_BITS;                       /* Shift Back a Nibble, Since Accel
 1051              		.loc 1 742 0
 1052 0058 1623     		movs	r3, #22
 1053 005a FB18     		adds	r3, r7, r3
 1054 005c 1622     		movs	r2, #22
 1055 005e BA18     		adds	r2, r7, r2
 1056 0060 0021     		movs	r1, #0
 1057 0062 525E     		ldrsh	r2, [r2, r1]
 1058 0064 1211     		asrs	r2, r2, #4
 1059 0066 1A80     		strh	r2, [r3]
 743:..\..\..\BSP/bsp.c ****         axis_val  |= BSP_ACCEL_INVALID_MSK;                     /* Invalidate Upper Nibble on X-Axi
 1060              		.loc 1 743 0
 1061 0068 1623     		movs	r3, #22
 1062 006a FB18     		adds	r3, r7, r3
 1063 006c 1B88     		ldrh	r3, [r3]
 1064 006e 514A     		ldr	r2, .L54
 1065 0070 1343     		orrs	r3, r2
 1066 0072 9AB2     		uxth	r2, r3
 1067 0074 1623     		movs	r3, #22
 1068 0076 FB18     		adds	r3, r7, r3
 1069 0078 1A80     		strh	r2, [r3]
 1070 007a 07E0     		b	.L49
 1071              	.L48:
 744:..\..\..\BSP/bsp.c ****     } else {
 745:..\..\..\BSP/bsp.c ****         axis_val >>= DEF_NIBBLE_NBR_BITS;                       /* Do Not Invalidate, just Shift Si
 1072              		.loc 1 745 0
 1073 007c 1623     		movs	r3, #22
 1074 007e FB18     		adds	r3, r7, r3
 1075 0080 1622     		movs	r2, #22
ARM GAS  C:\Users\ADMINI~1\AppData\Local\Temp\cckWWWWy.s 			page 33


 1076 0082 BA18     		adds	r2, r7, r2
 1077 0084 0021     		movs	r1, #0
 1078 0086 525E     		ldrsh	r2, [r2, r1]
 1079 0088 1211     		asrs	r2, r2, #4
 1080 008a 1A80     		strh	r2, [r3]
 1081              	.L49:
 746:..\..\..\BSP/bsp.c ****     }
 747:..\..\..\BSP/bsp.c ****     
 748:..\..\..\BSP/bsp.c ****    *x_axis = axis_val;                                          /* Assign X-Axis Value to Return.  
 1082              		.loc 1 748 0
 1083 008c FB68     		ldr	r3, [r7, #12]
 1084 008e 1622     		movs	r2, #22
 1085 0090 BA18     		adds	r2, r7, r2
 1086 0092 1288     		ldrh	r2, [r2]
 1087 0094 1A80     		strh	r2, [r3]
 749:..\..\..\BSP/bsp.c **** 
 750:..\..\..\BSP/bsp.c ****                                                                 /* ----------------- READ Y-AXIS DA
 751:..\..\..\BSP/bsp.c ****     BSP_Accel_RegRdWr( BSP_KXTJ2_DIR_READ,                      /* Read the Y-Axis HIGH Register fo
 1088              		.loc 1 751 0
 1089 0096 1523     		movs	r3, #21
 1090 0098 FB18     		adds	r3, r7, r3
 1091 009a 1A00     		movs	r2, r3
 1092 009c 0921     		movs	r1, #9
 1093 009e 0120     		movs	r0, #1
 1094 00a0 FFF7FEFF 		bl	BSP_Accel_RegRdWr
 752:..\..\..\BSP/bsp.c ****                        BSP_ACCEL_REG_YOUT_H,
 753:..\..\..\BSP/bsp.c ****                       &data_resp);
 754:..\..\..\BSP/bsp.c ****     
 755:..\..\..\BSP/bsp.c ****     axis_val  = (data_resp << DEF_OCTET_NBR_BITS);              /* Place Y-Axis TOP Half Value onto
 1095              		.loc 1 755 0
 1096 00a4 1523     		movs	r3, #21
 1097 00a6 FB18     		adds	r3, r7, r3
 1098 00a8 1B78     		ldrb	r3, [r3]
 1099 00aa 1A02     		lsls	r2, r3, #8
 1100 00ac 1623     		movs	r3, #22
 1101 00ae FB18     		adds	r3, r7, r3
 1102 00b0 1A80     		strh	r2, [r3]
 756:..\..\..\BSP/bsp.c **** 
 757:..\..\..\BSP/bsp.c ****     BSP_Accel_RegRdWr( BSP_KXTJ2_DIR_READ,                      /* Read the Y-Axis LOW  Register fo
 1103              		.loc 1 757 0
 1104 00b2 1523     		movs	r3, #21
 1105 00b4 FB18     		adds	r3, r7, r3
 1106 00b6 1A00     		movs	r2, r3
 1107 00b8 0821     		movs	r1, #8
 1108 00ba 0120     		movs	r0, #1
 1109 00bc FFF7FEFF 		bl	BSP_Accel_RegRdWr
 758:..\..\..\BSP/bsp.c ****                        BSP_ACCEL_REG_YOUT_L,
 759:..\..\..\BSP/bsp.c ****                       &data_resp);
 760:..\..\..\BSP/bsp.c ****     
 761:..\..\..\BSP/bsp.c ****     axis_val |=  data_resp;                                     /* Add the Y-Axis BOTTOM Half Value
 1110              		.loc 1 761 0
 1111 00c0 1523     		movs	r3, #21
 1112 00c2 FB18     		adds	r3, r7, r3
 1113 00c4 1B78     		ldrb	r3, [r3]
 1114 00c6 19B2     		sxth	r1, r3
 1115 00c8 1623     		movs	r3, #22
 1116 00ca FB18     		adds	r3, r7, r3
ARM GAS  C:\Users\ADMINI~1\AppData\Local\Temp\cckWWWWy.s 			page 34


 1117 00cc 1622     		movs	r2, #22
 1118 00ce BA18     		adds	r2, r7, r2
 1119 00d0 1288     		ldrh	r2, [r2]
 1120 00d2 0A43     		orrs	r2, r1
 1121 00d4 1A80     		strh	r2, [r3]
 762:..\..\..\BSP/bsp.c ****     
 763:..\..\..\BSP/bsp.c ****     if (DEF_BIT_IS_SET(axis_val, DEF_BIT_15) == DEF_YES) {      /* Adjust Y-Axis Value if Over Limi
 1122              		.loc 1 763 0
 1123 00d6 1623     		movs	r3, #22
 1124 00d8 FB18     		adds	r3, r7, r3
 1125 00da 0022     		movs	r2, #0
 1126 00dc 9B5E     		ldrsh	r3, [r3, r2]
 1127 00de 002B     		cmp	r3, #0
 1128 00e0 11DA     		bge	.L50
 764:..\..\..\BSP/bsp.c ****         axis_val >>= DEF_NIBBLE_NBR_BITS;                       /* Shift Back a Nibble, Since Accel
 1129              		.loc 1 764 0
 1130 00e2 1623     		movs	r3, #22
 1131 00e4 FB18     		adds	r3, r7, r3
 1132 00e6 1622     		movs	r2, #22
 1133 00e8 BA18     		adds	r2, r7, r2
 1134 00ea 0021     		movs	r1, #0
 1135 00ec 525E     		ldrsh	r2, [r2, r1]
 1136 00ee 1211     		asrs	r2, r2, #4
 1137 00f0 1A80     		strh	r2, [r3]
 765:..\..\..\BSP/bsp.c ****         axis_val  |= BSP_ACCEL_INVALID_MSK;                     /* Invalidate Upper Nibble on Y-Axi
 1138              		.loc 1 765 0
 1139 00f2 1623     		movs	r3, #22
 1140 00f4 FB18     		adds	r3, r7, r3
 1141 00f6 1B88     		ldrh	r3, [r3]
 1142 00f8 2E4A     		ldr	r2, .L54
 1143 00fa 1343     		orrs	r3, r2
 1144 00fc 9AB2     		uxth	r2, r3
 1145 00fe 1623     		movs	r3, #22
 1146 0100 FB18     		adds	r3, r7, r3
 1147 0102 1A80     		strh	r2, [r3]
 1148 0104 07E0     		b	.L51
 1149              	.L50:
 766:..\..\..\BSP/bsp.c ****     } else {
 767:..\..\..\BSP/bsp.c ****         axis_val >>= DEF_NIBBLE_NBR_BITS;                       /* Do Not Invalidate, just Shift Si
 1150              		.loc 1 767 0
 1151 0106 1623     		movs	r3, #22
 1152 0108 FB18     		adds	r3, r7, r3
 1153 010a 1622     		movs	r2, #22
 1154 010c BA18     		adds	r2, r7, r2
 1155 010e 0021     		movs	r1, #0
 1156 0110 525E     		ldrsh	r2, [r2, r1]
 1157 0112 1211     		asrs	r2, r2, #4
 1158 0114 1A80     		strh	r2, [r3]
 1159              	.L51:
 768:..\..\..\BSP/bsp.c ****     }
 769:..\..\..\BSP/bsp.c ****     
 770:..\..\..\BSP/bsp.c ****    *y_axis = axis_val;                                          /* Assign Y-Axis Value to Return.  
 1160              		.loc 1 770 0
 1161 0116 BB68     		ldr	r3, [r7, #8]
 1162 0118 1622     		movs	r2, #22
 1163 011a BA18     		adds	r2, r7, r2
 1164 011c 1288     		ldrh	r2, [r2]
ARM GAS  C:\Users\ADMINI~1\AppData\Local\Temp\cckWWWWy.s 			page 35


 1165 011e 1A80     		strh	r2, [r3]
 771:..\..\..\BSP/bsp.c ****     
 772:..\..\..\BSP/bsp.c ****                                                                 /* ----------------- READ Z-AXIS DA
 773:..\..\..\BSP/bsp.c ****     BSP_Accel_RegRdWr( BSP_KXTJ2_DIR_READ,                      /* Read the Z-Axis HIGH Register fo
 1166              		.loc 1 773 0
 1167 0120 1523     		movs	r3, #21
 1168 0122 FB18     		adds	r3, r7, r3
 1169 0124 1A00     		movs	r2, r3
 1170 0126 0B21     		movs	r1, #11
 1171 0128 0120     		movs	r0, #1
 1172 012a FFF7FEFF 		bl	BSP_Accel_RegRdWr
 774:..\..\..\BSP/bsp.c ****                        BSP_ACCEL_REG_ZOUT_H,
 775:..\..\..\BSP/bsp.c ****                       &data_resp);
 776:..\..\..\BSP/bsp.c ****     
 777:..\..\..\BSP/bsp.c ****     axis_val  = (data_resp << DEF_OCTET_NBR_BITS);              /* Place Z-Axis TOP Half Value onto
 1173              		.loc 1 777 0
 1174 012e 1523     		movs	r3, #21
 1175 0130 FB18     		adds	r3, r7, r3
 1176 0132 1B78     		ldrb	r3, [r3]
 1177 0134 1A02     		lsls	r2, r3, #8
 1178 0136 1623     		movs	r3, #22
 1179 0138 FB18     		adds	r3, r7, r3
 1180 013a 1A80     		strh	r2, [r3]
 778:..\..\..\BSP/bsp.c **** 
 779:..\..\..\BSP/bsp.c ****     BSP_Accel_RegRdWr( BSP_KXTJ2_DIR_READ,                      /* Read the Z-Axis LOW  Register fo
 1181              		.loc 1 779 0
 1182 013c 1523     		movs	r3, #21
 1183 013e FB18     		adds	r3, r7, r3
 1184 0140 1A00     		movs	r2, r3
 1185 0142 0A21     		movs	r1, #10
 1186 0144 0120     		movs	r0, #1
 1187 0146 FFF7FEFF 		bl	BSP_Accel_RegRdWr
 780:..\..\..\BSP/bsp.c ****                        BSP_ACCEL_REG_ZOUT_L,
 781:..\..\..\BSP/bsp.c ****                       &data_resp);
 782:..\..\..\BSP/bsp.c ****     
 783:..\..\..\BSP/bsp.c ****     axis_val |=  data_resp;                                     /* Add the Z-Axis BOTTOM Half Value
 1188              		.loc 1 783 0
 1189 014a 1523     		movs	r3, #21
 1190 014c FB18     		adds	r3, r7, r3
 1191 014e 1B78     		ldrb	r3, [r3]
 1192 0150 19B2     		sxth	r1, r3
 1193 0152 1623     		movs	r3, #22
 1194 0154 FB18     		adds	r3, r7, r3
 1195 0156 1622     		movs	r2, #22
 1196 0158 BA18     		adds	r2, r7, r2
 1197 015a 1288     		ldrh	r2, [r2]
 1198 015c 0A43     		orrs	r2, r1
 1199 015e 1A80     		strh	r2, [r3]
 784:..\..\..\BSP/bsp.c ****     
 785:..\..\..\BSP/bsp.c ****     if (DEF_BIT_IS_SET(axis_val, DEF_BIT_15) == DEF_YES) {      /* Adjust Z-Axis Value if Over Limi
 1200              		.loc 1 785 0
 1201 0160 1623     		movs	r3, #22
 1202 0162 FB18     		adds	r3, r7, r3
 1203 0164 0022     		movs	r2, #0
 1204 0166 9B5E     		ldrsh	r3, [r3, r2]
 1205 0168 002B     		cmp	r3, #0
 1206 016a 11DA     		bge	.L52
ARM GAS  C:\Users\ADMINI~1\AppData\Local\Temp\cckWWWWy.s 			page 36


 786:..\..\..\BSP/bsp.c ****         axis_val >>= DEF_NIBBLE_NBR_BITS;                       /* Shift Back a Nibble, Since Accel
 1207              		.loc 1 786 0
 1208 016c 1623     		movs	r3, #22
 1209 016e FB18     		adds	r3, r7, r3
 1210 0170 1622     		movs	r2, #22
 1211 0172 BA18     		adds	r2, r7, r2
 1212 0174 0021     		movs	r1, #0
 1213 0176 525E     		ldrsh	r2, [r2, r1]
 1214 0178 1211     		asrs	r2, r2, #4
 1215 017a 1A80     		strh	r2, [r3]
 787:..\..\..\BSP/bsp.c ****         axis_val  |= BSP_ACCEL_INVALID_MSK;                     /* Invalidate Upper Nibble on Z-Axi
 1216              		.loc 1 787 0
 1217 017c 1623     		movs	r3, #22
 1218 017e FB18     		adds	r3, r7, r3
 1219 0180 1B88     		ldrh	r3, [r3]
 1220 0182 0C4A     		ldr	r2, .L54
 1221 0184 1343     		orrs	r3, r2
 1222 0186 9AB2     		uxth	r2, r3
 1223 0188 1623     		movs	r3, #22
 1224 018a FB18     		adds	r3, r7, r3
 1225 018c 1A80     		strh	r2, [r3]
 1226 018e 07E0     		b	.L53
 1227              	.L52:
 788:..\..\..\BSP/bsp.c ****     } else {
 789:..\..\..\BSP/bsp.c ****         axis_val >>= DEF_NIBBLE_NBR_BITS;                       /* Do Not Invalidate, just Shift Si
 1228              		.loc 1 789 0
 1229 0190 1623     		movs	r3, #22
 1230 0192 FB18     		adds	r3, r7, r3
 1231 0194 1622     		movs	r2, #22
 1232 0196 BA18     		adds	r2, r7, r2
 1233 0198 0021     		movs	r1, #0
 1234 019a 525E     		ldrsh	r2, [r2, r1]
 1235 019c 1211     		asrs	r2, r2, #4
 1236 019e 1A80     		strh	r2, [r3]
 1237              	.L53:
 790:..\..\..\BSP/bsp.c ****     }
 791:..\..\..\BSP/bsp.c ****     
 792:..\..\..\BSP/bsp.c ****    *z_axis = axis_val;                                          /* Assign Z-Axis Value to Return.  
 1238              		.loc 1 792 0
 1239 01a0 7B68     		ldr	r3, [r7, #4]
 1240 01a2 1622     		movs	r2, #22
 1241 01a4 BA18     		adds	r2, r7, r2
 1242 01a6 1288     		ldrh	r2, [r2]
 1243 01a8 1A80     		strh	r2, [r3]
 793:..\..\..\BSP/bsp.c **** }
 1244              		.loc 1 793 0
 1245 01aa C046     		nop
 1246 01ac BD46     		mov	sp, r7
 1247 01ae 06B0     		add	sp, sp, #24
 1248              		@ sp needed
 1249 01b0 80BD     		pop	{r7, pc}
 1250              	.L55:
 1251 01b2 C046     		.align	2
 1252              	.L54:
 1253 01b4 00F0FFFF 		.word	-4096
 1254              		.cfi_endproc
 1255              	.LFE45:
ARM GAS  C:\Users\ADMINI~1\AppData\Local\Temp\cckWWWWy.s 			page 37


 1256              		.size	BSP_Accel_Rd, .-BSP_Accel_Rd
 1257              		.section	.text.BSP_Accel_ISR_Handler,"ax",%progbits
 1258              		.align	2
 1259              		.global	BSP_Accel_ISR_Handler
 1260              		.code	16
 1261              		.thumb_func
 1262              		.type	BSP_Accel_ISR_Handler, %function
 1263              	BSP_Accel_ISR_Handler:
 1264              	.LFB46:
 794:..\..\..\BSP/bsp.c **** 
 795:..\..\..\BSP/bsp.c **** 
 796:..\..\..\BSP/bsp.c **** /*
 797:..\..\..\BSP/bsp.c **** ***************************************************************************************************
 798:..\..\..\BSP/bsp.c **** *                                       BSP_Accel_ISR_Handler()
 799:..\..\..\BSP/bsp.c **** *
 800:..\..\..\BSP/bsp.c **** * Description : ISR Handler (I2C Based) for the KXTJ2-1009 3-Axis Accelerometer.
 801:..\..\..\BSP/bsp.c **** *
 802:..\..\..\BSP/bsp.c **** * Argument(s) : none.
 803:..\..\..\BSP/bsp.c **** *
 804:..\..\..\BSP/bsp.c **** * Return(s)   : none.
 805:..\..\..\BSP/bsp.c **** *
 806:..\..\..\BSP/bsp.c **** * Caller(s)   : This is an ISR.
 807:..\..\..\BSP/bsp.c **** *
 808:..\..\..\BSP/bsp.c **** * Note(s)     : (1) See BSP_Init Note (3) for more information on how to convert this ISR Handler i
 809:..\..\..\BSP/bsp.c **** *                   an OS-Aware ISR Handler.
 810:..\..\..\BSP/bsp.c **** ***************************************************************************************************
 811:..\..\..\BSP/bsp.c **** */
 812:..\..\..\BSP/bsp.c **** 
 813:..\..\..\BSP/bsp.c **** CY_ISR(BSP_Accel_ISR_Handler)
 814:..\..\..\BSP/bsp.c **** {
 1265              		.loc 1 814 0
 1266              		.cfi_startproc
 1267              		@ args = 0, pretend = 0, frame = 8
 1268              		@ frame_needed = 1, uses_anonymous_args = 0
 1269 0000 80B5     		push	{r7, lr}
 1270              		.cfi_def_cfa_offset 8
 1271              		.cfi_offset 7, -8
 1272              		.cfi_offset 14, -4
 1273 0002 82B0     		sub	sp, sp, #8
 1274              		.cfi_def_cfa_offset 16
 1275 0004 00AF     		add	r7, sp, #0
 1276              		.cfi_def_cfa_register 7
 815:..\..\..\BSP/bsp.c ****     CPU_INT08U  data_resp;
 816:..\..\..\BSP/bsp.c ****     
 817:..\..\..\BSP/bsp.c ****                                                                 /* ----------------- CLR PENDING IN
 818:..\..\..\BSP/bsp.c ****     BSP_Accel_RegRdWr( BSP_KXTJ2_DIR_READ,                      /* Read INT_REL to Clear any Int Sr
 1277              		.loc 1 818 0
 1278 0006 FB1D     		adds	r3, r7, #7
 1279 0008 1A00     		movs	r2, r3
 1280 000a 1A21     		movs	r1, #26
 1281 000c 0120     		movs	r0, #1
 1282 000e FFF7FEFF 		bl	BSP_Accel_RegRdWr
 819:..\..\..\BSP/bsp.c ****                        BSP_ACCEL_REG_INT_REL,
 820:..\..\..\BSP/bsp.c ****                       &data_resp);
 821:..\..\..\BSP/bsp.c ****     
 822:..\..\..\BSP/bsp.c ****     Accel_Pin_ClearInterrupt();                                 /* Clear Pending GPIO Interrupt.   
 1283              		.loc 1 822 0
ARM GAS  C:\Users\ADMINI~1\AppData\Local\Temp\cckWWWWy.s 			page 38


 1284 0012 FFF7FEFF 		bl	Accel_Pin_ClearInterrupt
 823:..\..\..\BSP/bsp.c **** }...
 1285              		.loc 1 823 0
 1286 0016 C046     		nop
 1287 0018 BD46     		mov	sp, r7
 1288 001a 02B0     		add	sp, sp, #8
 1289              		@ sp needed
 1290 001c 80BD     		pop	{r7, pc}
 1291              		.cfi_endproc
 1292              	.LFE46:
 1293              		.size	BSP_Accel_ISR_Handler, .-BSP_Accel_ISR_Handler
 1294 001e C046     		.text
 1295              	.Letext0:
 1296              		.file 2 "..\\..\\..\\..\\..\\..\\Software\\uC-CPU\\ARM-Cortex-M0\\GNU/cpu.h"
 1297              		.file 3 "Generated_Source\\PSoC4/cytypes.h"
 1298              		.file 4 "..\\..\\..\\BSP\\bsp.h"