ARM GAS  C:\Users\ADMINI~1\AppData\Local\Temp\ccniFOvV.s 			page 1


   1              		.syntax unified
   2              		.cpu cortex-m0
   3              		.fpu softvfp
   4              		.eabi_attribute 20, 1
   5              		.eabi_attribute 21, 1
   6              		.eabi_attribute 23, 3
   7              		.eabi_attribute 24, 1
   8              		.eabi_attribute 25, 1
   9              		.eabi_attribute 26, 1
  10              		.eabi_attribute 30, 6
  11              		.eabi_attribute 34, 0
  12              		.eabi_attribute 18, 4
  13              		.thumb
  14              		.syntax unified
  15              		.file	"bsp_os.c"
  16              		.text
  17              	.Ltext0:
  18              		.cfi_sections	.debug_frame
  19              		.section	.text.BSP_OS_SemCreate,"ax",%progbits
  20              		.align	2
  21              		.global	BSP_OS_SemCreate
  22              		.code	16
  23              		.thumb_func
  24              		.type	BSP_OS_SemCreate, %function
  25              	BSP_OS_SemCreate:
  26              	.LFB34:
  27              		.file 1 "..\\..\\..\\BSP\\OS\\uCOS-II\\bsp_os.c"
   1:..\..\..\BSP\OS\uCOS-II/bsp_os.c **** /*
   2:..\..\..\BSP\OS\uCOS-II/bsp_os.c **** ***************************************************************************************************
   3:..\..\..\BSP\OS\uCOS-II/bsp_os.c **** *                                     MICRIUM BOARD SUPPORT SUPPORT
   4:..\..\..\BSP\OS\uCOS-II/bsp_os.c **** *
   5:..\..\..\BSP\OS\uCOS-II/bsp_os.c **** *                          (c) Copyright 2003-2015; Micrium, Inc.; Weston, FL
   6:..\..\..\BSP\OS\uCOS-II/bsp_os.c **** *
   7:..\..\..\BSP\OS\uCOS-II/bsp_os.c **** *               All rights reserved.  Protected by international copyright laws.
   8:..\..\..\BSP\OS\uCOS-II/bsp_os.c **** *               Knowledge of the source code may NOT be used to develop a similar product.
   9:..\..\..\BSP\OS\uCOS-II/bsp_os.c **** *               Please help us continue to provide the Embedded community with the finest
  10:..\..\..\BSP\OS\uCOS-II/bsp_os.c **** *               software available.  Your honesty is greatly appreciated.
  11:..\..\..\BSP\OS\uCOS-II/bsp_os.c **** ***************************************************************************************************
  12:..\..\..\BSP\OS\uCOS-II/bsp_os.c **** */
  13:..\..\..\BSP\OS\uCOS-II/bsp_os.c **** 
  14:..\..\..\BSP\OS\uCOS-II/bsp_os.c **** /*
  15:..\..\..\BSP\OS\uCOS-II/bsp_os.c **** ***************************************************************************************************
  16:..\..\..\BSP\OS\uCOS-II/bsp_os.c **** *
  17:..\..\..\BSP\OS\uCOS-II/bsp_os.c **** *                                    MICRIUM BOARD SUPPORT PACKAGE
  18:..\..\..\BSP\OS\uCOS-II/bsp_os.c **** *                                             OS LAYER
  19:..\..\..\BSP\OS\uCOS-II/bsp_os.c **** *
  20:..\..\..\BSP\OS\uCOS-II/bsp_os.c **** * Filename      : bsp_os.c
  21:..\..\..\BSP\OS\uCOS-II/bsp_os.c **** * Version       : V1.00
  22:..\..\..\BSP\OS\uCOS-II/bsp_os.c **** * Programmer(s) : FT
  23:..\..\..\BSP\OS\uCOS-II/bsp_os.c **** *                 EHS
  24:..\..\..\BSP\OS\uCOS-II/bsp_os.c **** ***************************************************************************************************
  25:..\..\..\BSP\OS\uCOS-II/bsp_os.c **** */
  26:..\..\..\BSP\OS\uCOS-II/bsp_os.c **** 
  27:..\..\..\BSP\OS\uCOS-II/bsp_os.c **** 
  28:..\..\..\BSP\OS\uCOS-II/bsp_os.c **** /*
  29:..\..\..\BSP\OS\uCOS-II/bsp_os.c **** ***************************************************************************************************
  30:..\..\..\BSP\OS\uCOS-II/bsp_os.c **** *                                             INCLUDE FILES
ARM GAS  C:\Users\ADMINI~1\AppData\Local\Temp\ccniFOvV.s 			page 2


  31:..\..\..\BSP\OS\uCOS-II/bsp_os.c **** ***************************************************************************************************
  32:..\..\..\BSP\OS\uCOS-II/bsp_os.c **** */
  33:..\..\..\BSP\OS\uCOS-II/bsp_os.c **** 
  34:..\..\..\BSP\OS\uCOS-II/bsp_os.c **** #define  BSP_OS_MODULE
  35:..\..\..\BSP\OS\uCOS-II/bsp_os.c **** #include <bsp.h>
  36:..\..\..\BSP\OS\uCOS-II/bsp_os.c **** #include <bsp_os.h>
  37:..\..\..\BSP\OS\uCOS-II/bsp_os.c **** 
  38:..\..\..\BSP\OS\uCOS-II/bsp_os.c **** 
  39:..\..\..\BSP\OS\uCOS-II/bsp_os.c **** /*
  40:..\..\..\BSP\OS\uCOS-II/bsp_os.c **** ***************************************************************************************************
  41:..\..\..\BSP\OS\uCOS-II/bsp_os.c **** *                                            LOCAL DEFINES
  42:..\..\..\BSP\OS\uCOS-II/bsp_os.c **** ***************************************************************************************************
  43:..\..\..\BSP\OS\uCOS-II/bsp_os.c **** */
  44:..\..\..\BSP\OS\uCOS-II/bsp_os.c **** 
  45:..\..\..\BSP\OS\uCOS-II/bsp_os.c **** 
  46:..\..\..\BSP\OS\uCOS-II/bsp_os.c **** /*
  47:..\..\..\BSP\OS\uCOS-II/bsp_os.c **** ***************************************************************************************************
  48:..\..\..\BSP\OS\uCOS-II/bsp_os.c **** *                                           LOCAL CONSTANTS
  49:..\..\..\BSP\OS\uCOS-II/bsp_os.c **** ***************************************************************************************************
  50:..\..\..\BSP\OS\uCOS-II/bsp_os.c **** */
  51:..\..\..\BSP\OS\uCOS-II/bsp_os.c **** 
  52:..\..\..\BSP\OS\uCOS-II/bsp_os.c **** 
  53:..\..\..\BSP\OS\uCOS-II/bsp_os.c **** /*
  54:..\..\..\BSP\OS\uCOS-II/bsp_os.c **** ***************************************************************************************************
  55:..\..\..\BSP\OS\uCOS-II/bsp_os.c **** *                                          LOCAL DATA TYPES
  56:..\..\..\BSP\OS\uCOS-II/bsp_os.c **** ***************************************************************************************************
  57:..\..\..\BSP\OS\uCOS-II/bsp_os.c **** */
  58:..\..\..\BSP\OS\uCOS-II/bsp_os.c **** 
  59:..\..\..\BSP\OS\uCOS-II/bsp_os.c **** 
  60:..\..\..\BSP\OS\uCOS-II/bsp_os.c **** /*
  61:..\..\..\BSP\OS\uCOS-II/bsp_os.c **** ***************************************************************************************************
  62:..\..\..\BSP\OS\uCOS-II/bsp_os.c **** *                                            LOCAL TABLES
  63:..\..\..\BSP\OS\uCOS-II/bsp_os.c **** ***************************************************************************************************
  64:..\..\..\BSP\OS\uCOS-II/bsp_os.c **** */
  65:..\..\..\BSP\OS\uCOS-II/bsp_os.c **** 
  66:..\..\..\BSP\OS\uCOS-II/bsp_os.c **** 
  67:..\..\..\BSP\OS\uCOS-II/bsp_os.c **** /*
  68:..\..\..\BSP\OS\uCOS-II/bsp_os.c **** ***************************************************************************************************
  69:..\..\..\BSP\OS\uCOS-II/bsp_os.c **** *                                       LOCAL GLOBAL VARIABLES
  70:..\..\..\BSP\OS\uCOS-II/bsp_os.c **** ***************************************************************************************************
  71:..\..\..\BSP\OS\uCOS-II/bsp_os.c **** */
  72:..\..\..\BSP\OS\uCOS-II/bsp_os.c **** 
  73:..\..\..\BSP\OS\uCOS-II/bsp_os.c **** 
  74:..\..\..\BSP\OS\uCOS-II/bsp_os.c **** /*
  75:..\..\..\BSP\OS\uCOS-II/bsp_os.c **** ***************************************************************************************************
  76:..\..\..\BSP\OS\uCOS-II/bsp_os.c **** *                                      LOCAL FUNCTION PROTOTYPES
  77:..\..\..\BSP\OS\uCOS-II/bsp_os.c **** ***************************************************************************************************
  78:..\..\..\BSP\OS\uCOS-II/bsp_os.c **** */
  79:..\..\..\BSP\OS\uCOS-II/bsp_os.c **** 
  80:..\..\..\BSP\OS\uCOS-II/bsp_os.c **** 
  81:..\..\..\BSP\OS\uCOS-II/bsp_os.c **** /*
  82:..\..\..\BSP\OS\uCOS-II/bsp_os.c **** ***************************************************************************************************
  83:..\..\..\BSP\OS\uCOS-II/bsp_os.c **** *                                     LOCAL CONFIGURATION ERRORS
  84:..\..\..\BSP\OS\uCOS-II/bsp_os.c **** ***************************************************************************************************
  85:..\..\..\BSP\OS\uCOS-II/bsp_os.c **** */
  86:..\..\..\BSP\OS\uCOS-II/bsp_os.c **** 
  87:..\..\..\BSP\OS\uCOS-II/bsp_os.c **** /*
ARM GAS  C:\Users\ADMINI~1\AppData\Local\Temp\ccniFOvV.s 			page 3


  88:..\..\..\BSP\OS\uCOS-II/bsp_os.c **** ***************************************************************************************************
  89:..\..\..\BSP\OS\uCOS-II/bsp_os.c **** ***************************************************************************************************
  90:..\..\..\BSP\OS\uCOS-II/bsp_os.c **** **                                         GLOBAL FUNCTIONS
  91:..\..\..\BSP\OS\uCOS-II/bsp_os.c **** ***************************************************************************************************
  92:..\..\..\BSP\OS\uCOS-II/bsp_os.c **** ***************************************************************************************************
  93:..\..\..\BSP\OS\uCOS-II/bsp_os.c **** */
  94:..\..\..\BSP\OS\uCOS-II/bsp_os.c **** 
  95:..\..\..\BSP\OS\uCOS-II/bsp_os.c **** 
  96:..\..\..\BSP\OS\uCOS-II/bsp_os.c **** /*
  97:..\..\..\BSP\OS\uCOS-II/bsp_os.c **** ***************************************************************************************************
  98:..\..\..\BSP\OS\uCOS-II/bsp_os.c **** ***************************************************************************************************
  99:..\..\..\BSP\OS\uCOS-II/bsp_os.c **** **                                     BSP OS LOCKS FUNCTIONS
 100:..\..\..\BSP\OS\uCOS-II/bsp_os.c **** ***************************************************************************************************
 101:..\..\..\BSP\OS\uCOS-II/bsp_os.c **** ***************************************************************************************************
 102:..\..\..\BSP\OS\uCOS-II/bsp_os.c **** */
 103:..\..\..\BSP\OS\uCOS-II/bsp_os.c **** 
 104:..\..\..\BSP\OS\uCOS-II/bsp_os.c **** /*
 105:..\..\..\BSP\OS\uCOS-II/bsp_os.c **** ***************************************************************************************************
 106:..\..\..\BSP\OS\uCOS-II/bsp_os.c **** ***************************************************************************************************
 107:..\..\..\BSP\OS\uCOS-II/bsp_os.c **** **                                     BSP OS LOCKS FUNCTIONS
 108:..\..\..\BSP\OS\uCOS-II/bsp_os.c **** ***************************************************************************************************
 109:..\..\..\BSP\OS\uCOS-II/bsp_os.c **** ***************************************************************************************************
 110:..\..\..\BSP\OS\uCOS-II/bsp_os.c **** */
 111:..\..\..\BSP\OS\uCOS-II/bsp_os.c **** 
 112:..\..\..\BSP\OS\uCOS-II/bsp_os.c **** /*
 113:..\..\..\BSP\OS\uCOS-II/bsp_os.c **** ***************************************************************************************************
 114:..\..\..\BSP\OS\uCOS-II/bsp_os.c **** *                                      BSP_OS_SemCreate()
 115:..\..\..\BSP\OS\uCOS-II/bsp_os.c **** *
 116:..\..\..\BSP\OS\uCOS-II/bsp_os.c **** * Description : Creates a sempahore to lock/unlock
 117:..\..\..\BSP\OS\uCOS-II/bsp_os.c **** *
 118:..\..\..\BSP\OS\uCOS-II/bsp_os.c **** * Argument(s) : p_sem        Pointer to a BSP_OS_SEM structure
 119:..\..\..\BSP\OS\uCOS-II/bsp_os.c **** *
 120:..\..\..\BSP\OS\uCOS-II/bsp_os.c **** *               sem_val      Initial value of the semaphore.
 121:..\..\..\BSP\OS\uCOS-II/bsp_os.c **** *
 122:..\..\..\BSP\OS\uCOS-II/bsp_os.c **** *               p_sem_name   Pointer to the semaphore name.
 123:..\..\..\BSP\OS\uCOS-II/bsp_os.c **** *
 124:..\..\..\BSP\OS\uCOS-II/bsp_os.c **** * Return(s)   : DEF_OK        if the semaphore was created.
 125:..\..\..\BSP\OS\uCOS-II/bsp_os.c **** *               DEF_FAIL      if the sempahore could not be created.
 126:..\..\..\BSP\OS\uCOS-II/bsp_os.c **** *
 127:..\..\..\BSP\OS\uCOS-II/bsp_os.c **** * Caller(s)   : Application.
 128:..\..\..\BSP\OS\uCOS-II/bsp_os.c **** *
 129:..\..\..\BSP\OS\uCOS-II/bsp_os.c **** * Note(s)     : none.
 130:..\..\..\BSP\OS\uCOS-II/bsp_os.c **** *
 131:..\..\..\BSP\OS\uCOS-II/bsp_os.c **** ***************************************************************************************************
 132:..\..\..\BSP\OS\uCOS-II/bsp_os.c **** */
 133:..\..\..\BSP\OS\uCOS-II/bsp_os.c **** 
 134:..\..\..\BSP\OS\uCOS-II/bsp_os.c **** CPU_BOOLEAN  BSP_OS_SemCreate (BSP_OS_SEM      *p_sem,
 135:..\..\..\BSP\OS\uCOS-II/bsp_os.c ****                                BSP_OS_SEM_VAL   sem_val,
 136:..\..\..\BSP\OS\uCOS-II/bsp_os.c ****                                CPU_CHAR        *p_sem_name)
 137:..\..\..\BSP\OS\uCOS-II/bsp_os.c **** {
  28              		.loc 1 137 0
  29              		.cfi_startproc
  30              		@ args = 0, pretend = 0, frame = 24
  31              		@ frame_needed = 1, uses_anonymous_args = 0
  32 0000 80B5     		push	{r7, lr}
  33              		.cfi_def_cfa_offset 8
  34              		.cfi_offset 7, -8
ARM GAS  C:\Users\ADMINI~1\AppData\Local\Temp\ccniFOvV.s 			page 4


  35              		.cfi_offset 14, -4
  36 0002 86B0     		sub	sp, sp, #24
  37              		.cfi_def_cfa_offset 32
  38 0004 00AF     		add	r7, sp, #0
  39              		.cfi_def_cfa_register 7
  40 0006 F860     		str	r0, [r7, #12]
  41 0008 7A60     		str	r2, [r7, #4]
  42 000a 0A23     		movs	r3, #10
  43 000c FB18     		adds	r3, r7, r3
  44 000e 0A1C     		adds	r2, r1, #0
  45 0010 1A80     		strh	r2, [r3]
 138:..\..\..\BSP\OS\uCOS-II/bsp_os.c ****     OS_EVENT    *p_event;
 139:..\..\..\BSP\OS\uCOS-II/bsp_os.c **** 
 140:..\..\..\BSP\OS\uCOS-II/bsp_os.c **** #if (OS_EVENT_NAME_EN > 0)
 141:..\..\..\BSP\OS\uCOS-II/bsp_os.c ****     CPU_INT08U   os_err;
 142:..\..\..\BSP\OS\uCOS-II/bsp_os.c **** #endif
 143:..\..\..\BSP\OS\uCOS-II/bsp_os.c **** 
 144:..\..\..\BSP\OS\uCOS-II/bsp_os.c ****     p_event = OSSemCreate(sem_val);
  46              		.loc 1 144 0
  47 0012 0A23     		movs	r3, #10
  48 0014 FB18     		adds	r3, r7, r3
  49 0016 1B88     		ldrh	r3, [r3]
  50 0018 1800     		movs	r0, r3
  51 001a FFF7FEFF 		bl	OSSemCreate
  52 001e 0300     		movs	r3, r0
  53 0020 7B61     		str	r3, [r7, #20]
 145:..\..\..\BSP\OS\uCOS-II/bsp_os.c **** 
 146:..\..\..\BSP\OS\uCOS-II/bsp_os.c ****     if (p_event == (OS_EVENT *)0) {
  54              		.loc 1 146 0
  55 0022 7B69     		ldr	r3, [r7, #20]
  56 0024 002B     		cmp	r3, #0
  57 0026 01D1     		bne	.L2
 147:..\..\..\BSP\OS\uCOS-II/bsp_os.c ****         return (DEF_FAIL);
  58              		.loc 1 147 0
  59 0028 0023     		movs	r3, #0
  60 002a 0AE0     		b	.L4
  61              	.L2:
 148:..\..\..\BSP\OS\uCOS-II/bsp_os.c ****     }
 149:..\..\..\BSP\OS\uCOS-II/bsp_os.c **** 
 150:..\..\..\BSP\OS\uCOS-II/bsp_os.c ****     *p_sem = (BSP_OS_SEM)(p_event);
  62              		.loc 1 150 0
  63 002c FB68     		ldr	r3, [r7, #12]
  64 002e 7A69     		ldr	r2, [r7, #20]
  65 0030 1A60     		str	r2, [r3]
 151:..\..\..\BSP\OS\uCOS-II/bsp_os.c **** 
 152:..\..\..\BSP\OS\uCOS-II/bsp_os.c **** #if (OS_EVENT_NAME_EN > 0)
 153:..\..\..\BSP\OS\uCOS-II/bsp_os.c ****     OSEventNameSet(          p_event,
  66              		.loc 1 153 0
  67 0032 1323     		movs	r3, #19
  68 0034 FA18     		adds	r2, r7, r3
  69 0036 7968     		ldr	r1, [r7, #4]
  70 0038 7B69     		ldr	r3, [r7, #20]
  71 003a 1800     		movs	r0, r3
  72 003c FFF7FEFF 		bl	OSEventNameSet
 154:..\..\..\BSP\OS\uCOS-II/bsp_os.c ****                    (INT8U *) p_sem_name,
 155:..\..\..\BSP\OS\uCOS-II/bsp_os.c ****                             &os_err);
 156:..\..\..\BSP\OS\uCOS-II/bsp_os.c **** #endif
ARM GAS  C:\Users\ADMINI~1\AppData\Local\Temp\ccniFOvV.s 			page 5


 157:..\..\..\BSP\OS\uCOS-II/bsp_os.c **** 
 158:..\..\..\BSP\OS\uCOS-II/bsp_os.c ****     return (DEF_OK);
  73              		.loc 1 158 0
  74 0040 0123     		movs	r3, #1
  75              	.L4:
 159:..\..\..\BSP\OS\uCOS-II/bsp_os.c **** }
  76              		.loc 1 159 0 discriminator 1
  77 0042 1800     		movs	r0, r3
  78 0044 BD46     		mov	sp, r7
  79 0046 06B0     		add	sp, sp, #24
  80              		@ sp needed
  81 0048 80BD     		pop	{r7, pc}
  82              		.cfi_endproc
  83              	.LFE34:
  84              		.size	BSP_OS_SemCreate, .-BSP_OS_SemCreate
  85              		.global	__aeabi_uidiv
  86 004a C046     		.section	.text.BSP_OS_SemWait,"ax",%progbits
  87              		.align	2
  88              		.global	BSP_OS_SemWait
  89              		.code	16
  90              		.thumb_func
  91              		.type	BSP_OS_SemWait, %function
  92              	BSP_OS_SemWait:
  93              	.LFB35:
 160:..\..\..\BSP\OS\uCOS-II/bsp_os.c **** 
 161:..\..\..\BSP\OS\uCOS-II/bsp_os.c **** 
 162:..\..\..\BSP\OS\uCOS-II/bsp_os.c **** /*
 163:..\..\..\BSP\OS\uCOS-II/bsp_os.c **** ***************************************************************************************************
 164:..\..\..\BSP\OS\uCOS-II/bsp_os.c **** *                                     BSP_OS_SemWait()
 165:..\..\..\BSP\OS\uCOS-II/bsp_os.c **** *
 166:..\..\..\BSP\OS\uCOS-II/bsp_os.c **** * Description : Wait on a semaphore to become available
 167:..\..\..\BSP\OS\uCOS-II/bsp_os.c **** *
 168:..\..\..\BSP\OS\uCOS-II/bsp_os.c **** * Argument(s) : p_sem        Pointer to the sempahore handler.
 169:..\..\..\BSP\OS\uCOS-II/bsp_os.c **** *
 170:..\..\..\BSP\OS\uCOS-II/bsp_os.c **** *               dly_ms       delay in miliseconds to wait on the semaphore
 171:..\..\..\BSP\OS\uCOS-II/bsp_os.c **** *
 172:..\..\..\BSP\OS\uCOS-II/bsp_os.c **** * Return(s)   : error code return     DEF_OK       if the semaphore was acquire
 173:..\..\..\BSP\OS\uCOS-II/bsp_os.c **** *                                     DEF_FAIL     if the sempahore could not be acquire
 174:..\..\..\BSP\OS\uCOS-II/bsp_os.c **** *
 175:..\..\..\BSP\OS\uCOS-II/bsp_os.c **** * Caller(s)   : Application.
 176:..\..\..\BSP\OS\uCOS-II/bsp_os.c **** *
 177:..\..\..\BSP\OS\uCOS-II/bsp_os.c **** * Note(s)     : none.
 178:..\..\..\BSP\OS\uCOS-II/bsp_os.c **** ***************************************************************************************************
 179:..\..\..\BSP\OS\uCOS-II/bsp_os.c **** */
 180:..\..\..\BSP\OS\uCOS-II/bsp_os.c **** 
 181:..\..\..\BSP\OS\uCOS-II/bsp_os.c **** CPU_BOOLEAN  BSP_OS_SemWait (BSP_OS_SEM  *p_sem,
 182:..\..\..\BSP\OS\uCOS-II/bsp_os.c ****                              CPU_INT32U   dly_ms)
 183:..\..\..\BSP\OS\uCOS-II/bsp_os.c **** {
  94              		.loc 1 183 0
  95              		.cfi_startproc
  96              		@ args = 0, pretend = 0, frame = 16
  97              		@ frame_needed = 1, uses_anonymous_args = 0
  98 0000 80B5     		push	{r7, lr}
  99              		.cfi_def_cfa_offset 8
 100              		.cfi_offset 7, -8
 101              		.cfi_offset 14, -4
 102 0002 84B0     		sub	sp, sp, #16
ARM GAS  C:\Users\ADMINI~1\AppData\Local\Temp\ccniFOvV.s 			page 6


 103              		.cfi_def_cfa_offset 24
 104 0004 00AF     		add	r7, sp, #0
 105              		.cfi_def_cfa_register 7
 106 0006 7860     		str	r0, [r7, #4]
 107 0008 3960     		str	r1, [r7]
 184:..\..\..\BSP\OS\uCOS-II/bsp_os.c ****     CPU_INT08U  os_err;
 185:..\..\..\BSP\OS\uCOS-II/bsp_os.c ****     CPU_INT32U  dly_ticks;
 186:..\..\..\BSP\OS\uCOS-II/bsp_os.c **** 
 187:..\..\..\BSP\OS\uCOS-II/bsp_os.c **** 
 188:..\..\..\BSP\OS\uCOS-II/bsp_os.c ****     dly_ticks  = ((dly_ms * DEF_TIME_NBR_mS_PER_SEC) / OS_TICKS_PER_SEC);
 108              		.loc 1 188 0
 109 000a 3B68     		ldr	r3, [r7]
 110 000c FA22     		movs	r2, #250
 111 000e 9200     		lsls	r2, r2, #2
 112 0010 5A43     		muls	r2, r3
 113 0012 FA23     		movs	r3, #250
 114 0014 9900     		lsls	r1, r3, #2
 115 0016 1000     		movs	r0, r2
 116 0018 FFF7FEFF 		bl	__aeabi_uidiv
 117 001c 0300     		movs	r3, r0
 118 001e FB60     		str	r3, [r7, #12]
 189:..\..\..\BSP\OS\uCOS-II/bsp_os.c **** 
 190:..\..\..\BSP\OS\uCOS-II/bsp_os.c ****     OSSemPend(*p_sem,
 119              		.loc 1 190 0
 120 0020 7B68     		ldr	r3, [r7, #4]
 121 0022 1B68     		ldr	r3, [r3]
 122 0024 0B22     		movs	r2, #11
 123 0026 BA18     		adds	r2, r7, r2
 124 0028 F968     		ldr	r1, [r7, #12]
 125 002a 1800     		movs	r0, r3
 126 002c FFF7FEFF 		bl	OSSemPend
 191:..\..\..\BSP\OS\uCOS-II/bsp_os.c ****                dly_ticks,
 192:..\..\..\BSP\OS\uCOS-II/bsp_os.c ****               &os_err);
 193:..\..\..\BSP\OS\uCOS-II/bsp_os.c **** 
 194:..\..\..\BSP\OS\uCOS-II/bsp_os.c ****     if (os_err != OS_ERR_NONE) {
 127              		.loc 1 194 0
 128 0030 0B23     		movs	r3, #11
 129 0032 FB18     		adds	r3, r7, r3
 130 0034 1B78     		ldrb	r3, [r3]
 131 0036 002B     		cmp	r3, #0
 132 0038 01D0     		beq	.L6
 195:..\..\..\BSP\OS\uCOS-II/bsp_os.c ****        return (DEF_FAIL);
 133              		.loc 1 195 0
 134 003a 0023     		movs	r3, #0
 135 003c 00E0     		b	.L8
 136              	.L6:
 196:..\..\..\BSP\OS\uCOS-II/bsp_os.c ****     }
 197:..\..\..\BSP\OS\uCOS-II/bsp_os.c **** 
 198:..\..\..\BSP\OS\uCOS-II/bsp_os.c ****     return (DEF_OK);
 137              		.loc 1 198 0
 138 003e 0123     		movs	r3, #1
 139              	.L8:
 199:..\..\..\BSP\OS\uCOS-II/bsp_os.c **** }
 140              		.loc 1 199 0 discriminator 1
 141 0040 1800     		movs	r0, r3
 142 0042 BD46     		mov	sp, r7
 143 0044 04B0     		add	sp, sp, #16
ARM GAS  C:\Users\ADMINI~1\AppData\Local\Temp\ccniFOvV.s 			page 7


 144              		@ sp needed
 145 0046 80BD     		pop	{r7, pc}
 146              		.cfi_endproc
 147              	.LFE35:
 148              		.size	BSP_OS_SemWait, .-BSP_OS_SemWait
 149              		.section	.text.BSP_OS_SemPost,"ax",%progbits
 150              		.align	2
 151              		.global	BSP_OS_SemPost
 152              		.code	16
 153              		.thumb_func
 154              		.type	BSP_OS_SemPost, %function
 155              	BSP_OS_SemPost:
 156              	.LFB36:
 200:..\..\..\BSP\OS\uCOS-II/bsp_os.c **** 
 201:..\..\..\BSP\OS\uCOS-II/bsp_os.c **** /*
 202:..\..\..\BSP\OS\uCOS-II/bsp_os.c **** ***************************************************************************************************
 203:..\..\..\BSP\OS\uCOS-II/bsp_os.c **** *                                      BSP_OS_SemCreate()
 204:..\..\..\BSP\OS\uCOS-II/bsp_os.c **** *
 205:..\..\..\BSP\OS\uCOS-II/bsp_os.c **** * Description : Post a semaphore
 206:..\..\..\BSP\OS\uCOS-II/bsp_os.c **** *
 207:..\..\..\BSP\OS\uCOS-II/bsp_os.c **** * Argument(s) : p_sem                 Pointer to the Semaphore handler.
 208:..\..\..\BSP\OS\uCOS-II/bsp_os.c **** *
 209:..\..\..\BSP\OS\uCOS-II/bsp_os.c **** * Return(s)   : error code return     DEF_OK     if the semaphore was posted.
 210:..\..\..\BSP\OS\uCOS-II/bsp_os.c **** *                                     DEF_FAIL   if the sempahore could not be posted.
 211:..\..\..\BSP\OS\uCOS-II/bsp_os.c **** *
 212:..\..\..\BSP\OS\uCOS-II/bsp_os.c **** * Caller(s)   : Application.
 213:..\..\..\BSP\OS\uCOS-II/bsp_os.c **** *
 214:..\..\..\BSP\OS\uCOS-II/bsp_os.c **** * Note(s)     : none.
 215:..\..\..\BSP\OS\uCOS-II/bsp_os.c **** ***************************************************************************************************
 216:..\..\..\BSP\OS\uCOS-II/bsp_os.c **** */
 217:..\..\..\BSP\OS\uCOS-II/bsp_os.c **** 
 218:..\..\..\BSP\OS\uCOS-II/bsp_os.c **** CPU_BOOLEAN  BSP_OS_SemPost (BSP_OS_SEM  *p_sem)
 219:..\..\..\BSP\OS\uCOS-II/bsp_os.c **** {
 157              		.loc 1 219 0
 158              		.cfi_startproc
 159              		@ args = 0, pretend = 0, frame = 16
 160              		@ frame_needed = 1, uses_anonymous_args = 0
 161 0000 90B5     		push	{r4, r7, lr}
 162              		.cfi_def_cfa_offset 12
 163              		.cfi_offset 4, -12
 164              		.cfi_offset 7, -8
 165              		.cfi_offset 14, -4
 166 0002 85B0     		sub	sp, sp, #20
 167              		.cfi_def_cfa_offset 32
 168 0004 00AF     		add	r7, sp, #0
 169              		.cfi_def_cfa_register 7
 170 0006 7860     		str	r0, [r7, #4]
 220:..\..\..\BSP\OS\uCOS-II/bsp_os.c ****     CPU_INT08U  os_err;
 221:..\..\..\BSP\OS\uCOS-II/bsp_os.c **** 
 222:..\..\..\BSP\OS\uCOS-II/bsp_os.c **** 
 223:..\..\..\BSP\OS\uCOS-II/bsp_os.c ****     os_err = OSSemPost(*p_sem);
 171              		.loc 1 223 0
 172 0008 7B68     		ldr	r3, [r7, #4]
 173 000a 1B68     		ldr	r3, [r3]
 174 000c 0F22     		movs	r2, #15
 175 000e BC18     		adds	r4, r7, r2
 176 0010 1800     		movs	r0, r3
ARM GAS  C:\Users\ADMINI~1\AppData\Local\Temp\ccniFOvV.s 			page 8


 177 0012 FFF7FEFF 		bl	OSSemPost
 178 0016 0300     		movs	r3, r0
 179 0018 2370     		strb	r3, [r4]
 224:..\..\..\BSP\OS\uCOS-II/bsp_os.c **** 
 225:..\..\..\BSP\OS\uCOS-II/bsp_os.c ****     if (os_err != OS_ERR_NONE) {
 180              		.loc 1 225 0
 181 001a 0F23     		movs	r3, #15
 182 001c FB18     		adds	r3, r7, r3
 183 001e 1B78     		ldrb	r3, [r3]
 184 0020 002B     		cmp	r3, #0
 185 0022 01D0     		beq	.L10
 226:..\..\..\BSP\OS\uCOS-II/bsp_os.c ****         return (DEF_FAIL);
 186              		.loc 1 226 0
 187 0024 0023     		movs	r3, #0
 188 0026 00E0     		b	.L11
 189              	.L10:
 227:..\..\..\BSP\OS\uCOS-II/bsp_os.c ****     }
 228:..\..\..\BSP\OS\uCOS-II/bsp_os.c **** 
 229:..\..\..\BSP\OS\uCOS-II/bsp_os.c ****     return (DEF_OK);
 190              		.loc 1 229 0
 191 0028 0123     		movs	r3, #1
 192              	.L11:
 230:..\..\..\BSP\OS\uCOS-II/bsp_os.c **** }
 193              		.loc 1 230 0
 194 002a 1800     		movs	r0, r3
 195 002c BD46     		mov	sp, r7
 196 002e 05B0     		add	sp, sp, #20
 197              		@ sp needed
 198 0030 90BD     		pop	{r4, r7, pc}
 199              		.cfi_endproc
 200              	.LFE36:
 201              		.size	BSP_OS_SemPost, .-BSP_OS_SemPost
 202              		.global	__aeabi_uidivmod
 203 0032 C046     		.section	.text.BSP_OS_TimeDlyMs,"ax",%progbits
 204              		.align	2
 205              		.global	BSP_OS_TimeDlyMs
 206              		.code	16
 207              		.thumb_func
 208              		.type	BSP_OS_TimeDlyMs, %function
 209              	BSP_OS_TimeDlyMs:
 210              	.LFB37:
 231:..\..\..\BSP\OS\uCOS-II/bsp_os.c **** 
 232:..\..\..\BSP\OS\uCOS-II/bsp_os.c **** 
 233:..\..\..\BSP\OS\uCOS-II/bsp_os.c **** 
 234:..\..\..\BSP\OS\uCOS-II/bsp_os.c **** /*
 235:..\..\..\BSP\OS\uCOS-II/bsp_os.c **** ***************************************************************************************************
 236:..\..\..\BSP\OS\uCOS-II/bsp_os.c **** ***************************************************************************************************
 237:..\..\..\BSP\OS\uCOS-II/bsp_os.c **** **                                     uC/OS-II TIMER FUNCTIONS
 238:..\..\..\BSP\OS\uCOS-II/bsp_os.c **** ***************************************************************************************************
 239:..\..\..\BSP\OS\uCOS-II/bsp_os.c **** ***************************************************************************************************
 240:..\..\..\BSP\OS\uCOS-II/bsp_os.c **** */
 241:..\..\..\BSP\OS\uCOS-II/bsp_os.c **** 
 242:..\..\..\BSP\OS\uCOS-II/bsp_os.c **** /*
 243:..\..\..\BSP\OS\uCOS-II/bsp_os.c **** ***************************************************************************************************
 244:..\..\..\BSP\OS\uCOS-II/bsp_os.c **** *                                    BSP_TimeDlyMs()
 245:..\..\..\BSP\OS\uCOS-II/bsp_os.c **** *
 246:..\..\..\BSP\OS\uCOS-II/bsp_os.c **** * Description : This function delay the exceution for specifi amount of miliseconds
ARM GAS  C:\Users\ADMINI~1\AppData\Local\Temp\ccniFOvV.s 			page 9


 247:..\..\..\BSP\OS\uCOS-II/bsp_os.c **** *
 248:..\..\..\BSP\OS\uCOS-II/bsp_os.c **** * Argument(s) : dly_ms       Delay in miliseconds
 249:..\..\..\BSP\OS\uCOS-II/bsp_os.c **** *
 250:..\..\..\BSP\OS\uCOS-II/bsp_os.c **** * Return(s)   : none.
 251:..\..\..\BSP\OS\uCOS-II/bsp_os.c **** *
 252:..\..\..\BSP\OS\uCOS-II/bsp_os.c **** * Caller(s)   : Application
 253:..\..\..\BSP\OS\uCOS-II/bsp_os.c **** *
 254:..\..\..\BSP\OS\uCOS-II/bsp_os.c **** * Note(s)     : none.
 255:..\..\..\BSP\OS\uCOS-II/bsp_os.c **** *
 256:..\..\..\BSP\OS\uCOS-II/bsp_os.c **** ***************************************************************************************************
 257:..\..\..\BSP\OS\uCOS-II/bsp_os.c **** */
 258:..\..\..\BSP\OS\uCOS-II/bsp_os.c **** 
 259:..\..\..\BSP\OS\uCOS-II/bsp_os.c **** void  BSP_OS_TimeDlyMs (CPU_INT32U  dly_ms)
 260:..\..\..\BSP\OS\uCOS-II/bsp_os.c **** {
 211              		.loc 1 260 0
 212              		.cfi_startproc
 213              		@ args = 0, pretend = 0, frame = 16
 214              		@ frame_needed = 1, uses_anonymous_args = 0
 215 0000 80B5     		push	{r7, lr}
 216              		.cfi_def_cfa_offset 8
 217              		.cfi_offset 7, -8
 218              		.cfi_offset 14, -4
 219 0002 84B0     		sub	sp, sp, #16
 220              		.cfi_def_cfa_offset 24
 221 0004 00AF     		add	r7, sp, #0
 222              		.cfi_def_cfa_register 7
 223 0006 7860     		str	r0, [r7, #4]
 261:..\..\..\BSP\OS\uCOS-II/bsp_os.c ****     CPU_INT16U  os_ms;
 262:..\..\..\BSP\OS\uCOS-II/bsp_os.c ****     CPU_INT08U  os_sec;
 263:..\..\..\BSP\OS\uCOS-II/bsp_os.c **** 
 264:..\..\..\BSP\OS\uCOS-II/bsp_os.c **** 
 265:..\..\..\BSP\OS\uCOS-II/bsp_os.c ****     if (dly_ms > 10000u) {                                       /* Limit delays to 10 seconds.    
 224              		.loc 1 265 0
 225 0008 7B68     		ldr	r3, [r7, #4]
 226 000a 1B4A     		ldr	r2, .L16
 227 000c 9342     		cmp	r3, r2
 228 000e 01D9     		bls	.L13
 266:..\..\..\BSP\OS\uCOS-II/bsp_os.c ****         dly_ms = 10000u;
 229              		.loc 1 266 0
 230 0010 194B     		ldr	r3, .L16
 231 0012 7B60     		str	r3, [r7, #4]
 232              	.L13:
 267:..\..\..\BSP\OS\uCOS-II/bsp_os.c ****     }
 268:..\..\..\BSP\OS\uCOS-II/bsp_os.c **** 
 269:..\..\..\BSP\OS\uCOS-II/bsp_os.c ****     if (dly_ms >= 1000u) {
 233              		.loc 1 269 0
 234 0014 7B68     		ldr	r3, [r7, #4]
 235 0016 194A     		ldr	r2, .L16+4
 236 0018 9342     		cmp	r3, r2
 237 001a 16D9     		bls	.L14
 270:..\..\..\BSP\OS\uCOS-II/bsp_os.c ****         os_sec = dly_ms / 1000u;
 238              		.loc 1 270 0
 239 001c 7A68     		ldr	r2, [r7, #4]
 240 001e FA23     		movs	r3, #250
 241 0020 9900     		lsls	r1, r3, #2
 242 0022 1000     		movs	r0, r2
 243 0024 FFF7FEFF 		bl	__aeabi_uidiv
ARM GAS  C:\Users\ADMINI~1\AppData\Local\Temp\ccniFOvV.s 			page 10


 244 0028 0300     		movs	r3, r0
 245 002a 1A00     		movs	r2, r3
 246 002c 0D23     		movs	r3, #13
 247 002e FB18     		adds	r3, r7, r3
 248 0030 1A70     		strb	r2, [r3]
 271:..\..\..\BSP\OS\uCOS-II/bsp_os.c ****         os_ms  = dly_ms % 1000u;
 249              		.loc 1 271 0
 250 0032 7A68     		ldr	r2, [r7, #4]
 251 0034 FA23     		movs	r3, #250
 252 0036 9900     		lsls	r1, r3, #2
 253 0038 1000     		movs	r0, r2
 254 003a FFF7FEFF 		bl	__aeabi_uidivmod
 255 003e 0B00     		movs	r3, r1
 256 0040 1A00     		movs	r2, r3
 257 0042 0E23     		movs	r3, #14
 258 0044 FB18     		adds	r3, r7, r3
 259 0046 1A80     		strh	r2, [r3]
 260 0048 07E0     		b	.L15
 261              	.L14:
 272:..\..\..\BSP\OS\uCOS-II/bsp_os.c ****     } else {
 273:..\..\..\BSP\OS\uCOS-II/bsp_os.c ****         os_ms  = dly_ms;
 262              		.loc 1 273 0
 263 004a 0E23     		movs	r3, #14
 264 004c FB18     		adds	r3, r7, r3
 265 004e 7A68     		ldr	r2, [r7, #4]
 266 0050 1A80     		strh	r2, [r3]
 274:..\..\..\BSP\OS\uCOS-II/bsp_os.c ****         os_sec = 0u;
 267              		.loc 1 274 0
 268 0052 0D23     		movs	r3, #13
 269 0054 FB18     		adds	r3, r7, r3
 270 0056 0022     		movs	r2, #0
 271 0058 1A70     		strb	r2, [r3]
 272              	.L15:
 275:..\..\..\BSP\OS\uCOS-II/bsp_os.c ****     }
 276:..\..\..\BSP\OS\uCOS-II/bsp_os.c **** 
 277:..\..\..\BSP\OS\uCOS-II/bsp_os.c ****     OSTimeDlyHMSM(0u, 0u, os_sec, os_ms);
 273              		.loc 1 277 0
 274 005a 0E23     		movs	r3, #14
 275 005c FB18     		adds	r3, r7, r3
 276 005e 1988     		ldrh	r1, [r3]
 277 0060 0D23     		movs	r3, #13
 278 0062 FB18     		adds	r3, r7, r3
 279 0064 1A78     		ldrb	r2, [r3]
 280 0066 0B00     		movs	r3, r1
 281 0068 0021     		movs	r1, #0
 282 006a 0020     		movs	r0, #0
 283 006c FFF7FEFF 		bl	OSTimeDlyHMSM
 278:..\..\..\BSP\OS\uCOS-II/bsp_os.c **** }
 284              		.loc 1 278 0
 285 0070 C046     		nop
 286 0072 BD46     		mov	sp, r7
 287 0074 04B0     		add	sp, sp, #16
 288              		@ sp needed
 289 0076 80BD     		pop	{r7, pc}
 290              	.L17:
 291              		.align	2
 292              	.L16:
ARM GAS  C:\Users\ADMINI~1\AppData\Local\Temp\ccniFOvV.s 			page 11


 293 0078 10270000 		.word	10000
 294 007c E7030000 		.word	999
 295              		.cfi_endproc
 296              	.LFE37:
 297              		.size	BSP_OS_TimeDlyMs, .-BSP_OS_TimeDlyMs
 298              		.section	.text.BSP_OS_TimeDly,"ax",%progbits
 299              		.align	2
 300              		.global	BSP_OS_TimeDly
 301              		.code	16
 302              		.thumb_func
 303              		.type	BSP_OS_TimeDly, %function
 304              	BSP_OS_TimeDly:
 305              	.LFB38:
 279:..\..\..\BSP\OS\uCOS-II/bsp_os.c **** 
 280:..\..\..\BSP\OS\uCOS-II/bsp_os.c **** /*
 281:..\..\..\BSP\OS\uCOS-II/bsp_os.c **** ***************************************************************************************************
 282:..\..\..\BSP\OS\uCOS-II/bsp_os.c **** *                                    BSP_TimeDlyMs()
 283:..\..\..\BSP\OS\uCOS-II/bsp_os.c **** *
 284:..\..\..\BSP\OS\uCOS-II/bsp_os.c **** * Description : This function delay the exceution for specifi amount of miliseconds
 285:..\..\..\BSP\OS\uCOS-II/bsp_os.c **** *
 286:..\..\..\BSP\OS\uCOS-II/bsp_os.c **** * Argument(s) : dly_ms       Delay in miliseconds
 287:..\..\..\BSP\OS\uCOS-II/bsp_os.c **** *
 288:..\..\..\BSP\OS\uCOS-II/bsp_os.c **** * Return(s)   : none.
 289:..\..\..\BSP\OS\uCOS-II/bsp_os.c **** *
 290:..\..\..\BSP\OS\uCOS-II/bsp_os.c **** * Caller(s)   : Application
 291:..\..\..\BSP\OS\uCOS-II/bsp_os.c **** *
 292:..\..\..\BSP\OS\uCOS-II/bsp_os.c **** * Note(s)     : none.
 293:..\..\..\BSP\OS\uCOS-II/bsp_os.c **** *
 294:..\..\..\BSP\OS\uCOS-II/bsp_os.c **** ***************************************************************************************************
 295:..\..\..\BSP\OS\uCOS-II/bsp_os.c **** */
 296:..\..\..\BSP\OS\uCOS-II/bsp_os.c **** 
 297:..\..\..\BSP\OS\uCOS-II/bsp_os.c **** void  BSP_OS_TimeDly (CPU_INT32U  dly_tick)
 298:..\..\..\BSP\OS\uCOS-II/bsp_os.c **** {
 306              		.loc 1 298 0
 307              		.cfi_startproc
 308              		@ args = 0, pretend = 0, frame = 8
 309              		@ frame_needed = 1, uses_anonymous_args = 0
 310 0000 80B5     		push	{r7, lr}
 311              		.cfi_def_cfa_offset 8
 312              		.cfi_offset 7, -8
 313              		.cfi_offset 14, -4
 314 0002 82B0     		sub	sp, sp, #8
 315              		.cfi_def_cfa_offset 16
 316 0004 00AF     		add	r7, sp, #0
 317              		.cfi_def_cfa_register 7
 318 0006 7860     		str	r0, [r7, #4]
 299:..\..\..\BSP\OS\uCOS-II/bsp_os.c ****     OSTimeDly(dly_tick);
 319              		.loc 1 299 0
 320 0008 7B68     		ldr	r3, [r7, #4]
 321 000a 1800     		movs	r0, r3
 322 000c FFF7FEFF 		bl	OSTimeDly
 300:..\..\..\BSP\OS\uCOS-II/bsp_os.c **** }
 323              		.loc 1 300 0
 324 0010 C046     		nop
 325 0012 BD46     		mov	sp, r7
 326 0014 02B0     		add	sp, sp, #8
 327              		@ sp needed
ARM GAS  C:\Users\ADMINI~1\AppData\Local\Temp\ccniFOvV.s 			page 12


 328 0016 80BD     		pop	{r7, pc}
 329              		.cfi_endproc
 330              	.LFE38:
 331              		.size	BSP_OS_TimeDly, .-BSP_OS_TimeDly
 332              		.text
 333              	.Letext0:
 334              		.file 2 "..\\..\\..\\..\\..\\..\\Software\\uCOS-II\\Ports\\ARM-Cortex-M0\\Generic\\GNU/os_cpu.h"
 335              		.file 3 "..\\..\\..\\..\\..\\..\\Software\\uCOS-II\\Source/ucos_ii.h"
 336              		.file 4 "..\\..\\..\\..\\..\\..\\Software\\uC-CPU\\ARM-Cortex-M0\\GNU/cpu.h"
 337              		.file 5 "..\\..\\..\\BSP\\OS\\uCOS-II/bsp_os.h"