ARM GAS  C:\Users\ADMINI~1\AppData\Local\Temp\ccqheCtc.s 			page 1


   1              		.syntax unified
   2              		.cpu cortex-m0
   3              		.fpu softvfp
   4              		.eabi_attribute 20, 1
   5              		.eabi_attribute 21, 1
   6              		.eabi_attribute 23, 3
   7              		.eabi_attribute 24, 1
   8              		.eabi_attribute 25, 1
   9              		.eabi_attribute 26, 1
  10              		.eabi_attribute 30, 6
  11              		.eabi_attribute 34, 0
  12              		.eabi_attribute 18, 4
  13              		.thumb
  14              		.syntax unified
  15              		.file	"Cm0Start.c"
  16              		.text
  17              	.Ltext0:
  18              		.cfi_sections	.debug_frame
  19              		.section	.noinit,"aw",%progbits
  20              		.align	2
  21              		.type	cySysNoInitDataValid, %object
  22              		.size	cySysNoInitDataValid, 4
  23              	cySysNoInitDataValid:
  24 0000 00000000 		.space	4
  25              		.section	.text.IntDefaultHandler,"ax",%progbits
  26              		.align	2
  27              		.global	IntDefaultHandler
  28              		.code	16
  29              		.thumb_func
  30              		.type	IntDefaultHandler, %function
  31              	IntDefaultHandler:
  32              	.LFB1:
  33              		.file 1 "Generated_Source\\PSoC4\\Cm0Start.c"
   1:Generated_Source\PSoC4/Cm0Start.c **** /*******************************************************************************
   2:Generated_Source\PSoC4/Cm0Start.c **** * File Name: Cm0Start.c
   3:Generated_Source\PSoC4/Cm0Start.c **** * Version 5.20
   4:Generated_Source\PSoC4/Cm0Start.c **** *
   5:Generated_Source\PSoC4/Cm0Start.c **** *  Description:
   6:Generated_Source\PSoC4/Cm0Start.c **** *  Startup code for the ARM CM0.
   7:Generated_Source\PSoC4/Cm0Start.c **** *
   8:Generated_Source\PSoC4/Cm0Start.c **** ********************************************************************************
   9:Generated_Source\PSoC4/Cm0Start.c **** * Copyright 2010-2015, Cypress Semiconductor Corporation.  All rights reserved.
  10:Generated_Source\PSoC4/Cm0Start.c **** * You may use this file only in accordance with the license, terms, conditions,
  11:Generated_Source\PSoC4/Cm0Start.c **** * disclaimers, and limitations in the end user license agreement accompanying
  12:Generated_Source\PSoC4/Cm0Start.c **** * the software package with which this file was provided.
  13:Generated_Source\PSoC4/Cm0Start.c **** *******************************************************************************/
  14:Generated_Source\PSoC4/Cm0Start.c **** 
  15:Generated_Source\PSoC4/Cm0Start.c **** #include <limits.h>
  16:Generated_Source\PSoC4/Cm0Start.c **** #include "cydevice_trm.h"
  17:Generated_Source\PSoC4/Cm0Start.c **** #include "cytypes.h"
  18:Generated_Source\PSoC4/Cm0Start.c **** #include "cyfitter_cfg.h"
  19:Generated_Source\PSoC4/Cm0Start.c **** #include "CyLib.h"
  20:Generated_Source\PSoC4/Cm0Start.c **** #include "cyfitter.h"
  21:Generated_Source\PSoC4/Cm0Start.c **** 
  22:Generated_Source\PSoC4/Cm0Start.c **** 
  23:Generated_Source\PSoC4/Cm0Start.c **** #define CY_NUM_VECTORS              (CY_INT_IRQ_BASE + CY_NUM_INTERRUPTS)
  24:Generated_Source\PSoC4/Cm0Start.c **** #define CY_CPUSS_CONFIG_VECT_IN_RAM (( uint32 ) 0x01)
ARM GAS  C:\Users\ADMINI~1\AppData\Local\Temp\ccqheCtc.s 			page 2


  25:Generated_Source\PSoC4/Cm0Start.c **** 
  26:Generated_Source\PSoC4/Cm0Start.c **** /* CPUSS Configuration register */
  27:Generated_Source\PSoC4/Cm0Start.c **** #define CY_CPUSS_CONFIG_REG         (*(reg32 *) CYREG_CPUSS_CONFIG)
  28:Generated_Source\PSoC4/Cm0Start.c **** #define CY_CPUSS_CONFIG_PTR         ( (reg32 *) CYREG_CPUSS_CONFIG)
  29:Generated_Source\PSoC4/Cm0Start.c **** 
  30:Generated_Source\PSoC4/Cm0Start.c **** 
  31:Generated_Source\PSoC4/Cm0Start.c **** #if defined (__ICCARM__)
  32:Generated_Source\PSoC4/Cm0Start.c ****     #define CY_NUM_ROM_VECTORS      (CY_NUM_VECTORS)
  33:Generated_Source\PSoC4/Cm0Start.c **** #else
  34:Generated_Source\PSoC4/Cm0Start.c ****     #define CY_NUM_ROM_VECTORS      (4u)
  35:Generated_Source\PSoC4/Cm0Start.c **** #endif  /* defined (__ICCARM__) */
  36:Generated_Source\PSoC4/Cm0Start.c **** 
  37:Generated_Source\PSoC4/Cm0Start.c **** #if defined(__ARMCC_VERSION)
  38:Generated_Source\PSoC4/Cm0Start.c ****     #define INITIAL_STACK_POINTER ((cyisraddress)(uint32)&Image$$ARM_LIB_STACK$$ZI$$Limit)
  39:Generated_Source\PSoC4/Cm0Start.c **** #elif defined (__GNUC__)
  40:Generated_Source\PSoC4/Cm0Start.c ****     #define INITIAL_STACK_POINTER (&__cy_stack)
  41:Generated_Source\PSoC4/Cm0Start.c **** #elif defined (__ICCARM__)
  42:Generated_Source\PSoC4/Cm0Start.c ****     #pragma language=extended
  43:Generated_Source\PSoC4/Cm0Start.c ****     #pragma segment="CSTACK"
  44:Generated_Source\PSoC4/Cm0Start.c ****     #define INITIAL_STACK_POINTER  { .__ptr = __sfe( "CSTACK" ) }
  45:Generated_Source\PSoC4/Cm0Start.c **** 
  46:Generated_Source\PSoC4/Cm0Start.c ****     extern void __iar_program_start( void );
  47:Generated_Source\PSoC4/Cm0Start.c ****     extern void __iar_data_init3 (void);
  48:Generated_Source\PSoC4/Cm0Start.c **** #endif  /* (__ARMCC_VERSION) */
  49:Generated_Source\PSoC4/Cm0Start.c **** 
  50:Generated_Source\PSoC4/Cm0Start.c **** #if defined(__GNUC__)
  51:Generated_Source\PSoC4/Cm0Start.c ****     #include <errno.h>
  52:Generated_Source\PSoC4/Cm0Start.c ****     extern int  errno;
  53:Generated_Source\PSoC4/Cm0Start.c ****     extern int  end;
  54:Generated_Source\PSoC4/Cm0Start.c **** #endif  /* defined(__GNUC__) */
  55:Generated_Source\PSoC4/Cm0Start.c **** 
  56:Generated_Source\PSoC4/Cm0Start.c **** /* Extern functions */
  57:Generated_Source\PSoC4/Cm0Start.c **** extern void CyBtldr_CheckLaunch(void);
  58:Generated_Source\PSoC4/Cm0Start.c **** 
  59:Generated_Source\PSoC4/Cm0Start.c **** /* Function prototypes */
  60:Generated_Source\PSoC4/Cm0Start.c **** void initialize_psoc(void);
  61:Generated_Source\PSoC4/Cm0Start.c **** 
  62:Generated_Source\PSoC4/Cm0Start.c **** /* Global variables */
  63:Generated_Source\PSoC4/Cm0Start.c **** #if !defined (__ICCARM__)
  64:Generated_Source\PSoC4/Cm0Start.c ****     CY_NOINIT static uint32 cySysNoInitDataValid;
  65:Generated_Source\PSoC4/Cm0Start.c **** #endif  /* !defined (__ICCARM__) */
  66:Generated_Source\PSoC4/Cm0Start.c **** 
  67:Generated_Source\PSoC4/Cm0Start.c **** 
  68:Generated_Source\PSoC4/Cm0Start.c **** #if (CYDEV_PROJ_TYPE != CYDEV_PROJ_TYPE_STANDARD)
  69:Generated_Source\PSoC4/Cm0Start.c **** 
  70:Generated_Source\PSoC4/Cm0Start.c ****     /*******************************************************************************
  71:Generated_Source\PSoC4/Cm0Start.c ****     This variable is used by the Bootloader/Bootloadable components to schedule
  72:Generated_Source\PSoC4/Cm0Start.c ****     what application will be started after a software reset.
  73:Generated_Source\PSoC4/Cm0Start.c ****     *******************************************************************************/
  74:Generated_Source\PSoC4/Cm0Start.c ****     #if (__ARMCC_VERSION)
  75:Generated_Source\PSoC4/Cm0Start.c ****         __attribute__ ((section(".bootloaderruntype"), zero_init))
  76:Generated_Source\PSoC4/Cm0Start.c ****     #elif defined (__GNUC__)
  77:Generated_Source\PSoC4/Cm0Start.c ****         __attribute__ ((section(".bootloaderruntype")))
  78:Generated_Source\PSoC4/Cm0Start.c ****     #elif defined (__ICCARM__)
  79:Generated_Source\PSoC4/Cm0Start.c ****         #pragma location=".bootloaderruntype"
  80:Generated_Source\PSoC4/Cm0Start.c ****     #endif /* (__ARMCC_VERSION) */
  81:Generated_Source\PSoC4/Cm0Start.c ****     volatile uint32 cyBtldrRunType;
ARM GAS  C:\Users\ADMINI~1\AppData\Local\Temp\ccqheCtc.s 			page 3


  82:Generated_Source\PSoC4/Cm0Start.c **** 
  83:Generated_Source\PSoC4/Cm0Start.c **** #endif  /* (CYDEV_PROJ_TYPE != CYDEV_PROJ_TYPE_STANDARD) */
  84:Generated_Source\PSoC4/Cm0Start.c **** 
  85:Generated_Source\PSoC4/Cm0Start.c **** 
  86:Generated_Source\PSoC4/Cm0Start.c **** /*******************************************************************************
  87:Generated_Source\PSoC4/Cm0Start.c **** * Function Name: IntDefaultHandler
  88:Generated_Source\PSoC4/Cm0Start.c **** ********************************************************************************
  89:Generated_Source\PSoC4/Cm0Start.c **** *
  90:Generated_Source\PSoC4/Cm0Start.c **** * Summary:
  91:Generated_Source\PSoC4/Cm0Start.c **** *  This function is called for all interrupts, other than a reset that is called
  92:Generated_Source\PSoC4/Cm0Start.c **** *  before the system is setup.
  93:Generated_Source\PSoC4/Cm0Start.c **** *
  94:Generated_Source\PSoC4/Cm0Start.c **** * Parameters:
  95:Generated_Source\PSoC4/Cm0Start.c **** *  None
  96:Generated_Source\PSoC4/Cm0Start.c **** *
  97:Generated_Source\PSoC4/Cm0Start.c **** * Return:
  98:Generated_Source\PSoC4/Cm0Start.c **** *  None
  99:Generated_Source\PSoC4/Cm0Start.c **** *
 100:Generated_Source\PSoC4/Cm0Start.c **** * Theory:
 101:Generated_Source\PSoC4/Cm0Start.c **** *   Any value other than zero is acceptable.
 102:Generated_Source\PSoC4/Cm0Start.c **** *
 103:Generated_Source\PSoC4/Cm0Start.c **** *******************************************************************************/
 104:Generated_Source\PSoC4/Cm0Start.c **** CY_NORETURN
 105:Generated_Source\PSoC4/Cm0Start.c **** CY_ISR(IntDefaultHandler)
 106:Generated_Source\PSoC4/Cm0Start.c **** {
  34              		.loc 1 106 0
  35              		.cfi_startproc
  36              		@ args = 0, pretend = 0, frame = 0
  37              		@ frame_needed = 1, uses_anonymous_args = 0
  38 0000 80B5     		push	{r7, lr}
  39              		.cfi_def_cfa_offset 8
  40              		.cfi_offset 7, -8
  41              		.cfi_offset 14, -4
  42 0002 00AF     		add	r7, sp, #0
  43              		.cfi_def_cfa_register 7
  44              	.L2:
 107:Generated_Source\PSoC4/Cm0Start.c ****     /***************************************************************************
 108:Generated_Source\PSoC4/Cm0Start.c ****     * We must not get here. If we do, a serious problem occurs, so go into
 109:Generated_Source\PSoC4/Cm0Start.c ****     * an infinite loop.
 110:Generated_Source\PSoC4/Cm0Start.c ****     ***************************************************************************/
 111:Generated_Source\PSoC4/Cm0Start.c **** 
 112:Generated_Source\PSoC4/Cm0Start.c ****     #ifdef CY_BOOT_INT_DEFAULT_HANDLER_EXCEPTION_ENTRY_CALLBACK
 113:Generated_Source\PSoC4/Cm0Start.c ****         CyBoot_IntDefaultHandler_Exception_EntryCallback();
 114:Generated_Source\PSoC4/Cm0Start.c ****     #endif /* CY_BOOT_INT_DEFAULT_HANDLER_EXCEPTION_ENTRY_CALLBACK */
 115:Generated_Source\PSoC4/Cm0Start.c **** 
 116:Generated_Source\PSoC4/Cm0Start.c ****     while(1)
 117:Generated_Source\PSoC4/Cm0Start.c ****     {
 118:Generated_Source\PSoC4/Cm0Start.c **** 
 119:Generated_Source\PSoC4/Cm0Start.c ****     }
  45              		.loc 1 119 0 discriminator 1
  46 0004 FEE7     		b	.L2
  47              		.cfi_endproc
  48              	.LFE1:
  49              		.size	IntDefaultHandler, .-IntDefaultHandler
  50 0006 C046     		.section	.text._exit,"ax",%progbits
  51              		.align	2
  52              		.weak	_exit
ARM GAS  C:\Users\ADMINI~1\AppData\Local\Temp\ccqheCtc.s 			page 4


  53              		.code	16
  54              		.thumb_func
  55              		.type	_exit, %function
  56              	_exit:
  57              	.LFB2:
 120:Generated_Source\PSoC4/Cm0Start.c **** }
 121:Generated_Source\PSoC4/Cm0Start.c **** 
 122:Generated_Source\PSoC4/Cm0Start.c **** #if defined(__ARMCC_VERSION)
 123:Generated_Source\PSoC4/Cm0Start.c **** 
 124:Generated_Source\PSoC4/Cm0Start.c **** /* Local function for device reset. */
 125:Generated_Source\PSoC4/Cm0Start.c **** extern void Reset(void);
 126:Generated_Source\PSoC4/Cm0Start.c **** 
 127:Generated_Source\PSoC4/Cm0Start.c **** /* Application entry point. */
 128:Generated_Source\PSoC4/Cm0Start.c **** extern void $Super$$main(void);
 129:Generated_Source\PSoC4/Cm0Start.c **** 
 130:Generated_Source\PSoC4/Cm0Start.c **** /* Linker-generated Stack Base addresses, Two Region and One Region */
 131:Generated_Source\PSoC4/Cm0Start.c **** extern unsigned long Image$$ARM_LIB_STACK$$ZI$$Limit;
 132:Generated_Source\PSoC4/Cm0Start.c **** 
 133:Generated_Source\PSoC4/Cm0Start.c **** /* RealView C Library initialization. */
 134:Generated_Source\PSoC4/Cm0Start.c **** extern int __main(void);
 135:Generated_Source\PSoC4/Cm0Start.c **** 
 136:Generated_Source\PSoC4/Cm0Start.c **** 
 137:Generated_Source\PSoC4/Cm0Start.c **** /*******************************************************************************
 138:Generated_Source\PSoC4/Cm0Start.c **** * Function Name: Reset
 139:Generated_Source\PSoC4/Cm0Start.c **** ********************************************************************************
 140:Generated_Source\PSoC4/Cm0Start.c **** *
 141:Generated_Source\PSoC4/Cm0Start.c **** * Summary:
 142:Generated_Source\PSoC4/Cm0Start.c **** *  This function handles the reset interrupt for the RVDS/MDK toolchains.
 143:Generated_Source\PSoC4/Cm0Start.c **** *  This is the first bit of code that is executed at startup.
 144:Generated_Source\PSoC4/Cm0Start.c **** *
 145:Generated_Source\PSoC4/Cm0Start.c **** * Parameters:
 146:Generated_Source\PSoC4/Cm0Start.c **** *  None
 147:Generated_Source\PSoC4/Cm0Start.c **** *
 148:Generated_Source\PSoC4/Cm0Start.c **** * Return:
 149:Generated_Source\PSoC4/Cm0Start.c **** *  None
 150:Generated_Source\PSoC4/Cm0Start.c **** *
 151:Generated_Source\PSoC4/Cm0Start.c **** *******************************************************************************/
 152:Generated_Source\PSoC4/Cm0Start.c **** void Reset(void)
 153:Generated_Source\PSoC4/Cm0Start.c **** {
 154:Generated_Source\PSoC4/Cm0Start.c ****     #if (CYDEV_PROJ_TYPE == CYDEV_PROJ_TYPE_LOADABLE || CYDEV_PROJ_TYPE == CYDEV_PROJ_TYPE_LOADABLE
 155:Generated_Source\PSoC4/Cm0Start.c ****         /* The bootloadable application image is started at Reset() handler
 156:Generated_Source\PSoC4/Cm0Start.c ****         * as a result of a branch instruction execution from the bootloader.
 157:Generated_Source\PSoC4/Cm0Start.c ****         * So, the stack pointer needs to be reset to be sure that
 158:Generated_Source\PSoC4/Cm0Start.c ****         * there is no garbage in the stack.
 159:Generated_Source\PSoC4/Cm0Start.c ****         */
 160:Generated_Source\PSoC4/Cm0Start.c ****         register uint32_t msp __asm("msp");
 161:Generated_Source\PSoC4/Cm0Start.c ****         msp = (uint32_t)&Image$$ARM_LIB_STACK$$ZI$$Limit;
 162:Generated_Source\PSoC4/Cm0Start.c ****     #endif /*(CYDEV_PROJ_TYPE == CYDEV_PROJ_TYPE_LOADABLE || CYDEV_PROJ_TYPE == CYDEV_PROJ_TYPE_LOA
 163:Generated_Source\PSoC4/Cm0Start.c **** 
 164:Generated_Source\PSoC4/Cm0Start.c ****     #if(CY_IP_SRSSLT)
 165:Generated_Source\PSoC4/Cm0Start.c ****         CySysWdtDisable();
 166:Generated_Source\PSoC4/Cm0Start.c ****     #endif  /* (CY_IP_SRSSLT) */
 167:Generated_Source\PSoC4/Cm0Start.c **** 
 168:Generated_Source\PSoC4/Cm0Start.c ****     #if ((CYDEV_BOOTLOADER_ENABLE) && (CYDEV_PROJ_TYPE != CYDEV_PROJ_TYPE_LOADABLEANDBOOTLOADER))
 169:Generated_Source\PSoC4/Cm0Start.c ****         CyBtldr_CheckLaunch();
 170:Generated_Source\PSoC4/Cm0Start.c ****     #endif /* ((CYDEV_BOOTLOADER_ENABLE) && (CYDEV_PROJ_TYPE != CYDEV_PROJ_TYPE_LOADABLEANDBOOTLOAD
 171:Generated_Source\PSoC4/Cm0Start.c **** 
ARM GAS  C:\Users\ADMINI~1\AppData\Local\Temp\ccqheCtc.s 			page 5


 172:Generated_Source\PSoC4/Cm0Start.c ****     __main();
 173:Generated_Source\PSoC4/Cm0Start.c **** }
 174:Generated_Source\PSoC4/Cm0Start.c **** 
 175:Generated_Source\PSoC4/Cm0Start.c **** /*******************************************************************************
 176:Generated_Source\PSoC4/Cm0Start.c **** * Function Name: $Sub$$main
 177:Generated_Source\PSoC4/Cm0Start.c **** ********************************************************************************
 178:Generated_Source\PSoC4/Cm0Start.c **** *
 179:Generated_Source\PSoC4/Cm0Start.c **** * Summary:
 180:Generated_Source\PSoC4/Cm0Start.c **** *  This function is called immediately before the users main
 181:Generated_Source\PSoC4/Cm0Start.c **** *
 182:Generated_Source\PSoC4/Cm0Start.c **** * Parameters:
 183:Generated_Source\PSoC4/Cm0Start.c **** *  None
 184:Generated_Source\PSoC4/Cm0Start.c **** *
 185:Generated_Source\PSoC4/Cm0Start.c **** * Return:
 186:Generated_Source\PSoC4/Cm0Start.c **** *  None
 187:Generated_Source\PSoC4/Cm0Start.c **** *
 188:Generated_Source\PSoC4/Cm0Start.c **** *******************************************************************************/
 189:Generated_Source\PSoC4/Cm0Start.c **** __attribute__ ((noreturn, __noinline__))
 190:Generated_Source\PSoC4/Cm0Start.c **** void $Sub$$main(void)
 191:Generated_Source\PSoC4/Cm0Start.c **** {
 192:Generated_Source\PSoC4/Cm0Start.c ****     initialize_psoc();
 193:Generated_Source\PSoC4/Cm0Start.c **** 
 194:Generated_Source\PSoC4/Cm0Start.c ****     /* Call original main */
 195:Generated_Source\PSoC4/Cm0Start.c ****     $Super$$main();
 196:Generated_Source\PSoC4/Cm0Start.c **** 
 197:Generated_Source\PSoC4/Cm0Start.c ****     while (1)
 198:Generated_Source\PSoC4/Cm0Start.c ****     {
 199:Generated_Source\PSoC4/Cm0Start.c ****         /* If main returns it is undefined what we should do. */
 200:Generated_Source\PSoC4/Cm0Start.c ****     }
 201:Generated_Source\PSoC4/Cm0Start.c **** }
 202:Generated_Source\PSoC4/Cm0Start.c **** 
 203:Generated_Source\PSoC4/Cm0Start.c **** #elif defined(__GNUC__)
 204:Generated_Source\PSoC4/Cm0Start.c **** 
 205:Generated_Source\PSoC4/Cm0Start.c **** /* Stack Base address */
 206:Generated_Source\PSoC4/Cm0Start.c **** extern void __cy_stack(void);
 207:Generated_Source\PSoC4/Cm0Start.c **** 
 208:Generated_Source\PSoC4/Cm0Start.c **** /* Application entry point. */
 209:Generated_Source\PSoC4/Cm0Start.c **** extern int main(void);
 210:Generated_Source\PSoC4/Cm0Start.c **** 
 211:Generated_Source\PSoC4/Cm0Start.c **** /* The static objects constructors initializer */
 212:Generated_Source\PSoC4/Cm0Start.c **** extern void __libc_init_array(void);
 213:Generated_Source\PSoC4/Cm0Start.c **** 
 214:Generated_Source\PSoC4/Cm0Start.c **** typedef unsigned char __cy_byte_align8 __attribute ((aligned (8)));
 215:Generated_Source\PSoC4/Cm0Start.c **** 
 216:Generated_Source\PSoC4/Cm0Start.c **** struct __cy_region
 217:Generated_Source\PSoC4/Cm0Start.c **** {
 218:Generated_Source\PSoC4/Cm0Start.c ****     __cy_byte_align8 *init; /* Initial contents of this region.  */
 219:Generated_Source\PSoC4/Cm0Start.c ****     __cy_byte_align8 *data; /* Start address of region.  */
 220:Generated_Source\PSoC4/Cm0Start.c ****     size_t init_size;       /* Size of initial data.  */
 221:Generated_Source\PSoC4/Cm0Start.c ****     size_t zero_size;       /* Additional size to be zeroed.  */
 222:Generated_Source\PSoC4/Cm0Start.c **** };
 223:Generated_Source\PSoC4/Cm0Start.c **** 
 224:Generated_Source\PSoC4/Cm0Start.c **** extern const struct __cy_region __cy_regions[];
 225:Generated_Source\PSoC4/Cm0Start.c **** extern const char __cy_region_num __attribute__((weak));
 226:Generated_Source\PSoC4/Cm0Start.c **** #define __cy_region_num ((size_t)&__cy_region_num)
 227:Generated_Source\PSoC4/Cm0Start.c **** 
 228:Generated_Source\PSoC4/Cm0Start.c **** 
ARM GAS  C:\Users\ADMINI~1\AppData\Local\Temp\ccqheCtc.s 			page 6


 229:Generated_Source\PSoC4/Cm0Start.c **** /*******************************************************************************
 230:Generated_Source\PSoC4/Cm0Start.c **** * System Calls of the Red Hat newlib C Library
 231:Generated_Source\PSoC4/Cm0Start.c **** *******************************************************************************/
 232:Generated_Source\PSoC4/Cm0Start.c **** 
 233:Generated_Source\PSoC4/Cm0Start.c **** 
 234:Generated_Source\PSoC4/Cm0Start.c **** /*******************************************************************************
 235:Generated_Source\PSoC4/Cm0Start.c **** * Function Name: _exit
 236:Generated_Source\PSoC4/Cm0Start.c **** ********************************************************************************
 237:Generated_Source\PSoC4/Cm0Start.c **** *
 238:Generated_Source\PSoC4/Cm0Start.c **** * Summary:
 239:Generated_Source\PSoC4/Cm0Start.c **** *  Exit a program without cleaning up files. If your system doesn't provide
 240:Generated_Source\PSoC4/Cm0Start.c **** *  this, it is best to avoid linking with subroutines that require it (exit,
 241:Generated_Source\PSoC4/Cm0Start.c **** *  system).
 242:Generated_Source\PSoC4/Cm0Start.c **** *
 243:Generated_Source\PSoC4/Cm0Start.c **** * Parameters:
 244:Generated_Source\PSoC4/Cm0Start.c **** *  status: Status caused program exit.
 245:Generated_Source\PSoC4/Cm0Start.c **** *
 246:Generated_Source\PSoC4/Cm0Start.c **** * Return:
 247:Generated_Source\PSoC4/Cm0Start.c **** *  None
 248:Generated_Source\PSoC4/Cm0Start.c **** *
 249:Generated_Source\PSoC4/Cm0Start.c **** *******************************************************************************/
 250:Generated_Source\PSoC4/Cm0Start.c **** __attribute__((weak))
 251:Generated_Source\PSoC4/Cm0Start.c **** void _exit(int status)
 252:Generated_Source\PSoC4/Cm0Start.c **** {
  58              		.loc 1 252 0
  59              		.cfi_startproc
  60              		@ args = 0, pretend = 0, frame = 8
  61              		@ frame_needed = 1, uses_anonymous_args = 0
  62 0000 80B5     		push	{r7, lr}
  63              		.cfi_def_cfa_offset 8
  64              		.cfi_offset 7, -8
  65              		.cfi_offset 14, -4
  66 0002 82B0     		sub	sp, sp, #8
  67              		.cfi_def_cfa_offset 16
  68 0004 00AF     		add	r7, sp, #0
  69              		.cfi_def_cfa_register 7
  70 0006 7860     		str	r0, [r7, #4]
 253:Generated_Source\PSoC4/Cm0Start.c ****     CyHalt((uint8) status);
  71              		.loc 1 253 0
  72 0008 7B68     		ldr	r3, [r7, #4]
  73 000a DBB2     		uxtb	r3, r3
  74 000c 1800     		movs	r0, r3
  75 000e FFF7FEFF 		bl	CyHalt
  76              	.L4:
 254:Generated_Source\PSoC4/Cm0Start.c **** 
 255:Generated_Source\PSoC4/Cm0Start.c ****     while(1)
 256:Generated_Source\PSoC4/Cm0Start.c ****     {
 257:Generated_Source\PSoC4/Cm0Start.c **** 
 258:Generated_Source\PSoC4/Cm0Start.c ****     }
  77              		.loc 1 258 0 discriminator 1
  78 0012 FEE7     		b	.L4
  79              		.cfi_endproc
  80              	.LFE2:
  81              		.size	_exit, .-_exit
  82              		.section	.text._sbrk,"ax",%progbits
  83              		.align	2
  84              		.weak	_sbrk
ARM GAS  C:\Users\ADMINI~1\AppData\Local\Temp\ccqheCtc.s 			page 7


  85              		.code	16
  86              		.thumb_func
  87              		.type	_sbrk, %function
  88              	_sbrk:
  89              	.LFB3:
 259:Generated_Source\PSoC4/Cm0Start.c **** }
 260:Generated_Source\PSoC4/Cm0Start.c **** 
 261:Generated_Source\PSoC4/Cm0Start.c **** 
 262:Generated_Source\PSoC4/Cm0Start.c **** /*******************************************************************************
 263:Generated_Source\PSoC4/Cm0Start.c **** * Function Name: _sbrk
 264:Generated_Source\PSoC4/Cm0Start.c **** ********************************************************************************
 265:Generated_Source\PSoC4/Cm0Start.c **** *
 266:Generated_Source\PSoC4/Cm0Start.c **** * Summary:
 267:Generated_Source\PSoC4/Cm0Start.c **** *  Increase program data space. As malloc and related functions depend on this,
 268:Generated_Source\PSoC4/Cm0Start.c **** *  it is useful to have a working implementation. The following suffices for a
 269:Generated_Source\PSoC4/Cm0Start.c **** *  standalone system; it exploits the symbol end automatically defined by the
 270:Generated_Source\PSoC4/Cm0Start.c **** *  GNU linker.
 271:Generated_Source\PSoC4/Cm0Start.c **** *
 272:Generated_Source\PSoC4/Cm0Start.c **** * Parameters:
 273:Generated_Source\PSoC4/Cm0Start.c **** *  nbytes: The number of bytes requested (if the parameter value is positive)
 274:Generated_Source\PSoC4/Cm0Start.c **** *  from the heap or returned back to the heap (if the parameter value is
 275:Generated_Source\PSoC4/Cm0Start.c **** *  negative).
 276:Generated_Source\PSoC4/Cm0Start.c **** *
 277:Generated_Source\PSoC4/Cm0Start.c **** * Return:
 278:Generated_Source\PSoC4/Cm0Start.c **** *  None
 279:Generated_Source\PSoC4/Cm0Start.c **** *
 280:Generated_Source\PSoC4/Cm0Start.c **** *******************************************************************************/
 281:Generated_Source\PSoC4/Cm0Start.c **** __attribute__((weak))
 282:Generated_Source\PSoC4/Cm0Start.c **** void * _sbrk (int nbytes)
 283:Generated_Source\PSoC4/Cm0Start.c **** {
  90              		.loc 1 283 0
  91              		.cfi_startproc
  92              		@ args = 0, pretend = 0, frame = 16
  93              		@ frame_needed = 1, uses_anonymous_args = 0
  94 0000 80B5     		push	{r7, lr}
  95              		.cfi_def_cfa_offset 8
  96              		.cfi_offset 7, -8
  97              		.cfi_offset 14, -4
  98 0002 84B0     		sub	sp, sp, #16
  99              		.cfi_def_cfa_offset 24
 100 0004 00AF     		add	r7, sp, #0
 101              		.cfi_def_cfa_register 7
 102 0006 7860     		str	r0, [r7, #4]
 284:Generated_Source\PSoC4/Cm0Start.c ****     extern int  end;            /* Symbol defined by linker map. Start of free memory (as symbol). 
 285:Generated_Source\PSoC4/Cm0Start.c ****     void *      returnValue;
 286:Generated_Source\PSoC4/Cm0Start.c **** 
 287:Generated_Source\PSoC4/Cm0Start.c ****     /* The statically held previous end of the heap, with its initialization. */
 288:Generated_Source\PSoC4/Cm0Start.c ****     static void *heapPointer = (void *) &end;                 /* Previous end */
 289:Generated_Source\PSoC4/Cm0Start.c **** 
 290:Generated_Source\PSoC4/Cm0Start.c ****     if (((heapPointer + nbytes) - (void *) &end) <= CYDEV_HEAP_SIZE)
 103              		.loc 1 290 0
 104 0008 0F4B     		ldr	r3, .L9
 105 000a 1A68     		ldr	r2, [r3]
 106 000c 7B68     		ldr	r3, [r7, #4]
 107 000e D318     		adds	r3, r2, r3
 108 0010 1A00     		movs	r2, r3
 109 0012 0E4B     		ldr	r3, .L9+4
ARM GAS  C:\Users\ADMINI~1\AppData\Local\Temp\ccqheCtc.s 			page 8


 110 0014 D31A     		subs	r3, r2, r3
 111 0016 802B     		cmp	r3, #128
 112 0018 09DC     		bgt	.L6
 291:Generated_Source\PSoC4/Cm0Start.c ****     {
 292:Generated_Source\PSoC4/Cm0Start.c ****         returnValue  = heapPointer;
 113              		.loc 1 292 0
 114 001a 0B4B     		ldr	r3, .L9
 115 001c 1B68     		ldr	r3, [r3]
 116 001e FB60     		str	r3, [r7, #12]
 293:Generated_Source\PSoC4/Cm0Start.c ****         heapPointer += nbytes;
 117              		.loc 1 293 0
 118 0020 094B     		ldr	r3, .L9
 119 0022 1A68     		ldr	r2, [r3]
 120 0024 7B68     		ldr	r3, [r7, #4]
 121 0026 D218     		adds	r2, r2, r3
 122 0028 074B     		ldr	r3, .L9
 123 002a 1A60     		str	r2, [r3]
 124 002c 07E0     		b	.L7
 125              	.L6:
 294:Generated_Source\PSoC4/Cm0Start.c ****     }
 295:Generated_Source\PSoC4/Cm0Start.c ****     else
 296:Generated_Source\PSoC4/Cm0Start.c ****     {
 297:Generated_Source\PSoC4/Cm0Start.c ****         errno = ENOMEM;
 126              		.loc 1 297 0
 127 002e FFF7FEFF 		bl	__errno
 128 0032 0300     		movs	r3, r0
 129 0034 0C22     		movs	r2, #12
 130 0036 1A60     		str	r2, [r3]
 298:Generated_Source\PSoC4/Cm0Start.c ****         returnValue = (void *) -1;
 131              		.loc 1 298 0
 132 0038 0123     		movs	r3, #1
 133 003a 5B42     		rsbs	r3, r3, #0
 134 003c FB60     		str	r3, [r7, #12]
 135              	.L7:
 299:Generated_Source\PSoC4/Cm0Start.c ****     }
 300:Generated_Source\PSoC4/Cm0Start.c **** 
 301:Generated_Source\PSoC4/Cm0Start.c ****     return (returnValue);
 136              		.loc 1 301 0
 137 003e FB68     		ldr	r3, [r7, #12]
 302:Generated_Source\PSoC4/Cm0Start.c **** }
 138              		.loc 1 302 0
 139 0040 1800     		movs	r0, r3
 140 0042 BD46     		mov	sp, r7
 141 0044 04B0     		add	sp, sp, #16
 142              		@ sp needed
 143 0046 80BD     		pop	{r7, pc}
 144              	.L10:
 145              		.align	2
 146              	.L9:
 147 0048 00000000 		.word	heapPointer.4856
 148 004c 00000000 		.word	end
 149              		.cfi_endproc
 150              	.LFE3:
 151              		.size	_sbrk, .-_sbrk
 152              		.section	.text.Start_c,"ax",%progbits
 153              		.align	2
 154              		.global	Start_c
ARM GAS  C:\Users\ADMINI~1\AppData\Local\Temp\ccqheCtc.s 			page 9


 155              		.code	16
 156              		.thumb_func
 157              		.type	Start_c, %function
 158              	Start_c:
 159              	.LFB4:
 303:Generated_Source\PSoC4/Cm0Start.c **** 
 304:Generated_Source\PSoC4/Cm0Start.c **** 
 305:Generated_Source\PSoC4/Cm0Start.c **** /*******************************************************************************
 306:Generated_Source\PSoC4/Cm0Start.c **** * Function Name: Start_c
 307:Generated_Source\PSoC4/Cm0Start.c **** ********************************************************************************
 308:Generated_Source\PSoC4/Cm0Start.c **** *
 309:Generated_Source\PSoC4/Cm0Start.c **** * Summary:
 310:Generated_Source\PSoC4/Cm0Start.c **** *  This function handles initializing the .data and .bss sections in
 311:Generated_Source\PSoC4/Cm0Start.c **** *  preparation for running the standard c code.  Once initialization is complete
 312:Generated_Source\PSoC4/Cm0Start.c **** *  it will call main().  This function will never return.
 313:Generated_Source\PSoC4/Cm0Start.c **** *
 314:Generated_Source\PSoC4/Cm0Start.c **** * Parameters:
 315:Generated_Source\PSoC4/Cm0Start.c **** *  None
 316:Generated_Source\PSoC4/Cm0Start.c **** *
 317:Generated_Source\PSoC4/Cm0Start.c **** * Return:
 318:Generated_Source\PSoC4/Cm0Start.c **** *  None
 319:Generated_Source\PSoC4/Cm0Start.c **** *
 320:Generated_Source\PSoC4/Cm0Start.c **** *******************************************************************************/
 321:Generated_Source\PSoC4/Cm0Start.c **** void Start_c(void)  __attribute__ ((noreturn, noinline));
 322:Generated_Source\PSoC4/Cm0Start.c **** void Start_c(void)
 323:Generated_Source\PSoC4/Cm0Start.c **** {
 160              		.loc 1 323 0
 161              		.cfi_startproc
 162              		@ args = 0, pretend = 0, frame = 24
 163              		@ frame_needed = 1, uses_anonymous_args = 0
 164 0000 80B5     		push	{r7, lr}
 165              		.cfi_def_cfa_offset 8
 166              		.cfi_offset 7, -8
 167              		.cfi_offset 14, -4
 168 0002 86B0     		sub	sp, sp, #24
 169              		.cfi_def_cfa_offset 32
 170 0004 00AF     		add	r7, sp, #0
 171              		.cfi_def_cfa_register 7
 324:Generated_Source\PSoC4/Cm0Start.c ****     unsigned regions = __cy_region_num;
 172              		.loc 1 324 0
 173 0006 224B     		ldr	r3, .L19
 174 0008 7B61     		str	r3, [r7, #20]
 325:Generated_Source\PSoC4/Cm0Start.c ****     const struct __cy_region *rptr = __cy_regions;
 175              		.loc 1 325 0
 176 000a 224B     		ldr	r3, .L19+4
 177 000c 3B61     		str	r3, [r7, #16]
 326:Generated_Source\PSoC4/Cm0Start.c **** 
 327:Generated_Source\PSoC4/Cm0Start.c ****     /* Initialize memory */
 328:Generated_Source\PSoC4/Cm0Start.c ****     for (regions = __cy_region_num; regions != 0u; regions--)
 178              		.loc 1 328 0
 179 000e 204B     		ldr	r3, .L19
 180 0010 7B61     		str	r3, [r7, #20]
 181 0012 35E0     		b	.L12
 182              	.L17:
 183              	.LBB2:
 329:Generated_Source\PSoC4/Cm0Start.c ****     {
 330:Generated_Source\PSoC4/Cm0Start.c ****         uint32 *src = (uint32 *)rptr->init;
ARM GAS  C:\Users\ADMINI~1\AppData\Local\Temp\ccqheCtc.s 			page 10


 184              		.loc 1 330 0
 185 0014 3B69     		ldr	r3, [r7, #16]
 186 0016 1B68     		ldr	r3, [r3]
 187 0018 FB60     		str	r3, [r7, #12]
 331:Generated_Source\PSoC4/Cm0Start.c ****         uint32 *dst = (uint32 *)rptr->data;
 188              		.loc 1 331 0
 189 001a 3B69     		ldr	r3, [r7, #16]
 190 001c 5B68     		ldr	r3, [r3, #4]
 191 001e BB60     		str	r3, [r7, #8]
 332:Generated_Source\PSoC4/Cm0Start.c ****         unsigned limit = rptr->init_size;
 192              		.loc 1 332 0
 193 0020 3B69     		ldr	r3, [r7, #16]
 194 0022 9B68     		ldr	r3, [r3, #8]
 195 0024 3B60     		str	r3, [r7]
 333:Generated_Source\PSoC4/Cm0Start.c ****         unsigned count;
 334:Generated_Source\PSoC4/Cm0Start.c **** 
 335:Generated_Source\PSoC4/Cm0Start.c ****         for (count = 0u; count != limit; count += sizeof (uint32))
 196              		.loc 1 335 0
 197 0026 0023     		movs	r3, #0
 198 0028 7B60     		str	r3, [r7, #4]
 199 002a 0CE0     		b	.L13
 200              	.L14:
 336:Generated_Source\PSoC4/Cm0Start.c ****         {
 337:Generated_Source\PSoC4/Cm0Start.c ****             *dst = *src;
 201              		.loc 1 337 0 discriminator 3
 202 002c FB68     		ldr	r3, [r7, #12]
 203 002e 1A68     		ldr	r2, [r3]
 204 0030 BB68     		ldr	r3, [r7, #8]
 205 0032 1A60     		str	r2, [r3]
 338:Generated_Source\PSoC4/Cm0Start.c ****             dst++;
 206              		.loc 1 338 0 discriminator 3
 207 0034 BB68     		ldr	r3, [r7, #8]
 208 0036 0433     		adds	r3, r3, #4
 209 0038 BB60     		str	r3, [r7, #8]
 339:Generated_Source\PSoC4/Cm0Start.c ****             src++;
 210              		.loc 1 339 0 discriminator 3
 211 003a FB68     		ldr	r3, [r7, #12]
 212 003c 0433     		adds	r3, r3, #4
 213 003e FB60     		str	r3, [r7, #12]
 335:Generated_Source\PSoC4/Cm0Start.c ****         {
 214              		.loc 1 335 0 discriminator 3
 215 0040 7B68     		ldr	r3, [r7, #4]
 216 0042 0433     		adds	r3, r3, #4
 217 0044 7B60     		str	r3, [r7, #4]
 218              	.L13:
 335:Generated_Source\PSoC4/Cm0Start.c ****         {
 219              		.loc 1 335 0 is_stmt 0 discriminator 1
 220 0046 7A68     		ldr	r2, [r7, #4]
 221 0048 3B68     		ldr	r3, [r7]
 222 004a 9A42     		cmp	r2, r3
 223 004c EED1     		bne	.L14
 340:Generated_Source\PSoC4/Cm0Start.c ****         }
 341:Generated_Source\PSoC4/Cm0Start.c ****         limit = rptr->zero_size;
 224              		.loc 1 341 0 is_stmt 1
 225 004e 3B69     		ldr	r3, [r7, #16]
 226 0050 DB68     		ldr	r3, [r3, #12]
 227 0052 3B60     		str	r3, [r7]
ARM GAS  C:\Users\ADMINI~1\AppData\Local\Temp\ccqheCtc.s 			page 11


 342:Generated_Source\PSoC4/Cm0Start.c ****         for (count = 0u; count != limit; count += sizeof (uint32))
 228              		.loc 1 342 0
 229 0054 0023     		movs	r3, #0
 230 0056 7B60     		str	r3, [r7, #4]
 231 0058 08E0     		b	.L15
 232              	.L16:
 343:Generated_Source\PSoC4/Cm0Start.c ****         {
 344:Generated_Source\PSoC4/Cm0Start.c ****             *dst = 0u;
 233              		.loc 1 344 0 discriminator 3
 234 005a BB68     		ldr	r3, [r7, #8]
 235 005c 0022     		movs	r2, #0
 236 005e 1A60     		str	r2, [r3]
 345:Generated_Source\PSoC4/Cm0Start.c ****             dst++;
 237              		.loc 1 345 0 discriminator 3
 238 0060 BB68     		ldr	r3, [r7, #8]
 239 0062 0433     		adds	r3, r3, #4
 240 0064 BB60     		str	r3, [r7, #8]
 342:Generated_Source\PSoC4/Cm0Start.c ****         for (count = 0u; count != limit; count += sizeof (uint32))
 241              		.loc 1 342 0 discriminator 3
 242 0066 7B68     		ldr	r3, [r7, #4]
 243 0068 0433     		adds	r3, r3, #4
 244 006a 7B60     		str	r3, [r7, #4]
 245              	.L15:
 342:Generated_Source\PSoC4/Cm0Start.c ****         for (count = 0u; count != limit; count += sizeof (uint32))
 246              		.loc 1 342 0 is_stmt 0 discriminator 1
 247 006c 7A68     		ldr	r2, [r7, #4]
 248 006e 3B68     		ldr	r3, [r7]
 249 0070 9A42     		cmp	r2, r3
 250 0072 F2D1     		bne	.L16
 346:Generated_Source\PSoC4/Cm0Start.c ****         }
 347:Generated_Source\PSoC4/Cm0Start.c **** 
 348:Generated_Source\PSoC4/Cm0Start.c ****         rptr++;
 251              		.loc 1 348 0 is_stmt 1 discriminator 2
 252 0074 3B69     		ldr	r3, [r7, #16]
 253 0076 1033     		adds	r3, r3, #16
 254 0078 3B61     		str	r3, [r7, #16]
 255              	.LBE2:
 328:Generated_Source\PSoC4/Cm0Start.c ****     {
 256              		.loc 1 328 0 discriminator 2
 257 007a 7B69     		ldr	r3, [r7, #20]
 258 007c 013B     		subs	r3, r3, #1
 259 007e 7B61     		str	r3, [r7, #20]
 260              	.L12:
 328:Generated_Source\PSoC4/Cm0Start.c ****     {
 261              		.loc 1 328 0 is_stmt 0 discriminator 1
 262 0080 7B69     		ldr	r3, [r7, #20]
 263 0082 002B     		cmp	r3, #0
 264 0084 C6D1     		bne	.L17
 349:Generated_Source\PSoC4/Cm0Start.c ****     }
 350:Generated_Source\PSoC4/Cm0Start.c **** 
 351:Generated_Source\PSoC4/Cm0Start.c ****     /* Invoke static objects constructors */
 352:Generated_Source\PSoC4/Cm0Start.c ****     __libc_init_array();
 265              		.loc 1 352 0 is_stmt 1
 266 0086 FFF7FEFF 		bl	__libc_init_array
 353:Generated_Source\PSoC4/Cm0Start.c ****     (void) main();
 267              		.loc 1 353 0
 268 008a FFF7FEFF 		bl	main
ARM GAS  C:\Users\ADMINI~1\AppData\Local\Temp\ccqheCtc.s 			page 12


 269              	.L18:
 354:Generated_Source\PSoC4/Cm0Start.c **** 
 355:Generated_Source\PSoC4/Cm0Start.c ****     while (1)
 356:Generated_Source\PSoC4/Cm0Start.c ****     {
 357:Generated_Source\PSoC4/Cm0Start.c ****         /* If main returns, make sure we don't return. */
 358:Generated_Source\PSoC4/Cm0Start.c ****     }
 270              		.loc 1 358 0 discriminator 1
 271 008e FEE7     		b	.L18
 272              	.L20:
 273              		.align	2
 274              	.L19:
 275 0090 00000000 		.word	__cy_region_num
 276 0094 00000000 		.word	__cy_regions
 277              		.cfi_endproc
 278              	.LFE4:
 279              		.size	Start_c, .-Start_c
 280              		.section	.text.Reset,"ax",%progbits
 281              		.align	2
 282              		.global	Reset
 283              		.code	16
 284              		.thumb_func
 285              		.type	Reset, %function
 286              	Reset:
 287              	.LFB5:
 359:Generated_Source\PSoC4/Cm0Start.c **** }
 360:Generated_Source\PSoC4/Cm0Start.c **** 
 361:Generated_Source\PSoC4/Cm0Start.c **** 
 362:Generated_Source\PSoC4/Cm0Start.c **** /*******************************************************************************
 363:Generated_Source\PSoC4/Cm0Start.c **** * Function Name: Reset
 364:Generated_Source\PSoC4/Cm0Start.c **** ********************************************************************************
 365:Generated_Source\PSoC4/Cm0Start.c **** *
 366:Generated_Source\PSoC4/Cm0Start.c **** * Summary:
 367:Generated_Source\PSoC4/Cm0Start.c **** *  This function handles the reset interrupt for the GCC toolchain.  This is
 368:Generated_Source\PSoC4/Cm0Start.c **** *  the first bit of code that is executed at startup.
 369:Generated_Source\PSoC4/Cm0Start.c **** *
 370:Generated_Source\PSoC4/Cm0Start.c **** * Parameters:
 371:Generated_Source\PSoC4/Cm0Start.c **** *  None
 372:Generated_Source\PSoC4/Cm0Start.c **** *
 373:Generated_Source\PSoC4/Cm0Start.c **** * Return:
 374:Generated_Source\PSoC4/Cm0Start.c **** *  None
 375:Generated_Source\PSoC4/Cm0Start.c **** *
 376:Generated_Source\PSoC4/Cm0Start.c **** *******************************************************************************/
 377:Generated_Source\PSoC4/Cm0Start.c **** void Reset(void)
 378:Generated_Source\PSoC4/Cm0Start.c **** {
 288              		.loc 1 378 0
 289              		.cfi_startproc
 290              		@ args = 0, pretend = 0, frame = 0
 291              		@ frame_needed = 1, uses_anonymous_args = 0
 292 0000 80B5     		push	{r7, lr}
 293              		.cfi_def_cfa_offset 8
 294              		.cfi_offset 7, -8
 295              		.cfi_offset 14, -4
 296 0002 00AF     		add	r7, sp, #0
 297              		.cfi_def_cfa_register 7
 379:Generated_Source\PSoC4/Cm0Start.c ****     #if (CYDEV_PROJ_TYPE == CYDEV_PROJ_TYPE_LOADABLE || CYDEV_PROJ_TYPE == CYDEV_PROJ_TYPE_LOADABLE
 380:Generated_Source\PSoC4/Cm0Start.c **** 
 381:Generated_Source\PSoC4/Cm0Start.c ****         /* The bootloadable application image is started at Reset() handler
ARM GAS  C:\Users\ADMINI~1\AppData\Local\Temp\ccqheCtc.s 			page 13


 382:Generated_Source\PSoC4/Cm0Start.c ****         * as a result of a branch instruction execution from the bootloader.
 383:Generated_Source\PSoC4/Cm0Start.c ****         * So, the stack pointer needs to be reset to be sure that
 384:Generated_Source\PSoC4/Cm0Start.c ****         * there is no garbage in the stack.
 385:Generated_Source\PSoC4/Cm0Start.c ****         */
 386:Generated_Source\PSoC4/Cm0Start.c ****         __asm volatile ("MSR msp, %0\n" : : "r" ((uint32)&__cy_stack) : "sp");
 387:Generated_Source\PSoC4/Cm0Start.c ****     #endif /* CYDEV_PROJ_TYPE_LOADABLE */
 388:Generated_Source\PSoC4/Cm0Start.c **** 
 389:Generated_Source\PSoC4/Cm0Start.c ****     #if(CY_IP_SRSSLT)
 390:Generated_Source\PSoC4/Cm0Start.c ****         CySysWdtDisable();
 391:Generated_Source\PSoC4/Cm0Start.c ****     #endif  /* (CY_IP_SRSSLT) */
 392:Generated_Source\PSoC4/Cm0Start.c **** 
 393:Generated_Source\PSoC4/Cm0Start.c ****     #if ((CYDEV_BOOTLOADER_ENABLE) && (CYDEV_PROJ_TYPE != CYDEV_PROJ_TYPE_LOADABLEANDBOOTLOADER))
 394:Generated_Source\PSoC4/Cm0Start.c ****         CyBtldr_CheckLaunch();
 395:Generated_Source\PSoC4/Cm0Start.c ****     #endif /* ((CYDEV_BOOTLOADER_ENABLE) && (CYDEV_PROJ_TYPE != CYDEV_PROJ_TYPE_LOADABLEANDBOOTLOAD
 396:Generated_Source\PSoC4/Cm0Start.c ****     Start_c();
 298              		.loc 1 396 0
 299 0004 FFF7FEFF 		bl	Start_c
 300              		.cfi_endproc
 301              	.LFE5:
 302              		.size	Reset, .-Reset
 303              		.global	CyRamVectors
 304              		.section	.ramvectors,"aw",%progbits
 305              		.align	2
 306              		.type	CyRamVectors, %object
 307              		.size	CyRamVectors, 192
 308              	CyRamVectors:
 309 0000 00000000 		.space	192
 309      00000000 
 309      00000000 
 309      00000000 
 309      00000000 
 310              		.global	RomVectors
 311              		.section	.romvectors,"a",%progbits
 312              		.align	2
 313              		.type	RomVectors, %object
 314              		.size	RomVectors, 16
 315              	RomVectors:
 316 0000 00000000 		.word	__cy_stack
 317 0004 00000000 		.word	Reset
 318 0008 00000000 		.word	IntDefaultHandler
 319 000c 00000000 		.word	IntDefaultHandler
 320              		.section	.text.initialize_psoc,"ax",%progbits
 321              		.align	2
 322              		.global	initialize_psoc
 323              		.code	16
 324              		.thumb_func
 325              		.type	initialize_psoc, %function
 326              	initialize_psoc:
 327              	.LFB6:
 397:Generated_Source\PSoC4/Cm0Start.c **** }
 398:Generated_Source\PSoC4/Cm0Start.c **** 
 399:Generated_Source\PSoC4/Cm0Start.c **** #elif defined (__ICCARM__)
 400:Generated_Source\PSoC4/Cm0Start.c **** 
 401:Generated_Source\PSoC4/Cm0Start.c **** 
 402:Generated_Source\PSoC4/Cm0Start.c **** /*******************************************************************************
 403:Generated_Source\PSoC4/Cm0Start.c **** * Function Name: __low_level_init
 404:Generated_Source\PSoC4/Cm0Start.c **** ********************************************************************************
ARM GAS  C:\Users\ADMINI~1\AppData\Local\Temp\ccqheCtc.s 			page 14


 405:Generated_Source\PSoC4/Cm0Start.c **** *
 406:Generated_Source\PSoC4/Cm0Start.c **** * Summary:
 407:Generated_Source\PSoC4/Cm0Start.c **** *  This function performs early initializations for the IAR Embedded
 408:Generated_Source\PSoC4/Cm0Start.c **** *  Workbench IDE. It is executed in the context of reset interrupt handler
 409:Generated_Source\PSoC4/Cm0Start.c **** *  before the data sections are initialized.
 410:Generated_Source\PSoC4/Cm0Start.c **** *
 411:Generated_Source\PSoC4/Cm0Start.c **** * Parameters:
 412:Generated_Source\PSoC4/Cm0Start.c **** *  None
 413:Generated_Source\PSoC4/Cm0Start.c **** *
 414:Generated_Source\PSoC4/Cm0Start.c **** * Return:
 415:Generated_Source\PSoC4/Cm0Start.c **** *  The value that determines whether or not data sections should be initialized
 416:Generated_Source\PSoC4/Cm0Start.c **** *  by the system startup code:
 417:Generated_Source\PSoC4/Cm0Start.c **** *    0 - skip data sections initialization;
 418:Generated_Source\PSoC4/Cm0Start.c **** *    1 - initialize data sections;
 419:Generated_Source\PSoC4/Cm0Start.c **** *
 420:Generated_Source\PSoC4/Cm0Start.c **** *******************************************************************************/
 421:Generated_Source\PSoC4/Cm0Start.c **** #pragma inline = never
 422:Generated_Source\PSoC4/Cm0Start.c **** int __low_level_init(void)
 423:Generated_Source\PSoC4/Cm0Start.c **** {
 424:Generated_Source\PSoC4/Cm0Start.c ****     #if(CY_IP_SRSSLT)
 425:Generated_Source\PSoC4/Cm0Start.c ****         CySysWdtDisable();
 426:Generated_Source\PSoC4/Cm0Start.c ****     #endif  /* (CY_IP_SRSSLT) */
 427:Generated_Source\PSoC4/Cm0Start.c **** 
 428:Generated_Source\PSoC4/Cm0Start.c **** #if ((CYDEV_BOOTLOADER_ENABLE) && (CYDEV_PROJ_TYPE != CYDEV_PROJ_TYPE_LOADABLEANDBOOTLOADER))
 429:Generated_Source\PSoC4/Cm0Start.c ****     CyBtldr_CheckLaunch();
 430:Generated_Source\PSoC4/Cm0Start.c **** #endif /* ((CYDEV_BOOTLOADER_ENABLE) && (CYDEV_PROJ_TYPE != CYDEV_PROJ_TYPE_LOADABLEANDBOOTLOADER))
 431:Generated_Source\PSoC4/Cm0Start.c **** 
 432:Generated_Source\PSoC4/Cm0Start.c ****     /* Initialize data sections */
 433:Generated_Source\PSoC4/Cm0Start.c ****     __iar_data_init3();
 434:Generated_Source\PSoC4/Cm0Start.c **** 
 435:Generated_Source\PSoC4/Cm0Start.c ****     initialize_psoc();
 436:Generated_Source\PSoC4/Cm0Start.c **** 
 437:Generated_Source\PSoC4/Cm0Start.c ****     return 0;
 438:Generated_Source\PSoC4/Cm0Start.c **** }
 439:Generated_Source\PSoC4/Cm0Start.c **** 
 440:Generated_Source\PSoC4/Cm0Start.c **** #endif /* __GNUC__ */
 441:Generated_Source\PSoC4/Cm0Start.c **** 
 442:Generated_Source\PSoC4/Cm0Start.c **** 
 443:Generated_Source\PSoC4/Cm0Start.c **** /*******************************************************************************
 444:Generated_Source\PSoC4/Cm0Start.c **** * Ram Interrupt Vector table storage area. Must be placed at 0x20000000.
 445:Generated_Source\PSoC4/Cm0Start.c **** *******************************************************************************/
 446:Generated_Source\PSoC4/Cm0Start.c **** 
 447:Generated_Source\PSoC4/Cm0Start.c **** #if defined (__ICCARM__)
 448:Generated_Source\PSoC4/Cm0Start.c ****     #pragma location=".ramvectors"
 449:Generated_Source\PSoC4/Cm0Start.c **** #else
 450:Generated_Source\PSoC4/Cm0Start.c ****     CY_SECTION(".ramvectors")
 451:Generated_Source\PSoC4/Cm0Start.c **** #endif  /* defined (__ICCARM__) */
 452:Generated_Source\PSoC4/Cm0Start.c **** cyisraddress CyRamVectors[CY_NUM_VECTORS];
 453:Generated_Source\PSoC4/Cm0Start.c **** 
 454:Generated_Source\PSoC4/Cm0Start.c **** 
 455:Generated_Source\PSoC4/Cm0Start.c **** /*******************************************************************************
 456:Generated_Source\PSoC4/Cm0Start.c **** * Rom Interrupt Vector table storage area. Must be 256-byte aligned.
 457:Generated_Source\PSoC4/Cm0Start.c **** *******************************************************************************/
 458:Generated_Source\PSoC4/Cm0Start.c **** 
 459:Generated_Source\PSoC4/Cm0Start.c **** #if defined(__ARMCC_VERSION)
 460:Generated_Source\PSoC4/Cm0Start.c ****     /* Suppress diagnostic message 1296-D: extended constant initialiser used */
 461:Generated_Source\PSoC4/Cm0Start.c ****     #pragma diag_suppress 1296
ARM GAS  C:\Users\ADMINI~1\AppData\Local\Temp\ccqheCtc.s 			page 15


 462:Generated_Source\PSoC4/Cm0Start.c **** #endif  /* defined(__ARMCC_VERSION) */
 463:Generated_Source\PSoC4/Cm0Start.c **** 
 464:Generated_Source\PSoC4/Cm0Start.c **** #if defined (__ICCARM__)
 465:Generated_Source\PSoC4/Cm0Start.c ****     #pragma location=".romvectors"
 466:Generated_Source\PSoC4/Cm0Start.c ****     const intvec_elem __vector_table[CY_NUM_ROM_VECTORS] =
 467:Generated_Source\PSoC4/Cm0Start.c **** #else
 468:Generated_Source\PSoC4/Cm0Start.c ****     CY_SECTION(".romvectors")
 469:Generated_Source\PSoC4/Cm0Start.c ****     const cyisraddress RomVectors[CY_NUM_ROM_VECTORS] =
 470:Generated_Source\PSoC4/Cm0Start.c **** #endif  /* defined (__ICCARM__) */
 471:Generated_Source\PSoC4/Cm0Start.c **** {
 472:Generated_Source\PSoC4/Cm0Start.c ****     INITIAL_STACK_POINTER,   /* The initial stack pointer  0 */
 473:Generated_Source\PSoC4/Cm0Start.c ****     #if defined (__ICCARM__) /* The reset handler          1 */
 474:Generated_Source\PSoC4/Cm0Start.c ****         __iar_program_start,
 475:Generated_Source\PSoC4/Cm0Start.c ****     #else
 476:Generated_Source\PSoC4/Cm0Start.c ****         (cyisraddress)&Reset,
 477:Generated_Source\PSoC4/Cm0Start.c ****     #endif  /* defined (__ICCARM__) */
 478:Generated_Source\PSoC4/Cm0Start.c ****     &IntDefaultHandler,      /* The NMI handler            2 */
 479:Generated_Source\PSoC4/Cm0Start.c ****     &IntDefaultHandler,      /* The hard fault handler     3 */
 480:Generated_Source\PSoC4/Cm0Start.c **** };
 481:Generated_Source\PSoC4/Cm0Start.c **** 
 482:Generated_Source\PSoC4/Cm0Start.c **** #if defined(__ARMCC_VERSION)
 483:Generated_Source\PSoC4/Cm0Start.c ****     #pragma diag_default 1296
 484:Generated_Source\PSoC4/Cm0Start.c **** #endif  /* defined(__ARMCC_VERSION) */
 485:Generated_Source\PSoC4/Cm0Start.c **** 
 486:Generated_Source\PSoC4/Cm0Start.c **** 
 487:Generated_Source\PSoC4/Cm0Start.c **** /*******************************************************************************
 488:Generated_Source\PSoC4/Cm0Start.c **** * Function Name: initialize_psoc
 489:Generated_Source\PSoC4/Cm0Start.c **** ********************************************************************************
 490:Generated_Source\PSoC4/Cm0Start.c **** *
 491:Generated_Source\PSoC4/Cm0Start.c **** * Summary:
 492:Generated_Source\PSoC4/Cm0Start.c **** *  This function is used to initialize the PSoC chip before calling main.
 493:Generated_Source\PSoC4/Cm0Start.c **** *
 494:Generated_Source\PSoC4/Cm0Start.c **** * Parameters:
 495:Generated_Source\PSoC4/Cm0Start.c **** *  None
 496:Generated_Source\PSoC4/Cm0Start.c **** *
 497:Generated_Source\PSoC4/Cm0Start.c **** * Return:
 498:Generated_Source\PSoC4/Cm0Start.c **** *  None
 499:Generated_Source\PSoC4/Cm0Start.c **** *
 500:Generated_Source\PSoC4/Cm0Start.c **** *******************************************************************************/
 501:Generated_Source\PSoC4/Cm0Start.c **** #if(defined(__GNUC__) && !defined(__ARMCC_VERSION))
 502:Generated_Source\PSoC4/Cm0Start.c **** __attribute__ ((constructor(101)))
 503:Generated_Source\PSoC4/Cm0Start.c **** #endif  /* (defined(__GNUC__) && !defined(__ARMCC_VERSION)) */
 504:Generated_Source\PSoC4/Cm0Start.c **** void initialize_psoc(void)
 505:Generated_Source\PSoC4/Cm0Start.c **** {
 328              		.loc 1 505 0
 329              		.cfi_startproc
 330              		@ args = 0, pretend = 0, frame = 8
 331              		@ frame_needed = 1, uses_anonymous_args = 0
 332 0000 80B5     		push	{r7, lr}
 333              		.cfi_def_cfa_offset 8
 334              		.cfi_offset 7, -8
 335              		.cfi_offset 14, -4
 336 0002 82B0     		sub	sp, sp, #8
 337              		.cfi_def_cfa_offset 16
 338 0004 00AF     		add	r7, sp, #0
 339              		.cfi_def_cfa_register 7
 506:Generated_Source\PSoC4/Cm0Start.c ****     uint32 indexInit;
ARM GAS  C:\Users\ADMINI~1\AppData\Local\Temp\ccqheCtc.s 			page 16


 507:Generated_Source\PSoC4/Cm0Start.c **** 
 508:Generated_Source\PSoC4/Cm0Start.c ****     #if(CY_IP_CPUSSV2)
 509:Generated_Source\PSoC4/Cm0Start.c ****         /***********************************************************************
 510:Generated_Source\PSoC4/Cm0Start.c ****         * Make sure that Vector Table is located at 0000_0000 in Flash, before
 511:Generated_Source\PSoC4/Cm0Start.c ****         * accessing RomVectors or calling functions that may be placed in
 512:Generated_Source\PSoC4/Cm0Start.c ****         * .psocinit (cyfitter_cfg and ClockSetup). Note The CY_CPUSS_CONFIG_REG
 513:Generated_Source\PSoC4/Cm0Start.c ****         * register is retention for the specified device family.
 514:Generated_Source\PSoC4/Cm0Start.c ****         ***********************************************************************/
 515:Generated_Source\PSoC4/Cm0Start.c ****         CY_CPUSS_CONFIG_REG &= (uint32) ~CY_CPUSS_CONFIG_VECT_IN_RAM;
 340              		.loc 1 515 0
 341 0006 154B     		ldr	r3, .L27
 342 0008 144A     		ldr	r2, .L27
 343 000a 1268     		ldr	r2, [r2]
 344 000c 0121     		movs	r1, #1
 345 000e 8A43     		bics	r2, r1
 346 0010 1A60     		str	r2, [r3]
 516:Generated_Source\PSoC4/Cm0Start.c ****     #endif  /* (CY_IP_CPUSSV2) */
 517:Generated_Source\PSoC4/Cm0Start.c **** 
 518:Generated_Source\PSoC4/Cm0Start.c ****     /* Set Ram interrupt vectors to default functions. */
 519:Generated_Source\PSoC4/Cm0Start.c ****     for (indexInit = 0u; indexInit < CY_NUM_VECTORS; indexInit++)
 347              		.loc 1 519 0
 348 0012 0023     		movs	r3, #0
 349 0014 7B60     		str	r3, [r7, #4]
 350 0016 0FE0     		b	.L23
 351              	.L26:
 520:Generated_Source\PSoC4/Cm0Start.c ****     {
 521:Generated_Source\PSoC4/Cm0Start.c ****         CyRamVectors[indexInit] = (indexInit < CY_NUM_ROM_VECTORS) ?
 522:Generated_Source\PSoC4/Cm0Start.c ****             #if defined (__ICCARM__)
 523:Generated_Source\PSoC4/Cm0Start.c ****                 __vector_table[indexInit].__fun : &IntDefaultHandler;
 524:Generated_Source\PSoC4/Cm0Start.c ****             #else
 525:Generated_Source\PSoC4/Cm0Start.c ****                 RomVectors[indexInit] : &IntDefaultHandler;
 352              		.loc 1 525 0
 353 0018 7B68     		ldr	r3, [r7, #4]
 354 001a 032B     		cmp	r3, #3
 355 001c 04D8     		bhi	.L24
 356              		.loc 1 525 0 is_stmt 0 discriminator 1
 357 001e 104B     		ldr	r3, .L27+4
 358 0020 7A68     		ldr	r2, [r7, #4]
 359 0022 9200     		lsls	r2, r2, #2
 360 0024 D358     		ldr	r3, [r2, r3]
 361 0026 00E0     		b	.L25
 362              	.L24:
 363              		.loc 1 525 0 discriminator 2
 364 0028 0E4B     		ldr	r3, .L27+8
 365              	.L25:
 521:Generated_Source\PSoC4/Cm0Start.c ****             #if defined (__ICCARM__)
 366              		.loc 1 521 0 is_stmt 1 discriminator 2
 367 002a 0F4A     		ldr	r2, .L27+12
 368 002c 7968     		ldr	r1, [r7, #4]
 369 002e 8900     		lsls	r1, r1, #2
 370 0030 8B50     		str	r3, [r1, r2]
 519:Generated_Source\PSoC4/Cm0Start.c ****     {
 371              		.loc 1 519 0 discriminator 2
 372 0032 7B68     		ldr	r3, [r7, #4]
 373 0034 0133     		adds	r3, r3, #1
 374 0036 7B60     		str	r3, [r7, #4]
 375              	.L23:
ARM GAS  C:\Users\ADMINI~1\AppData\Local\Temp\ccqheCtc.s 			page 17


 519:Generated_Source\PSoC4/Cm0Start.c ****     {
 376              		.loc 1 519 0 is_stmt 0 discriminator 1
 377 0038 7B68     		ldr	r3, [r7, #4]
 378 003a 2F2B     		cmp	r3, #47
 379 003c ECD9     		bls	.L26
 526:Generated_Source\PSoC4/Cm0Start.c ****             #endif  /* defined (__ICCARM__) */
 527:Generated_Source\PSoC4/Cm0Start.c ****     }
 528:Generated_Source\PSoC4/Cm0Start.c **** 
 529:Generated_Source\PSoC4/Cm0Start.c ****     /* Initialize configuration registers. */
 530:Generated_Source\PSoC4/Cm0Start.c ****     cyfitter_cfg();
 380              		.loc 1 530 0 is_stmt 1
 381 003e FFF7FEFF 		bl	cyfitter_cfg
 531:Generated_Source\PSoC4/Cm0Start.c **** 
 532:Generated_Source\PSoC4/Cm0Start.c ****     #if !defined (__ICCARM__)
 533:Generated_Source\PSoC4/Cm0Start.c ****         /* Actually, no need to clean this variable, just to make compiler happy. */
 534:Generated_Source\PSoC4/Cm0Start.c ****         cySysNoInitDataValid = 0u;
 382              		.loc 1 534 0
 383 0042 0A4B     		ldr	r3, .L27+16
 384 0044 0022     		movs	r2, #0
 385 0046 1A60     		str	r2, [r3]
 535:Generated_Source\PSoC4/Cm0Start.c ****     #endif  /* !defined (__ICCARM__) */
 536:Generated_Source\PSoC4/Cm0Start.c **** 
 537:Generated_Source\PSoC4/Cm0Start.c ****     #if (CYDEV_PROJ_TYPE != CYDEV_PROJ_TYPE_STANDARD)
 538:Generated_Source\PSoC4/Cm0Start.c **** 
 539:Generated_Source\PSoC4/Cm0Start.c ****         /* Need to make sure that this variable will not be optimized out */
 540:Generated_Source\PSoC4/Cm0Start.c ****         if (0u == cyBtldrRunType)
 541:Generated_Source\PSoC4/Cm0Start.c ****         {
 542:Generated_Source\PSoC4/Cm0Start.c ****             cyBtldrRunType = 0u;
 543:Generated_Source\PSoC4/Cm0Start.c ****         }
 544:Generated_Source\PSoC4/Cm0Start.c **** 
 545:Generated_Source\PSoC4/Cm0Start.c ****     #endif  /* (CYDEV_PROJ_TYPE != CYDEV_PROJ_TYPE_STANDARD) */
 546:Generated_Source\PSoC4/Cm0Start.c **** 
 547:Generated_Source\PSoC4/Cm0Start.c ****     /* Vector Table is located at 0x2000:0000 in SRAM */
 548:Generated_Source\PSoC4/Cm0Start.c ****     CY_CPUSS_CONFIG_REG |= CY_CPUSS_CONFIG_VECT_IN_RAM;
 386              		.loc 1 548 0
 387 0048 044B     		ldr	r3, .L27
 388 004a 044A     		ldr	r2, .L27
 389 004c 1268     		ldr	r2, [r2]
 390 004e 0121     		movs	r1, #1
 391 0050 0A43     		orrs	r2, r1
 392 0052 1A60     		str	r2, [r3]
 549:Generated_Source\PSoC4/Cm0Start.c **** }
 393              		.loc 1 549 0
 394 0054 C046     		nop
 395 0056 BD46     		mov	sp, r7
 396 0058 02B0     		add	sp, sp, #8
 397              		@ sp needed
 398 005a 80BD     		pop	{r7, pc}
 399              	.L28:
 400              		.align	2
 401              	.L27:
 402 005c 00001040 		.word	1074790400
 403 0060 00000000 		.word	RomVectors
 404 0064 00000000 		.word	IntDefaultHandler
 405 0068 00000000 		.word	CyRamVectors
 406 006c 00000000 		.word	cySysNoInitDataValid
 407              		.cfi_endproc
ARM GAS  C:\Users\ADMINI~1\AppData\Local\Temp\ccqheCtc.s 			page 18


 408              	.LFE6:
 409              		.size	initialize_psoc, .-initialize_psoc
 410              		.section	.init_array,"aw",%init_array
 411              		.align	2
 412 0000 00000000 		.word	initialize_psoc(target1)
 413              		.data
 414              		.align	2
 415              		.type	heapPointer.4856, %object
 416              		.size	heapPointer.4856, 4
 417              	heapPointer.4856:
 418 0000 00000000 		.word	end
 419              		.weak	__cy_region_num
 420              		.text
 421              	.Letext0:
 422              		.file 2 "c:\\program files (x86)\\cypress\\psoc creator\\4.2\\psoc creator\\import\\gnu\\arm\\5.4.
 423              		.file 3 "Generated_Source\\PSoC4\\cytypes.h"