ARM GAS  C:\Users\ADMINI~1\AppData\Local\Temp\cc9ld4Xp.s 			page 1


   1              		.syntax unified
   2              		.cpu cortex-m0
   3              		.fpu softvfp
   4              		.eabi_attribute 20, 1
   5              		.eabi_attribute 21, 1
   6              		.eabi_attribute 23, 3
   7              		.eabi_attribute 24, 1
   8              		.eabi_attribute 25, 1
   9              		.eabi_attribute 26, 1
  10              		.eabi_attribute 30, 6
  11              		.eabi_attribute 34, 0
  12              		.eabi_attribute 18, 4
  13              		.thumb
  14              		.syntax unified
  15              		.file	"CyFlash.c"
  16              		.text
  17              	.Ltext0:
  18              		.cfi_sections	.debug_frame
  19              		.section	.text.CySysFlashWriteRow,"ax",%progbits
  20              		.align	2
  21              		.global	CySysFlashWriteRow
  22              		.code	16
  23              		.thumb_func
  24              		.type	CySysFlashWriteRow, %function
  25              	CySysFlashWriteRow:
  26              	.LFB1:
  27              		.file 1 "Generated_Source\\PSoC4\\CyFlash.c"
   1:Generated_Source\PSoC4/CyFlash.c **** /*******************************************************************************
   2:Generated_Source\PSoC4/CyFlash.c **** * File Name: CyFlash.c
   3:Generated_Source\PSoC4/CyFlash.c **** * Version 5.20
   4:Generated_Source\PSoC4/CyFlash.c **** *
   5:Generated_Source\PSoC4/CyFlash.c **** *  Description:
   6:Generated_Source\PSoC4/CyFlash.c **** *   Provides an API for the FLASH.
   7:Generated_Source\PSoC4/CyFlash.c **** *
   8:Generated_Source\PSoC4/CyFlash.c **** *  Note:
   9:Generated_Source\PSoC4/CyFlash.c **** *   This code is endian agnostic.
  10:Generated_Source\PSoC4/CyFlash.c **** *
  11:Generated_Source\PSoC4/CyFlash.c **** *  Note:
  12:Generated_Source\PSoC4/CyFlash.c **** *   Documentation of the API's in this file is located in the
  13:Generated_Source\PSoC4/CyFlash.c **** *   System Reference Guide provided with PSoC Creator.
  14:Generated_Source\PSoC4/CyFlash.c **** *
  15:Generated_Source\PSoC4/CyFlash.c **** ********************************************************************************
  16:Generated_Source\PSoC4/CyFlash.c **** * Copyright 2010-2015, Cypress Semiconductor Corporation.  All rights reserved.
  17:Generated_Source\PSoC4/CyFlash.c **** * You may use this file only in accordance with the license, terms, conditions,
  18:Generated_Source\PSoC4/CyFlash.c **** * disclaimers, and limitations in the end user license agreement accompanying
  19:Generated_Source\PSoC4/CyFlash.c **** * the software package with which this file was provided.
  20:Generated_Source\PSoC4/CyFlash.c **** *******************************************************************************/
  21:Generated_Source\PSoC4/CyFlash.c **** 
  22:Generated_Source\PSoC4/CyFlash.c **** #include "CyFlash.h"
  23:Generated_Source\PSoC4/CyFlash.c **** 
  24:Generated_Source\PSoC4/CyFlash.c **** 
  25:Generated_Source\PSoC4/CyFlash.c **** /*******************************************************************************
  26:Generated_Source\PSoC4/CyFlash.c **** * Cypress identified a defect with the Flash write functionality of the
  27:Generated_Source\PSoC4/CyFlash.c **** * PSoC 4000, PSoC 4100, and PSoC 4200 devices. The CySysFlashWriteRow() function
  28:Generated_Source\PSoC4/CyFlash.c **** * now checks the data to be written and, if necessary, modifies it to have a
  29:Generated_Source\PSoC4/CyFlash.c **** * non-zero checksum. After writing to Flash, the modified data is replaced
  30:Generated_Source\PSoC4/CyFlash.c **** * (Flash program) with the correct (original) data.
ARM GAS  C:\Users\ADMINI~1\AppData\Local\Temp\cc9ld4Xp.s 			page 2


  31:Generated_Source\PSoC4/CyFlash.c **** *******************************************************************************/
  32:Generated_Source\PSoC4/CyFlash.c **** #define CY_FLASH_CHECKSUM_WORKAROUND    (CY_PSOC4_4000 || CY_PSOC4_4100 || CY_PSOC4_4200)
  33:Generated_Source\PSoC4/CyFlash.c **** 
  34:Generated_Source\PSoC4/CyFlash.c **** #if (CY_IP_FM || ((!CY_PSOC4_4000) && CY_IP_SPCIF_SYNCHRONOUS) || (!CY_IP_FM) && CY_PSOC4_4000)
  35:Generated_Source\PSoC4/CyFlash.c ****     static CY_SYS_FLASH_CLOCK_BACKUP_STRUCT cySysFlashBackup;
  36:Generated_Source\PSoC4/CyFlash.c **** #endif /* (CY_IP_FM || ((!CY_PSOC4_4000) && CY_IP_SPCIF_SYNCHRONOUS) || (!CY_IP_FM) && CY_PSOC4_400
  37:Generated_Source\PSoC4/CyFlash.c **** 
  38:Generated_Source\PSoC4/CyFlash.c **** static cystatus CySysFlashClockBackup(void);
  39:Generated_Source\PSoC4/CyFlash.c **** static cystatus CySysFlashClockRestore(void);
  40:Generated_Source\PSoC4/CyFlash.c **** #if(CY_IP_SPCIF_SYNCHRONOUS)
  41:Generated_Source\PSoC4/CyFlash.c ****     static cystatus CySysFlashClockConfig(void);
  42:Generated_Source\PSoC4/CyFlash.c **** #endif  /* (CY_IP_SPCIF_SYNCHRONOUS) */
  43:Generated_Source\PSoC4/CyFlash.c **** 
  44:Generated_Source\PSoC4/CyFlash.c **** 
  45:Generated_Source\PSoC4/CyFlash.c **** /*******************************************************************************
  46:Generated_Source\PSoC4/CyFlash.c **** * Function Name: CySysFlashWriteRow
  47:Generated_Source\PSoC4/CyFlash.c **** ********************************************************************************
  48:Generated_Source\PSoC4/CyFlash.c **** *
  49:Generated_Source\PSoC4/CyFlash.c **** * Summary:
  50:Generated_Source\PSoC4/CyFlash.c **** *  Erases a row of Flash and programs it with the new data.
  51:Generated_Source\PSoC4/CyFlash.c **** *
  52:Generated_Source\PSoC4/CyFlash.c **** * Parameters:
  53:Generated_Source\PSoC4/CyFlash.c **** *  uint16 rowNum:
  54:Generated_Source\PSoC4/CyFlash.c **** *   The flash row number. The number of the flash rows is defined by the
  55:Generated_Source\PSoC4/CyFlash.c **** *   CY_FLASH_NUMBER_ROWS macro for the selected device. Refer to the device
  56:Generated_Source\PSoC4/CyFlash.c **** *   datasheet for the details.
  57:Generated_Source\PSoC4/CyFlash.c **** *
  58:Generated_Source\PSoC4/CyFlash.c **** *  uint8* rowData:
  59:Generated_Source\PSoC4/CyFlash.c **** *   Array of bytes to write. The size of the array must be equal to the flash
  60:Generated_Source\PSoC4/CyFlash.c **** *   row size. The flash row size for the selected device is defined by
  61:Generated_Source\PSoC4/CyFlash.c **** *   the CY_FLASH_SIZEOF_ROW macro. Refer to the device datasheet for the
  62:Generated_Source\PSoC4/CyFlash.c **** *   details.
  63:Generated_Source\PSoC4/CyFlash.c **** *
  64:Generated_Source\PSoC4/CyFlash.c **** * Return:
  65:Generated_Source\PSoC4/CyFlash.c **** *  Status
  66:Generated_Source\PSoC4/CyFlash.c **** *     Value                     Description
  67:Generated_Source\PSoC4/CyFlash.c **** *    CY_SYS_FLASH_SUCCESS           Successful
  68:Generated_Source\PSoC4/CyFlash.c **** *    CY_SYS_FLASH_INVALID_ADDR      Specified flash row address is invalid
  69:Generated_Source\PSoC4/CyFlash.c **** *    CY_SYS_FLASH_PROTECTED         Specified flash row is protected
  70:Generated_Source\PSoC4/CyFlash.c **** *    Other non-zero                 Failure
  71:Generated_Source\PSoC4/CyFlash.c **** *
  72:Generated_Source\PSoC4/CyFlash.c **** * Side Effects:
  73:Generated_Source\PSoC4/CyFlash.c **** *   The IMO must be enabled before calling this function. The operation of the
  74:Generated_Source\PSoC4/CyFlash.c **** *   flash writing hardware is dependent on the IMO.
  75:Generated_Source\PSoC4/CyFlash.c **** *
  76:Generated_Source\PSoC4/CyFlash.c **** *   For PSoC 4000, PSoC 4100 BLE and PSoC 4200 BLE devices (PSoC 4100 BLE and
  77:Generated_Source\PSoC4/CyFlash.c **** *   PSoC 4200 BLE devices with 256K of Flash memory are not affected), this API
  78:Generated_Source\PSoC4/CyFlash.c **** *   will automatically modify the clock settings for the device. Writing to
  79:Generated_Source\PSoC4/CyFlash.c **** *   flash requires that changes be made to the IMO and HFCLK settings. The
  80:Generated_Source\PSoC4/CyFlash.c **** *   configuration is restored before returning. This will impact the operation
  81:Generated_Source\PSoC4/CyFlash.c **** *   of most of the hardware in the device.
  82:Generated_Source\PSoC4/CyFlash.c **** *
  83:Generated_Source\PSoC4/CyFlash.c **** *   For PSoC 4000 devices this API will automatically modify the clock settings
  84:Generated_Source\PSoC4/CyFlash.c **** *   for the device. Writing to flash requires that changes be made to the IMO
  85:Generated_Source\PSoC4/CyFlash.c **** *   and HFCLK settings. The configuration is restored before returning. HFCLK
  86:Generated_Source\PSoC4/CyFlash.c **** *   will have several frequency changes during the operation of this API between
  87:Generated_Source\PSoC4/CyFlash.c **** *   a minimum frequency of the current IMO frequency divided by 8 and a maximum
ARM GAS  C:\Users\ADMINI~1\AppData\Local\Temp\cc9ld4Xp.s 			page 3


  88:Generated_Source\PSoC4/CyFlash.c **** *   frequency of 12 MHz. This will impact the operation of most of the hardware
  89:Generated_Source\PSoC4/CyFlash.c **** *   in the device.
  90:Generated_Source\PSoC4/CyFlash.c **** *
  91:Generated_Source\PSoC4/CyFlash.c **** *******************************************************************************/
  92:Generated_Source\PSoC4/CyFlash.c **** uint32 CySysFlashWriteRow(uint32 rowNum, const uint8 rowData[])
  93:Generated_Source\PSoC4/CyFlash.c **** {
  28              		.loc 1 93 0
  29              		.cfi_startproc
  30              		@ args = 0, pretend = 0, frame = 160
  31              		@ frame_needed = 1, uses_anonymous_args = 0
  32 0000 90B5     		push	{r4, r7, lr}
  33              		.cfi_def_cfa_offset 12
  34              		.cfi_offset 4, -12
  35              		.cfi_offset 7, -8
  36              		.cfi_offset 14, -4
  37 0002 A9B0     		sub	sp, sp, #164
  38              		.cfi_def_cfa_offset 176
  39 0004 00AF     		add	r7, sp, #0
  40              		.cfi_def_cfa_register 7
  41 0006 7860     		str	r0, [r7, #4]
  42 0008 3960     		str	r1, [r7]
  94:Generated_Source\PSoC4/CyFlash.c ****     volatile uint32 retValue = CY_SYS_FLASH_SUCCESS;
  43              		.loc 1 94 0
  44 000a 0023     		movs	r3, #0
  45 000c 9822     		movs	r2, #152
  46 000e BA18     		adds	r2, r7, r2
  47 0010 1360     		str	r3, [r2]
  95:Generated_Source\PSoC4/CyFlash.c ****     volatile uint32 clkCnfRetValue = CY_SYS_FLASH_SUCCESS;
  48              		.loc 1 95 0
  49 0012 0023     		movs	r3, #0
  50 0014 9422     		movs	r2, #148
  51 0016 BA18     		adds	r2, r7, r2
  52 0018 1360     		str	r3, [r2]
  96:Generated_Source\PSoC4/CyFlash.c ****     volatile uint32 parameters[(CY_FLASH_SIZEOF_ROW + CY_FLASH_SRAM_ROM_DATA) / sizeof(uint32)];
  97:Generated_Source\PSoC4/CyFlash.c ****     uint8  interruptState;
  98:Generated_Source\PSoC4/CyFlash.c **** 
  99:Generated_Source\PSoC4/CyFlash.c ****     #if (CY_FLASH_CHECKSUM_WORKAROUND)
 100:Generated_Source\PSoC4/CyFlash.c ****         uint32 needChecksumWorkaround = 0u;
 101:Generated_Source\PSoC4/CyFlash.c ****         uint32 savedIndex = 0u;
 102:Generated_Source\PSoC4/CyFlash.c ****         uint32 savedValue = 0u;
 103:Generated_Source\PSoC4/CyFlash.c ****         uint32 checksum = 0u;
 104:Generated_Source\PSoC4/CyFlash.c ****         uint32 bits = 0u;
 105:Generated_Source\PSoC4/CyFlash.c ****         uint32 i;
 106:Generated_Source\PSoC4/CyFlash.c ****     #endif  /* (CY_FLASH_CHECKSUM_WORKAROUND) */
 107:Generated_Source\PSoC4/CyFlash.c **** 
 108:Generated_Source\PSoC4/CyFlash.c ****     if ((rowNum < CY_FLASH_NUMBER_ROWS) && (rowData != 0u))
  53              		.loc 1 108 0
  54 001a 7B68     		ldr	r3, [r7, #4]
  55 001c 464A     		ldr	r2, .L14
  56 001e 9342     		cmp	r3, r2
  57 0020 00D9     		bls	.LCB26
  58 0022 7EE0     		b	.L2	@long jump
  59              	.LCB26:
  60              		.loc 1 108 0 is_stmt 0 discriminator 1
  61 0024 3B68     		ldr	r3, [r7]
  62 0026 002B     		cmp	r3, #0
  63 0028 00D1     		bne	.LCB29
ARM GAS  C:\Users\ADMINI~1\AppData\Local\Temp\cc9ld4Xp.s 			page 4


  64 002a 7AE0     		b	.L2	@long jump
  65              	.LCB29:
 109:Generated_Source\PSoC4/CyFlash.c ****     {
 110:Generated_Source\PSoC4/CyFlash.c ****         /* Copy data to be written into internal variable */
 111:Generated_Source\PSoC4/CyFlash.c ****         (void)memcpy((void *)&parameters[2u], rowData, CY_FLASH_SIZEOF_ROW);
  66              		.loc 1 111 0 is_stmt 1
  67 002c 3968     		ldr	r1, [r7]
  68 002e 0C23     		movs	r3, #12
  69 0030 FB18     		adds	r3, r7, r3
  70 0032 0833     		adds	r3, r3, #8
  71 0034 8022     		movs	r2, #128
  72 0036 1800     		movs	r0, r3
  73 0038 FFF7FEFF 		bl	memcpy
 112:Generated_Source\PSoC4/CyFlash.c **** 
 113:Generated_Source\PSoC4/CyFlash.c ****         #if (CY_FLASH_CHECKSUM_WORKAROUND)
 114:Generated_Source\PSoC4/CyFlash.c **** 
 115:Generated_Source\PSoC4/CyFlash.c ****             for (i = 2u; i < ((CY_FLASH_SIZEOF_ROW / sizeof(uint32)) + 2u); i++)
 116:Generated_Source\PSoC4/CyFlash.c ****             {
 117:Generated_Source\PSoC4/CyFlash.c ****                 uint32 tmp = parameters[i];
 118:Generated_Source\PSoC4/CyFlash.c ****                 if (tmp != 0u)
 119:Generated_Source\PSoC4/CyFlash.c ****                 {
 120:Generated_Source\PSoC4/CyFlash.c ****                     checksum += tmp;
 121:Generated_Source\PSoC4/CyFlash.c ****                     bits |= tmp;
 122:Generated_Source\PSoC4/CyFlash.c ****                     savedIndex = i;
 123:Generated_Source\PSoC4/CyFlash.c ****                 }
 124:Generated_Source\PSoC4/CyFlash.c ****             }
 125:Generated_Source\PSoC4/CyFlash.c **** 
 126:Generated_Source\PSoC4/CyFlash.c ****             needChecksumWorkaround = ((checksum == 0u) && (bits != 0u)) ? 1u : 0u;
 127:Generated_Source\PSoC4/CyFlash.c ****             if (needChecksumWorkaround != 0u)
 128:Generated_Source\PSoC4/CyFlash.c ****             {
 129:Generated_Source\PSoC4/CyFlash.c ****                 savedValue = parameters[savedIndex];
 130:Generated_Source\PSoC4/CyFlash.c ****                 parameters[savedIndex] = 0u;
 131:Generated_Source\PSoC4/CyFlash.c ****             }
 132:Generated_Source\PSoC4/CyFlash.c ****         #endif  /* (CY_FLASH_CHECKSUM_WORKAROUND) */
 133:Generated_Source\PSoC4/CyFlash.c **** 
 134:Generated_Source\PSoC4/CyFlash.c ****         /* Load Flash Bytes */
 135:Generated_Source\PSoC4/CyFlash.c ****         parameters[0u] = (uint32) (CY_FLASH_GET_MACRO_FROM_ROW(rowNum)        << CY_FLASH_PARAM_MAC
 136:Generated_Source\PSoC4/CyFlash.c ****                          (uint32) (CY_FLASH_PAGE_LATCH_START_ADDR             << CY_FLASH_PARAM_ADD
 137:Generated_Source\PSoC4/CyFlash.c ****                          (uint32) (CY_FLASH_KEY_TWO(CY_FLASH_API_OPCODE_LOAD) << CY_FLASH_PARAM_KEY
  74              		.loc 1 137 0
  75 003c 7B68     		ldr	r3, [r7, #4]
  76 003e 3F4A     		ldr	r2, .L14+4
  77 0040 9342     		cmp	r3, r2
  78 0042 01D9     		bls	.L3
  79              		.loc 1 137 0 is_stmt 0 discriminator 1
  80 0044 3E4A     		ldr	r2, .L14+8
  81 0046 00E0     		b	.L4
  82              	.L3:
  83              		.loc 1 137 0 discriminator 2
  84 0048 3E4A     		ldr	r2, .L14+12
  85              	.L4:
 135:Generated_Source\PSoC4/CyFlash.c ****                          (uint32) (CY_FLASH_PAGE_LATCH_START_ADDR             << CY_FLASH_PARAM_ADD
  86              		.loc 1 135 0 is_stmt 1
  87 004a 0C23     		movs	r3, #12
  88 004c FB18     		adds	r3, r7, r3
  89 004e 1A60     		str	r2, [r3]
 138:Generated_Source\PSoC4/CyFlash.c ****                          CY_FLASH_KEY_ONE;
ARM GAS  C:\Users\ADMINI~1\AppData\Local\Temp\cc9ld4Xp.s 			page 5


 139:Generated_Source\PSoC4/CyFlash.c ****         parameters[1u] = CY_FLASH_SIZEOF_ROW - 1u;
  90              		.loc 1 139 0
  91 0050 0C23     		movs	r3, #12
  92 0052 FB18     		adds	r3, r7, r3
  93 0054 7F22     		movs	r2, #127
  94 0056 5A60     		str	r2, [r3, #4]
 140:Generated_Source\PSoC4/CyFlash.c **** 
 141:Generated_Source\PSoC4/CyFlash.c ****         CY_FLASH_CPUSS_SYSARG_REG = (uint32) &parameters[0u];
  95              		.loc 1 141 0
  96 0058 3B4B     		ldr	r3, .L14+16
  97 005a 0C22     		movs	r2, #12
  98 005c BA18     		adds	r2, r7, r2
  99 005e 1A60     		str	r2, [r3]
 142:Generated_Source\PSoC4/CyFlash.c ****         CY_FLASH_CPUSS_SYSREQ_REG = CY_FLASH_CPUSS_REQ_START | CY_FLASH_API_OPCODE_LOAD;
 100              		.loc 1 142 0
 101 0060 3A4B     		ldr	r3, .L14+20
 102 0062 3B4A     		ldr	r2, .L14+24
 103 0064 1A60     		str	r2, [r3]
 143:Generated_Source\PSoC4/CyFlash.c ****         retValue = CY_FLASH_API_RETURN;
 104              		.loc 1 143 0
 105 0066 384B     		ldr	r3, .L14+16
 106 0068 1B68     		ldr	r3, [r3]
 107 006a 1B0F     		lsrs	r3, r3, #28
 108 006c 1A07     		lsls	r2, r3, #28
 109 006e A023     		movs	r3, #160
 110 0070 1B06     		lsls	r3, r3, #24
 111 0072 9A42     		cmp	r2, r3
 112 0074 04D0     		beq	.L5
 113              		.loc 1 143 0 is_stmt 0 discriminator 1
 114 0076 344B     		ldr	r3, .L14+16
 115 0078 1B68     		ldr	r3, [r3]
 116 007a 0F22     		movs	r2, #15
 117 007c 1340     		ands	r3, r2
 118 007e 00E0     		b	.L6
 119              	.L5:
 120              		.loc 1 143 0 discriminator 2
 121 0080 0023     		movs	r3, #0
 122              	.L6:
 123              		.loc 1 143 0 discriminator 4
 124 0082 9822     		movs	r2, #152
 125 0084 BA18     		adds	r2, r7, r2
 126 0086 1360     		str	r3, [r2]
 144:Generated_Source\PSoC4/CyFlash.c **** 
 145:Generated_Source\PSoC4/CyFlash.c ****         if(retValue == CY_SYS_FLASH_SUCCESS)
 127              		.loc 1 145 0 is_stmt 1 discriminator 4
 128 0088 9823     		movs	r3, #152
 129 008a FB18     		adds	r3, r7, r3
 130 008c 1B68     		ldr	r3, [r3]
 131 008e 002B     		cmp	r3, #0
 132 0090 4BD1     		bne	.L12
 146:Generated_Source\PSoC4/CyFlash.c ****         {
 147:Generated_Source\PSoC4/CyFlash.c ****             /***************************************************************
 148:Generated_Source\PSoC4/CyFlash.c ****             * Mask all the exceptions to guarantee that Flash write will
 149:Generated_Source\PSoC4/CyFlash.c ****             * occur in the atomic way. It will not affect system call
 150:Generated_Source\PSoC4/CyFlash.c ****             * execution (flash row write) since it is executed in the NMI
 151:Generated_Source\PSoC4/CyFlash.c ****             * context.
 152:Generated_Source\PSoC4/CyFlash.c ****             ***************************************************************/
ARM GAS  C:\Users\ADMINI~1\AppData\Local\Temp\cc9ld4Xp.s 			page 6


 153:Generated_Source\PSoC4/CyFlash.c ****             interruptState = CyEnterCriticalSection();
 133              		.loc 1 153 0
 134 0092 9F23     		movs	r3, #159
 135 0094 FC18     		adds	r4, r7, r3
 136 0096 FFF7FEFF 		bl	CyEnterCriticalSection
 137 009a 0300     		movs	r3, r0
 138 009c 2370     		strb	r3, [r4]
 154:Generated_Source\PSoC4/CyFlash.c **** 
 155:Generated_Source\PSoC4/CyFlash.c ****             clkCnfRetValue = CySysFlashClockBackup();
 139              		.loc 1 155 0
 140 009e FFF7FEFF 		bl	CySysFlashClockBackup
 141 00a2 0300     		movs	r3, r0
 142 00a4 9422     		movs	r2, #148
 143 00a6 BA18     		adds	r2, r7, r2
 144 00a8 1360     		str	r3, [r2]
 156:Generated_Source\PSoC4/CyFlash.c **** 
 157:Generated_Source\PSoC4/CyFlash.c ****         #if(CY_IP_SPCIF_SYNCHRONOUS)
 158:Generated_Source\PSoC4/CyFlash.c ****             if(clkCnfRetValue == CY_SYS_FLASH_SUCCESS)
 159:Generated_Source\PSoC4/CyFlash.c ****             {
 160:Generated_Source\PSoC4/CyFlash.c ****                 retValue = CySysFlashClockConfig();
 161:Generated_Source\PSoC4/CyFlash.c ****             }
 162:Generated_Source\PSoC4/CyFlash.c ****         #endif  /* (CY_IP_SPCIF_SYNCHRONOUS) */
 163:Generated_Source\PSoC4/CyFlash.c **** 
 164:Generated_Source\PSoC4/CyFlash.c ****             if(retValue == CY_SYS_FLASH_SUCCESS)
 145              		.loc 1 164 0
 146 00aa 9823     		movs	r3, #152
 147 00ac FB18     		adds	r3, r7, r3
 148 00ae 1B68     		ldr	r3, [r3]
 149 00b0 002B     		cmp	r3, #0
 150 00b2 24D1     		bne	.L8
 165:Generated_Source\PSoC4/CyFlash.c ****             {
 166:Generated_Source\PSoC4/CyFlash.c ****                 /* Write Row */
 167:Generated_Source\PSoC4/CyFlash.c ****                 parameters[0u]  = (uint32) (((uint32) CY_FLASH_KEY_TWO(CY_FLASH_API_OPCODE_WRITE_RO
 151              		.loc 1 167 0
 152 00b4 0C23     		movs	r3, #12
 153 00b6 FB18     		adds	r3, r7, r3
 154 00b8 264A     		ldr	r2, .L14+28
 155 00ba 1A60     		str	r2, [r3]
 168:Generated_Source\PSoC4/CyFlash.c ****                 parameters[0u] |= (uint32)(rowNum << 16u);
 156              		.loc 1 168 0
 157 00bc 0C23     		movs	r3, #12
 158 00be FB18     		adds	r3, r7, r3
 159 00c0 1A68     		ldr	r2, [r3]
 160 00c2 7B68     		ldr	r3, [r7, #4]
 161 00c4 1B04     		lsls	r3, r3, #16
 162 00c6 1A43     		orrs	r2, r3
 163 00c8 0C23     		movs	r3, #12
 164 00ca FB18     		adds	r3, r7, r3
 165 00cc 1A60     		str	r2, [r3]
 169:Generated_Source\PSoC4/CyFlash.c **** 
 170:Generated_Source\PSoC4/CyFlash.c ****                 CY_FLASH_CPUSS_SYSARG_REG = (uint32) &parameters[0u];
 166              		.loc 1 170 0
 167 00ce 1E4B     		ldr	r3, .L14+16
 168 00d0 0C22     		movs	r2, #12
 169 00d2 BA18     		adds	r2, r7, r2
 170 00d4 1A60     		str	r2, [r3]
 171:Generated_Source\PSoC4/CyFlash.c ****                 CY_FLASH_CPUSS_SYSREQ_REG = CY_FLASH_CPUSS_REQ_START | CY_FLASH_API_OPCODE_WRITE_RO
ARM GAS  C:\Users\ADMINI~1\AppData\Local\Temp\cc9ld4Xp.s 			page 7


 171              		.loc 1 171 0
 172 00d6 1D4B     		ldr	r3, .L14+20
 173 00d8 1F4A     		ldr	r2, .L14+32
 174 00da 1A60     		str	r2, [r3]
 172:Generated_Source\PSoC4/CyFlash.c ****                 retValue = CY_FLASH_API_RETURN;
 175              		.loc 1 172 0
 176 00dc 1A4B     		ldr	r3, .L14+16
 177 00de 1B68     		ldr	r3, [r3]
 178 00e0 1B0F     		lsrs	r3, r3, #28
 179 00e2 1A07     		lsls	r2, r3, #28
 180 00e4 A023     		movs	r3, #160
 181 00e6 1B06     		lsls	r3, r3, #24
 182 00e8 9A42     		cmp	r2, r3
 183 00ea 04D0     		beq	.L9
 184              		.loc 1 172 0 is_stmt 0 discriminator 1
 185 00ec 164B     		ldr	r3, .L14+16
 186 00ee 1B68     		ldr	r3, [r3]
 187 00f0 0F22     		movs	r2, #15
 188 00f2 1340     		ands	r3, r2
 189 00f4 00E0     		b	.L10
 190              	.L9:
 191              		.loc 1 172 0 discriminator 2
 192 00f6 0023     		movs	r3, #0
 193              	.L10:
 194              		.loc 1 172 0 discriminator 4
 195 00f8 9822     		movs	r2, #152
 196 00fa BA18     		adds	r2, r7, r2
 197 00fc 1360     		str	r3, [r2]
 198              	.L8:
 173:Generated_Source\PSoC4/CyFlash.c ****             }
 174:Generated_Source\PSoC4/CyFlash.c **** 
 175:Generated_Source\PSoC4/CyFlash.c ****             #if (CY_FLASH_CHECKSUM_WORKAROUND)
 176:Generated_Source\PSoC4/CyFlash.c **** 
 177:Generated_Source\PSoC4/CyFlash.c ****                 if ((retValue == CYRET_SUCCESS) && (needChecksumWorkaround != 0u))
 178:Generated_Source\PSoC4/CyFlash.c ****                 {
 179:Generated_Source\PSoC4/CyFlash.c ****                     (void)memset((void *)&parameters[2u], 0, CY_FLASH_SIZEOF_ROW);
 180:Generated_Source\PSoC4/CyFlash.c ****                     parameters[savedIndex] = savedValue;
 181:Generated_Source\PSoC4/CyFlash.c **** 
 182:Generated_Source\PSoC4/CyFlash.c ****                     /* Load Flash Bytes */
 183:Generated_Source\PSoC4/CyFlash.c ****                     parameters[0u] = (uint32) (CY_FLASH_GET_MACRO_FROM_ROW(rowNum)        << CY_FLA
 184:Generated_Source\PSoC4/CyFlash.c ****                                      (uint32) (CY_FLASH_PAGE_LATCH_START_ADDR             << CY_FLA
 185:Generated_Source\PSoC4/CyFlash.c ****                                      (uint32) (CY_FLASH_KEY_TWO(CY_FLASH_API_OPCODE_LOAD) << CY_FLA
 186:Generated_Source\PSoC4/CyFlash.c ****                                      CY_FLASH_KEY_ONE;
 187:Generated_Source\PSoC4/CyFlash.c ****                     parameters[1u] = CY_FLASH_SIZEOF_ROW - 1u;
 188:Generated_Source\PSoC4/CyFlash.c **** 
 189:Generated_Source\PSoC4/CyFlash.c ****                     CY_FLASH_CPUSS_SYSARG_REG = (uint32) &parameters[0u];
 190:Generated_Source\PSoC4/CyFlash.c ****                     CY_FLASH_CPUSS_SYSREQ_REG = CY_FLASH_CPUSS_REQ_START | CY_FLASH_API_OPCODE_LOAD
 191:Generated_Source\PSoC4/CyFlash.c ****                     retValue = CY_FLASH_API_RETURN;
 192:Generated_Source\PSoC4/CyFlash.c **** 
 193:Generated_Source\PSoC4/CyFlash.c **** 
 194:Generated_Source\PSoC4/CyFlash.c ****                     if(retValue == CY_SYS_FLASH_SUCCESS)
 195:Generated_Source\PSoC4/CyFlash.c ****                     {
 196:Generated_Source\PSoC4/CyFlash.c ****                         /* Program Row */
 197:Generated_Source\PSoC4/CyFlash.c ****                         parameters[0u]  =
 198:Generated_Source\PSoC4/CyFlash.c ****                             (uint32) (((uint32) CY_FLASH_KEY_TWO(CY_FLASH_API_OPCODE_PROGRAM_ROW) <
 199:Generated_Source\PSoC4/CyFlash.c ****                                                     CY_FLASH_PARAM_KEY_TWO_OFFSET) | CY_FLASH_KEY_O
 200:Generated_Source\PSoC4/CyFlash.c ****                         parameters[0u] |= (uint32)(rowNum << 16u);
ARM GAS  C:\Users\ADMINI~1\AppData\Local\Temp\cc9ld4Xp.s 			page 8


 201:Generated_Source\PSoC4/CyFlash.c **** 
 202:Generated_Source\PSoC4/CyFlash.c ****                         CY_FLASH_CPUSS_SYSARG_REG = (uint32) &parameters[0u];
 203:Generated_Source\PSoC4/CyFlash.c ****                         CY_FLASH_CPUSS_SYSREQ_REG = CY_FLASH_CPUSS_REQ_START | CY_FLASH_API_OPCODE_
 204:Generated_Source\PSoC4/CyFlash.c ****                         retValue = CY_FLASH_API_RETURN;
 205:Generated_Source\PSoC4/CyFlash.c ****                     }
 206:Generated_Source\PSoC4/CyFlash.c ****                 }
 207:Generated_Source\PSoC4/CyFlash.c ****             #endif  /* (CY_FLASH_CHECKSUM_WORKAROUND) */
 208:Generated_Source\PSoC4/CyFlash.c **** 
 209:Generated_Source\PSoC4/CyFlash.c ****             if(clkCnfRetValue == CY_SYS_FLASH_SUCCESS)
 199              		.loc 1 209 0 is_stmt 1
 200 00fe 9423     		movs	r3, #148
 201 0100 FB18     		adds	r3, r7, r3
 202 0102 1B68     		ldr	r3, [r3]
 203 0104 002B     		cmp	r3, #0
 204 0106 05D1     		bne	.L11
 210:Generated_Source\PSoC4/CyFlash.c ****             {
 211:Generated_Source\PSoC4/CyFlash.c ****                 clkCnfRetValue = CySysFlashClockRestore();
 205              		.loc 1 211 0
 206 0108 FFF7FEFF 		bl	CySysFlashClockRestore
 207 010c 0300     		movs	r3, r0
 208 010e 9422     		movs	r2, #148
 209 0110 BA18     		adds	r2, r7, r2
 210 0112 1360     		str	r3, [r2]
 211              	.L11:
 212:Generated_Source\PSoC4/CyFlash.c ****             }
 213:Generated_Source\PSoC4/CyFlash.c **** 
 214:Generated_Source\PSoC4/CyFlash.c ****             CyExitCriticalSection(interruptState);
 212              		.loc 1 214 0
 213 0114 9F23     		movs	r3, #159
 214 0116 FB18     		adds	r3, r7, r3
 215 0118 1B78     		ldrb	r3, [r3]
 216 011a 1800     		movs	r0, r3
 217 011c FFF7FEFF 		bl	CyExitCriticalSection
 145:Generated_Source\PSoC4/CyFlash.c ****         {
 218              		.loc 1 145 0
 219 0120 03E0     		b	.L12
 220              	.L2:
 215:Generated_Source\PSoC4/CyFlash.c ****         }
 216:Generated_Source\PSoC4/CyFlash.c ****     }
 217:Generated_Source\PSoC4/CyFlash.c ****     else
 218:Generated_Source\PSoC4/CyFlash.c ****     {
 219:Generated_Source\PSoC4/CyFlash.c ****         retValue = CY_SYS_FLASH_INVALID_ADDR;
 221              		.loc 1 219 0
 222 0122 0423     		movs	r3, #4
 223 0124 9822     		movs	r2, #152
 224 0126 BA18     		adds	r2, r7, r2
 225 0128 1360     		str	r3, [r2]
 226              	.L12:
 220:Generated_Source\PSoC4/CyFlash.c ****     }
 221:Generated_Source\PSoC4/CyFlash.c **** 
 222:Generated_Source\PSoC4/CyFlash.c ****     return (retValue);
 227              		.loc 1 222 0
 228 012a 9823     		movs	r3, #152
 229 012c FB18     		adds	r3, r7, r3
 230 012e 1B68     		ldr	r3, [r3]
 223:Generated_Source\PSoC4/CyFlash.c **** }
 231              		.loc 1 223 0
ARM GAS  C:\Users\ADMINI~1\AppData\Local\Temp\cc9ld4Xp.s 			page 9


 232 0130 1800     		movs	r0, r3
 233 0132 BD46     		mov	sp, r7
 234 0134 29B0     		add	sp, sp, #164
 235              		@ sp needed
 236 0136 90BD     		pop	{r4, r7, pc}
 237              	.L15:
 238              		.align	2
 239              	.L14:
 240 0138 FF030000 		.word	1023
 241 013c FF010000 		.word	511
 242 0140 B6D70001 		.word	16832438
 243 0144 B6D70000 		.word	55222
 244 0148 08001040 		.word	1074790408
 245 014c 04001040 		.word	1074790404
 246 0150 04000080 		.word	-2147483644
 247 0154 B6D80000 		.word	55478
 248 0158 05000080 		.word	-2147483643
 249              		.cfi_endproc
 250              	.LFE1:
 251              		.size	CySysFlashWriteRow, .-CySysFlashWriteRow
 252              		.section	.text.CySysFlashSetWaitCycles,"ax",%progbits
 253              		.align	2
 254              		.global	CySysFlashSetWaitCycles
 255              		.code	16
 256              		.thumb_func
 257              		.type	CySysFlashSetWaitCycles, %function
 258              	CySysFlashSetWaitCycles:
 259              	.LFB2:
 224:Generated_Source\PSoC4/CyFlash.c **** 
 225:Generated_Source\PSoC4/CyFlash.c **** 
 226:Generated_Source\PSoC4/CyFlash.c **** /*******************************************************************************
 227:Generated_Source\PSoC4/CyFlash.c **** * Function Name: CySysFlashSetWaitCycles
 228:Generated_Source\PSoC4/CyFlash.c **** ********************************************************************************
 229:Generated_Source\PSoC4/CyFlash.c **** *
 230:Generated_Source\PSoC4/CyFlash.c **** * Summary:
 231:Generated_Source\PSoC4/CyFlash.c **** *  Sets the number of clock cycles the cache will wait before it samples data
 232:Generated_Source\PSoC4/CyFlash.c **** *  coming back from Flash. This function must be called before increasing the
 233:Generated_Source\PSoC4/CyFlash.c **** *  SYSCLK clock frequency. It can optionally be called after lowering SYSCLK
 234:Generated_Source\PSoC4/CyFlash.c **** *  clock frequency in order to improve the CPU performance.
 235:Generated_Source\PSoC4/CyFlash.c **** *
 236:Generated_Source\PSoC4/CyFlash.c **** * Parameters:
 237:Generated_Source\PSoC4/CyFlash.c **** *  freq: The System clock frequency in MHz. Note: Invalid frequency will be
 238:Generated_Source\PSoC4/CyFlash.c **** *  ignored in Release mode and the CPU will be halted if project is compiled in
 239:Generated_Source\PSoC4/CyFlash.c **** *  Debug mode.
 240:Generated_Source\PSoC4/CyFlash.c **** *
 241:Generated_Source\PSoC4/CyFlash.c **** * Return:
 242:Generated_Source\PSoC4/CyFlash.c **** *  None
 243:Generated_Source\PSoC4/CyFlash.c **** *
 244:Generated_Source\PSoC4/CyFlash.c **** *******************************************************************************/
 245:Generated_Source\PSoC4/CyFlash.c **** void CySysFlashSetWaitCycles(uint32 freq)
 246:Generated_Source\PSoC4/CyFlash.c **** {
 260              		.loc 1 246 0
 261              		.cfi_startproc
 262              		@ args = 0, pretend = 0, frame = 16
 263              		@ frame_needed = 1, uses_anonymous_args = 0
 264 0000 90B5     		push	{r4, r7, lr}
 265              		.cfi_def_cfa_offset 12
ARM GAS  C:\Users\ADMINI~1\AppData\Local\Temp\cc9ld4Xp.s 			page 10


 266              		.cfi_offset 4, -12
 267              		.cfi_offset 7, -8
 268              		.cfi_offset 14, -4
 269 0002 85B0     		sub	sp, sp, #20
 270              		.cfi_def_cfa_offset 32
 271 0004 00AF     		add	r7, sp, #0
 272              		.cfi_def_cfa_register 7
 273 0006 7860     		str	r0, [r7, #4]
 247:Generated_Source\PSoC4/CyFlash.c ****     uint8  interruptState;
 248:Generated_Source\PSoC4/CyFlash.c **** 
 249:Generated_Source\PSoC4/CyFlash.c ****     interruptState = CyEnterCriticalSection();
 274              		.loc 1 249 0
 275 0008 0F23     		movs	r3, #15
 276 000a FC18     		adds	r4, r7, r3
 277 000c FFF7FEFF 		bl	CyEnterCriticalSection
 278 0010 0300     		movs	r3, r0
 279 0012 2370     		strb	r3, [r4]
 250:Generated_Source\PSoC4/CyFlash.c **** 
 251:Generated_Source\PSoC4/CyFlash.c ****     #if (CY_IP_CPUSS)
 252:Generated_Source\PSoC4/CyFlash.c **** 
 253:Generated_Source\PSoC4/CyFlash.c ****         if ( freq <= CY_FLASH_SYSCLK_BOUNDARY_MHZ )
 254:Generated_Source\PSoC4/CyFlash.c ****         {
 255:Generated_Source\PSoC4/CyFlash.c ****             CY_SYS_CLK_SELECT_REG &= (uint32)(~CY_FLASH_WAIT_STATE_EN);
 256:Generated_Source\PSoC4/CyFlash.c ****         }
 257:Generated_Source\PSoC4/CyFlash.c ****         else
 258:Generated_Source\PSoC4/CyFlash.c ****         {
 259:Generated_Source\PSoC4/CyFlash.c ****             CY_SYS_CLK_SELECT_REG |= CY_FLASH_WAIT_STATE_EN;
 260:Generated_Source\PSoC4/CyFlash.c ****         }
 261:Generated_Source\PSoC4/CyFlash.c ****     #else /* CY_IP_CPUSSV2 */
 262:Generated_Source\PSoC4/CyFlash.c **** 
 263:Generated_Source\PSoC4/CyFlash.c ****         /* CY_IP_FM and CY_IP_FS */
 264:Generated_Source\PSoC4/CyFlash.c ****         if (freq <= CY_FLASH_CTL_WS_0_FREQ_MAX)
 280              		.loc 1 264 0
 281 0014 7B68     		ldr	r3, [r7, #4]
 282 0016 102B     		cmp	r3, #16
 283 0018 06D8     		bhi	.L17
 265:Generated_Source\PSoC4/CyFlash.c ****         {
 266:Generated_Source\PSoC4/CyFlash.c ****             CY_FLASH_CTL_REG = (CY_FLASH_CTL_REG & ~CY_FLASH_CTL_WS_MASK) | CY_FLASH_CTL_WS_0_VALUE
 284              		.loc 1 266 0
 285 001a 164B     		ldr	r3, .L21
 286 001c 154A     		ldr	r2, .L21
 287 001e 1268     		ldr	r2, [r2]
 288 0020 0321     		movs	r1, #3
 289 0022 8A43     		bics	r2, r1
 290 0024 1A60     		str	r2, [r3]
 291 0026 1AE0     		b	.L18
 292              	.L17:
 267:Generated_Source\PSoC4/CyFlash.c ****         } else
 268:Generated_Source\PSoC4/CyFlash.c ****         if (freq <= CY_FLASH_CTL_WS_1_FREQ_MAX)
 293              		.loc 1 268 0
 294 0028 7B68     		ldr	r3, [r7, #4]
 295 002a 202B     		cmp	r3, #32
 296 002c 08D8     		bhi	.L19
 269:Generated_Source\PSoC4/CyFlash.c ****         {
 270:Generated_Source\PSoC4/CyFlash.c ****             CY_FLASH_CTL_REG = (CY_FLASH_CTL_REG & ~CY_FLASH_CTL_WS_MASK) | CY_FLASH_CTL_WS_1_VALUE
 297              		.loc 1 270 0
 298 002e 114B     		ldr	r3, .L21
ARM GAS  C:\Users\ADMINI~1\AppData\Local\Temp\cc9ld4Xp.s 			page 11


 299 0030 104A     		ldr	r2, .L21
 300 0032 1268     		ldr	r2, [r2]
 301 0034 0321     		movs	r1, #3
 302 0036 8A43     		bics	r2, r1
 303 0038 0121     		movs	r1, #1
 304 003a 0A43     		orrs	r2, r1
 305 003c 1A60     		str	r2, [r3]
 306 003e 0EE0     		b	.L18
 307              	.L19:
 271:Generated_Source\PSoC4/CyFlash.c ****         } else
 272:Generated_Source\PSoC4/CyFlash.c ****     #if (CY_IP_FMLT || CY_IP_FSLT)
 273:Generated_Source\PSoC4/CyFlash.c ****         if (freq <= CY_FLASH_CTL_WS_2_FREQ_MAX)
 308              		.loc 1 273 0
 309 0040 7B68     		ldr	r3, [r7, #4]
 310 0042 302B     		cmp	r3, #48
 311 0044 08D8     		bhi	.L20
 274:Generated_Source\PSoC4/CyFlash.c ****         {
 275:Generated_Source\PSoC4/CyFlash.c ****             CY_FLASH_CTL_REG = (CY_FLASH_CTL_REG & ~CY_FLASH_CTL_WS_MASK) | CY_FLASH_CTL_WS_2_VALUE
 312              		.loc 1 275 0
 313 0046 0B4B     		ldr	r3, .L21
 314 0048 0A4A     		ldr	r2, .L21
 315 004a 1268     		ldr	r2, [r2]
 316 004c 0321     		movs	r1, #3
 317 004e 8A43     		bics	r2, r1
 318 0050 0221     		movs	r1, #2
 319 0052 0A43     		orrs	r2, r1
 320 0054 1A60     		str	r2, [r3]
 321 0056 02E0     		b	.L18
 322              	.L20:
 276:Generated_Source\PSoC4/CyFlash.c ****         }
 277:Generated_Source\PSoC4/CyFlash.c ****         else
 278:Generated_Source\PSoC4/CyFlash.c ****     #endif  /* (CY_IP_FMLT || CY_IP_FSLT) */
 279:Generated_Source\PSoC4/CyFlash.c ****         {
 280:Generated_Source\PSoC4/CyFlash.c ****             /* Halt CPU in debug mode if frequency is invalid */
 281:Generated_Source\PSoC4/CyFlash.c ****             CYASSERT(0u != 0u);
 323              		.loc 1 281 0 discriminator 1
 324 0058 0020     		movs	r0, #0
 325 005a FFF7FEFF 		bl	CyHalt
 326              	.L18:
 282:Generated_Source\PSoC4/CyFlash.c ****         }
 283:Generated_Source\PSoC4/CyFlash.c **** 
 284:Generated_Source\PSoC4/CyFlash.c ****     #endif  /* (CY_IP_CPUSS) */
 285:Generated_Source\PSoC4/CyFlash.c **** 
 286:Generated_Source\PSoC4/CyFlash.c ****     CyExitCriticalSection(interruptState);
 327              		.loc 1 286 0
 328 005e 0F23     		movs	r3, #15
 329 0060 FB18     		adds	r3, r7, r3
 330 0062 1B78     		ldrb	r3, [r3]
 331 0064 1800     		movs	r0, r3
 332 0066 FFF7FEFF 		bl	CyExitCriticalSection
 287:Generated_Source\PSoC4/CyFlash.c **** }
 333              		.loc 1 287 0
 334 006a C046     		nop
 335 006c BD46     		mov	sp, r7
 336 006e 05B0     		add	sp, sp, #20
 337              		@ sp needed
 338 0070 90BD     		pop	{r4, r7, pc}
ARM GAS  C:\Users\ADMINI~1\AppData\Local\Temp\cc9ld4Xp.s 			page 12


 339              	.L22:
 340 0072 C046     		.align	2
 341              	.L21:
 342 0074 30001040 		.word	1074790448
 343              		.cfi_endproc
 344              	.LFE2:
 345              		.size	CySysFlashSetWaitCycles, .-CySysFlashSetWaitCycles
 346              		.section	.text.CySysFlashClockBackup,"ax",%progbits
 347              		.align	2
 348              		.code	16
 349              		.thumb_func
 350              		.type	CySysFlashClockBackup, %function
 351              	CySysFlashClockBackup:
 352              	.LFB3:
 288:Generated_Source\PSoC4/CyFlash.c **** 
 289:Generated_Source\PSoC4/CyFlash.c **** 
 290:Generated_Source\PSoC4/CyFlash.c **** /*******************************************************************************
 291:Generated_Source\PSoC4/CyFlash.c **** * Function Name: CySysFlashClockBackup
 292:Generated_Source\PSoC4/CyFlash.c **** ********************************************************************************
 293:Generated_Source\PSoC4/CyFlash.c **** *
 294:Generated_Source\PSoC4/CyFlash.c **** * Summary:
 295:Generated_Source\PSoC4/CyFlash.c **** *  Backups the device clock configuration.
 296:Generated_Source\PSoC4/CyFlash.c **** *
 297:Generated_Source\PSoC4/CyFlash.c **** * Parameters:
 298:Generated_Source\PSoC4/CyFlash.c **** *  None
 299:Generated_Source\PSoC4/CyFlash.c **** *
 300:Generated_Source\PSoC4/CyFlash.c **** * Return:
 301:Generated_Source\PSoC4/CyFlash.c **** *  The same as CySysFlashWriteRow().
 302:Generated_Source\PSoC4/CyFlash.c **** *
 303:Generated_Source\PSoC4/CyFlash.c **** *******************************************************************************/
 304:Generated_Source\PSoC4/CyFlash.c **** static cystatus CySysFlashClockBackup(void)
 305:Generated_Source\PSoC4/CyFlash.c **** {
 353              		.loc 1 305 0
 354              		.cfi_startproc
 355              		@ args = 0, pretend = 0, frame = 8
 356              		@ frame_needed = 1, uses_anonymous_args = 0
 357 0000 80B5     		push	{r7, lr}
 358              		.cfi_def_cfa_offset 8
 359              		.cfi_offset 7, -8
 360              		.cfi_offset 14, -4
 361 0002 82B0     		sub	sp, sp, #8
 362              		.cfi_def_cfa_offset 16
 363 0004 00AF     		add	r7, sp, #0
 364              		.cfi_def_cfa_register 7
 306:Generated_Source\PSoC4/CyFlash.c ****     cystatus retValue = CY_SYS_FLASH_SUCCESS;
 365              		.loc 1 306 0
 366 0006 0023     		movs	r3, #0
 367 0008 7B60     		str	r3, [r7, #4]
 307:Generated_Source\PSoC4/CyFlash.c **** #if(!CY_IP_FM)
 308:Generated_Source\PSoC4/CyFlash.c ****     #if !(CY_PSOC4_4000)
 309:Generated_Source\PSoC4/CyFlash.c ****         #if (CY_IP_SPCIF_SYNCHRONOUS)
 310:Generated_Source\PSoC4/CyFlash.c ****             volatile uint32   parameters[2u];
 311:Generated_Source\PSoC4/CyFlash.c ****         #endif /* (CY_IP_SPCIF_SYNCHRONOUS) */
 312:Generated_Source\PSoC4/CyFlash.c ****     #endif  /* !(CY_PSOC4_4000) */
 313:Generated_Source\PSoC4/CyFlash.c **** #endif  /* (!CY_IP_FM) */
 314:Generated_Source\PSoC4/CyFlash.c **** 
 315:Generated_Source\PSoC4/CyFlash.c **** #if(CY_IP_FM)
ARM GAS  C:\Users\ADMINI~1\AppData\Local\Temp\cc9ld4Xp.s 			page 13


 316:Generated_Source\PSoC4/CyFlash.c **** 
 317:Generated_Source\PSoC4/CyFlash.c ****     /***************************************************************
 318:Generated_Source\PSoC4/CyFlash.c ****     * Preserve IMO configuration that could be changed during
 319:Generated_Source\PSoC4/CyFlash.c ****     * system call execution (Cypress ID #150448).
 320:Generated_Source\PSoC4/CyFlash.c ****     ***************************************************************/
 321:Generated_Source\PSoC4/CyFlash.c ****     cySysFlashBackup.imoConfigReg = CY_SYS_CLK_IMO_CONFIG_REG;
 322:Generated_Source\PSoC4/CyFlash.c **** 
 323:Generated_Source\PSoC4/CyFlash.c **** #else   /* (CY_IP_FMLT) */
 324:Generated_Source\PSoC4/CyFlash.c **** 
 325:Generated_Source\PSoC4/CyFlash.c ****     #if (CY_PSOC4_4000)
 326:Generated_Source\PSoC4/CyFlash.c **** 
 327:Generated_Source\PSoC4/CyFlash.c ****         /***************************************************************************
 328:Generated_Source\PSoC4/CyFlash.c ****         * Perform firmware clock settings backup for the PSOC4 4000 devices (the
 329:Generated_Source\PSoC4/CyFlash.c ****         * corresponding system call is not available).
 330:Generated_Source\PSoC4/CyFlash.c ****         ***************************************************************************/
 331:Generated_Source\PSoC4/CyFlash.c **** 
 332:Generated_Source\PSoC4/CyFlash.c ****         /***************************************************************************
 333:Generated_Source\PSoC4/CyFlash.c ****         * The registers listed below are modified by CySysFlashClockConfig().
 334:Generated_Source\PSoC4/CyFlash.c ****         *
 335:Generated_Source\PSoC4/CyFlash.c ****         * The registers to be saved:
 336:Generated_Source\PSoC4/CyFlash.c ****         * - CY_SYS_CLK_IMO_CONFIG_REG - IMO enable state.
 337:Generated_Source\PSoC4/CyFlash.c ****         * - CY_SYS_CLK_SELECT_REG     - HFCLK source, divider, pump source. Save
 338:Generated_Source\PSoC4/CyFlash.c ****         *                               entire register as it can be directly
 339:Generated_Source\PSoC4/CyFlash.c ****         *                               written on restore (no special
 340:Generated_Source\PSoC4/CyFlash.c ****         *                               requirements).
 341:Generated_Source\PSoC4/CyFlash.c ****         * - CY_SYS_CLK_IMO_SELECT_REG - Save IMO frequency.
 342:Generated_Source\PSoC4/CyFlash.c ****         *
 343:Generated_Source\PSoC4/CyFlash.c ****         * The registers not to be saved:
 344:Generated_Source\PSoC4/CyFlash.c ****         * - CY_SYS_CLK_IMO_TRIM1_REG  - No need to save. Function of frequency.
 345:Generated_Source\PSoC4/CyFlash.c ****         *                               Restored by CySysClkWriteImoFreq().
 346:Generated_Source\PSoC4/CyFlash.c ****         * - CY_SYS_CLK_IMO_TRIM3_REG  - No need to save. Function of frequency.
 347:Generated_Source\PSoC4/CyFlash.c ****         *                               Restored by CySysClkWriteImoFreq().
 348:Generated_Source\PSoC4/CyFlash.c ****         * - REG_CPUSS_FLASH_CTL       - Flash wait cycles. Unmodified due to system
 349:Generated_Source\PSoC4/CyFlash.c ****         *                               clock 16 MHz limit.
 350:Generated_Source\PSoC4/CyFlash.c ****         ***************************************************************************/
 351:Generated_Source\PSoC4/CyFlash.c **** 
 352:Generated_Source\PSoC4/CyFlash.c ****         cySysFlashBackup.clkSelectReg = CY_SYS_CLK_SELECT_REG;
 353:Generated_Source\PSoC4/CyFlash.c ****         cySysFlashBackup.clkImoEna    = CY_SYS_CLK_IMO_CONFIG_REG & CY_SYS_CLK_IMO_CONFIG_ENABLE;
 354:Generated_Source\PSoC4/CyFlash.c ****         cySysFlashBackup.clkImoFreq   = CY_SYS_CLK_IMO_MIN_FREQ_MHZ + (CY_SYS_CLK_IMO_SELECT_REG <<
 355:Generated_Source\PSoC4/CyFlash.c **** 
 356:Generated_Source\PSoC4/CyFlash.c ****     #else
 357:Generated_Source\PSoC4/CyFlash.c **** 
 358:Generated_Source\PSoC4/CyFlash.c ****         #if (CY_IP_SPCIF_SYNCHRONOUS)
 359:Generated_Source\PSoC4/CyFlash.c ****             /* FM-Lite Clock Backup System Call */
 360:Generated_Source\PSoC4/CyFlash.c ****             parameters[0u] =
 361:Generated_Source\PSoC4/CyFlash.c ****                 (uint32) ((CY_FLASH_KEY_TWO(CY_FLASH_API_OPCODE_CLK_BACKUP) <<  CY_FLASH_PARAM_KEY_
 362:Generated_Source\PSoC4/CyFlash.c ****                             CY_FLASH_KEY_ONE);
 363:Generated_Source\PSoC4/CyFlash.c ****             parameters[1u] = (uint32) &cySysFlashBackup.clockSettings[0u];
 364:Generated_Source\PSoC4/CyFlash.c ****             CY_FLASH_CPUSS_SYSARG_REG = (uint32) &parameters[0u];
 365:Generated_Source\PSoC4/CyFlash.c ****             CY_FLASH_CPUSS_SYSREQ_REG = CY_FLASH_CPUSS_REQ_START | CY_FLASH_API_OPCODE_CLK_BACKUP;
 366:Generated_Source\PSoC4/CyFlash.c ****             retValue = CY_FLASH_API_RETURN;
 367:Generated_Source\PSoC4/CyFlash.c ****         #endif /* (CY_IP_SPCIF_SYNCHRONOUS) */
 368:Generated_Source\PSoC4/CyFlash.c **** 
 369:Generated_Source\PSoC4/CyFlash.c ****     #endif  /* (CY_PSOC4_4000) */
 370:Generated_Source\PSoC4/CyFlash.c **** 
 371:Generated_Source\PSoC4/CyFlash.c **** #endif  /* (CY_IP_FM) */
 372:Generated_Source\PSoC4/CyFlash.c **** 
ARM GAS  C:\Users\ADMINI~1\AppData\Local\Temp\cc9ld4Xp.s 			page 14


 373:Generated_Source\PSoC4/CyFlash.c ****     return (retValue);
 368              		.loc 1 373 0
 369 000a 7B68     		ldr	r3, [r7, #4]
 374:Generated_Source\PSoC4/CyFlash.c **** }
 370              		.loc 1 374 0
 371 000c 1800     		movs	r0, r3
 372 000e BD46     		mov	sp, r7
 373 0010 02B0     		add	sp, sp, #8
 374              		@ sp needed
 375 0012 80BD     		pop	{r7, pc}
 376              		.cfi_endproc
 377              	.LFE3:
 378              		.size	CySysFlashClockBackup, .-CySysFlashClockBackup
 379              		.section	.text.CySysFlashClockRestore,"ax",%progbits
 380              		.align	2
 381              		.code	16
 382              		.thumb_func
 383              		.type	CySysFlashClockRestore, %function
 384              	CySysFlashClockRestore:
 385              	.LFB4:
 375:Generated_Source\PSoC4/CyFlash.c **** 
 376:Generated_Source\PSoC4/CyFlash.c **** 
 377:Generated_Source\PSoC4/CyFlash.c **** #if(CY_IP_SPCIF_SYNCHRONOUS)
 378:Generated_Source\PSoC4/CyFlash.c **** /*******************************************************************************
 379:Generated_Source\PSoC4/CyFlash.c **** * Function Name: CySysFlashClockConfig
 380:Generated_Source\PSoC4/CyFlash.c **** ********************************************************************************
 381:Generated_Source\PSoC4/CyFlash.c **** *
 382:Generated_Source\PSoC4/CyFlash.c **** * Summary:
 383:Generated_Source\PSoC4/CyFlash.c **** *  Configures the device clocks for the flash writing.
 384:Generated_Source\PSoC4/CyFlash.c **** *
 385:Generated_Source\PSoC4/CyFlash.c **** * Parameters:
 386:Generated_Source\PSoC4/CyFlash.c **** *  None
 387:Generated_Source\PSoC4/CyFlash.c **** *
 388:Generated_Source\PSoC4/CyFlash.c **** * Return:
 389:Generated_Source\PSoC4/CyFlash.c **** *  The same as CySysFlashWriteRow().
 390:Generated_Source\PSoC4/CyFlash.c **** *
 391:Generated_Source\PSoC4/CyFlash.c **** *******************************************************************************/
 392:Generated_Source\PSoC4/CyFlash.c **** static cystatus CySysFlashClockConfig(void)
 393:Generated_Source\PSoC4/CyFlash.c **** {
 394:Generated_Source\PSoC4/CyFlash.c ****     cystatus retValue = CY_SYS_FLASH_SUCCESS;
 395:Generated_Source\PSoC4/CyFlash.c **** 
 396:Generated_Source\PSoC4/CyFlash.c ****     /***************************************************************************
 397:Generated_Source\PSoC4/CyFlash.c ****     * The FM-Lite IP uses the IMO at 48MHz for the pump clock and SPC timer
 398:Generated_Source\PSoC4/CyFlash.c ****     * clock. The PUMP_SEL and HF clock must be set to IMO before calling Flash
 399:Generated_Source\PSoC4/CyFlash.c ****     * write or erase operation.
 400:Generated_Source\PSoC4/CyFlash.c ****     ***************************************************************************/
 401:Generated_Source\PSoC4/CyFlash.c **** #if (CY_PSOC4_4000)
 402:Generated_Source\PSoC4/CyFlash.c **** 
 403:Generated_Source\PSoC4/CyFlash.c ****     /***************************************************************************
 404:Generated_Source\PSoC4/CyFlash.c ****     * Perform firmware clock settings setup for the PSOC4 4000 devices (the
 405:Generated_Source\PSoC4/CyFlash.c ****     * corresponding system call is not reliable):
 406:Generated_Source\PSoC4/CyFlash.c ****     * - The IMO frequency should be 48 MHz
 407:Generated_Source\PSoC4/CyFlash.c ****     * - The IMO should be source for the HFCLK
 408:Generated_Source\PSoC4/CyFlash.c ****     * - The IMO should be the source for the charge pump clock
 409:Generated_Source\PSoC4/CyFlash.c ****     *
 410:Generated_Source\PSoC4/CyFlash.c ****     * Note The structure members used below are initialized by
 411:Generated_Source\PSoC4/CyFlash.c ****     * the CySysFlashClockBackup() function.
ARM GAS  C:\Users\ADMINI~1\AppData\Local\Temp\cc9ld4Xp.s 			page 15


 412:Generated_Source\PSoC4/CyFlash.c ****     ***************************************************************************/
 413:Generated_Source\PSoC4/CyFlash.c ****     if ((cySysFlashBackup.clkImoFreq != 48u) ||
 414:Generated_Source\PSoC4/CyFlash.c ****         ((cySysFlashBackup.clkSelectReg & CY_SYS_CLK_SELECT_DIRECT_SEL_MASK) != CY_SYS_CLK_HFCLK_IM
 415:Generated_Source\PSoC4/CyFlash.c ****         (((cySysFlashBackup.clkSelectReg >> CY_SYS_CLK_SELECT_PUMP_SEL_SHIFT) & CY_SYS_CLK_SELECT_P
 416:Generated_Source\PSoC4/CyFlash.c ****             CY_SYS_CLK_SELECT_PUMP_SEL_IMO))
 417:Generated_Source\PSoC4/CyFlash.c ****     {
 418:Generated_Source\PSoC4/CyFlash.c ****         /***********************************************************************
 419:Generated_Source\PSoC4/CyFlash.c ****          Set HFCLK divider to divide-by-4 to ensure that System clock frequency
 420:Generated_Source\PSoC4/CyFlash.c ****         * is within the valid limit (16 MHz for the PSoC4 4000).
 421:Generated_Source\PSoC4/CyFlash.c ****         ***********************************************************************/
 422:Generated_Source\PSoC4/CyFlash.c ****         CySysClkWriteHfclkDiv(CY_SYS_CLK_HFCLK_DIV_4);
 423:Generated_Source\PSoC4/CyFlash.c **** 
 424:Generated_Source\PSoC4/CyFlash.c ****         /* The IMO frequency should be 48 MHz */
 425:Generated_Source\PSoC4/CyFlash.c ****         if (cySysFlashBackup.clkImoFreq != 48u)
 426:Generated_Source\PSoC4/CyFlash.c ****         {
 427:Generated_Source\PSoC4/CyFlash.c ****             CySysClkWriteImoFreq(48u);
 428:Generated_Source\PSoC4/CyFlash.c ****         }
 429:Generated_Source\PSoC4/CyFlash.c ****         CySysClkImoStart();
 430:Generated_Source\PSoC4/CyFlash.c **** 
 431:Generated_Source\PSoC4/CyFlash.c ****         /* The IMO should be source for the HFCLK */
 432:Generated_Source\PSoC4/CyFlash.c ****         CySysClkWriteHfclkDirect(CY_SYS_CLK_HFCLK_IMO);
 433:Generated_Source\PSoC4/CyFlash.c **** 
 434:Generated_Source\PSoC4/CyFlash.c ****         /* The IMO should be the source for the charge pump clock */
 435:Generated_Source\PSoC4/CyFlash.c ****         CY_SYS_CLK_SELECT_REG =  (CY_SYS_CLK_SELECT_REG &
 436:Generated_Source\PSoC4/CyFlash.c ****             ((uint32)~(uint32)(CY_SYS_CLK_SELECT_PUMP_SEL_MASK << CY_SYS_CLK_SELECT_PUMP_SEL_SHIFT)
 437:Generated_Source\PSoC4/CyFlash.c ****             ((uint32)((uint32)1u << CY_SYS_CLK_SELECT_PUMP_SEL_SHIFT));
 438:Generated_Source\PSoC4/CyFlash.c ****     }
 439:Generated_Source\PSoC4/CyFlash.c **** 
 440:Generated_Source\PSoC4/CyFlash.c **** #else
 441:Generated_Source\PSoC4/CyFlash.c **** 
 442:Generated_Source\PSoC4/CyFlash.c ****     /* FM-Lite Clock Configuration */
 443:Generated_Source\PSoC4/CyFlash.c ****     CY_FLASH_CPUSS_SYSARG_REG =
 444:Generated_Source\PSoC4/CyFlash.c ****         (uint32) ((CY_FLASH_KEY_TWO(CY_FLASH_API_OPCODE_CLK_CONFIG) <<  CY_FLASH_PARAM_KEY_TWO_OFFS
 445:Generated_Source\PSoC4/CyFlash.c ****                     CY_FLASH_KEY_ONE);
 446:Generated_Source\PSoC4/CyFlash.c ****     CY_FLASH_CPUSS_SYSREQ_REG = CY_FLASH_CPUSS_REQ_START | CY_FLASH_API_OPCODE_CLK_CONFIG;
 447:Generated_Source\PSoC4/CyFlash.c ****     retValue = CY_FLASH_API_RETURN;
 448:Generated_Source\PSoC4/CyFlash.c **** 
 449:Generated_Source\PSoC4/CyFlash.c **** #endif  /* (CY_PSOC4_4000) */
 450:Generated_Source\PSoC4/CyFlash.c **** 
 451:Generated_Source\PSoC4/CyFlash.c ****     return (retValue);
 452:Generated_Source\PSoC4/CyFlash.c **** }
 453:Generated_Source\PSoC4/CyFlash.c **** #endif  /* (CY_IP_SPCIF_SYNCHRONOUS) */
 454:Generated_Source\PSoC4/CyFlash.c **** 
 455:Generated_Source\PSoC4/CyFlash.c **** 
 456:Generated_Source\PSoC4/CyFlash.c **** /*******************************************************************************
 457:Generated_Source\PSoC4/CyFlash.c **** * Function Name: CySysFlashClockRestore
 458:Generated_Source\PSoC4/CyFlash.c **** ********************************************************************************
 459:Generated_Source\PSoC4/CyFlash.c **** *
 460:Generated_Source\PSoC4/CyFlash.c **** * Summary:
 461:Generated_Source\PSoC4/CyFlash.c **** *  Restores the device clock configuration.
 462:Generated_Source\PSoC4/CyFlash.c **** *
 463:Generated_Source\PSoC4/CyFlash.c **** * Parameters:
 464:Generated_Source\PSoC4/CyFlash.c **** *  None
 465:Generated_Source\PSoC4/CyFlash.c **** *
 466:Generated_Source\PSoC4/CyFlash.c **** * Return:
 467:Generated_Source\PSoC4/CyFlash.c **** *  The same as CySysFlashWriteRow().
 468:Generated_Source\PSoC4/CyFlash.c **** *
ARM GAS  C:\Users\ADMINI~1\AppData\Local\Temp\cc9ld4Xp.s 			page 16


 469:Generated_Source\PSoC4/CyFlash.c **** *******************************************************************************/
 470:Generated_Source\PSoC4/CyFlash.c **** static cystatus CySysFlashClockRestore(void)
 471:Generated_Source\PSoC4/CyFlash.c **** {
 386              		.loc 1 471 0
 387              		.cfi_startproc
 388              		@ args = 0, pretend = 0, frame = 8
 389              		@ frame_needed = 1, uses_anonymous_args = 0
 390 0000 80B5     		push	{r7, lr}
 391              		.cfi_def_cfa_offset 8
 392              		.cfi_offset 7, -8
 393              		.cfi_offset 14, -4
 394 0002 82B0     		sub	sp, sp, #8
 395              		.cfi_def_cfa_offset 16
 396 0004 00AF     		add	r7, sp, #0
 397              		.cfi_def_cfa_register 7
 472:Generated_Source\PSoC4/CyFlash.c ****     cystatus retValue = CY_SYS_FLASH_SUCCESS;
 398              		.loc 1 472 0
 399 0006 0023     		movs	r3, #0
 400 0008 7B60     		str	r3, [r7, #4]
 473:Generated_Source\PSoC4/CyFlash.c **** #if(!CY_IP_FM)
 474:Generated_Source\PSoC4/CyFlash.c ****     #if !(CY_PSOC4_4000)
 475:Generated_Source\PSoC4/CyFlash.c ****         #if (CY_IP_SPCIF_SYNCHRONOUS)
 476:Generated_Source\PSoC4/CyFlash.c ****             volatile uint32   parameters[2u];
 477:Generated_Source\PSoC4/CyFlash.c ****         #endif /* (CY_IP_SPCIF_SYNCHRONOUS) */
 478:Generated_Source\PSoC4/CyFlash.c ****     #endif  /* !(CY_PSOC4_4000) */
 479:Generated_Source\PSoC4/CyFlash.c **** #endif  /* (!CY_IP_FM) */
 480:Generated_Source\PSoC4/CyFlash.c **** 
 481:Generated_Source\PSoC4/CyFlash.c **** #if(CY_IP_FM)
 482:Generated_Source\PSoC4/CyFlash.c **** 
 483:Generated_Source\PSoC4/CyFlash.c ****     /***************************************************************
 484:Generated_Source\PSoC4/CyFlash.c ****     * Restore IMO configuration that could be changed during
 485:Generated_Source\PSoC4/CyFlash.c ****     * system call execution (Cypress ID #150448).
 486:Generated_Source\PSoC4/CyFlash.c ****     ***************************************************************/
 487:Generated_Source\PSoC4/CyFlash.c ****     CY_SYS_CLK_IMO_CONFIG_REG = cySysFlashBackup.imoConfigReg;
 488:Generated_Source\PSoC4/CyFlash.c **** 
 489:Generated_Source\PSoC4/CyFlash.c **** #else
 490:Generated_Source\PSoC4/CyFlash.c **** 
 491:Generated_Source\PSoC4/CyFlash.c ****     #if (CY_PSOC4_4000)
 492:Generated_Source\PSoC4/CyFlash.c **** 
 493:Generated_Source\PSoC4/CyFlash.c ****         /***************************************************************************
 494:Generated_Source\PSoC4/CyFlash.c ****         * Perform firmware clock settings restore for the PSOC4 4000 devices (the
 495:Generated_Source\PSoC4/CyFlash.c ****         * corresponding system call is not available).
 496:Generated_Source\PSoC4/CyFlash.c ****         ***************************************************************************/
 497:Generated_Source\PSoC4/CyFlash.c **** 
 498:Generated_Source\PSoC4/CyFlash.c ****         /* Restore clock settings */
 499:Generated_Source\PSoC4/CyFlash.c ****         if ((cySysFlashBackup.clkImoFreq != 48u) ||
 500:Generated_Source\PSoC4/CyFlash.c ****             ((cySysFlashBackup.clkSelectReg & CY_SYS_CLK_SELECT_DIRECT_SEL_MASK) != CY_SYS_CLK_HFCL
 501:Generated_Source\PSoC4/CyFlash.c ****             (((cySysFlashBackup.clkSelectReg >> CY_SYS_CLK_SELECT_PUMP_SEL_SHIFT) & CY_SYS_CLK_SELE
 502:Generated_Source\PSoC4/CyFlash.c ****                 CY_SYS_CLK_SELECT_PUMP_SEL_IMO))
 503:Generated_Source\PSoC4/CyFlash.c ****         {
 504:Generated_Source\PSoC4/CyFlash.c ****             /* Restore IMO frequency if needed */
 505:Generated_Source\PSoC4/CyFlash.c ****             if (cySysFlashBackup.clkImoFreq != 48u)
 506:Generated_Source\PSoC4/CyFlash.c ****             {
 507:Generated_Source\PSoC4/CyFlash.c ****                 CySysClkWriteImoFreq(cySysFlashBackup.clkImoFreq);
 508:Generated_Source\PSoC4/CyFlash.c ****             }
 509:Generated_Source\PSoC4/CyFlash.c **** 
 510:Generated_Source\PSoC4/CyFlash.c ****             /* Restore HFCLK clock source */
ARM GAS  C:\Users\ADMINI~1\AppData\Local\Temp\cc9ld4Xp.s 			page 17


 511:Generated_Source\PSoC4/CyFlash.c ****             CySysClkWriteHfclkDirect(cySysFlashBackup.clkSelectReg & CY_SYS_CLK_SELECT_DIRECT_SEL_M
 512:Generated_Source\PSoC4/CyFlash.c **** 
 513:Generated_Source\PSoC4/CyFlash.c ****             /* Restore HFCLK divider and source for pump  */
 514:Generated_Source\PSoC4/CyFlash.c ****             CY_SYS_CLK_SELECT_REG = cySysFlashBackup.clkSelectReg;
 515:Generated_Source\PSoC4/CyFlash.c **** 
 516:Generated_Source\PSoC4/CyFlash.c ****             /* Stop IMO if needed */
 517:Generated_Source\PSoC4/CyFlash.c ****             if (0u == cySysFlashBackup.clkImoEna)
 518:Generated_Source\PSoC4/CyFlash.c ****             {
 519:Generated_Source\PSoC4/CyFlash.c ****                 CySysClkImoStop();
 520:Generated_Source\PSoC4/CyFlash.c ****             }
 521:Generated_Source\PSoC4/CyFlash.c ****         }
 522:Generated_Source\PSoC4/CyFlash.c **** 
 523:Generated_Source\PSoC4/CyFlash.c ****     #else
 524:Generated_Source\PSoC4/CyFlash.c **** 
 525:Generated_Source\PSoC4/CyFlash.c ****         #if (CY_IP_SPCIF_SYNCHRONOUS)
 526:Generated_Source\PSoC4/CyFlash.c ****             /* FM-Lite Clock Restore */
 527:Generated_Source\PSoC4/CyFlash.c ****             parameters[0u] =
 528:Generated_Source\PSoC4/CyFlash.c ****                 (uint32) ((CY_FLASH_KEY_TWO(CY_FLASH_API_OPCODE_CLK_RESTORE) <<  CY_FLASH_PARAM_KEY
 529:Generated_Source\PSoC4/CyFlash.c ****                             CY_FLASH_KEY_ONE);
 530:Generated_Source\PSoC4/CyFlash.c ****             parameters[1u] = (uint32) &cySysFlashBackup.clockSettings[0u];
 531:Generated_Source\PSoC4/CyFlash.c ****             CY_FLASH_CPUSS_SYSARG_REG = (uint32) &parameters[0u];
 532:Generated_Source\PSoC4/CyFlash.c ****             CY_FLASH_CPUSS_SYSREQ_REG = CY_FLASH_CPUSS_REQ_START | CY_FLASH_API_OPCODE_CLK_RESTORE;
 533:Generated_Source\PSoC4/CyFlash.c ****             retValue = CY_FLASH_API_RETURN;
 534:Generated_Source\PSoC4/CyFlash.c ****         #endif /* (CY_IP_SPCIF_SYNCHRONOUS) */
 535:Generated_Source\PSoC4/CyFlash.c **** 
 536:Generated_Source\PSoC4/CyFlash.c ****     #endif  /* (CY_PSOC4_4000) */
 537:Generated_Source\PSoC4/CyFlash.c **** 
 538:Generated_Source\PSoC4/CyFlash.c **** #endif  /* (CY_IP_FM) */
 539:Generated_Source\PSoC4/CyFlash.c **** 
 540:Generated_Source\PSoC4/CyFlash.c ****     return (retValue);
 401              		.loc 1 540 0
 402 000a 7B68     		ldr	r3, [r7, #4]
 541:Generated_Source\PSoC4/CyFlash.c **** }
 403              		.loc 1 541 0
 404 000c 1800     		movs	r0, r3
 405 000e BD46     		mov	sp, r7
 406 0010 02B0     		add	sp, sp, #8
 407              		@ sp needed
 408 0012 80BD     		pop	{r7, pc}
 409              		.cfi_endproc
 410              	.LFE4:
 411              		.size	CySysFlashClockRestore, .-CySysFlashClockRestore
 412              		.text
 413              	.Letext0:
 414              		.file 2 "Generated_Source\\PSoC4\\cytypes.h"