ARM GAS  C:\Users\ADMINI~1\AppData\Local\Temp\ccUIuBBY.s 			page 1


   1              		.syntax unified
   2              		.cpu cortex-m0
   3              		.fpu softvfp
   4              		.eabi_attribute 20, 1
   5              		.eabi_attribute 21, 1
   6              		.eabi_attribute 23, 3
   7              		.eabi_attribute 24, 1
   8              		.eabi_attribute 25, 1
   9              		.eabi_attribute 26, 1
  10              		.eabi_attribute 30, 6
  11              		.eabi_attribute 34, 0
  12              		.eabi_attribute 18, 4
  13              		.thumb
  14              		.syntax unified
  15              		.file	"I2C_I2C.c"
  16              		.text
  17              	.Ltext0:
  18              		.cfi_sections	.debug_frame
  19              		.comm	I2C_state,1,1
  20              		.section	.text.I2C_I2CInit,"ax",%progbits
  21              		.align	2
  22              		.global	I2C_I2CInit
  23              		.code	16
  24              		.thumb_func
  25              		.type	I2C_I2CInit, %function
  26              	I2C_I2CInit:
  27              	.LFB1:
  28              		.file 1 "Generated_Source\\PSoC4\\I2C_I2C.c"
   1:Generated_Source\PSoC4/I2C_I2C.c **** /*******************************************************************************
   2:Generated_Source\PSoC4/I2C_I2C.c **** * File Name: I2C_I2C.c
   3:Generated_Source\PSoC4/I2C_I2C.c **** * Version 3.0
   4:Generated_Source\PSoC4/I2C_I2C.c **** *
   5:Generated_Source\PSoC4/I2C_I2C.c **** * Description:
   6:Generated_Source\PSoC4/I2C_I2C.c **** *  This file provides the source code to the API for the SCB Component in
   7:Generated_Source\PSoC4/I2C_I2C.c **** *  I2C mode.
   8:Generated_Source\PSoC4/I2C_I2C.c **** *
   9:Generated_Source\PSoC4/I2C_I2C.c **** * Note:
  10:Generated_Source\PSoC4/I2C_I2C.c **** *
  11:Generated_Source\PSoC4/I2C_I2C.c **** *******************************************************************************
  12:Generated_Source\PSoC4/I2C_I2C.c **** * Copyright 2013-2015, Cypress Semiconductor Corporation.  All rights reserved.
  13:Generated_Source\PSoC4/I2C_I2C.c **** * You may use this file only in accordance with the license, terms, conditions,
  14:Generated_Source\PSoC4/I2C_I2C.c **** * disclaimers, and limitations in the end user license agreement accompanying
  15:Generated_Source\PSoC4/I2C_I2C.c **** * the software package with which this file was provided.
  16:Generated_Source\PSoC4/I2C_I2C.c **** *******************************************************************************/
  17:Generated_Source\PSoC4/I2C_I2C.c **** 
  18:Generated_Source\PSoC4/I2C_I2C.c **** #include "I2C_PVT.h"
  19:Generated_Source\PSoC4/I2C_I2C.c **** #include "I2C_I2C_PVT.h"
  20:Generated_Source\PSoC4/I2C_I2C.c **** 
  21:Generated_Source\PSoC4/I2C_I2C.c **** 
  22:Generated_Source\PSoC4/I2C_I2C.c **** /***************************************
  23:Generated_Source\PSoC4/I2C_I2C.c **** *      I2C Private Vars
  24:Generated_Source\PSoC4/I2C_I2C.c **** ***************************************/
  25:Generated_Source\PSoC4/I2C_I2C.c **** 
  26:Generated_Source\PSoC4/I2C_I2C.c **** volatile uint8 I2C_state;  /* Current state of I2C FSM */
  27:Generated_Source\PSoC4/I2C_I2C.c **** 
  28:Generated_Source\PSoC4/I2C_I2C.c **** #if(I2C_SCB_MODE_UNCONFIG_CONST_CFG)
  29:Generated_Source\PSoC4/I2C_I2C.c **** 
ARM GAS  C:\Users\ADMINI~1\AppData\Local\Temp\ccUIuBBY.s 			page 2


  30:Generated_Source\PSoC4/I2C_I2C.c ****     /***************************************
  31:Generated_Source\PSoC4/I2C_I2C.c ****     *  Configuration Structure Initialization
  32:Generated_Source\PSoC4/I2C_I2C.c ****     ***************************************/
  33:Generated_Source\PSoC4/I2C_I2C.c **** 
  34:Generated_Source\PSoC4/I2C_I2C.c ****     /* Constant configuration of I2C */
  35:Generated_Source\PSoC4/I2C_I2C.c ****     const I2C_I2C_INIT_STRUCT I2C_configI2C =
  36:Generated_Source\PSoC4/I2C_I2C.c ****     {
  37:Generated_Source\PSoC4/I2C_I2C.c ****         I2C_I2C_MODE,
  38:Generated_Source\PSoC4/I2C_I2C.c ****         I2C_I2C_OVS_FACTOR_LOW,
  39:Generated_Source\PSoC4/I2C_I2C.c ****         I2C_I2C_OVS_FACTOR_HIGH,
  40:Generated_Source\PSoC4/I2C_I2C.c ****         I2C_I2C_MEDIAN_FILTER_ENABLE,
  41:Generated_Source\PSoC4/I2C_I2C.c ****         I2C_I2C_SLAVE_ADDRESS,
  42:Generated_Source\PSoC4/I2C_I2C.c ****         I2C_I2C_SLAVE_ADDRESS_MASK,
  43:Generated_Source\PSoC4/I2C_I2C.c ****         I2C_I2C_ACCEPT_ADDRESS,
  44:Generated_Source\PSoC4/I2C_I2C.c ****         I2C_I2C_WAKE_ENABLE,
  45:Generated_Source\PSoC4/I2C_I2C.c ****         I2C_I2C_BYTE_MODE_ENABLE,
  46:Generated_Source\PSoC4/I2C_I2C.c ****         I2C_I2C_DATA_RATE,
  47:Generated_Source\PSoC4/I2C_I2C.c ****         I2C_I2C_ACCEPT_GENERAL_CALL,
  48:Generated_Source\PSoC4/I2C_I2C.c ****     };
  49:Generated_Source\PSoC4/I2C_I2C.c **** 
  50:Generated_Source\PSoC4/I2C_I2C.c ****     /*******************************************************************************
  51:Generated_Source\PSoC4/I2C_I2C.c ****     * Function Name: I2C_I2CInit
  52:Generated_Source\PSoC4/I2C_I2C.c ****     ********************************************************************************
  53:Generated_Source\PSoC4/I2C_I2C.c ****     *
  54:Generated_Source\PSoC4/I2C_I2C.c ****     * Summary:
  55:Generated_Source\PSoC4/I2C_I2C.c ****     *  Configures the SCB for I2C operation.
  56:Generated_Source\PSoC4/I2C_I2C.c ****     *
  57:Generated_Source\PSoC4/I2C_I2C.c ****     * Parameters:
  58:Generated_Source\PSoC4/I2C_I2C.c ****     *  config:  Pointer to a structure that contains the following ordered list of
  59:Generated_Source\PSoC4/I2C_I2C.c ****     *           fields. These fields match the selections available in the
  60:Generated_Source\PSoC4/I2C_I2C.c ****     *           customizer.
  61:Generated_Source\PSoC4/I2C_I2C.c ****     *
  62:Generated_Source\PSoC4/I2C_I2C.c ****     * Return:
  63:Generated_Source\PSoC4/I2C_I2C.c ****     *  None
  64:Generated_Source\PSoC4/I2C_I2C.c ****     *
  65:Generated_Source\PSoC4/I2C_I2C.c ****     *******************************************************************************/
  66:Generated_Source\PSoC4/I2C_I2C.c ****     void I2C_I2CInit(const I2C_I2C_INIT_STRUCT *config)
  67:Generated_Source\PSoC4/I2C_I2C.c ****     {
  68:Generated_Source\PSoC4/I2C_I2C.c ****         uint32 medianFilter;
  69:Generated_Source\PSoC4/I2C_I2C.c ****         uint32 locEnableWake;
  70:Generated_Source\PSoC4/I2C_I2C.c **** 
  71:Generated_Source\PSoC4/I2C_I2C.c ****         if(NULL == config)
  72:Generated_Source\PSoC4/I2C_I2C.c ****         {
  73:Generated_Source\PSoC4/I2C_I2C.c ****             CYASSERT(0u != 0u); /* Halt execution due to bad function parameter */
  74:Generated_Source\PSoC4/I2C_I2C.c ****         }
  75:Generated_Source\PSoC4/I2C_I2C.c ****         else
  76:Generated_Source\PSoC4/I2C_I2C.c ****         {
  77:Generated_Source\PSoC4/I2C_I2C.c ****             /* Configure pins */
  78:Generated_Source\PSoC4/I2C_I2C.c ****             I2C_SetPins(I2C_SCB_MODE_I2C, I2C_DUMMY_PARAM,
  79:Generated_Source\PSoC4/I2C_I2C.c ****                                      I2C_DUMMY_PARAM);
  80:Generated_Source\PSoC4/I2C_I2C.c **** 
  81:Generated_Source\PSoC4/I2C_I2C.c ****             /* Store internal configuration */
  82:Generated_Source\PSoC4/I2C_I2C.c ****             I2C_scbMode       = (uint8) I2C_SCB_MODE_I2C;
  83:Generated_Source\PSoC4/I2C_I2C.c ****             I2C_scbEnableWake = (uint8) config->enableWake;
  84:Generated_Source\PSoC4/I2C_I2C.c ****             I2C_scbEnableIntr = (uint8) I2C_SCB_IRQ_INTERNAL;
  85:Generated_Source\PSoC4/I2C_I2C.c **** 
  86:Generated_Source\PSoC4/I2C_I2C.c ****             I2C_mode          = (uint8) config->mode;
ARM GAS  C:\Users\ADMINI~1\AppData\Local\Temp\ccUIuBBY.s 			page 3


  87:Generated_Source\PSoC4/I2C_I2C.c ****             I2C_acceptAddr    = (uint8) config->acceptAddr;
  88:Generated_Source\PSoC4/I2C_I2C.c **** 
  89:Generated_Source\PSoC4/I2C_I2C.c ****         #if (I2C_CY_SCBIP_V0)
  90:Generated_Source\PSoC4/I2C_I2C.c ****             /* Adjust SDA filter settings. Ticket ID#150521 */
  91:Generated_Source\PSoC4/I2C_I2C.c ****             I2C_SET_I2C_CFG_SDA_FILT_TRIM(I2C_EC_AM_I2C_CFG_SDA_FILT_TRIM);
  92:Generated_Source\PSoC4/I2C_I2C.c ****         #endif /* (I2C_CY_SCBIP_V0) */
  93:Generated_Source\PSoC4/I2C_I2C.c **** 
  94:Generated_Source\PSoC4/I2C_I2C.c ****             /* Adjust AF and DF filter settings. Ticket ID#176179 */
  95:Generated_Source\PSoC4/I2C_I2C.c ****             if (((I2C_I2C_MODE_SLAVE != config->mode) &&
  96:Generated_Source\PSoC4/I2C_I2C.c ****                  (config->dataRate <= I2C_I2C_DATA_RATE_FS_MODE_MAX)) ||
  97:Generated_Source\PSoC4/I2C_I2C.c ****                  (I2C_I2C_MODE_SLAVE == config->mode))
  98:Generated_Source\PSoC4/I2C_I2C.c ****             {
  99:Generated_Source\PSoC4/I2C_I2C.c ****                 /* AF = 1, DF = 0 */
 100:Generated_Source\PSoC4/I2C_I2C.c ****                 I2C_I2C_CFG_ANALOG_FITER_ENABLE;
 101:Generated_Source\PSoC4/I2C_I2C.c ****                 medianFilter = I2C_DIGITAL_FILTER_DISABLE;
 102:Generated_Source\PSoC4/I2C_I2C.c ****             }
 103:Generated_Source\PSoC4/I2C_I2C.c ****             else
 104:Generated_Source\PSoC4/I2C_I2C.c ****             {
 105:Generated_Source\PSoC4/I2C_I2C.c ****                 /* AF = 0, DF = 1 */
 106:Generated_Source\PSoC4/I2C_I2C.c ****                 I2C_I2C_CFG_ANALOG_FITER_DISABLE;
 107:Generated_Source\PSoC4/I2C_I2C.c ****                 medianFilter = I2C_DIGITAL_FILTER_ENABLE;
 108:Generated_Source\PSoC4/I2C_I2C.c ****             }
 109:Generated_Source\PSoC4/I2C_I2C.c **** 
 110:Generated_Source\PSoC4/I2C_I2C.c ****         #if (!I2C_CY_SCBIP_V0)
 111:Generated_Source\PSoC4/I2C_I2C.c ****             locEnableWake = (I2C_I2C_MULTI_MASTER_SLAVE) ? (0u) : (config->enableWake);
 112:Generated_Source\PSoC4/I2C_I2C.c ****         #else
 113:Generated_Source\PSoC4/I2C_I2C.c ****             locEnableWake = config->enableWake;
 114:Generated_Source\PSoC4/I2C_I2C.c ****         #endif /* (!I2C_CY_SCBIP_V0) */
 115:Generated_Source\PSoC4/I2C_I2C.c **** 
 116:Generated_Source\PSoC4/I2C_I2C.c ****             /* Configure I2C interface */
 117:Generated_Source\PSoC4/I2C_I2C.c ****             I2C_CTRL_REG     = I2C_GET_CTRL_BYTE_MODE  (config->enableByteMode) |
 118:Generated_Source\PSoC4/I2C_I2C.c ****                                             I2C_GET_CTRL_ADDR_ACCEPT(config->acceptAddr)     |
 119:Generated_Source\PSoC4/I2C_I2C.c ****                                             I2C_GET_CTRL_EC_AM_MODE (locEnableWake);
 120:Generated_Source\PSoC4/I2C_I2C.c **** 
 121:Generated_Source\PSoC4/I2C_I2C.c ****             I2C_I2C_CTRL_REG = I2C_GET_I2C_CTRL_HIGH_PHASE_OVS(config->oversampleHigh) |
 122:Generated_Source\PSoC4/I2C_I2C.c ****                     I2C_GET_I2C_CTRL_LOW_PHASE_OVS (config->oversampleLow)                         
 123:Generated_Source\PSoC4/I2C_I2C.c ****                     I2C_GET_I2C_CTRL_S_GENERAL_IGNORE((uint32)(0u == config->acceptGeneralAddr))   
 124:Generated_Source\PSoC4/I2C_I2C.c ****                     I2C_GET_I2C_CTRL_SL_MSTR_MODE  (config->mode);
 125:Generated_Source\PSoC4/I2C_I2C.c **** 
 126:Generated_Source\PSoC4/I2C_I2C.c ****             /* Configure RX direction */
 127:Generated_Source\PSoC4/I2C_I2C.c ****             I2C_RX_CTRL_REG      = I2C_GET_RX_CTRL_MEDIAN(medianFilter) |
 128:Generated_Source\PSoC4/I2C_I2C.c ****                                                 I2C_I2C_RX_CTRL;
 129:Generated_Source\PSoC4/I2C_I2C.c ****             I2C_RX_FIFO_CTRL_REG = I2C_CLEAR_REG;
 130:Generated_Source\PSoC4/I2C_I2C.c **** 
 131:Generated_Source\PSoC4/I2C_I2C.c ****             /* Set default address and mask */
 132:Generated_Source\PSoC4/I2C_I2C.c ****             I2C_RX_MATCH_REG    = ((I2C_I2C_SLAVE) ?
 133:Generated_Source\PSoC4/I2C_I2C.c ****                                                 (I2C_GET_I2C_8BIT_ADDRESS(config->slaveAddr) |
 134:Generated_Source\PSoC4/I2C_I2C.c ****                                                  I2C_GET_RX_MATCH_MASK(config->slaveAddrMask)) :
 135:Generated_Source\PSoC4/I2C_I2C.c ****                                                 (I2C_CLEAR_REG));
 136:Generated_Source\PSoC4/I2C_I2C.c **** 
 137:Generated_Source\PSoC4/I2C_I2C.c **** 
 138:Generated_Source\PSoC4/I2C_I2C.c ****             /* Configure TX direction */
 139:Generated_Source\PSoC4/I2C_I2C.c ****             I2C_TX_CTRL_REG      = I2C_I2C_TX_CTRL;
 140:Generated_Source\PSoC4/I2C_I2C.c ****             I2C_TX_FIFO_CTRL_REG = I2C_CLEAR_REG;
 141:Generated_Source\PSoC4/I2C_I2C.c **** 
 142:Generated_Source\PSoC4/I2C_I2C.c ****             /* Configure interrupt with I2C handler but do not enable it */
 143:Generated_Source\PSoC4/I2C_I2C.c ****             CyIntDisable    (I2C_ISR_NUMBER);
ARM GAS  C:\Users\ADMINI~1\AppData\Local\Temp\ccUIuBBY.s 			page 4


 144:Generated_Source\PSoC4/I2C_I2C.c ****             CyIntSetPriority(I2C_ISR_NUMBER, I2C_ISR_PRIORITY);
 145:Generated_Source\PSoC4/I2C_I2C.c ****             (void) CyIntSetVector(I2C_ISR_NUMBER, &I2C_I2C_ISR);
 146:Generated_Source\PSoC4/I2C_I2C.c **** 
 147:Generated_Source\PSoC4/I2C_I2C.c ****             /* Configure interrupt sources */
 148:Generated_Source\PSoC4/I2C_I2C.c ****         #if(!I2C_CY_SCBIP_V1)
 149:Generated_Source\PSoC4/I2C_I2C.c ****             I2C_INTR_SPI_EC_MASK_REG = I2C_NO_INTR_SOURCES;
 150:Generated_Source\PSoC4/I2C_I2C.c ****         #endif /* (!I2C_CY_SCBIP_V1) */
 151:Generated_Source\PSoC4/I2C_I2C.c **** 
 152:Generated_Source\PSoC4/I2C_I2C.c ****             I2C_INTR_I2C_EC_MASK_REG = I2C_NO_INTR_SOURCES;
 153:Generated_Source\PSoC4/I2C_I2C.c ****             I2C_INTR_RX_MASK_REG     = I2C_NO_INTR_SOURCES;
 154:Generated_Source\PSoC4/I2C_I2C.c ****             I2C_INTR_TX_MASK_REG     = I2C_NO_INTR_SOURCES;
 155:Generated_Source\PSoC4/I2C_I2C.c **** 
 156:Generated_Source\PSoC4/I2C_I2C.c ****             I2C_INTR_SLAVE_MASK_REG  = ((I2C_I2C_SLAVE) ?
 157:Generated_Source\PSoC4/I2C_I2C.c ****                             (I2C_GET_INTR_SLAVE_I2C_GENERAL(config->acceptGeneralAddr) |
 158:Generated_Source\PSoC4/I2C_I2C.c ****                              I2C_I2C_INTR_SLAVE_MASK) : (I2C_CLEAR_REG));
 159:Generated_Source\PSoC4/I2C_I2C.c **** 
 160:Generated_Source\PSoC4/I2C_I2C.c ****             I2C_INTR_MASTER_MASK_REG = ((I2C_I2C_MASTER) ?
 161:Generated_Source\PSoC4/I2C_I2C.c ****                                                      (I2C_I2C_INTR_MASTER_MASK) :
 162:Generated_Source\PSoC4/I2C_I2C.c ****                                                      (I2C_CLEAR_REG));
 163:Generated_Source\PSoC4/I2C_I2C.c **** 
 164:Generated_Source\PSoC4/I2C_I2C.c ****             /* Configure global variables */
 165:Generated_Source\PSoC4/I2C_I2C.c ****             I2C_state = I2C_I2C_FSM_IDLE;
 166:Generated_Source\PSoC4/I2C_I2C.c **** 
 167:Generated_Source\PSoC4/I2C_I2C.c ****             /* Internal slave variables */
 168:Generated_Source\PSoC4/I2C_I2C.c ****             I2C_slStatus        = 0u;
 169:Generated_Source\PSoC4/I2C_I2C.c ****             I2C_slRdBufIndex    = 0u;
 170:Generated_Source\PSoC4/I2C_I2C.c ****             I2C_slWrBufIndex    = 0u;
 171:Generated_Source\PSoC4/I2C_I2C.c ****             I2C_slOverFlowCount = 0u;
 172:Generated_Source\PSoC4/I2C_I2C.c **** 
 173:Generated_Source\PSoC4/I2C_I2C.c ****             /* Internal master variables */
 174:Generated_Source\PSoC4/I2C_I2C.c ****             I2C_mstrStatus     = 0u;
 175:Generated_Source\PSoC4/I2C_I2C.c ****             I2C_mstrRdBufIndex = 0u;
 176:Generated_Source\PSoC4/I2C_I2C.c ****             I2C_mstrWrBufIndex = 0u;
 177:Generated_Source\PSoC4/I2C_I2C.c ****         }
 178:Generated_Source\PSoC4/I2C_I2C.c ****     }
 179:Generated_Source\PSoC4/I2C_I2C.c **** 
 180:Generated_Source\PSoC4/I2C_I2C.c **** #else
 181:Generated_Source\PSoC4/I2C_I2C.c **** 
 182:Generated_Source\PSoC4/I2C_I2C.c ****     /*******************************************************************************
 183:Generated_Source\PSoC4/I2C_I2C.c ****     * Function Name: I2C_I2CInit
 184:Generated_Source\PSoC4/I2C_I2C.c ****     ********************************************************************************
 185:Generated_Source\PSoC4/I2C_I2C.c ****     *
 186:Generated_Source\PSoC4/I2C_I2C.c ****     * Summary:
 187:Generated_Source\PSoC4/I2C_I2C.c ****     *  Configures the SCB for the I2C operation.
 188:Generated_Source\PSoC4/I2C_I2C.c ****     *
 189:Generated_Source\PSoC4/I2C_I2C.c ****     * Parameters:
 190:Generated_Source\PSoC4/I2C_I2C.c ****     *  None
 191:Generated_Source\PSoC4/I2C_I2C.c ****     *
 192:Generated_Source\PSoC4/I2C_I2C.c ****     * Return:
 193:Generated_Source\PSoC4/I2C_I2C.c ****     *  None
 194:Generated_Source\PSoC4/I2C_I2C.c ****     *
 195:Generated_Source\PSoC4/I2C_I2C.c ****     *******************************************************************************/
 196:Generated_Source\PSoC4/I2C_I2C.c ****     void I2C_I2CInit(void)
 197:Generated_Source\PSoC4/I2C_I2C.c ****     {
  29              		.loc 1 197 0
  30              		.cfi_startproc
  31              		@ args = 0, pretend = 0, frame = 0
ARM GAS  C:\Users\ADMINI~1\AppData\Local\Temp\ccUIuBBY.s 			page 5


  32              		@ frame_needed = 1, uses_anonymous_args = 0
  33 0000 80B5     		push	{r7, lr}
  34              		.cfi_def_cfa_offset 8
  35              		.cfi_offset 7, -8
  36              		.cfi_offset 14, -4
  37 0002 00AF     		add	r7, sp, #0
  38              		.cfi_def_cfa_register 7
 198:Generated_Source\PSoC4/I2C_I2C.c ****     #if(I2C_CY_SCBIP_V0)
 199:Generated_Source\PSoC4/I2C_I2C.c ****         /* Adjust SDA filter settings. Ticket ID#150521 */
 200:Generated_Source\PSoC4/I2C_I2C.c ****         I2C_SET_I2C_CFG_SDA_FILT_TRIM(I2C_EC_AM_I2C_CFG_SDA_FILT_TRIM);
 201:Generated_Source\PSoC4/I2C_I2C.c ****     #endif /* (I2C_CY_SCBIP_V0) */
 202:Generated_Source\PSoC4/I2C_I2C.c **** 
 203:Generated_Source\PSoC4/I2C_I2C.c ****         /* Adjust AF and DF filter settings. Ticket ID#176179 */
 204:Generated_Source\PSoC4/I2C_I2C.c ****         I2C_I2C_CFG_ANALOG_FITER_ENABLE_ADJ;
 205:Generated_Source\PSoC4/I2C_I2C.c **** 
 206:Generated_Source\PSoC4/I2C_I2C.c ****         /* Configure I2C interface */
 207:Generated_Source\PSoC4/I2C_I2C.c ****         I2C_CTRL_REG     = I2C_I2C_DEFAULT_CTRL;
  39              		.loc 1 207 0
  40 0004 214B     		ldr	r3, .L2
  41 0006 0022     		movs	r2, #0
  42 0008 1A60     		str	r2, [r3]
 208:Generated_Source\PSoC4/I2C_I2C.c ****         I2C_I2C_CTRL_REG = I2C_I2C_DEFAULT_I2C_CTRL;
  43              		.loc 1 208 0
  44 000a 214B     		ldr	r3, .L2+4
  45 000c 214A     		ldr	r2, .L2+8
  46 000e 1A60     		str	r2, [r3]
 209:Generated_Source\PSoC4/I2C_I2C.c **** 
 210:Generated_Source\PSoC4/I2C_I2C.c ****         /* Configure RX direction */
 211:Generated_Source\PSoC4/I2C_I2C.c ****         I2C_RX_CTRL_REG      = I2C_I2C_DEFAULT_RX_CTRL;
  47              		.loc 1 211 0
  48 0010 214B     		ldr	r3, .L2+12
  49 0012 224A     		ldr	r2, .L2+16
  50 0014 1A60     		str	r2, [r3]
 212:Generated_Source\PSoC4/I2C_I2C.c ****         I2C_RX_FIFO_CTRL_REG = I2C_I2C_DEFAULT_RX_FIFO_CTRL;
  51              		.loc 1 212 0
  52 0016 224B     		ldr	r3, .L2+20
  53 0018 0022     		movs	r2, #0
  54 001a 1A60     		str	r2, [r3]
 213:Generated_Source\PSoC4/I2C_I2C.c **** 
 214:Generated_Source\PSoC4/I2C_I2C.c ****         /* Set default address and mask */
 215:Generated_Source\PSoC4/I2C_I2C.c ****         I2C_RX_MATCH_REG     = I2C_I2C_DEFAULT_RX_MATCH;
  55              		.loc 1 215 0
  56 001c 214B     		ldr	r3, .L2+24
  57 001e 0022     		movs	r2, #0
  58 0020 1A60     		str	r2, [r3]
 216:Generated_Source\PSoC4/I2C_I2C.c **** 
 217:Generated_Source\PSoC4/I2C_I2C.c ****         /* Configure TX direction */
 218:Generated_Source\PSoC4/I2C_I2C.c ****         I2C_TX_CTRL_REG      = I2C_I2C_DEFAULT_TX_CTRL;
  59              		.loc 1 218 0
  60 0022 214B     		ldr	r3, .L2+28
  61 0024 1D4A     		ldr	r2, .L2+16
  62 0026 1A60     		str	r2, [r3]
 219:Generated_Source\PSoC4/I2C_I2C.c ****         I2C_TX_FIFO_CTRL_REG = I2C_I2C_DEFAULT_TX_FIFO_CTRL;
  63              		.loc 1 219 0
  64 0028 204B     		ldr	r3, .L2+32
  65 002a 0022     		movs	r2, #0
  66 002c 1A60     		str	r2, [r3]
ARM GAS  C:\Users\ADMINI~1\AppData\Local\Temp\ccUIuBBY.s 			page 6


 220:Generated_Source\PSoC4/I2C_I2C.c **** 
 221:Generated_Source\PSoC4/I2C_I2C.c ****         /* Configure interrupt with I2C handler but do not enable it */
 222:Generated_Source\PSoC4/I2C_I2C.c ****         CyIntDisable    (I2C_ISR_NUMBER);
  67              		.loc 1 222 0
  68 002e 0820     		movs	r0, #8
  69 0030 FFF7FEFF 		bl	CyIntDisable
 223:Generated_Source\PSoC4/I2C_I2C.c ****         CyIntSetPriority(I2C_ISR_NUMBER, I2C_ISR_PRIORITY);
  70              		.loc 1 223 0
  71 0034 0321     		movs	r1, #3
  72 0036 0820     		movs	r0, #8
  73 0038 FFF7FEFF 		bl	CyIntSetPriority
 224:Generated_Source\PSoC4/I2C_I2C.c ****     #if(!I2C_I2C_EXTERN_INTR_HANDLER)
 225:Generated_Source\PSoC4/I2C_I2C.c ****         (void) CyIntSetVector(I2C_ISR_NUMBER, &I2C_I2C_ISR);
  74              		.loc 1 225 0
  75 003c 1C4B     		ldr	r3, .L2+36
  76 003e 1900     		movs	r1, r3
  77 0040 0820     		movs	r0, #8
  78 0042 FFF7FEFF 		bl	CyIntSetVector
 226:Generated_Source\PSoC4/I2C_I2C.c ****     #endif /* (I2C_I2C_EXTERN_INTR_HANDLER) */
 227:Generated_Source\PSoC4/I2C_I2C.c **** 
 228:Generated_Source\PSoC4/I2C_I2C.c ****         /* Configure interrupt sources */
 229:Generated_Source\PSoC4/I2C_I2C.c ****     #if(!I2C_CY_SCBIP_V1)
 230:Generated_Source\PSoC4/I2C_I2C.c ****         I2C_INTR_SPI_EC_MASK_REG = I2C_I2C_DEFAULT_INTR_SPI_EC_MASK;
  79              		.loc 1 230 0
  80 0046 1B4B     		ldr	r3, .L2+40
  81 0048 0022     		movs	r2, #0
  82 004a 1A60     		str	r2, [r3]
 231:Generated_Source\PSoC4/I2C_I2C.c ****     #endif /* (!I2C_CY_SCBIP_V1) */
 232:Generated_Source\PSoC4/I2C_I2C.c **** 
 233:Generated_Source\PSoC4/I2C_I2C.c ****         I2C_INTR_I2C_EC_MASK_REG = I2C_I2C_DEFAULT_INTR_I2C_EC_MASK;
  83              		.loc 1 233 0
  84 004c 1A4B     		ldr	r3, .L2+44
  85 004e 0022     		movs	r2, #0
  86 0050 1A60     		str	r2, [r3]
 234:Generated_Source\PSoC4/I2C_I2C.c ****         I2C_INTR_SLAVE_MASK_REG  = I2C_I2C_DEFAULT_INTR_SLAVE_MASK;
  87              		.loc 1 234 0
  88 0052 1A4B     		ldr	r3, .L2+48
  89 0054 0022     		movs	r2, #0
  90 0056 1A60     		str	r2, [r3]
 235:Generated_Source\PSoC4/I2C_I2C.c ****         I2C_INTR_MASTER_MASK_REG = I2C_I2C_DEFAULT_INTR_MASTER_MASK;
  91              		.loc 1 235 0
  92 0058 194B     		ldr	r3, .L2+52
  93 005a 1422     		movs	r2, #20
  94 005c FF32     		adds	r2, r2, #255
  95 005e 1A60     		str	r2, [r3]
 236:Generated_Source\PSoC4/I2C_I2C.c ****         I2C_INTR_RX_MASK_REG     = I2C_I2C_DEFAULT_INTR_RX_MASK;
  96              		.loc 1 236 0
  97 0060 184B     		ldr	r3, .L2+56
  98 0062 0022     		movs	r2, #0
  99 0064 1A60     		str	r2, [r3]
 237:Generated_Source\PSoC4/I2C_I2C.c ****         I2C_INTR_TX_MASK_REG     = I2C_I2C_DEFAULT_INTR_TX_MASK;
 100              		.loc 1 237 0
 101 0066 184B     		ldr	r3, .L2+60
 102 0068 0022     		movs	r2, #0
 103 006a 1A60     		str	r2, [r3]
 238:Generated_Source\PSoC4/I2C_I2C.c **** 
 239:Generated_Source\PSoC4/I2C_I2C.c ****         /* Configure global variables */
ARM GAS  C:\Users\ADMINI~1\AppData\Local\Temp\ccUIuBBY.s 			page 7


 240:Generated_Source\PSoC4/I2C_I2C.c ****         I2C_state = I2C_I2C_FSM_IDLE;
 104              		.loc 1 240 0
 105 006c 174B     		ldr	r3, .L2+64
 106 006e 1022     		movs	r2, #16
 107 0070 1A70     		strb	r2, [r3]
 241:Generated_Source\PSoC4/I2C_I2C.c **** 
 242:Generated_Source\PSoC4/I2C_I2C.c ****     #if(I2C_I2C_SLAVE)
 243:Generated_Source\PSoC4/I2C_I2C.c ****         /* Internal slave variable */
 244:Generated_Source\PSoC4/I2C_I2C.c ****         I2C_slStatus        = 0u;
 245:Generated_Source\PSoC4/I2C_I2C.c ****         I2C_slRdBufIndex    = 0u;
 246:Generated_Source\PSoC4/I2C_I2C.c ****         I2C_slWrBufIndex    = 0u;
 247:Generated_Source\PSoC4/I2C_I2C.c ****         I2C_slOverFlowCount = 0u;
 248:Generated_Source\PSoC4/I2C_I2C.c ****     #endif /* (I2C_I2C_SLAVE) */
 249:Generated_Source\PSoC4/I2C_I2C.c **** 
 250:Generated_Source\PSoC4/I2C_I2C.c ****     #if(I2C_I2C_MASTER)
 251:Generated_Source\PSoC4/I2C_I2C.c ****     /* Internal master variable */
 252:Generated_Source\PSoC4/I2C_I2C.c ****         I2C_mstrStatus     = 0u;
 108              		.loc 1 252 0
 109 0072 174B     		ldr	r3, .L2+68
 110 0074 0022     		movs	r2, #0
 111 0076 1A80     		strh	r2, [r3]
 253:Generated_Source\PSoC4/I2C_I2C.c ****         I2C_mstrRdBufIndex = 0u;
 112              		.loc 1 253 0
 113 0078 164B     		ldr	r3, .L2+72
 114 007a 0022     		movs	r2, #0
 115 007c 1A60     		str	r2, [r3]
 254:Generated_Source\PSoC4/I2C_I2C.c ****         I2C_mstrWrBufIndex = 0u;
 116              		.loc 1 254 0
 117 007e 164B     		ldr	r3, .L2+76
 118 0080 0022     		movs	r2, #0
 119 0082 1A60     		str	r2, [r3]
 255:Generated_Source\PSoC4/I2C_I2C.c ****     #endif /* (I2C_I2C_MASTER) */
 256:Generated_Source\PSoC4/I2C_I2C.c ****     }
 120              		.loc 1 256 0
 121 0084 C046     		nop
 122 0086 BD46     		mov	sp, r7
 123              		@ sp needed
 124 0088 80BD     		pop	{r7, pc}
 125              	.L3:
 126 008a C046     		.align	2
 127              	.L2:
 128 008c 00002440 		.word	1076101120
 129 0090 60002440 		.word	1076101216
 130 0094 77080080 		.word	-2147481481
 131 0098 00032440 		.word	1076101888
 132 009c 07010080 		.word	-2147483385
 133 00a0 04032440 		.word	1076101892
 134 00a4 10032440 		.word	1076101904
 135 00a8 00022440 		.word	1076101632
 136 00ac 04022440 		.word	1076101636
 137 00b0 00000000 		.word	I2C_I2C_ISR
 138 00b4 C80E2440 		.word	1076104904
 139 00b8 880E2440 		.word	1076104840
 140 00bc 480F2440 		.word	1076105032
 141 00c0 080F2440 		.word	1076104968
 142 00c4 C80F2440 		.word	1076105160
 143 00c8 880F2440 		.word	1076105096
ARM GAS  C:\Users\ADMINI~1\AppData\Local\Temp\ccUIuBBY.s 			page 8


 144 00cc 00000000 		.word	I2C_state
 145 00d0 00000000 		.word	I2C_mstrStatus
 146 00d4 00000000 		.word	I2C_mstrRdBufIndex
 147 00d8 00000000 		.word	I2C_mstrWrBufIndex
 148              		.cfi_endproc
 149              	.LFE1:
 150              		.size	I2C_I2CInit, .-I2C_I2CInit
 151              		.section	.text.I2C_I2CStop,"ax",%progbits
 152              		.align	2
 153              		.global	I2C_I2CStop
 154              		.code	16
 155              		.thumb_func
 156              		.type	I2C_I2CStop, %function
 157              	I2C_I2CStop:
 158              	.LFB2:
 257:Generated_Source\PSoC4/I2C_I2C.c **** #endif /* (I2C_SCB_MODE_UNCONFIG_CONST_CFG) */
 258:Generated_Source\PSoC4/I2C_I2C.c **** 
 259:Generated_Source\PSoC4/I2C_I2C.c **** 
 260:Generated_Source\PSoC4/I2C_I2C.c **** /*******************************************************************************
 261:Generated_Source\PSoC4/I2C_I2C.c **** * Function Name: I2C_I2CStop
 262:Generated_Source\PSoC4/I2C_I2C.c **** ********************************************************************************
 263:Generated_Source\PSoC4/I2C_I2C.c **** *
 264:Generated_Source\PSoC4/I2C_I2C.c **** * Summary:
 265:Generated_Source\PSoC4/I2C_I2C.c **** *  Resets the I2C FSM into the default state.
 266:Generated_Source\PSoC4/I2C_I2C.c **** *
 267:Generated_Source\PSoC4/I2C_I2C.c **** * Parameters:
 268:Generated_Source\PSoC4/I2C_I2C.c **** *  None
 269:Generated_Source\PSoC4/I2C_I2C.c **** *
 270:Generated_Source\PSoC4/I2C_I2C.c **** * Return:
 271:Generated_Source\PSoC4/I2C_I2C.c **** *  None
 272:Generated_Source\PSoC4/I2C_I2C.c **** *
 273:Generated_Source\PSoC4/I2C_I2C.c **** *******************************************************************************/
 274:Generated_Source\PSoC4/I2C_I2C.c **** void I2C_I2CStop(void)
 275:Generated_Source\PSoC4/I2C_I2C.c **** {
 159              		.loc 1 275 0
 160              		.cfi_startproc
 161              		@ args = 0, pretend = 0, frame = 0
 162              		@ frame_needed = 1, uses_anonymous_args = 0
 163 0000 80B5     		push	{r7, lr}
 164              		.cfi_def_cfa_offset 8
 165              		.cfi_offset 7, -8
 166              		.cfi_offset 14, -4
 167 0002 00AF     		add	r7, sp, #0
 168              		.cfi_def_cfa_register 7
 276:Generated_Source\PSoC4/I2C_I2C.c ****     I2C_state = I2C_I2C_FSM_IDLE;
 169              		.loc 1 276 0
 170 0004 024B     		ldr	r3, .L5
 171 0006 1022     		movs	r2, #16
 172 0008 1A70     		strb	r2, [r3]
 277:Generated_Source\PSoC4/I2C_I2C.c **** }
 173              		.loc 1 277 0
 174 000a C046     		nop
 175 000c BD46     		mov	sp, r7
 176              		@ sp needed
 177 000e 80BD     		pop	{r7, pc}
 178              	.L6:
 179              		.align	2
ARM GAS  C:\Users\ADMINI~1\AppData\Local\Temp\ccUIuBBY.s 			page 9


 180              	.L5:
 181 0010 00000000 		.word	I2C_state
 182              		.cfi_endproc
 183              	.LFE2:
 184              		.size	I2C_I2CStop, .-I2C_I2CStop
 185              		.text
 186              	.Letext0:
 187              		.file 2 "Generated_Source\\PSoC4/cytypes.h"
 188              		.file 3 "Generated_Source\\PSoC4\\I2C_I2C_PVT.h"