ARM GAS  C:\Users\ADMINI~1\AppData\Local\Temp\ccsy1ynt.s 			page 1


   1              		.syntax unified
   2              		.cpu cortex-m0
   3              		.fpu softvfp
   4              		.eabi_attribute 20, 1
   5              		.eabi_attribute 21, 1
   6              		.eabi_attribute 23, 3
   7              		.eabi_attribute 24, 1
   8              		.eabi_attribute 25, 1
   9              		.eabi_attribute 26, 1
  10              		.eabi_attribute 30, 6
  11              		.eabi_attribute 34, 0
  12              		.eabi_attribute 18, 4
  13              		.thumb
  14              		.syntax unified
  15              		.file	"I2C_I2C_INT.c"
  16              		.text
  17              	.Ltext0:
  18              		.cfi_sections	.debug_frame
  19              		.section	.text.I2C_I2C_ISR,"ax",%progbits
  20              		.align	2
  21              		.global	I2C_I2C_ISR
  22              		.code	16
  23              		.thumb_func
  24              		.type	I2C_I2C_ISR, %function
  25              	I2C_I2C_ISR:
  26              	.LFB1:
  27              		.file 1 "Generated_Source\\PSoC4\\I2C_I2C_INT.c"
   1:Generated_Source\PSoC4/I2C_I2C_INT.c **** /*******************************************************************************
   2:Generated_Source\PSoC4/I2C_I2C_INT.c **** * File Name: I2C_I2C_INT.c
   3:Generated_Source\PSoC4/I2C_I2C_INT.c **** * Version 3.0
   4:Generated_Source\PSoC4/I2C_I2C_INT.c **** *
   5:Generated_Source\PSoC4/I2C_I2C_INT.c **** * Description:
   6:Generated_Source\PSoC4/I2C_I2C_INT.c **** *  This file provides the source code to the Interrupt Service Routine for
   7:Generated_Source\PSoC4/I2C_I2C_INT.c **** *  the SCB Component in I2C mode.
   8:Generated_Source\PSoC4/I2C_I2C_INT.c **** *
   9:Generated_Source\PSoC4/I2C_I2C_INT.c **** * Note:
  10:Generated_Source\PSoC4/I2C_I2C_INT.c **** *
  11:Generated_Source\PSoC4/I2C_I2C_INT.c **** ********************************************************************************
  12:Generated_Source\PSoC4/I2C_I2C_INT.c **** * Copyright 2013-2015, Cypress Semiconductor Corporation.  All rights reserved.
  13:Generated_Source\PSoC4/I2C_I2C_INT.c **** * You may use this file only in accordance with the license, terms, conditions,
  14:Generated_Source\PSoC4/I2C_I2C_INT.c **** * disclaimers, and limitations in the end user license agreement accompanying
  15:Generated_Source\PSoC4/I2C_I2C_INT.c **** * the software package with which this file was provided.
  16:Generated_Source\PSoC4/I2C_I2C_INT.c **** *******************************************************************************/
  17:Generated_Source\PSoC4/I2C_I2C_INT.c **** 
  18:Generated_Source\PSoC4/I2C_I2C_INT.c **** #include "I2C_PVT.h"
  19:Generated_Source\PSoC4/I2C_I2C_INT.c **** #include "I2C_I2C_PVT.h"
  20:Generated_Source\PSoC4/I2C_I2C_INT.c **** 
  21:Generated_Source\PSoC4/I2C_I2C_INT.c **** 
  22:Generated_Source\PSoC4/I2C_I2C_INT.c **** 
  23:Generated_Source\PSoC4/I2C_I2C_INT.c **** /*******************************************************************************
  24:Generated_Source\PSoC4/I2C_I2C_INT.c **** * Function Name: I2C_I2C_ISR
  25:Generated_Source\PSoC4/I2C_I2C_INT.c **** ********************************************************************************
  26:Generated_Source\PSoC4/I2C_I2C_INT.c **** *
  27:Generated_Source\PSoC4/I2C_I2C_INT.c **** * Summary:
  28:Generated_Source\PSoC4/I2C_I2C_INT.c **** *  Handles the Interrupt Service Routine for the SCB I2C mode.
  29:Generated_Source\PSoC4/I2C_I2C_INT.c **** *
  30:Generated_Source\PSoC4/I2C_I2C_INT.c **** * Parameters:
ARM GAS  C:\Users\ADMINI~1\AppData\Local\Temp\ccsy1ynt.s 			page 2


  31:Generated_Source\PSoC4/I2C_I2C_INT.c **** *  None
  32:Generated_Source\PSoC4/I2C_I2C_INT.c **** *
  33:Generated_Source\PSoC4/I2C_I2C_INT.c **** * Return:
  34:Generated_Source\PSoC4/I2C_I2C_INT.c **** *  None
  35:Generated_Source\PSoC4/I2C_I2C_INT.c **** *
  36:Generated_Source\PSoC4/I2C_I2C_INT.c **** *******************************************************************************/
  37:Generated_Source\PSoC4/I2C_I2C_INT.c **** CY_ISR(I2C_I2C_ISR)
  38:Generated_Source\PSoC4/I2C_I2C_INT.c **** {
  28              		.loc 1 38 0
  29              		.cfi_startproc
  30              		@ args = 0, pretend = 0, frame = 8
  31              		@ frame_needed = 1, uses_anonymous_args = 0
  32 0000 80B5     		push	{r7, lr}
  33              		.cfi_def_cfa_offset 8
  34              		.cfi_offset 7, -8
  35              		.cfi_offset 14, -4
  36 0002 82B0     		sub	sp, sp, #8
  37              		.cfi_def_cfa_offset 16
  38 0004 00AF     		add	r7, sp, #0
  39              		.cfi_def_cfa_register 7
  39:Generated_Source\PSoC4/I2C_I2C_INT.c ****     uint32 diffCount;
  40:Generated_Source\PSoC4/I2C_I2C_INT.c ****     uint32 endTransfer;
  41:Generated_Source\PSoC4/I2C_I2C_INT.c **** 
  42:Generated_Source\PSoC4/I2C_I2C_INT.c **** #ifdef I2C_I2C_ISR_ENTRY_CALLBACK
  43:Generated_Source\PSoC4/I2C_I2C_INT.c ****     I2C_I2C_ISR_EntryCallback();
  44:Generated_Source\PSoC4/I2C_I2C_INT.c **** #endif /* I2C_I2C_ISR_ENTRY_CALLBACK */
  45:Generated_Source\PSoC4/I2C_I2C_INT.c ****     
  46:Generated_Source\PSoC4/I2C_I2C_INT.c **** #if (I2C_I2C_CUSTOM_ADDRESS_HANDLER_CONST)
  47:Generated_Source\PSoC4/I2C_I2C_INT.c ****     uint32 response;
  48:Generated_Source\PSoC4/I2C_I2C_INT.c **** 
  49:Generated_Source\PSoC4/I2C_I2C_INT.c ****     response = I2C_I2C_ACK_ADDR;
  50:Generated_Source\PSoC4/I2C_I2C_INT.c **** #endif /* (I2C_I2C_CUSTOM_ADDRESS_HANDLER_CONST) */
  51:Generated_Source\PSoC4/I2C_I2C_INT.c **** 
  52:Generated_Source\PSoC4/I2C_I2C_INT.c ****     endTransfer = 0u; /* Continue active transfer */
  40              		.loc 1 52 0
  41 0006 0023     		movs	r3, #0
  42 0008 3B60     		str	r3, [r7]
  53:Generated_Source\PSoC4/I2C_I2C_INT.c **** 
  54:Generated_Source\PSoC4/I2C_I2C_INT.c ****     /* Calls customer routine if registered */
  55:Generated_Source\PSoC4/I2C_I2C_INT.c ****     if(NULL != I2C_customIntrHandler)
  43              		.loc 1 55 0
  44 000a C04B     		ldr	r3, .L45
  45 000c 1B68     		ldr	r3, [r3]
  46 000e 002B     		cmp	r3, #0
  47 0010 02D0     		beq	.L2
  56:Generated_Source\PSoC4/I2C_I2C_INT.c ****     {
  57:Generated_Source\PSoC4/I2C_I2C_INT.c ****         I2C_customIntrHandler();
  48              		.loc 1 57 0
  49 0012 BE4B     		ldr	r3, .L45
  50 0014 1B68     		ldr	r3, [r3]
  51 0016 9847     		blx	r3
  52              	.L2:
  58:Generated_Source\PSoC4/I2C_I2C_INT.c ****     }
  59:Generated_Source\PSoC4/I2C_I2C_INT.c **** 
  60:Generated_Source\PSoC4/I2C_I2C_INT.c ****     if(I2C_CHECK_INTR_I2C_EC_MASKED(I2C_INTR_I2C_EC_WAKE_UP))
  53              		.loc 1 60 0
  54 0018 BD4B     		ldr	r3, .L45+4
ARM GAS  C:\Users\ADMINI~1\AppData\Local\Temp\ccsy1ynt.s 			page 3


  55 001a 1B68     		ldr	r3, [r3]
  56 001c 0122     		movs	r2, #1
  57 001e 1340     		ands	r3, r2
  58 0020 02D0     		beq	.L3
  61:Generated_Source\PSoC4/I2C_I2C_INT.c ****     {
  62:Generated_Source\PSoC4/I2C_I2C_INT.c ****         /* Mask-off after wakeup */
  63:Generated_Source\PSoC4/I2C_I2C_INT.c ****         I2C_SetI2CExtClkInterruptMode(I2C_NO_INTR_SOURCES);
  59              		.loc 1 63 0
  60 0022 BC4B     		ldr	r3, .L45+8
  61 0024 0022     		movs	r2, #0
  62 0026 1A60     		str	r2, [r3]
  63              	.L3:
  64:Generated_Source\PSoC4/I2C_I2C_INT.c ****     }
  65:Generated_Source\PSoC4/I2C_I2C_INT.c **** 
  66:Generated_Source\PSoC4/I2C_I2C_INT.c ****     /* Master and Slave error tracking:
  67:Generated_Source\PSoC4/I2C_I2C_INT.c ****     * Add the master state check to track only the master errors when the master is active or
  68:Generated_Source\PSoC4/I2C_I2C_INT.c ****     * track slave errors when the slave is active or idle.
  69:Generated_Source\PSoC4/I2C_I2C_INT.c ****     * A special MMS case: in the address phase with misplaced Start: the master sets the LOST_ARB a
  70:Generated_Source\PSoC4/I2C_I2C_INT.c ****     * slave BUS_ERR. The valid event is LOST_ARB comes from the master.
  71:Generated_Source\PSoC4/I2C_I2C_INT.c ****     */
  72:Generated_Source\PSoC4/I2C_I2C_INT.c ****     if(I2C_CHECK_I2C_FSM_MASTER)
  64              		.loc 1 72 0
  65 0028 BB4B     		ldr	r3, .L45+12
  66 002a 1B78     		ldrb	r3, [r3]
  67 002c DBB2     		uxtb	r3, r3
  68 002e 2022     		movs	r2, #32
  69 0030 1340     		ands	r3, r2
  70 0032 DBB2     		uxtb	r3, r3
  71 0034 002B     		cmp	r3, #0
  72 0036 38D0     		beq	.L4
  73:Generated_Source\PSoC4/I2C_I2C_INT.c ****     {
  74:Generated_Source\PSoC4/I2C_I2C_INT.c ****         #if(I2C_I2C_MASTER)
  75:Generated_Source\PSoC4/I2C_I2C_INT.c ****         {
  76:Generated_Source\PSoC4/I2C_I2C_INT.c ****             /* INTR_MASTER_I2C_BUS_ERROR:
  77:Generated_Source\PSoC4/I2C_I2C_INT.c ****             * A misplaced Start or Stop condition occurred on the bus: complete the transaction.
  78:Generated_Source\PSoC4/I2C_I2C_INT.c ****             * The interrupt is cleared in I2C_FSM_EXIT_IDLE.
  79:Generated_Source\PSoC4/I2C_I2C_INT.c ****             */
  80:Generated_Source\PSoC4/I2C_I2C_INT.c ****             if(I2C_CHECK_INTR_MASTER_MASKED(I2C_INTR_MASTER_I2C_BUS_ERROR))
  73              		.loc 1 80 0
  74 0038 B84B     		ldr	r3, .L45+16
  75 003a 1A68     		ldr	r2, [r3]
  76 003c 8023     		movs	r3, #128
  77 003e 5B00     		lsls	r3, r3, #1
  78 0040 1340     		ands	r3, r2
  79 0042 0AD0     		beq	.L5
  81:Generated_Source\PSoC4/I2C_I2C_INT.c ****             {
  82:Generated_Source\PSoC4/I2C_I2C_INT.c ****                 I2C_mstrStatus |= (uint16) (I2C_I2C_MSTAT_ERR_XFER |
  80              		.loc 1 82 0
  81 0044 B64B     		ldr	r3, .L45+20
  82 0046 1B88     		ldrh	r3, [r3]
  83 0048 9BB2     		uxth	r3, r3
  84 004a C022     		movs	r2, #192
  85 004c 9200     		lsls	r2, r2, #2
  86 004e 1343     		orrs	r3, r2
  87 0050 9AB2     		uxth	r2, r3
  88 0052 B34B     		ldr	r3, .L45+20
  89 0054 1A80     		strh	r2, [r3]
ARM GAS  C:\Users\ADMINI~1\AppData\Local\Temp\ccsy1ynt.s 			page 4


  83:Generated_Source\PSoC4/I2C_I2C_INT.c ****                                                          I2C_I2C_MSTAT_ERR_BUS_ERROR);
  84:Generated_Source\PSoC4/I2C_I2C_INT.c **** 
  85:Generated_Source\PSoC4/I2C_I2C_INT.c ****                 endTransfer = I2C_I2C_CMPLT_ANY_TRANSFER;
  90              		.loc 1 85 0
  91 0056 0123     		movs	r3, #1
  92 0058 3B60     		str	r3, [r7]
  93              	.L5:
  86:Generated_Source\PSoC4/I2C_I2C_INT.c ****             }
  87:Generated_Source\PSoC4/I2C_I2C_INT.c **** 
  88:Generated_Source\PSoC4/I2C_I2C_INT.c ****             /* INTR_MASTER_I2C_ARB_LOST:
  89:Generated_Source\PSoC4/I2C_I2C_INT.c ****             * The MultiMaster lost arbitrage during transaction.
  90:Generated_Source\PSoC4/I2C_I2C_INT.c ****             * A Misplaced Start or Stop condition is treated as lost arbitration when the master dr
  91:Generated_Source\PSoC4/I2C_I2C_INT.c ****             * The interrupt source is cleared in I2C_FSM_EXIT_IDLE.
  92:Generated_Source\PSoC4/I2C_I2C_INT.c ****             */
  93:Generated_Source\PSoC4/I2C_I2C_INT.c ****             if(I2C_CHECK_INTR_MASTER_MASKED(I2C_INTR_MASTER_I2C_ARB_LOST))
  94              		.loc 1 93 0
  95 005a B04B     		ldr	r3, .L45+16
  96 005c 1B68     		ldr	r3, [r3]
  97 005e 0122     		movs	r2, #1
  98 0060 1340     		ands	r3, r2
  99 0062 0AD0     		beq	.L6
  94:Generated_Source\PSoC4/I2C_I2C_INT.c ****             {
  95:Generated_Source\PSoC4/I2C_I2C_INT.c ****                 I2C_mstrStatus |= (uint16) (I2C_I2C_MSTAT_ERR_XFER |
 100              		.loc 1 95 0
 101 0064 AE4B     		ldr	r3, .L45+20
 102 0066 1B88     		ldrh	r3, [r3]
 103 0068 9BB2     		uxth	r3, r3
 104 006a 9022     		movs	r2, #144
 105 006c 9200     		lsls	r2, r2, #2
 106 006e 1343     		orrs	r3, r2
 107 0070 9AB2     		uxth	r2, r3
 108 0072 AB4B     		ldr	r3, .L45+20
 109 0074 1A80     		strh	r2, [r3]
  96:Generated_Source\PSoC4/I2C_I2C_INT.c ****                                                          I2C_I2C_MSTAT_ERR_ARB_LOST);
  97:Generated_Source\PSoC4/I2C_I2C_INT.c **** 
  98:Generated_Source\PSoC4/I2C_I2C_INT.c ****                 endTransfer = I2C_I2C_CMPLT_ANY_TRANSFER;
 110              		.loc 1 98 0
 111 0076 0123     		movs	r3, #1
 112 0078 3B60     		str	r3, [r7]
 113              	.L6:
  99:Generated_Source\PSoC4/I2C_I2C_INT.c ****             }
 100:Generated_Source\PSoC4/I2C_I2C_INT.c **** 
 101:Generated_Source\PSoC4/I2C_I2C_INT.c ****             #if(I2C_I2C_MULTI_MASTER_SLAVE)
 102:Generated_Source\PSoC4/I2C_I2C_INT.c ****             {
 103:Generated_Source\PSoC4/I2C_I2C_INT.c ****                 /* I2C_MASTER_CMD_M_START_ON_IDLE:
 104:Generated_Source\PSoC4/I2C_I2C_INT.c ****                 * MultiMaster-Slave does not generate start, because Slave was addressed.
 105:Generated_Source\PSoC4/I2C_I2C_INT.c ****                 * Pass control to slave.
 106:Generated_Source\PSoC4/I2C_I2C_INT.c ****                 */
 107:Generated_Source\PSoC4/I2C_I2C_INT.c ****                 if(I2C_CHECK_I2C_MASTER_CMD(I2C_I2C_MASTER_CMD_M_START_ON_IDLE))
 108:Generated_Source\PSoC4/I2C_I2C_INT.c ****                 {
 109:Generated_Source\PSoC4/I2C_I2C_INT.c ****                     I2C_mstrStatus |= (uint16) (I2C_I2C_MSTAT_ERR_XFER |
 110:Generated_Source\PSoC4/I2C_I2C_INT.c ****                                                              I2C_I2C_MSTAT_ERR_ABORT_XFER);
 111:Generated_Source\PSoC4/I2C_I2C_INT.c **** 
 112:Generated_Source\PSoC4/I2C_I2C_INT.c ****                     endTransfer = I2C_I2C_CMPLT_ANY_TRANSFER;
 113:Generated_Source\PSoC4/I2C_I2C_INT.c ****                 }
 114:Generated_Source\PSoC4/I2C_I2C_INT.c ****             }
 115:Generated_Source\PSoC4/I2C_I2C_INT.c ****             #endif
ARM GAS  C:\Users\ADMINI~1\AppData\Local\Temp\ccsy1ynt.s 			page 5


 116:Generated_Source\PSoC4/I2C_I2C_INT.c **** 
 117:Generated_Source\PSoC4/I2C_I2C_INT.c ****             /* The error handling common part:
 118:Generated_Source\PSoC4/I2C_I2C_INT.c ****             * Sets a completion flag of the master transaction and passes control to:
 119:Generated_Source\PSoC4/I2C_I2C_INT.c ****             *  - I2C_FSM_EXIT_IDLE - to complete transaction in case of: ARB_LOST or BUS_ERR.
 120:Generated_Source\PSoC4/I2C_I2C_INT.c ****             *  - I2C_FSM_IDLE      - to take chance for the slave to process incoming transaction.
 121:Generated_Source\PSoC4/I2C_I2C_INT.c ****             */
 122:Generated_Source\PSoC4/I2C_I2C_INT.c ****             if(0u != endTransfer)
 114              		.loc 1 122 0
 115 007a 3B68     		ldr	r3, [r7]
 116 007c 002B     		cmp	r3, #0
 117 007e 14D0     		beq	.L4
 123:Generated_Source\PSoC4/I2C_I2C_INT.c ****             {
 124:Generated_Source\PSoC4/I2C_I2C_INT.c ****                 /* Set completion flags for master */
 125:Generated_Source\PSoC4/I2C_I2C_INT.c ****                 I2C_mstrStatus |= (uint16) I2C_GET_I2C_MSTAT_CMPLT;
 118              		.loc 1 125 0
 119 0080 A54B     		ldr	r3, .L45+12
 120 0082 1B78     		ldrb	r3, [r3]
 121 0084 DBB2     		uxtb	r3, r3
 122 0086 0122     		movs	r2, #1
 123 0088 1340     		ands	r3, r2
 124 008a DBB2     		uxtb	r3, r3
 125 008c 002B     		cmp	r3, #0
 126 008e 01D0     		beq	.L8
 127              		.loc 1 125 0 is_stmt 0 discriminator 1
 128 0090 0123     		movs	r3, #1
 129 0092 00E0     		b	.L9
 130              	.L8:
 131              		.loc 1 125 0 discriminator 2
 132 0094 0223     		movs	r3, #2
 133              	.L9:
 134              		.loc 1 125 0 discriminator 4
 135 0096 A24A     		ldr	r2, .L45+20
 136 0098 1288     		ldrh	r2, [r2]
 137 009a 92B2     		uxth	r2, r2
 138 009c 1343     		orrs	r3, r2
 139 009e 9AB2     		uxth	r2, r3
 140 00a0 9F4B     		ldr	r3, .L45+20
 141 00a2 1A80     		strh	r2, [r3]
 126:Generated_Source\PSoC4/I2C_I2C_INT.c **** 
 127:Generated_Source\PSoC4/I2C_I2C_INT.c ****                 #if(I2C_I2C_MULTI_MASTER_SLAVE)
 128:Generated_Source\PSoC4/I2C_I2C_INT.c ****                 {
 129:Generated_Source\PSoC4/I2C_I2C_INT.c ****                     if(I2C_CHECK_I2C_FSM_ADDR)
 130:Generated_Source\PSoC4/I2C_I2C_INT.c ****                     {
 131:Generated_Source\PSoC4/I2C_I2C_INT.c ****                         /* Start generation is set after another master starts accessing Slave.
 132:Generated_Source\PSoC4/I2C_I2C_INT.c ****                         * Clean-up master and turn to slave. Set state to IDLE.
 133:Generated_Source\PSoC4/I2C_I2C_INT.c ****                         */
 134:Generated_Source\PSoC4/I2C_I2C_INT.c ****                         if(I2C_CHECK_I2C_MASTER_CMD(I2C_I2C_MASTER_CMD_M_START_ON_IDLE))
 135:Generated_Source\PSoC4/I2C_I2C_INT.c ****                         {
 136:Generated_Source\PSoC4/I2C_I2C_INT.c ****                             I2C_I2C_MASTER_CLEAR_START;
 137:Generated_Source\PSoC4/I2C_I2C_INT.c **** 
 138:Generated_Source\PSoC4/I2C_I2C_INT.c ****                             endTransfer = I2C_I2C_CMPLT_ANY_TRANSFER; /* Pass control to Slave */
 139:Generated_Source\PSoC4/I2C_I2C_INT.c ****                         }
 140:Generated_Source\PSoC4/I2C_I2C_INT.c ****                         /* Valid arbitration lost on the address phase happens only when: master LO
 141:Generated_Source\PSoC4/I2C_I2C_INT.c ****                         * slave BUS_ERR is cleared. Only in that case set the state to IDLE without
 142:Generated_Source\PSoC4/I2C_I2C_INT.c ****                         */
 143:Generated_Source\PSoC4/I2C_I2C_INT.c ****                         else if((!I2C_CHECK_INTR_SLAVE_MASKED(I2C_INTR_SLAVE_I2C_BUS_ERROR))
 144:Generated_Source\PSoC4/I2C_I2C_INT.c ****                                && I2C_CHECK_INTR_MASTER_MASKED(I2C_INTR_MASTER_I2C_ARB_LOST))
ARM GAS  C:\Users\ADMINI~1\AppData\Local\Temp\ccsy1ynt.s 			page 6


 145:Generated_Source\PSoC4/I2C_I2C_INT.c ****                         {
 146:Generated_Source\PSoC4/I2C_I2C_INT.c ****                             endTransfer = I2C_I2C_CMPLT_ANY_TRANSFER; /* Pass control to Slave */
 147:Generated_Source\PSoC4/I2C_I2C_INT.c ****                         }
 148:Generated_Source\PSoC4/I2C_I2C_INT.c ****                         else
 149:Generated_Source\PSoC4/I2C_I2C_INT.c ****                         {
 150:Generated_Source\PSoC4/I2C_I2C_INT.c ****                             endTransfer = 0u; /* Causes I2C_FSM_EXIT_IDLE to be set below */
 151:Generated_Source\PSoC4/I2C_I2C_INT.c ****                         }
 152:Generated_Source\PSoC4/I2C_I2C_INT.c **** 
 153:Generated_Source\PSoC4/I2C_I2C_INT.c ****                         if(0u != endTransfer) /* Clean-up master to proceed with slave */
 154:Generated_Source\PSoC4/I2C_I2C_INT.c ****                         {
 155:Generated_Source\PSoC4/I2C_I2C_INT.c ****                             I2C_CLEAR_TX_FIFO; /* Shifter keeps address, clear it */
 156:Generated_Source\PSoC4/I2C_I2C_INT.c **** 
 157:Generated_Source\PSoC4/I2C_I2C_INT.c ****                             I2C_DISABLE_MASTER_AUTO_DATA_ACK; /* In case of reading disable autoACK
 158:Generated_Source\PSoC4/I2C_I2C_INT.c **** 
 159:Generated_Source\PSoC4/I2C_I2C_INT.c ****                             /* Clean-up master interrupt sources */
 160:Generated_Source\PSoC4/I2C_I2C_INT.c ****                             I2C_ClearMasterInterruptSource(I2C_INTR_MASTER_ALL);
 161:Generated_Source\PSoC4/I2C_I2C_INT.c **** 
 162:Generated_Source\PSoC4/I2C_I2C_INT.c ****                             /* Disable data processing interrupts: they have to be cleared before *
 163:Generated_Source\PSoC4/I2C_I2C_INT.c ****                             I2C_SetRxInterruptMode(I2C_NO_INTR_SOURCES);
 164:Generated_Source\PSoC4/I2C_I2C_INT.c ****                             I2C_SetTxInterruptMode(I2C_NO_INTR_SOURCES);
 165:Generated_Source\PSoC4/I2C_I2C_INT.c **** 
 166:Generated_Source\PSoC4/I2C_I2C_INT.c ****                             I2C_state = I2C_I2C_FSM_IDLE;
 167:Generated_Source\PSoC4/I2C_I2C_INT.c ****                         }
 168:Generated_Source\PSoC4/I2C_I2C_INT.c ****                         else
 169:Generated_Source\PSoC4/I2C_I2C_INT.c ****                         {
 170:Generated_Source\PSoC4/I2C_I2C_INT.c ****                             /* Set I2C_FSM_EXIT_IDLE for BUS_ERR and ARB_LOST (that is really bus e
 171:Generated_Source\PSoC4/I2C_I2C_INT.c ****                             I2C_state = I2C_I2C_FSM_EXIT_IDLE;
 172:Generated_Source\PSoC4/I2C_I2C_INT.c ****                         }
 173:Generated_Source\PSoC4/I2C_I2C_INT.c ****                     }
 174:Generated_Source\PSoC4/I2C_I2C_INT.c ****                     else
 175:Generated_Source\PSoC4/I2C_I2C_INT.c ****                     {
 176:Generated_Source\PSoC4/I2C_I2C_INT.c ****                         /* Set I2C_FSM_EXIT_IDLE if any other state than address */
 177:Generated_Source\PSoC4/I2C_I2C_INT.c ****                         I2C_state = I2C_I2C_FSM_EXIT_IDLE;
 178:Generated_Source\PSoC4/I2C_I2C_INT.c ****                     }
 179:Generated_Source\PSoC4/I2C_I2C_INT.c ****                 }
 180:Generated_Source\PSoC4/I2C_I2C_INT.c ****                 #else
 181:Generated_Source\PSoC4/I2C_I2C_INT.c ****                 {
 182:Generated_Source\PSoC4/I2C_I2C_INT.c ****                     /* In case of LOST*/
 183:Generated_Source\PSoC4/I2C_I2C_INT.c ****                     I2C_state = I2C_I2C_FSM_EXIT_IDLE;
 142              		.loc 1 183 0 is_stmt 1 discriminator 4
 143 00a4 9C4B     		ldr	r3, .L45+12
 144 00a6 0022     		movs	r2, #0
 145 00a8 1A70     		strb	r2, [r3]
 146              	.L4:
 184:Generated_Source\PSoC4/I2C_I2C_INT.c ****                 }
 185:Generated_Source\PSoC4/I2C_I2C_INT.c ****                 #endif
 186:Generated_Source\PSoC4/I2C_I2C_INT.c ****             }
 187:Generated_Source\PSoC4/I2C_I2C_INT.c ****         }
 188:Generated_Source\PSoC4/I2C_I2C_INT.c ****         #endif
 189:Generated_Source\PSoC4/I2C_I2C_INT.c ****     }
 190:Generated_Source\PSoC4/I2C_I2C_INT.c ****     else /* (I2C_CHECK_I2C_FSM_SLAVE) */
 191:Generated_Source\PSoC4/I2C_I2C_INT.c ****     {
 192:Generated_Source\PSoC4/I2C_I2C_INT.c ****         #if(I2C_I2C_SLAVE)
 193:Generated_Source\PSoC4/I2C_I2C_INT.c ****         {
 194:Generated_Source\PSoC4/I2C_I2C_INT.c ****             /* INTR_SLAVE_I2C_BUS_ERROR or I2C_INTR_SLAVE_I2C_ARB_LOST:
 195:Generated_Source\PSoC4/I2C_I2C_INT.c ****             * A Misplaced Start or Stop condition occurred on the bus: set a flag
 196:Generated_Source\PSoC4/I2C_I2C_INT.c ****             * to notify an error condition.
ARM GAS  C:\Users\ADMINI~1\AppData\Local\Temp\ccsy1ynt.s 			page 7


 197:Generated_Source\PSoC4/I2C_I2C_INT.c ****             */
 198:Generated_Source\PSoC4/I2C_I2C_INT.c ****             if(I2C_CHECK_INTR_SLAVE_MASKED(I2C_INTR_SLAVE_I2C_BUS_ERROR |
 199:Generated_Source\PSoC4/I2C_I2C_INT.c ****                                                         I2C_INTR_SLAVE_I2C_ARB_LOST))
 200:Generated_Source\PSoC4/I2C_I2C_INT.c ****             {
 201:Generated_Source\PSoC4/I2C_I2C_INT.c ****                 if(I2C_CHECK_I2C_FSM_RD)
 202:Generated_Source\PSoC4/I2C_I2C_INT.c ****                 {
 203:Generated_Source\PSoC4/I2C_I2C_INT.c ****                     /* TX direction: master reads from slave */
 204:Generated_Source\PSoC4/I2C_I2C_INT.c ****                     I2C_slStatus &= (uint8) ~I2C_I2C_SSTAT_RD_BUSY;
 205:Generated_Source\PSoC4/I2C_I2C_INT.c ****                     I2C_slStatus |= (uint8) (I2C_I2C_SSTAT_RD_ERR |
 206:Generated_Source\PSoC4/I2C_I2C_INT.c ****                                                           I2C_I2C_SSTAT_RD_CMPLT);
 207:Generated_Source\PSoC4/I2C_I2C_INT.c ****                 }
 208:Generated_Source\PSoC4/I2C_I2C_INT.c ****                 else
 209:Generated_Source\PSoC4/I2C_I2C_INT.c ****                 {
 210:Generated_Source\PSoC4/I2C_I2C_INT.c ****                     /* RX direction: master writes into slave */
 211:Generated_Source\PSoC4/I2C_I2C_INT.c ****                     I2C_slStatus &= (uint8) ~I2C_I2C_SSTAT_WR_BUSY;
 212:Generated_Source\PSoC4/I2C_I2C_INT.c ****                     I2C_slStatus |= (uint8) (I2C_I2C_SSTAT_WR_ERR |
 213:Generated_Source\PSoC4/I2C_I2C_INT.c ****                                                           I2C_I2C_SSTAT_WR_CMPLT);
 214:Generated_Source\PSoC4/I2C_I2C_INT.c ****                 }
 215:Generated_Source\PSoC4/I2C_I2C_INT.c **** 
 216:Generated_Source\PSoC4/I2C_I2C_INT.c ****                 I2C_state = I2C_I2C_FSM_EXIT_IDLE;
 217:Generated_Source\PSoC4/I2C_I2C_INT.c ****             }
 218:Generated_Source\PSoC4/I2C_I2C_INT.c ****         }
 219:Generated_Source\PSoC4/I2C_I2C_INT.c ****         #endif
 220:Generated_Source\PSoC4/I2C_I2C_INT.c ****     }
 221:Generated_Source\PSoC4/I2C_I2C_INT.c **** 
 222:Generated_Source\PSoC4/I2C_I2C_INT.c ****     /* States description:
 223:Generated_Source\PSoC4/I2C_I2C_INT.c ****     * Any Master operation starts from: the ADDR_RD/WR state as the master generates traffic on the
 224:Generated_Source\PSoC4/I2C_I2C_INT.c ****     * Any Slave operation starts from: the IDLE state as the slave always waits for actions from th
 225:Generated_Source\PSoC4/I2C_I2C_INT.c ****     */
 226:Generated_Source\PSoC4/I2C_I2C_INT.c **** 
 227:Generated_Source\PSoC4/I2C_I2C_INT.c ****     /* FSM Master */
 228:Generated_Source\PSoC4/I2C_I2C_INT.c ****     if(I2C_CHECK_I2C_FSM_MASTER)
 147              		.loc 1 228 0
 148 00aa 9B4B     		ldr	r3, .L45+12
 149 00ac 1B78     		ldrb	r3, [r3]
 150 00ae DBB2     		uxtb	r3, r3
 151 00b0 2022     		movs	r2, #32
 152 00b2 1340     		ands	r3, r2
 153 00b4 DBB2     		uxtb	r3, r3
 154 00b6 002B     		cmp	r3, #0
 155 00b8 00D1     		bne	.LCB119
 156 00ba A4E1     		b	.L10	@long jump
 157              	.LCB119:
 229:Generated_Source\PSoC4/I2C_I2C_INT.c ****     {
 230:Generated_Source\PSoC4/I2C_I2C_INT.c ****         #if(I2C_I2C_MASTER)
 231:Generated_Source\PSoC4/I2C_I2C_INT.c ****         {
 232:Generated_Source\PSoC4/I2C_I2C_INT.c ****             /* INTR_MASTER_I2C_STOP:
 233:Generated_Source\PSoC4/I2C_I2C_INT.c ****             * A Stop condition was generated by the master: the end of the transaction.
 234:Generated_Source\PSoC4/I2C_I2C_INT.c ****             * Set completion flags to notify the API.
 235:Generated_Source\PSoC4/I2C_I2C_INT.c ****             */
 236:Generated_Source\PSoC4/I2C_I2C_INT.c ****             if(I2C_CHECK_INTR_MASTER_MASKED(I2C_INTR_MASTER_I2C_STOP))
 158              		.loc 1 236 0
 159 00bc 974B     		ldr	r3, .L45+16
 160 00be 1B68     		ldr	r3, [r3]
 161 00c0 1022     		movs	r2, #16
 162 00c2 1340     		ands	r3, r2
 163 00c4 18D0     		beq	.L11
ARM GAS  C:\Users\ADMINI~1\AppData\Local\Temp\ccsy1ynt.s 			page 8


 237:Generated_Source\PSoC4/I2C_I2C_INT.c ****             {
 238:Generated_Source\PSoC4/I2C_I2C_INT.c ****                 I2C_ClearMasterInterruptSource(I2C_INTR_MASTER_I2C_STOP);
 164              		.loc 1 238 0
 165 00c6 974B     		ldr	r3, .L45+24
 166 00c8 1022     		movs	r2, #16
 167 00ca 1A60     		str	r2, [r3]
 239:Generated_Source\PSoC4/I2C_I2C_INT.c **** 
 240:Generated_Source\PSoC4/I2C_I2C_INT.c ****                 I2C_mstrStatus |= (uint16) I2C_GET_I2C_MSTAT_CMPLT;
 168              		.loc 1 240 0
 169 00cc 924B     		ldr	r3, .L45+12
 170 00ce 1B78     		ldrb	r3, [r3]
 171 00d0 DBB2     		uxtb	r3, r3
 172 00d2 0122     		movs	r2, #1
 173 00d4 1340     		ands	r3, r2
 174 00d6 DBB2     		uxtb	r3, r3
 175 00d8 002B     		cmp	r3, #0
 176 00da 01D0     		beq	.L12
 177              		.loc 1 240 0 is_stmt 0 discriminator 1
 178 00dc 0123     		movs	r3, #1
 179 00de 00E0     		b	.L13
 180              	.L12:
 181              		.loc 1 240 0 discriminator 2
 182 00e0 0223     		movs	r3, #2
 183              	.L13:
 184              		.loc 1 240 0 discriminator 4
 185 00e2 8F4A     		ldr	r2, .L45+20
 186 00e4 1288     		ldrh	r2, [r2]
 187 00e6 92B2     		uxth	r2, r2
 188 00e8 1343     		orrs	r3, r2
 189 00ea 9AB2     		uxth	r2, r3
 190 00ec 8C4B     		ldr	r3, .L45+20
 191 00ee 1A80     		strh	r2, [r3]
 241:Generated_Source\PSoC4/I2C_I2C_INT.c ****                 I2C_state       = I2C_I2C_FSM_IDLE;
 192              		.loc 1 241 0 is_stmt 1 discriminator 4
 193 00f0 894B     		ldr	r3, .L45+12
 194 00f2 1022     		movs	r2, #16
 195 00f4 1A70     		strb	r2, [r3]
 242:Generated_Source\PSoC4/I2C_I2C_INT.c ****             }
 243:Generated_Source\PSoC4/I2C_I2C_INT.c ****             else
 244:Generated_Source\PSoC4/I2C_I2C_INT.c ****             {
 245:Generated_Source\PSoC4/I2C_I2C_INT.c ****                 if(I2C_CHECK_I2C_FSM_ADDR) /* Address stage */
 246:Generated_Source\PSoC4/I2C_I2C_INT.c ****                 {
 247:Generated_Source\PSoC4/I2C_I2C_INT.c ****                     /* INTR_MASTER_I2C_NACK:
 248:Generated_Source\PSoC4/I2C_I2C_INT.c ****                     * The master sent an address but it was NACKed by the slave. Complete transacti
 249:Generated_Source\PSoC4/I2C_I2C_INT.c ****                     */
 250:Generated_Source\PSoC4/I2C_I2C_INT.c ****                     if(I2C_CHECK_INTR_MASTER_MASKED(I2C_INTR_MASTER_I2C_NACK))
 251:Generated_Source\PSoC4/I2C_I2C_INT.c ****                     {
 252:Generated_Source\PSoC4/I2C_I2C_INT.c ****                         I2C_ClearMasterInterruptSource(I2C_INTR_MASTER_I2C_NACK);
 253:Generated_Source\PSoC4/I2C_I2C_INT.c **** 
 254:Generated_Source\PSoC4/I2C_I2C_INT.c ****                         I2C_mstrStatus |= (uint16) (I2C_I2C_MSTAT_ERR_XFER |
 255:Generated_Source\PSoC4/I2C_I2C_INT.c ****                                                                  I2C_I2C_MSTAT_ERR_ADDR_NAK);
 256:Generated_Source\PSoC4/I2C_I2C_INT.c **** 
 257:Generated_Source\PSoC4/I2C_I2C_INT.c ****                         endTransfer = I2C_I2C_CMPLT_ANY_TRANSFER;
 258:Generated_Source\PSoC4/I2C_I2C_INT.c ****                     }
 259:Generated_Source\PSoC4/I2C_I2C_INT.c ****                     /* INTR_TX_UNDERFLOW. The master sent an address:
 260:Generated_Source\PSoC4/I2C_I2C_INT.c ****                     *  - TX direction: the clock is stretched after the ACK phase, because the TX F
 261:Generated_Source\PSoC4/I2C_I2C_INT.c ****                     *    EMPTY. The TX EMPTY cleans all the TX interrupt sources.
ARM GAS  C:\Users\ADMINI~1\AppData\Local\Temp\ccsy1ynt.s 			page 9


 262:Generated_Source\PSoC4/I2C_I2C_INT.c ****                     *  - RX direction: the 1st byte is received, but there is no ACK permission,
 263:Generated_Source\PSoC4/I2C_I2C_INT.c ****                     *    the clock is stretched after 1 byte is received.
 264:Generated_Source\PSoC4/I2C_I2C_INT.c ****                     */
 265:Generated_Source\PSoC4/I2C_I2C_INT.c ****                     else
 266:Generated_Source\PSoC4/I2C_I2C_INT.c ****                     {
 267:Generated_Source\PSoC4/I2C_I2C_INT.c ****                         if(I2C_CHECK_I2C_FSM_RD) /* Reading */
 268:Generated_Source\PSoC4/I2C_I2C_INT.c ****                         {
 269:Generated_Source\PSoC4/I2C_I2C_INT.c ****                             I2C_state = I2C_I2C_FSM_MSTR_RD_DATA;
 270:Generated_Source\PSoC4/I2C_I2C_INT.c ****                         }
 271:Generated_Source\PSoC4/I2C_I2C_INT.c ****                         else /* Writing */
 272:Generated_Source\PSoC4/I2C_I2C_INT.c ****                         {
 273:Generated_Source\PSoC4/I2C_I2C_INT.c ****                             I2C_state = I2C_I2C_FSM_MSTR_WR_DATA;
 274:Generated_Source\PSoC4/I2C_I2C_INT.c ****                             if(0u != I2C_mstrWrBufSize)
 275:Generated_Source\PSoC4/I2C_I2C_INT.c ****                             {
 276:Generated_Source\PSoC4/I2C_I2C_INT.c ****                                 /* Enable INTR.TX_EMPTY if there is data to transmit */
 277:Generated_Source\PSoC4/I2C_I2C_INT.c ****                                 I2C_SetTxInterruptMode(I2C_INTR_TX_EMPTY);
 278:Generated_Source\PSoC4/I2C_I2C_INT.c ****                             }
 279:Generated_Source\PSoC4/I2C_I2C_INT.c ****                         }
 280:Generated_Source\PSoC4/I2C_I2C_INT.c ****                     }
 281:Generated_Source\PSoC4/I2C_I2C_INT.c ****                 }
 282:Generated_Source\PSoC4/I2C_I2C_INT.c **** 
 283:Generated_Source\PSoC4/I2C_I2C_INT.c ****                 if(I2C_CHECK_I2C_FSM_DATA) /* Data phase */
 284:Generated_Source\PSoC4/I2C_I2C_INT.c ****                 {
 285:Generated_Source\PSoC4/I2C_I2C_INT.c ****                     if(I2C_CHECK_I2C_FSM_RD) /* Reading */
 286:Generated_Source\PSoC4/I2C_I2C_INT.c ****                     {
 287:Generated_Source\PSoC4/I2C_I2C_INT.c ****                         /* INTR_RX_FULL:
 288:Generated_Source\PSoC4/I2C_I2C_INT.c ****                         * RX direction: the master received 8 bytes.
 289:Generated_Source\PSoC4/I2C_I2C_INT.c ****                         * Get data from RX FIFO and decide whether to ACK or  NACK the following by
 290:Generated_Source\PSoC4/I2C_I2C_INT.c ****                         */
 291:Generated_Source\PSoC4/I2C_I2C_INT.c ****                         if(I2C_CHECK_INTR_RX_MASKED(I2C_INTR_RX_FULL))
 292:Generated_Source\PSoC4/I2C_I2C_INT.c ****                         {
 293:Generated_Source\PSoC4/I2C_I2C_INT.c ****                             /* Calculate difference */
 294:Generated_Source\PSoC4/I2C_I2C_INT.c ****                             diffCount =  I2C_mstrRdBufSize -
 295:Generated_Source\PSoC4/I2C_I2C_INT.c ****                                         (I2C_mstrRdBufIndex + I2C_GET_RX_FIFO_ENTRIES);
 296:Generated_Source\PSoC4/I2C_I2C_INT.c **** 
 297:Generated_Source\PSoC4/I2C_I2C_INT.c ****                             /* Proceed transaction or end it when RX FIFO becomes FULL again */
 298:Generated_Source\PSoC4/I2C_I2C_INT.c ****                             if(diffCount > I2C_I2C_FIFO_SIZE)
 299:Generated_Source\PSoC4/I2C_I2C_INT.c ****                             {
 300:Generated_Source\PSoC4/I2C_I2C_INT.c ****                                 diffCount = I2C_I2C_FIFO_SIZE;
 301:Generated_Source\PSoC4/I2C_I2C_INT.c ****                             }
 302:Generated_Source\PSoC4/I2C_I2C_INT.c ****                             else
 303:Generated_Source\PSoC4/I2C_I2C_INT.c ****                             {
 304:Generated_Source\PSoC4/I2C_I2C_INT.c ****                                 if(0u == diffCount)
 305:Generated_Source\PSoC4/I2C_I2C_INT.c ****                                 {
 306:Generated_Source\PSoC4/I2C_I2C_INT.c ****                                     I2C_DISABLE_MASTER_AUTO_DATA_ACK;
 307:Generated_Source\PSoC4/I2C_I2C_INT.c **** 
 308:Generated_Source\PSoC4/I2C_I2C_INT.c ****                                     diffCount   = I2C_I2C_FIFO_SIZE;
 309:Generated_Source\PSoC4/I2C_I2C_INT.c ****                                     endTransfer = I2C_I2C_CMPLT_ANY_TRANSFER;
 310:Generated_Source\PSoC4/I2C_I2C_INT.c ****                                 }
 311:Generated_Source\PSoC4/I2C_I2C_INT.c ****                             }
 312:Generated_Source\PSoC4/I2C_I2C_INT.c **** 
 313:Generated_Source\PSoC4/I2C_I2C_INT.c ****                             for(; (0u != diffCount); diffCount--)
 314:Generated_Source\PSoC4/I2C_I2C_INT.c ****                             {
 315:Generated_Source\PSoC4/I2C_I2C_INT.c ****                                 I2C_mstrRdBufPtr[I2C_mstrRdBufIndex] = (uint8)
 316:Generated_Source\PSoC4/I2C_I2C_INT.c ****                                                                                         I2C_RX_FIFO
 317:Generated_Source\PSoC4/I2C_I2C_INT.c ****                                 I2C_mstrRdBufIndex++;
 318:Generated_Source\PSoC4/I2C_I2C_INT.c ****                             }
ARM GAS  C:\Users\ADMINI~1\AppData\Local\Temp\ccsy1ynt.s 			page 10


 319:Generated_Source\PSoC4/I2C_I2C_INT.c ****                         }
 320:Generated_Source\PSoC4/I2C_I2C_INT.c ****                         /* INTR_RX_NOT_EMPTY:
 321:Generated_Source\PSoC4/I2C_I2C_INT.c ****                         * RX direction: the master received one data byte, ACK or NACK it.
 322:Generated_Source\PSoC4/I2C_I2C_INT.c ****                         * The last byte is stored and NACKed by the master. The NACK and Stop is
 323:Generated_Source\PSoC4/I2C_I2C_INT.c ****                         * generated by one command generate Stop.
 324:Generated_Source\PSoC4/I2C_I2C_INT.c ****                         */
 325:Generated_Source\PSoC4/I2C_I2C_INT.c ****                         else if(I2C_CHECK_INTR_RX_MASKED(I2C_INTR_RX_NOT_EMPTY))
 326:Generated_Source\PSoC4/I2C_I2C_INT.c ****                         {
 327:Generated_Source\PSoC4/I2C_I2C_INT.c ****                             /* Put data in component buffer */
 328:Generated_Source\PSoC4/I2C_I2C_INT.c ****                             I2C_mstrRdBufPtr[I2C_mstrRdBufIndex] = (uint8) I2C_RX_FIFO_RD_REG;
 329:Generated_Source\PSoC4/I2C_I2C_INT.c ****                             I2C_mstrRdBufIndex++;
 330:Generated_Source\PSoC4/I2C_I2C_INT.c **** 
 331:Generated_Source\PSoC4/I2C_I2C_INT.c ****                             if(I2C_mstrRdBufIndex < I2C_mstrRdBufSize)
 332:Generated_Source\PSoC4/I2C_I2C_INT.c ****                             {
 333:Generated_Source\PSoC4/I2C_I2C_INT.c ****                                 I2C_I2C_MASTER_GENERATE_ACK;
 334:Generated_Source\PSoC4/I2C_I2C_INT.c ****                             }
 335:Generated_Source\PSoC4/I2C_I2C_INT.c ****                             else
 336:Generated_Source\PSoC4/I2C_I2C_INT.c ****                             {
 337:Generated_Source\PSoC4/I2C_I2C_INT.c ****                                endTransfer = I2C_I2C_CMPLT_ANY_TRANSFER;
 338:Generated_Source\PSoC4/I2C_I2C_INT.c ****                             }
 339:Generated_Source\PSoC4/I2C_I2C_INT.c ****                         }
 340:Generated_Source\PSoC4/I2C_I2C_INT.c ****                         else
 341:Generated_Source\PSoC4/I2C_I2C_INT.c ****                         {
 342:Generated_Source\PSoC4/I2C_I2C_INT.c ****                             /* Do nothing */
 343:Generated_Source\PSoC4/I2C_I2C_INT.c ****                         }
 344:Generated_Source\PSoC4/I2C_I2C_INT.c **** 
 345:Generated_Source\PSoC4/I2C_I2C_INT.c ****                         I2C_ClearRxInterruptSource(I2C_INTR_RX_ALL);
 346:Generated_Source\PSoC4/I2C_I2C_INT.c ****                     }
 347:Generated_Source\PSoC4/I2C_I2C_INT.c ****                     else /* Writing */
 348:Generated_Source\PSoC4/I2C_I2C_INT.c ****                     {
 349:Generated_Source\PSoC4/I2C_I2C_INT.c ****                         /* INTR_MASTER_I2C_NACK :
 350:Generated_Source\PSoC4/I2C_I2C_INT.c ****                         * The master writes data to the slave and NACK was received: not all the by
 351:Generated_Source\PSoC4/I2C_I2C_INT.c ****                         * written to the slave from the TX FIFO. Revert the index if there is data 
 352:Generated_Source\PSoC4/I2C_I2C_INT.c ****                         * the TX FIFO and pass control to a complete transfer.
 353:Generated_Source\PSoC4/I2C_I2C_INT.c ****                         */
 354:Generated_Source\PSoC4/I2C_I2C_INT.c ****                         if(I2C_CHECK_INTR_MASTER_MASKED(I2C_INTR_MASTER_I2C_NACK))
 355:Generated_Source\PSoC4/I2C_I2C_INT.c ****                         {
 356:Generated_Source\PSoC4/I2C_I2C_INT.c ****                             I2C_ClearMasterInterruptSource(I2C_INTR_MASTER_I2C_NACK);
 357:Generated_Source\PSoC4/I2C_I2C_INT.c **** 
 358:Generated_Source\PSoC4/I2C_I2C_INT.c ****                             /* Rollback write buffer index: NACKed byte remains in shifter */
 359:Generated_Source\PSoC4/I2C_I2C_INT.c ****                             I2C_mstrWrBufIndexTmp -= (I2C_GET_TX_FIFO_ENTRIES +
 360:Generated_Source\PSoC4/I2C_I2C_INT.c ****                                                                    I2C_GET_TX_FIFO_SR_VALID);
 361:Generated_Source\PSoC4/I2C_I2C_INT.c **** 
 362:Generated_Source\PSoC4/I2C_I2C_INT.c ****                             /* Update number of transferred bytes */
 363:Generated_Source\PSoC4/I2C_I2C_INT.c ****                             I2C_mstrWrBufIndex = I2C_mstrWrBufIndexTmp;
 364:Generated_Source\PSoC4/I2C_I2C_INT.c **** 
 365:Generated_Source\PSoC4/I2C_I2C_INT.c ****                             I2C_mstrStatus |= (uint16) (I2C_I2C_MSTAT_ERR_XFER |
 366:Generated_Source\PSoC4/I2C_I2C_INT.c ****                                                                      I2C_I2C_MSTAT_ERR_SHORT_XFER);
 367:Generated_Source\PSoC4/I2C_I2C_INT.c **** 
 368:Generated_Source\PSoC4/I2C_I2C_INT.c ****                             I2C_CLEAR_TX_FIFO;
 369:Generated_Source\PSoC4/I2C_I2C_INT.c **** 
 370:Generated_Source\PSoC4/I2C_I2C_INT.c ****                             endTransfer = I2C_I2C_CMPLT_ANY_TRANSFER;
 371:Generated_Source\PSoC4/I2C_I2C_INT.c ****                         }
 372:Generated_Source\PSoC4/I2C_I2C_INT.c ****                         /* INTR_TX_EMPTY :
 373:Generated_Source\PSoC4/I2C_I2C_INT.c ****                         * TX direction: the TX FIFO is EMPTY, the data from the buffer needs to be 
 374:Generated_Source\PSoC4/I2C_I2C_INT.c ****                         * When there is no data in the component buffer, the underflow interrupt is
 375:Generated_Source\PSoC4/I2C_I2C_INT.c ****                         * enabled to catch when all the data has been transferred.
ARM GAS  C:\Users\ADMINI~1\AppData\Local\Temp\ccsy1ynt.s 			page 11


 376:Generated_Source\PSoC4/I2C_I2C_INT.c ****                         */
 377:Generated_Source\PSoC4/I2C_I2C_INT.c ****                         else if(I2C_CHECK_INTR_TX_MASKED(I2C_INTR_TX_EMPTY))
 378:Generated_Source\PSoC4/I2C_I2C_INT.c ****                         {
 379:Generated_Source\PSoC4/I2C_I2C_INT.c ****                             while(I2C_I2C_FIFO_SIZE != I2C_GET_TX_FIFO_ENTRIES)
 380:Generated_Source\PSoC4/I2C_I2C_INT.c ****                             {
 381:Generated_Source\PSoC4/I2C_I2C_INT.c ****                                 /* The temporary mstrWrBufIndexTmp is used because slave could NACK
 382:Generated_Source\PSoC4/I2C_I2C_INT.c ****                                 * roll-back required in this case. The mstrWrBufIndex is updated at
 383:Generated_Source\PSoC4/I2C_I2C_INT.c ****                                 */
 384:Generated_Source\PSoC4/I2C_I2C_INT.c ****                                 if(I2C_mstrWrBufIndexTmp < I2C_mstrWrBufSize)
 385:Generated_Source\PSoC4/I2C_I2C_INT.c ****                                 {
 386:Generated_Source\PSoC4/I2C_I2C_INT.c ****                                 #if(!I2C_CY_SCBIP_V0)
 387:Generated_Source\PSoC4/I2C_I2C_INT.c ****                                    /* Clear INTR_TX.UNDERFLOW before putting the last byte into TX 
 388:Generated_Source\PSoC4/I2C_I2C_INT.c ****                                     * a proper trigger at the end of transaction when INTR_TX.UNDER
 389:Generated_Source\PSoC4/I2C_I2C_INT.c ****                                     * event. Ticket ID# 156735.
 390:Generated_Source\PSoC4/I2C_I2C_INT.c ****                                     */
 391:Generated_Source\PSoC4/I2C_I2C_INT.c ****                                     if(I2C_mstrWrBufIndexTmp == (I2C_mstrWrBufSize - 1u))
 392:Generated_Source\PSoC4/I2C_I2C_INT.c ****                                     {
 393:Generated_Source\PSoC4/I2C_I2C_INT.c ****                                         I2C_ClearTxInterruptSource(I2C_INTR_TX_UNDERFLOW);
 394:Generated_Source\PSoC4/I2C_I2C_INT.c ****                                         I2C_SetTxInterruptMode(I2C_INTR_TX_UNDERFLOW);
 395:Generated_Source\PSoC4/I2C_I2C_INT.c ****                                     }
 396:Generated_Source\PSoC4/I2C_I2C_INT.c ****                                  #endif /* (!I2C_CY_SCBIP_V0) */
 397:Generated_Source\PSoC4/I2C_I2C_INT.c **** 
 398:Generated_Source\PSoC4/I2C_I2C_INT.c ****                                     /* Put data into TX FIFO */
 399:Generated_Source\PSoC4/I2C_I2C_INT.c ****                                     I2C_TX_FIFO_WR_REG = (uint32) I2C_mstrWrBufPtr[I2C_mstrWrBufInd
 400:Generated_Source\PSoC4/I2C_I2C_INT.c ****                                     I2C_mstrWrBufIndexTmp++;
 401:Generated_Source\PSoC4/I2C_I2C_INT.c ****                                 }
 402:Generated_Source\PSoC4/I2C_I2C_INT.c ****                                 else
 403:Generated_Source\PSoC4/I2C_I2C_INT.c ****                                 {
 404:Generated_Source\PSoC4/I2C_I2C_INT.c ****                                     break; /* No more data to put */
 405:Generated_Source\PSoC4/I2C_I2C_INT.c ****                                 }
 406:Generated_Source\PSoC4/I2C_I2C_INT.c ****                             }
 407:Generated_Source\PSoC4/I2C_I2C_INT.c **** 
 408:Generated_Source\PSoC4/I2C_I2C_INT.c ****                         #if(I2C_CY_SCBIP_V0)
 409:Generated_Source\PSoC4/I2C_I2C_INT.c ****                             if(I2C_mstrWrBufIndexTmp == I2C_mstrWrBufSize)
 410:Generated_Source\PSoC4/I2C_I2C_INT.c ****                             {
 411:Generated_Source\PSoC4/I2C_I2C_INT.c ****                                 I2C_SetTxInterruptMode(I2C_INTR_TX_UNDERFLOW);
 412:Generated_Source\PSoC4/I2C_I2C_INT.c ****                             }
 413:Generated_Source\PSoC4/I2C_I2C_INT.c **** 
 414:Generated_Source\PSoC4/I2C_I2C_INT.c ****                             I2C_ClearTxInterruptSource(I2C_INTR_TX_ALL);
 415:Generated_Source\PSoC4/I2C_I2C_INT.c ****                         #else
 416:Generated_Source\PSoC4/I2C_I2C_INT.c ****                             I2C_ClearTxInterruptSource(I2C_INTR_TX_EMPTY);
 417:Generated_Source\PSoC4/I2C_I2C_INT.c ****                         #endif /* (I2C_CY_SCBIP_V0) */
 418:Generated_Source\PSoC4/I2C_I2C_INT.c ****                         }
 419:Generated_Source\PSoC4/I2C_I2C_INT.c ****                         /* INTR_TX_UNDERFLOW:
 420:Generated_Source\PSoC4/I2C_I2C_INT.c ****                         * TX direction: all data from the TX FIFO was transferred to the slave.
 421:Generated_Source\PSoC4/I2C_I2C_INT.c ****                         * The transaction needs to be completed.
 422:Generated_Source\PSoC4/I2C_I2C_INT.c ****                         */
 423:Generated_Source\PSoC4/I2C_I2C_INT.c ****                         else if(I2C_CHECK_INTR_TX_MASKED(I2C_INTR_TX_UNDERFLOW))
 424:Generated_Source\PSoC4/I2C_I2C_INT.c ****                         {
 425:Generated_Source\PSoC4/I2C_I2C_INT.c ****                             /* Update number of transferred bytes */
 426:Generated_Source\PSoC4/I2C_I2C_INT.c ****                             I2C_mstrWrBufIndex = I2C_mstrWrBufIndexTmp;
 427:Generated_Source\PSoC4/I2C_I2C_INT.c **** 
 428:Generated_Source\PSoC4/I2C_I2C_INT.c ****                             endTransfer = I2C_I2C_CMPLT_ANY_TRANSFER;
 429:Generated_Source\PSoC4/I2C_I2C_INT.c ****                         }
 430:Generated_Source\PSoC4/I2C_I2C_INT.c ****                         else
 431:Generated_Source\PSoC4/I2C_I2C_INT.c ****                         {
 432:Generated_Source\PSoC4/I2C_I2C_INT.c ****                             /* Do nothing */
ARM GAS  C:\Users\ADMINI~1\AppData\Local\Temp\ccsy1ynt.s 			page 12


 433:Generated_Source\PSoC4/I2C_I2C_INT.c ****                         }
 434:Generated_Source\PSoC4/I2C_I2C_INT.c ****                     }
 435:Generated_Source\PSoC4/I2C_I2C_INT.c ****                 }
 436:Generated_Source\PSoC4/I2C_I2C_INT.c **** 
 437:Generated_Source\PSoC4/I2C_I2C_INT.c ****                 if(0u != endTransfer) /* Complete transfer */
 438:Generated_Source\PSoC4/I2C_I2C_INT.c ****                 {
 439:Generated_Source\PSoC4/I2C_I2C_INT.c ****                     /* Clean-up master after reading: only in case of NACK */
 440:Generated_Source\PSoC4/I2C_I2C_INT.c ****                     I2C_DISABLE_MASTER_AUTO_DATA_ACK;
 441:Generated_Source\PSoC4/I2C_I2C_INT.c **** 
 442:Generated_Source\PSoC4/I2C_I2C_INT.c ****                     /* Disable data processing interrupts: they have to be cleared before */
 443:Generated_Source\PSoC4/I2C_I2C_INT.c ****                     I2C_SetRxInterruptMode(I2C_NO_INTR_SOURCES);
 444:Generated_Source\PSoC4/I2C_I2C_INT.c ****                     I2C_SetTxInterruptMode(I2C_NO_INTR_SOURCES);
 445:Generated_Source\PSoC4/I2C_I2C_INT.c **** 
 446:Generated_Source\PSoC4/I2C_I2C_INT.c ****                     if(I2C_CHECK_I2C_MODE_NO_STOP(I2C_mstrControl))
 447:Generated_Source\PSoC4/I2C_I2C_INT.c ****                     {
 448:Generated_Source\PSoC4/I2C_I2C_INT.c ****                         /* On-going transaction is suspended: the ReStart is generated by the API r
 449:Generated_Source\PSoC4/I2C_I2C_INT.c ****                         I2C_mstrStatus |= (uint16) (I2C_I2C_MSTAT_XFER_HALT |
 450:Generated_Source\PSoC4/I2C_I2C_INT.c ****                                                                  I2C_GET_I2C_MSTAT_CMPLT);
 451:Generated_Source\PSoC4/I2C_I2C_INT.c **** 
 452:Generated_Source\PSoC4/I2C_I2C_INT.c ****                         I2C_state = I2C_I2C_FSM_MSTR_HALT;
 453:Generated_Source\PSoC4/I2C_I2C_INT.c ****                     }
 454:Generated_Source\PSoC4/I2C_I2C_INT.c ****                     else
 455:Generated_Source\PSoC4/I2C_I2C_INT.c ****                     {
 456:Generated_Source\PSoC4/I2C_I2C_INT.c ****                         /* Complete transaction: exclude the data processing state and generate Sto
 457:Generated_Source\PSoC4/I2C_I2C_INT.c ****                         * The completion status will be set after Stop generation.
 458:Generated_Source\PSoC4/I2C_I2C_INT.c ****                         * A special case is read: because NACK and Stop are generated by the comman
 459:Generated_Source\PSoC4/I2C_I2C_INT.c ****                         * Lost arbitration can occur during NACK generation when
 460:Generated_Source\PSoC4/I2C_I2C_INT.c ****                         * the other master is still reading from the slave.
 461:Generated_Source\PSoC4/I2C_I2C_INT.c ****                         */
 462:Generated_Source\PSoC4/I2C_I2C_INT.c ****                         I2C_I2C_MASTER_GENERATE_STOP;
 463:Generated_Source\PSoC4/I2C_I2C_INT.c ****                     }
 464:Generated_Source\PSoC4/I2C_I2C_INT.c ****                 }
 465:Generated_Source\PSoC4/I2C_I2C_INT.c ****             }
 466:Generated_Source\PSoC4/I2C_I2C_INT.c **** 
 467:Generated_Source\PSoC4/I2C_I2C_INT.c ****         } /* (I2C_I2C_MASTER) */
 468:Generated_Source\PSoC4/I2C_I2C_INT.c ****         #endif
 469:Generated_Source\PSoC4/I2C_I2C_INT.c **** 
 470:Generated_Source\PSoC4/I2C_I2C_INT.c ****     } /* (I2C_CHECK_I2C_FSM_MASTER) */
 471:Generated_Source\PSoC4/I2C_I2C_INT.c **** 
 472:Generated_Source\PSoC4/I2C_I2C_INT.c **** 
 473:Generated_Source\PSoC4/I2C_I2C_INT.c ****     /* FSM Slave */
 474:Generated_Source\PSoC4/I2C_I2C_INT.c ****     else if(I2C_CHECK_I2C_FSM_SLAVE)
 475:Generated_Source\PSoC4/I2C_I2C_INT.c ****     {
 476:Generated_Source\PSoC4/I2C_I2C_INT.c ****         #if(I2C_I2C_SLAVE)
 477:Generated_Source\PSoC4/I2C_I2C_INT.c ****         {
 478:Generated_Source\PSoC4/I2C_I2C_INT.c ****             /* INTR_SLAVE_NACK:
 479:Generated_Source\PSoC4/I2C_I2C_INT.c ****             * The master completes reading the slave: the appropriate flags have to be set.
 480:Generated_Source\PSoC4/I2C_I2C_INT.c ****             * The TX FIFO is cleared after an overflow condition is set.
 481:Generated_Source\PSoC4/I2C_I2C_INT.c ****             */
 482:Generated_Source\PSoC4/I2C_I2C_INT.c ****             if(I2C_CHECK_INTR_SLAVE_MASKED(I2C_INTR_SLAVE_I2C_NACK))
 483:Generated_Source\PSoC4/I2C_I2C_INT.c ****             {
 484:Generated_Source\PSoC4/I2C_I2C_INT.c ****                 I2C_ClearSlaveInterruptSource(I2C_INTR_SLAVE_I2C_NACK);
 485:Generated_Source\PSoC4/I2C_I2C_INT.c **** 
 486:Generated_Source\PSoC4/I2C_I2C_INT.c ****                 /* All entries that remain in TX FIFO max value is 9: 8 (FIFO) + 1 (SHIFTER) */
 487:Generated_Source\PSoC4/I2C_I2C_INT.c ****                 diffCount = (I2C_GET_TX_FIFO_ENTRIES + I2C_GET_TX_FIFO_SR_VALID);
 488:Generated_Source\PSoC4/I2C_I2C_INT.c **** 
 489:Generated_Source\PSoC4/I2C_I2C_INT.c ****                 if(I2C_slOverFlowCount > diffCount) /* Overflow */
ARM GAS  C:\Users\ADMINI~1\AppData\Local\Temp\ccsy1ynt.s 			page 13


 490:Generated_Source\PSoC4/I2C_I2C_INT.c ****                 {
 491:Generated_Source\PSoC4/I2C_I2C_INT.c ****                     I2C_slStatus |= (uint8) I2C_I2C_SSTAT_RD_OVFL;
 492:Generated_Source\PSoC4/I2C_I2C_INT.c ****                 }
 493:Generated_Source\PSoC4/I2C_I2C_INT.c ****                 else /* No Overflow */
 494:Generated_Source\PSoC4/I2C_I2C_INT.c ****                 {
 495:Generated_Source\PSoC4/I2C_I2C_INT.c ****                     /* Roll-back temporary index */
 496:Generated_Source\PSoC4/I2C_I2C_INT.c ****                     I2C_slRdBufIndexTmp -= (diffCount - I2C_slOverFlowCount);
 497:Generated_Source\PSoC4/I2C_I2C_INT.c ****                 }
 498:Generated_Source\PSoC4/I2C_I2C_INT.c **** 
 499:Generated_Source\PSoC4/I2C_I2C_INT.c ****                 /* Update slave of transferred bytes */
 500:Generated_Source\PSoC4/I2C_I2C_INT.c ****                 I2C_slRdBufIndex = I2C_slRdBufIndexTmp;
 501:Generated_Source\PSoC4/I2C_I2C_INT.c **** 
 502:Generated_Source\PSoC4/I2C_I2C_INT.c ****                 /* Clean-up TX FIFO */
 503:Generated_Source\PSoC4/I2C_I2C_INT.c ****                 I2C_SetTxInterruptMode(I2C_NO_INTR_SOURCES);
 504:Generated_Source\PSoC4/I2C_I2C_INT.c ****                 I2C_slOverFlowCount = 0u;
 505:Generated_Source\PSoC4/I2C_I2C_INT.c ****                 I2C_CLEAR_TX_FIFO;
 506:Generated_Source\PSoC4/I2C_I2C_INT.c **** 
 507:Generated_Source\PSoC4/I2C_I2C_INT.c ****                 /* Complete master reading */
 508:Generated_Source\PSoC4/I2C_I2C_INT.c ****                 I2C_slStatus &= (uint8) ~I2C_I2C_SSTAT_RD_BUSY;
 509:Generated_Source\PSoC4/I2C_I2C_INT.c ****                 I2C_slStatus |= (uint8)  I2C_I2C_SSTAT_RD_CMPLT;
 510:Generated_Source\PSoC4/I2C_I2C_INT.c ****                 I2C_state     =  I2C_I2C_FSM_IDLE;
 511:Generated_Source\PSoC4/I2C_I2C_INT.c ****             }
 512:Generated_Source\PSoC4/I2C_I2C_INT.c **** 
 513:Generated_Source\PSoC4/I2C_I2C_INT.c **** 
 514:Generated_Source\PSoC4/I2C_I2C_INT.c ****             /* INTR_SLAVE_I2C_WRITE_STOP:
 515:Generated_Source\PSoC4/I2C_I2C_INT.c ****             * The master completes writing to the slave: the appropriate flags have to be set.
 516:Generated_Source\PSoC4/I2C_I2C_INT.c ****             * The RX FIFO contains 1-8 bytes from the previous transaction which needs to be read.
 517:Generated_Source\PSoC4/I2C_I2C_INT.c ****             * There is a possibility that RX FIFO contains an address, it needs to leave it there.
 518:Generated_Source\PSoC4/I2C_I2C_INT.c ****             */
 519:Generated_Source\PSoC4/I2C_I2C_INT.c ****             if(I2C_CHECK_INTR_SLAVE_MASKED(I2C_INTR_SLAVE_I2C_WRITE_STOP))
 520:Generated_Source\PSoC4/I2C_I2C_INT.c ****             {
 521:Generated_Source\PSoC4/I2C_I2C_INT.c ****                 I2C_ClearSlaveInterruptSource(I2C_INTR_SLAVE_I2C_WRITE_STOP);
 522:Generated_Source\PSoC4/I2C_I2C_INT.c **** 
 523:Generated_Source\PSoC4/I2C_I2C_INT.c ****                 /* Read bytes from RX FIFO when auto data ACK receive logic is enabled. Otherwise a
 524:Generated_Source\PSoC4/I2C_I2C_INT.c ****                 * were already read from the RX FIFO except for address byte which has to stay here
 525:Generated_Source\PSoC4/I2C_I2C_INT.c ****                 * I2C_ADDR_MATCH.
 526:Generated_Source\PSoC4/I2C_I2C_INT.c ****                 */
 527:Generated_Source\PSoC4/I2C_I2C_INT.c ****                 if (0u != (I2C_I2C_CTRL_REG & I2C_I2C_CTRL_S_READY_DATA_ACK))
 528:Generated_Source\PSoC4/I2C_I2C_INT.c ****                 {
 529:Generated_Source\PSoC4/I2C_I2C_INT.c ****                     while(0u != I2C_GET_RX_FIFO_ENTRIES)
 530:Generated_Source\PSoC4/I2C_I2C_INT.c ****                     {
 531:Generated_Source\PSoC4/I2C_I2C_INT.c ****                         #if(I2C_CHECK_I2C_ACCEPT_ADDRESS)
 532:Generated_Source\PSoC4/I2C_I2C_INT.c ****                         {
 533:Generated_Source\PSoC4/I2C_I2C_INT.c ****                             if((1u == I2C_GET_RX_FIFO_ENTRIES) &&
 534:Generated_Source\PSoC4/I2C_I2C_INT.c ****                                (I2C_CHECK_INTR_SLAVE_MASKED(I2C_INTR_SLAVE_I2C_ADDR_MATCH)))
 535:Generated_Source\PSoC4/I2C_I2C_INT.c ****                             {
 536:Generated_Source\PSoC4/I2C_I2C_INT.c ****                                 break; /* Leave address in RX FIFO */
 537:Generated_Source\PSoC4/I2C_I2C_INT.c ****                             }
 538:Generated_Source\PSoC4/I2C_I2C_INT.c ****                         }
 539:Generated_Source\PSoC4/I2C_I2C_INT.c ****                         #endif
 540:Generated_Source\PSoC4/I2C_I2C_INT.c **** 
 541:Generated_Source\PSoC4/I2C_I2C_INT.c ****                         /* Put data in component buffer */
 542:Generated_Source\PSoC4/I2C_I2C_INT.c ****                         I2C_slWrBufPtr[I2C_slWrBufIndex] = (uint8) I2C_RX_FIFO_RD_REG;
 543:Generated_Source\PSoC4/I2C_I2C_INT.c ****                         I2C_slWrBufIndex++;
 544:Generated_Source\PSoC4/I2C_I2C_INT.c ****                     }
 545:Generated_Source\PSoC4/I2C_I2C_INT.c **** 
 546:Generated_Source\PSoC4/I2C_I2C_INT.c ****                     I2C_DISABLE_SLAVE_AUTO_DATA;
ARM GAS  C:\Users\ADMINI~1\AppData\Local\Temp\ccsy1ynt.s 			page 14


 547:Generated_Source\PSoC4/I2C_I2C_INT.c ****                 }
 548:Generated_Source\PSoC4/I2C_I2C_INT.c **** 
 549:Generated_Source\PSoC4/I2C_I2C_INT.c ****                 if(I2C_CHECK_INTR_RX(I2C_INTR_RX_OVERFLOW))
 550:Generated_Source\PSoC4/I2C_I2C_INT.c ****                 {
 551:Generated_Source\PSoC4/I2C_I2C_INT.c ****                     I2C_slStatus |= (uint8) I2C_I2C_SSTAT_WR_OVFL;
 552:Generated_Source\PSoC4/I2C_I2C_INT.c ****                 }
 553:Generated_Source\PSoC4/I2C_I2C_INT.c **** 
 554:Generated_Source\PSoC4/I2C_I2C_INT.c ****                 /* Clears RX interrupt sources triggered on data receiving */
 555:Generated_Source\PSoC4/I2C_I2C_INT.c ****                 I2C_SetRxInterruptMode(I2C_NO_INTR_SOURCES);
 556:Generated_Source\PSoC4/I2C_I2C_INT.c ****                 I2C_ClearRxInterruptSource(I2C_INTR_RX_ALL);
 557:Generated_Source\PSoC4/I2C_I2C_INT.c **** 
 558:Generated_Source\PSoC4/I2C_I2C_INT.c ****                 /* Complete master writing */
 559:Generated_Source\PSoC4/I2C_I2C_INT.c ****                 I2C_slStatus &= (uint8) ~I2C_I2C_SSTAT_WR_BUSY;
 560:Generated_Source\PSoC4/I2C_I2C_INT.c ****                 I2C_slStatus |= (uint8)  I2C_I2C_SSTAT_WR_CMPLT;
 561:Generated_Source\PSoC4/I2C_I2C_INT.c ****                 I2C_state     =  I2C_I2C_FSM_IDLE;
 562:Generated_Source\PSoC4/I2C_I2C_INT.c ****             }
 563:Generated_Source\PSoC4/I2C_I2C_INT.c **** 
 564:Generated_Source\PSoC4/I2C_I2C_INT.c **** 
 565:Generated_Source\PSoC4/I2C_I2C_INT.c ****             /* INTR_SLAVE_I2C_ADDR_MATCH or INTR_SLAVE_I2C_GENERAL:
 566:Generated_Source\PSoC4/I2C_I2C_INT.c ****             * The address match or general call address event starts the slave operation:
 567:Generated_Source\PSoC4/I2C_I2C_INT.c ****             * after leaving the TX or RX direction has to be chosen.
 568:Generated_Source\PSoC4/I2C_I2C_INT.c ****             * The wakeup interrupt must be cleared only after an address match is set.
 569:Generated_Source\PSoC4/I2C_I2C_INT.c ****             */
 570:Generated_Source\PSoC4/I2C_I2C_INT.c ****         #if (I2C_I2C_CUSTOM_ADDRESS_HANDLER_CONST)
 571:Generated_Source\PSoC4/I2C_I2C_INT.c ****             if (I2C_CHECK_INTR_SLAVE_MASKED(I2C_INTR_SLAVE_I2C_ADDR_MATCH |
 572:Generated_Source\PSoC4/I2C_I2C_INT.c ****                                                          I2C_INTR_SLAVE_I2C_GENERAL))
 573:Generated_Source\PSoC4/I2C_I2C_INT.c ****         #else
 574:Generated_Source\PSoC4/I2C_I2C_INT.c ****             if (I2C_CHECK_INTR_SLAVE_MASKED(I2C_INTR_SLAVE_I2C_ADDR_MATCH))
 575:Generated_Source\PSoC4/I2C_I2C_INT.c ****         #endif /* (I2C_I2C_CUSTOM_ADDRESS_HANDLER_CONST) */
 576:Generated_Source\PSoC4/I2C_I2C_INT.c ****             {
 577:Generated_Source\PSoC4/I2C_I2C_INT.c ****                 /* Clear externally clocked address match interrupt source when internally clocked 
 578:Generated_Source\PSoC4/I2C_I2C_INT.c ****                 I2C_ClearI2CExtClkInterruptSource(I2C_INTR_I2C_EC_WAKE_UP);
 579:Generated_Source\PSoC4/I2C_I2C_INT.c **** 
 580:Generated_Source\PSoC4/I2C_I2C_INT.c ****                 #if (I2C_I2C_CUSTOM_ADDRESS_HANDLER)
 581:Generated_Source\PSoC4/I2C_I2C_INT.c ****                 {
 582:Generated_Source\PSoC4/I2C_I2C_INT.c ****                     if (NULL != I2C_customAddressHandler)
 583:Generated_Source\PSoC4/I2C_I2C_INT.c ****                     {
 584:Generated_Source\PSoC4/I2C_I2C_INT.c ****                         /* Call custom address handler */
 585:Generated_Source\PSoC4/I2C_I2C_INT.c ****                         response = I2C_customAddressHandler();
 586:Generated_Source\PSoC4/I2C_I2C_INT.c ****                     }
 587:Generated_Source\PSoC4/I2C_I2C_INT.c ****                     else
 588:Generated_Source\PSoC4/I2C_I2C_INT.c ****                     {
 589:Generated_Source\PSoC4/I2C_I2C_INT.c ****                         /* Read address from the RX FIFO. If there is no address underflow triggers
 590:Generated_Source\PSoC4/I2C_I2C_INT.c ****                         * componnet does not use that source. */
 591:Generated_Source\PSoC4/I2C_I2C_INT.c ****                         (void) I2C_RX_FIFO_RD_REG;
 592:Generated_Source\PSoC4/I2C_I2C_INT.c ****                         response = I2C_I2C_ACK_ADDR;
 593:Generated_Source\PSoC4/I2C_I2C_INT.c ****                     }
 594:Generated_Source\PSoC4/I2C_I2C_INT.c **** 
 595:Generated_Source\PSoC4/I2C_I2C_INT.c ****                     /* Clears RX sources after address was received in the RX FIFO */
 596:Generated_Source\PSoC4/I2C_I2C_INT.c ****                     I2C_ClearRxInterruptSource(I2C_INTR_RX_ALL);
 597:Generated_Source\PSoC4/I2C_I2C_INT.c ****                 }
 598:Generated_Source\PSoC4/I2C_I2C_INT.c ****                 #endif
 599:Generated_Source\PSoC4/I2C_I2C_INT.c **** 
 600:Generated_Source\PSoC4/I2C_I2C_INT.c ****             #if (I2C_I2C_CUSTOM_ADDRESS_HANDLER_CONST)
 601:Generated_Source\PSoC4/I2C_I2C_INT.c ****                 if (response == I2C_I2C_NAK_ADDR)
 602:Generated_Source\PSoC4/I2C_I2C_INT.c ****                 {
 603:Generated_Source\PSoC4/I2C_I2C_INT.c ****                 #if (!I2C_CY_SCBIP_V0)
ARM GAS  C:\Users\ADMINI~1\AppData\Local\Temp\ccsy1ynt.s 			page 15


 604:Generated_Source\PSoC4/I2C_I2C_INT.c ****                     /* Disable write stop interrupt source as it triggers after address was NACKed.
 605:Generated_Source\PSoC4/I2C_I2C_INT.c ****                     I2C_DISABLE_INTR_SLAVE(I2C_INTR_SLAVE_I2C_WRITE_STOP);
 606:Generated_Source\PSoC4/I2C_I2C_INT.c ****                 #endif /* (!I2C_CY_SCBIP_V0) */
 607:Generated_Source\PSoC4/I2C_I2C_INT.c **** 
 608:Generated_Source\PSoC4/I2C_I2C_INT.c ****                     /* Clear address match and stop history */
 609:Generated_Source\PSoC4/I2C_I2C_INT.c ****                     I2C_ClearSlaveInterruptSource(I2C_INTR_SLAVE_ALL);
 610:Generated_Source\PSoC4/I2C_I2C_INT.c **** 
 611:Generated_Source\PSoC4/I2C_I2C_INT.c ****                     /* ACK the address byte */
 612:Generated_Source\PSoC4/I2C_I2C_INT.c ****                     I2C_I2C_SLAVE_GENERATE_NACK;
 613:Generated_Source\PSoC4/I2C_I2C_INT.c ****                 }
 614:Generated_Source\PSoC4/I2C_I2C_INT.c ****                 else
 615:Generated_Source\PSoC4/I2C_I2C_INT.c ****             #endif /* (I2C_I2C_CUSTOM_ADDRESS_HANDLER_CONST) */
 616:Generated_Source\PSoC4/I2C_I2C_INT.c ****                 {
 617:Generated_Source\PSoC4/I2C_I2C_INT.c ****                     if(I2C_CHECK_I2C_STATUS(I2C_I2C_STATUS_S_READ))
 618:Generated_Source\PSoC4/I2C_I2C_INT.c ****                     /* TX direction: master reads from slave */
 619:Generated_Source\PSoC4/I2C_I2C_INT.c ****                     {
 620:Generated_Source\PSoC4/I2C_I2C_INT.c ****                         I2C_SetTxInterruptMode(I2C_INTR_TX_EMPTY);
 621:Generated_Source\PSoC4/I2C_I2C_INT.c **** 
 622:Generated_Source\PSoC4/I2C_I2C_INT.c ****                         /* Set temporary index to address buffer clear from API */
 623:Generated_Source\PSoC4/I2C_I2C_INT.c ****                         I2C_slRdBufIndexTmp = I2C_slRdBufIndex;
 624:Generated_Source\PSoC4/I2C_I2C_INT.c **** 
 625:Generated_Source\PSoC4/I2C_I2C_INT.c ****                         /* Start master reading */
 626:Generated_Source\PSoC4/I2C_I2C_INT.c ****                         I2C_slStatus |= (uint8) I2C_I2C_SSTAT_RD_BUSY;
 627:Generated_Source\PSoC4/I2C_I2C_INT.c ****                         I2C_state     = I2C_I2C_FSM_SL_RD;
 628:Generated_Source\PSoC4/I2C_I2C_INT.c ****                     }
 629:Generated_Source\PSoC4/I2C_I2C_INT.c ****                     else
 630:Generated_Source\PSoC4/I2C_I2C_INT.c ****                     /* RX direction: master writes into slave */
 631:Generated_Source\PSoC4/I2C_I2C_INT.c ****                     {
 632:Generated_Source\PSoC4/I2C_I2C_INT.c ****                         /* Calculate available buffer size */
 633:Generated_Source\PSoC4/I2C_I2C_INT.c ****                         diffCount = (I2C_slWrBufSize - I2C_slWrBufIndex);
 634:Generated_Source\PSoC4/I2C_I2C_INT.c **** 
 635:Generated_Source\PSoC4/I2C_I2C_INT.c ****                     #if (I2C_CY_SCBIP_V0)
 636:Generated_Source\PSoC4/I2C_I2C_INT.c ****                         if(diffCount < I2C_I2C_FIFO_SIZE)
 637:Generated_Source\PSoC4/I2C_I2C_INT.c ****                         /* Receive data: byte-by-byte */
 638:Generated_Source\PSoC4/I2C_I2C_INT.c ****                         {
 639:Generated_Source\PSoC4/I2C_I2C_INT.c ****                             I2C_SetRxInterruptMode(I2C_INTR_RX_NOT_EMPTY);
 640:Generated_Source\PSoC4/I2C_I2C_INT.c ****                         }
 641:Generated_Source\PSoC4/I2C_I2C_INT.c ****                         else
 642:Generated_Source\PSoC4/I2C_I2C_INT.c ****                         /* Receive data: into RX FIFO */
 643:Generated_Source\PSoC4/I2C_I2C_INT.c ****                         {
 644:Generated_Source\PSoC4/I2C_I2C_INT.c ****                             if(diffCount == I2C_I2C_FIFO_SIZE)
 645:Generated_Source\PSoC4/I2C_I2C_INT.c ****                             {
 646:Generated_Source\PSoC4/I2C_I2C_INT.c ****                                 /* NACK when RX FIFO become FULL */
 647:Generated_Source\PSoC4/I2C_I2C_INT.c ****                                 I2C_ENABLE_SLAVE_AUTO_DATA;
 648:Generated_Source\PSoC4/I2C_I2C_INT.c ****                             }
 649:Generated_Source\PSoC4/I2C_I2C_INT.c ****                             else
 650:Generated_Source\PSoC4/I2C_I2C_INT.c ****                             {
 651:Generated_Source\PSoC4/I2C_I2C_INT.c ****                                 /* Stretch clock when RX FIFO becomes FULL */
 652:Generated_Source\PSoC4/I2C_I2C_INT.c ****                                 I2C_ENABLE_SLAVE_AUTO_DATA_ACK;
 653:Generated_Source\PSoC4/I2C_I2C_INT.c ****                                 I2C_SetRxInterruptMode(I2C_INTR_RX_FULL);
 654:Generated_Source\PSoC4/I2C_I2C_INT.c ****                             }
 655:Generated_Source\PSoC4/I2C_I2C_INT.c ****                         }
 656:Generated_Source\PSoC4/I2C_I2C_INT.c **** 
 657:Generated_Source\PSoC4/I2C_I2C_INT.c ****                     #else
 658:Generated_Source\PSoC4/I2C_I2C_INT.c ****                         #if(I2C_CHECK_I2C_ACCEPT_ADDRESS)
 659:Generated_Source\PSoC4/I2C_I2C_INT.c ****                         {
 660:Generated_Source\PSoC4/I2C_I2C_INT.c ****                             /* Enable RX.NOT_EMPTY interrupt source to receive byte by byte.
ARM GAS  C:\Users\ADMINI~1\AppData\Local\Temp\ccsy1ynt.s 			page 16


 661:Generated_Source\PSoC4/I2C_I2C_INT.c ****                             * The byte by byte receive is always chosen for the case when an addres
 662:Generated_Source\PSoC4/I2C_I2C_INT.c ****                             * in RX FIFO. Ticket ID#175559.
 663:Generated_Source\PSoC4/I2C_I2C_INT.c ****                             */
 664:Generated_Source\PSoC4/I2C_I2C_INT.c ****                             I2C_SetRxInterruptMode(I2C_INTR_RX_NOT_EMPTY);
 665:Generated_Source\PSoC4/I2C_I2C_INT.c ****                         }
 666:Generated_Source\PSoC4/I2C_I2C_INT.c ****                         #else
 667:Generated_Source\PSoC4/I2C_I2C_INT.c ****                         {
 668:Generated_Source\PSoC4/I2C_I2C_INT.c ****                             if(diffCount < I2C_I2C_FIFO_SIZE)
 669:Generated_Source\PSoC4/I2C_I2C_INT.c ****                             /* Receive data: byte-by-byte */
 670:Generated_Source\PSoC4/I2C_I2C_INT.c ****                             {
 671:Generated_Source\PSoC4/I2C_I2C_INT.c ****                                 I2C_SetRxInterruptMode(I2C_INTR_RX_NOT_EMPTY);
 672:Generated_Source\PSoC4/I2C_I2C_INT.c ****                             }
 673:Generated_Source\PSoC4/I2C_I2C_INT.c ****                             else
 674:Generated_Source\PSoC4/I2C_I2C_INT.c ****                             /* Receive data: into RX FIFO */
 675:Generated_Source\PSoC4/I2C_I2C_INT.c ****                             {
 676:Generated_Source\PSoC4/I2C_I2C_INT.c ****                                 if(diffCount == I2C_I2C_FIFO_SIZE)
 677:Generated_Source\PSoC4/I2C_I2C_INT.c ****                                 {
 678:Generated_Source\PSoC4/I2C_I2C_INT.c ****                                     /* NACK when RX FIFO become FULL */
 679:Generated_Source\PSoC4/I2C_I2C_INT.c ****                                     I2C_ENABLE_SLAVE_AUTO_DATA;
 680:Generated_Source\PSoC4/I2C_I2C_INT.c ****                                 }
 681:Generated_Source\PSoC4/I2C_I2C_INT.c ****                                 else
 682:Generated_Source\PSoC4/I2C_I2C_INT.c ****                                 {
 683:Generated_Source\PSoC4/I2C_I2C_INT.c ****                                     /* Stretch clock when RX FIFO becomes FULL */
 684:Generated_Source\PSoC4/I2C_I2C_INT.c ****                                     I2C_ENABLE_SLAVE_AUTO_DATA_ACK;
 685:Generated_Source\PSoC4/I2C_I2C_INT.c ****                                     I2C_SetRxInterruptMode(I2C_INTR_RX_FULL);
 686:Generated_Source\PSoC4/I2C_I2C_INT.c ****                                 }
 687:Generated_Source\PSoC4/I2C_I2C_INT.c ****                             }
 688:Generated_Source\PSoC4/I2C_I2C_INT.c ****                         }
 689:Generated_Source\PSoC4/I2C_I2C_INT.c ****                         #endif
 690:Generated_Source\PSoC4/I2C_I2C_INT.c ****                     #endif /* (I2C_CY_SCBIP_V0) */
 691:Generated_Source\PSoC4/I2C_I2C_INT.c **** 
 692:Generated_Source\PSoC4/I2C_I2C_INT.c ****                         /* Start master reading */
 693:Generated_Source\PSoC4/I2C_I2C_INT.c ****                         I2C_slStatus |= (uint8) I2C_I2C_SSTAT_WR_BUSY;
 694:Generated_Source\PSoC4/I2C_I2C_INT.c ****                         I2C_state     = I2C_I2C_FSM_SL_WR;
 695:Generated_Source\PSoC4/I2C_I2C_INT.c ****                     }
 696:Generated_Source\PSoC4/I2C_I2C_INT.c **** 
 697:Generated_Source\PSoC4/I2C_I2C_INT.c ****                     /* Clear address match and stop history */
 698:Generated_Source\PSoC4/I2C_I2C_INT.c ****                     I2C_ClearSlaveInterruptSource(I2C_INTR_SLAVE_ALL);
 699:Generated_Source\PSoC4/I2C_I2C_INT.c **** 
 700:Generated_Source\PSoC4/I2C_I2C_INT.c ****                 #if (!I2C_CY_SCBIP_V0)
 701:Generated_Source\PSoC4/I2C_I2C_INT.c ****                     /* Enable write stop interrupt source as it triggers after address was NACKed. 
 702:Generated_Source\PSoC4/I2C_I2C_INT.c ****                     I2C_ENABLE_INTR_SLAVE(I2C_INTR_SLAVE_I2C_WRITE_STOP);
 703:Generated_Source\PSoC4/I2C_I2C_INT.c ****                 #endif /* (!I2C_CY_SCBIP_V0) */
 704:Generated_Source\PSoC4/I2C_I2C_INT.c **** 
 705:Generated_Source\PSoC4/I2C_I2C_INT.c ****                     /* ACK the address byte */
 706:Generated_Source\PSoC4/I2C_I2C_INT.c ****                     I2C_I2C_SLAVE_GENERATE_ACK;
 707:Generated_Source\PSoC4/I2C_I2C_INT.c ****                 }
 708:Generated_Source\PSoC4/I2C_I2C_INT.c ****             }
 709:Generated_Source\PSoC4/I2C_I2C_INT.c **** 
 710:Generated_Source\PSoC4/I2C_I2C_INT.c ****             /* I2C_INTR_RX_FULL:
 711:Generated_Source\PSoC4/I2C_I2C_INT.c ****             * Get data from the RX FIFO and decide whether to ACK or NACK the following bytes
 712:Generated_Source\PSoC4/I2C_I2C_INT.c ****             */
 713:Generated_Source\PSoC4/I2C_I2C_INT.c ****             if(I2C_CHECK_INTR_RX_MASKED(I2C_INTR_RX_FULL))
 714:Generated_Source\PSoC4/I2C_I2C_INT.c ****             {
 715:Generated_Source\PSoC4/I2C_I2C_INT.c ****                 /* Calculate available buffer size to take into account that RX FIFO is FULL */
 716:Generated_Source\PSoC4/I2C_I2C_INT.c ****                 diffCount =  I2C_slWrBufSize -
 717:Generated_Source\PSoC4/I2C_I2C_INT.c ****                             (I2C_slWrBufIndex + I2C_I2C_FIFO_SIZE);
ARM GAS  C:\Users\ADMINI~1\AppData\Local\Temp\ccsy1ynt.s 			page 17


 718:Generated_Source\PSoC4/I2C_I2C_INT.c **** 
 719:Generated_Source\PSoC4/I2C_I2C_INT.c ****                 if(diffCount > I2C_I2C_FIFO_SIZE) /* Proceed transaction */
 720:Generated_Source\PSoC4/I2C_I2C_INT.c ****                 {
 721:Generated_Source\PSoC4/I2C_I2C_INT.c ****                     diffCount   = I2C_I2C_FIFO_SIZE;
 722:Generated_Source\PSoC4/I2C_I2C_INT.c ****                     endTransfer = 0u;  /* Continue active transfer */
 723:Generated_Source\PSoC4/I2C_I2C_INT.c ****                 }
 724:Generated_Source\PSoC4/I2C_I2C_INT.c ****                 else /* End when FIFO becomes FULL again */
 725:Generated_Source\PSoC4/I2C_I2C_INT.c ****                 {
 726:Generated_Source\PSoC4/I2C_I2C_INT.c ****                     endTransfer = I2C_I2C_CMPLT_ANY_TRANSFER;
 727:Generated_Source\PSoC4/I2C_I2C_INT.c ****                 }
 728:Generated_Source\PSoC4/I2C_I2C_INT.c **** 
 729:Generated_Source\PSoC4/I2C_I2C_INT.c ****                 for(; (0u != diffCount); diffCount--)
 730:Generated_Source\PSoC4/I2C_I2C_INT.c ****                 {
 731:Generated_Source\PSoC4/I2C_I2C_INT.c ****                     /* Put data in component buffer */
 732:Generated_Source\PSoC4/I2C_I2C_INT.c ****                     I2C_slWrBufPtr[I2C_slWrBufIndex] = (uint8) I2C_RX_FIFO_RD_REG;
 733:Generated_Source\PSoC4/I2C_I2C_INT.c ****                     I2C_slWrBufIndex++;
 734:Generated_Source\PSoC4/I2C_I2C_INT.c ****                 }
 735:Generated_Source\PSoC4/I2C_I2C_INT.c **** 
 736:Generated_Source\PSoC4/I2C_I2C_INT.c ****                 if(0u != endTransfer) /* End transfer sending NACK */
 737:Generated_Source\PSoC4/I2C_I2C_INT.c ****                 {
 738:Generated_Source\PSoC4/I2C_I2C_INT.c ****                     I2C_ENABLE_SLAVE_AUTO_DATA_NACK;
 739:Generated_Source\PSoC4/I2C_I2C_INT.c **** 
 740:Generated_Source\PSoC4/I2C_I2C_INT.c ****                     /* INTR_RX_FULL triggers earlier than INTR_SLAVE_I2C_STOP:
 741:Generated_Source\PSoC4/I2C_I2C_INT.c ****                     * disable all RX interrupt sources.
 742:Generated_Source\PSoC4/I2C_I2C_INT.c ****                     */
 743:Generated_Source\PSoC4/I2C_I2C_INT.c ****                     I2C_SetRxInterruptMode(I2C_NO_INTR_SOURCES);
 744:Generated_Source\PSoC4/I2C_I2C_INT.c ****                 }
 745:Generated_Source\PSoC4/I2C_I2C_INT.c **** 
 746:Generated_Source\PSoC4/I2C_I2C_INT.c ****                 I2C_ClearRxInterruptSource(I2C_INTR_RX_FULL);
 747:Generated_Source\PSoC4/I2C_I2C_INT.c ****             }
 748:Generated_Source\PSoC4/I2C_I2C_INT.c ****             /* I2C_INTR_RX_NOT_EMPTY:
 749:Generated_Source\PSoC4/I2C_I2C_INT.c ****             * The buffer size is less than 8: it requires processing in byte-by-byte mode.
 750:Generated_Source\PSoC4/I2C_I2C_INT.c ****             */
 751:Generated_Source\PSoC4/I2C_I2C_INT.c ****             else if(I2C_CHECK_INTR_RX_MASKED(I2C_INTR_RX_NOT_EMPTY))
 752:Generated_Source\PSoC4/I2C_I2C_INT.c ****             {
 753:Generated_Source\PSoC4/I2C_I2C_INT.c ****                 diffCount = I2C_RX_FIFO_RD_REG;
 754:Generated_Source\PSoC4/I2C_I2C_INT.c **** 
 755:Generated_Source\PSoC4/I2C_I2C_INT.c ****                 if(I2C_slWrBufIndex < I2C_slWrBufSize)
 756:Generated_Source\PSoC4/I2C_I2C_INT.c ****                 {
 757:Generated_Source\PSoC4/I2C_I2C_INT.c ****                     I2C_I2C_SLAVE_GENERATE_ACK;
 758:Generated_Source\PSoC4/I2C_I2C_INT.c **** 
 759:Generated_Source\PSoC4/I2C_I2C_INT.c ****                     /* Put data into component buffer */
 760:Generated_Source\PSoC4/I2C_I2C_INT.c ****                     I2C_slWrBufPtr[I2C_slWrBufIndex] = (uint8) diffCount;
 761:Generated_Source\PSoC4/I2C_I2C_INT.c ****                     I2C_slWrBufIndex++;
 762:Generated_Source\PSoC4/I2C_I2C_INT.c ****                 }
 763:Generated_Source\PSoC4/I2C_I2C_INT.c ****                 else /* Overflow: there is no space in write buffer */
 764:Generated_Source\PSoC4/I2C_I2C_INT.c ****                 {
 765:Generated_Source\PSoC4/I2C_I2C_INT.c ****                     I2C_I2C_SLAVE_GENERATE_NACK;
 766:Generated_Source\PSoC4/I2C_I2C_INT.c **** 
 767:Generated_Source\PSoC4/I2C_I2C_INT.c ****                     I2C_slStatus |= (uint8) I2C_I2C_SSTAT_WR_OVFL;
 768:Generated_Source\PSoC4/I2C_I2C_INT.c ****                 }
 769:Generated_Source\PSoC4/I2C_I2C_INT.c **** 
 770:Generated_Source\PSoC4/I2C_I2C_INT.c ****                 I2C_ClearRxInterruptSource(I2C_INTR_RX_NOT_EMPTY);
 771:Generated_Source\PSoC4/I2C_I2C_INT.c ****             }
 772:Generated_Source\PSoC4/I2C_I2C_INT.c ****             else
 773:Generated_Source\PSoC4/I2C_I2C_INT.c ****             {
 774:Generated_Source\PSoC4/I2C_I2C_INT.c ****                 /* Does nothing */
ARM GAS  C:\Users\ADMINI~1\AppData\Local\Temp\ccsy1ynt.s 			page 18


 775:Generated_Source\PSoC4/I2C_I2C_INT.c ****             }
 776:Generated_Source\PSoC4/I2C_I2C_INT.c **** 
 777:Generated_Source\PSoC4/I2C_I2C_INT.c **** 
 778:Generated_Source\PSoC4/I2C_I2C_INT.c ****             /* I2C_INTR_TX_EMPTY:
 779:Generated_Source\PSoC4/I2C_I2C_INT.c ****             * The master reads the slave: provide data to read or 0xFF in the case of the end of th
 780:Generated_Source\PSoC4/I2C_I2C_INT.c ****             * The overflow condition must be captured, but not set until the end of transaction.
 781:Generated_Source\PSoC4/I2C_I2C_INT.c ****             * There is a possibility of a false overflow due to TX FIFO utilization.
 782:Generated_Source\PSoC4/I2C_I2C_INT.c ****             */
 783:Generated_Source\PSoC4/I2C_I2C_INT.c ****             if(I2C_CHECK_INTR_TX_MASKED(I2C_INTR_TX_EMPTY))
 784:Generated_Source\PSoC4/I2C_I2C_INT.c ****             {
 785:Generated_Source\PSoC4/I2C_I2C_INT.c ****                 while(I2C_I2C_FIFO_SIZE != I2C_GET_TX_FIFO_ENTRIES)
 786:Generated_Source\PSoC4/I2C_I2C_INT.c ****                 {
 787:Generated_Source\PSoC4/I2C_I2C_INT.c ****                     /* Temporary slRdBufIndexTmp is used because the master can NACK the byte and
 788:Generated_Source\PSoC4/I2C_I2C_INT.c ****                     * index roll-back is required in this case. The slRdBufIndex is updated at the 
 789:Generated_Source\PSoC4/I2C_I2C_INT.c ****                     * of the read transfer.
 790:Generated_Source\PSoC4/I2C_I2C_INT.c ****                     */
 791:Generated_Source\PSoC4/I2C_I2C_INT.c ****                     if(I2C_slRdBufIndexTmp < I2C_slRdBufSize)
 792:Generated_Source\PSoC4/I2C_I2C_INT.c ****                     /* Data from buffer */
 793:Generated_Source\PSoC4/I2C_I2C_INT.c ****                     {
 794:Generated_Source\PSoC4/I2C_I2C_INT.c ****                         I2C_TX_FIFO_WR_REG = (uint32) I2C_slRdBufPtr[I2C_slRdBufIndexTmp];
 795:Generated_Source\PSoC4/I2C_I2C_INT.c ****                         I2C_slRdBufIndexTmp++;
 796:Generated_Source\PSoC4/I2C_I2C_INT.c ****                     }
 797:Generated_Source\PSoC4/I2C_I2C_INT.c ****                     else
 798:Generated_Source\PSoC4/I2C_I2C_INT.c ****                     /* Probably Overflow */
 799:Generated_Source\PSoC4/I2C_I2C_INT.c ****                     {
 800:Generated_Source\PSoC4/I2C_I2C_INT.c ****                         I2C_TX_FIFO_WR_REG = I2C_I2C_SLAVE_OVFL_RETURN;
 801:Generated_Source\PSoC4/I2C_I2C_INT.c **** 
 802:Generated_Source\PSoC4/I2C_I2C_INT.c ****                         if(0u == (I2C_INTR_TX_OVERFLOW & I2C_slOverFlowCount))
 803:Generated_Source\PSoC4/I2C_I2C_INT.c ****                         {
 804:Generated_Source\PSoC4/I2C_I2C_INT.c ****                             /* Get counter in range of byte: value 10 is overflow */
 805:Generated_Source\PSoC4/I2C_I2C_INT.c ****                             I2C_slOverFlowCount++;
 806:Generated_Source\PSoC4/I2C_I2C_INT.c ****                         }
 807:Generated_Source\PSoC4/I2C_I2C_INT.c ****                     }
 808:Generated_Source\PSoC4/I2C_I2C_INT.c ****                 }
 809:Generated_Source\PSoC4/I2C_I2C_INT.c **** 
 810:Generated_Source\PSoC4/I2C_I2C_INT.c ****                 I2C_ClearTxInterruptSource(I2C_INTR_TX_EMPTY);
 811:Generated_Source\PSoC4/I2C_I2C_INT.c ****             }
 812:Generated_Source\PSoC4/I2C_I2C_INT.c **** 
 813:Generated_Source\PSoC4/I2C_I2C_INT.c ****         }  /* (I2C_I2C_SLAVE) */
 814:Generated_Source\PSoC4/I2C_I2C_INT.c ****         #endif
 815:Generated_Source\PSoC4/I2C_I2C_INT.c ****     }
 816:Generated_Source\PSoC4/I2C_I2C_INT.c **** 
 817:Generated_Source\PSoC4/I2C_I2C_INT.c **** 
 818:Generated_Source\PSoC4/I2C_I2C_INT.c ****     /* FSM EXIT:
 819:Generated_Source\PSoC4/I2C_I2C_INT.c ****     * Slave:  INTR_SLAVE_I2C_BUS_ERROR, INTR_SLAVE_I2C_ARB_LOST
 820:Generated_Source\PSoC4/I2C_I2C_INT.c ****     * Master: INTR_MASTER_I2C_BUS_ERROR, INTR_MASTER_I2C_ARB_LOST.
 821:Generated_Source\PSoC4/I2C_I2C_INT.c ****     */
 822:Generated_Source\PSoC4/I2C_I2C_INT.c ****     else
 823:Generated_Source\PSoC4/I2C_I2C_INT.c ****     {
 824:Generated_Source\PSoC4/I2C_I2C_INT.c ****         I2C_CTRL_REG &= (uint32) ~I2C_CTRL_ENABLED; /* Disable scb IP */
 825:Generated_Source\PSoC4/I2C_I2C_INT.c **** 
 826:Generated_Source\PSoC4/I2C_I2C_INT.c ****         I2C_state = I2C_I2C_FSM_IDLE;
 827:Generated_Source\PSoC4/I2C_I2C_INT.c **** 
 828:Generated_Source\PSoC4/I2C_I2C_INT.c ****         I2C_DISABLE_SLAVE_AUTO_DATA;
 829:Generated_Source\PSoC4/I2C_I2C_INT.c ****         I2C_DISABLE_MASTER_AUTO_DATA;
 830:Generated_Source\PSoC4/I2C_I2C_INT.c **** 
 831:Generated_Source\PSoC4/I2C_I2C_INT.c ****     #if(I2C_CY_SCBIP_V0)
ARM GAS  C:\Users\ADMINI~1\AppData\Local\Temp\ccsy1ynt.s 			page 19


 832:Generated_Source\PSoC4/I2C_I2C_INT.c ****         I2C_SetRxInterruptMode(I2C_NO_INTR_SOURCES);
 833:Generated_Source\PSoC4/I2C_I2C_INT.c ****         I2C_SetTxInterruptMode(I2C_NO_INTR_SOURCES);
 834:Generated_Source\PSoC4/I2C_I2C_INT.c **** 
 835:Generated_Source\PSoC4/I2C_I2C_INT.c ****         /* Clear interrupt sources as they are not automatically cleared after SCB is disabled */
 836:Generated_Source\PSoC4/I2C_I2C_INT.c ****         I2C_ClearTxInterruptSource(I2C_INTR_RX_ALL);
 837:Generated_Source\PSoC4/I2C_I2C_INT.c ****         I2C_ClearRxInterruptSource(I2C_INTR_TX_ALL);
 838:Generated_Source\PSoC4/I2C_I2C_INT.c ****         I2C_ClearSlaveInterruptSource(I2C_INTR_SLAVE_ALL);
 839:Generated_Source\PSoC4/I2C_I2C_INT.c ****         I2C_ClearMasterInterruptSource(I2C_INTR_MASTER_ALL);
 840:Generated_Source\PSoC4/I2C_I2C_INT.c ****     #endif /* (I2C_CY_SCBIP_V0) */
 841:Generated_Source\PSoC4/I2C_I2C_INT.c **** 
 842:Generated_Source\PSoC4/I2C_I2C_INT.c ****         I2C_CTRL_REG |= (uint32) I2C_CTRL_ENABLED;  /* Enable scb IP */
 843:Generated_Source\PSoC4/I2C_I2C_INT.c ****     }
 844:Generated_Source\PSoC4/I2C_I2C_INT.c **** 
 845:Generated_Source\PSoC4/I2C_I2C_INT.c **** #ifdef I2C_I2C_ISR_EXIT_CALLBACK
 846:Generated_Source\PSoC4/I2C_I2C_INT.c ****     I2C_I2C_ISR_ExitCallback();
 847:Generated_Source\PSoC4/I2C_I2C_INT.c **** #endif /* I2C_I2C_ISR_EXIT_CALLBACK */
 848:Generated_Source\PSoC4/I2C_I2C_INT.c ****     
 849:Generated_Source\PSoC4/I2C_I2C_INT.c **** }
 196              		.loc 1 849 0 discriminator 4
 197 00f6 AAE1     		b	.L44
 198              	.L11:
 245:Generated_Source\PSoC4/I2C_I2C_INT.c ****                 {
 199              		.loc 1 245 0
 200 00f8 874B     		ldr	r3, .L45+12
 201 00fa 1B78     		ldrb	r3, [r3]
 202 00fc DBB2     		uxtb	r3, r3
 203 00fe 0822     		movs	r2, #8
 204 0100 1340     		ands	r3, r2
 205 0102 DBB2     		uxtb	r3, r3
 206 0104 002B     		cmp	r3, #0
 207 0106 29D0     		beq	.L15
 250:Generated_Source\PSoC4/I2C_I2C_INT.c ****                     {
 208              		.loc 1 250 0
 209 0108 844B     		ldr	r3, .L45+16
 210 010a 1B68     		ldr	r3, [r3]
 211 010c 0222     		movs	r2, #2
 212 010e 1340     		ands	r3, r2
 213 0110 0ED0     		beq	.L16
 252:Generated_Source\PSoC4/I2C_I2C_INT.c **** 
 214              		.loc 1 252 0
 215 0112 844B     		ldr	r3, .L45+24
 216 0114 0222     		movs	r2, #2
 217 0116 1A60     		str	r2, [r3]
 254:Generated_Source\PSoC4/I2C_I2C_INT.c ****                                                                  I2C_I2C_MSTAT_ERR_ADDR_NAK);
 218              		.loc 1 254 0
 219 0118 814B     		ldr	r3, .L45+20
 220 011a 1B88     		ldrh	r3, [r3]
 221 011c 9BB2     		uxth	r3, r3
 222 011e 8822     		movs	r2, #136
 223 0120 9200     		lsls	r2, r2, #2
 224 0122 1343     		orrs	r3, r2
 225 0124 9AB2     		uxth	r2, r3
 226 0126 7E4B     		ldr	r3, .L45+20
 227 0128 1A80     		strh	r2, [r3]
 257:Generated_Source\PSoC4/I2C_I2C_INT.c ****                     }
 228              		.loc 1 257 0
 229 012a 0123     		movs	r3, #1
ARM GAS  C:\Users\ADMINI~1\AppData\Local\Temp\ccsy1ynt.s 			page 20


 230 012c 3B60     		str	r3, [r7]
 231 012e 15E0     		b	.L15
 232              	.L16:
 267:Generated_Source\PSoC4/I2C_I2C_INT.c ****                         {
 233              		.loc 1 267 0
 234 0130 794B     		ldr	r3, .L45+12
 235 0132 1B78     		ldrb	r3, [r3]
 236 0134 DBB2     		uxtb	r3, r3
 237 0136 0122     		movs	r2, #1
 238 0138 1340     		ands	r3, r2
 239 013a DBB2     		uxtb	r3, r3
 240 013c 002B     		cmp	r3, #0
 241 013e 03D0     		beq	.L17
 269:Generated_Source\PSoC4/I2C_I2C_INT.c ****                         }
 242              		.loc 1 269 0
 243 0140 754B     		ldr	r3, .L45+12
 244 0142 2522     		movs	r2, #37
 245 0144 1A70     		strb	r2, [r3]
 246 0146 09E0     		b	.L15
 247              	.L17:
 273:Generated_Source\PSoC4/I2C_I2C_INT.c ****                             if(0u != I2C_mstrWrBufSize)
 248              		.loc 1 273 0
 249 0148 734B     		ldr	r3, .L45+12
 250 014a 2422     		movs	r2, #36
 251 014c 1A70     		strb	r2, [r3]
 274:Generated_Source\PSoC4/I2C_I2C_INT.c ****                             {
 252              		.loc 1 274 0
 253 014e 764B     		ldr	r3, .L45+28
 254 0150 1B68     		ldr	r3, [r3]
 255 0152 002B     		cmp	r3, #0
 256 0154 02D0     		beq	.L15
 277:Generated_Source\PSoC4/I2C_I2C_INT.c ****                             }
 257              		.loc 1 277 0
 258 0156 754B     		ldr	r3, .L45+32
 259 0158 1022     		movs	r2, #16
 260 015a 1A60     		str	r2, [r3]
 261              	.L15:
 283:Generated_Source\PSoC4/I2C_I2C_INT.c ****                 {
 262              		.loc 1 283 0
 263 015c 6E4B     		ldr	r3, .L45+12
 264 015e 1B78     		ldrb	r3, [r3]
 265 0160 DBB2     		uxtb	r3, r3
 266 0162 0422     		movs	r2, #4
 267 0164 1340     		ands	r3, r2
 268 0166 DBB2     		uxtb	r3, r3
 269 0168 002B     		cmp	r3, #0
 270 016a 00D1     		bne	.LCB225
 271 016c 13E1     		b	.L18	@long jump
 272              	.LCB225:
 285:Generated_Source\PSoC4/I2C_I2C_INT.c ****                     {
 273              		.loc 1 285 0
 274 016e 6A4B     		ldr	r3, .L45+12
 275 0170 1B78     		ldrb	r3, [r3]
 276 0172 DBB2     		uxtb	r3, r3
 277 0174 0122     		movs	r2, #1
 278 0176 1340     		ands	r3, r2
 279 0178 DBB2     		uxtb	r3, r3
ARM GAS  C:\Users\ADMINI~1\AppData\Local\Temp\ccsy1ynt.s 			page 21


 280 017a 002B     		cmp	r3, #0
 281 017c 5BD0     		beq	.L19
 291:Generated_Source\PSoC4/I2C_I2C_INT.c ****                         {
 282              		.loc 1 291 0
 283 017e 6C4B     		ldr	r3, .L45+36
 284 0180 1B68     		ldr	r3, [r3]
 285 0182 0822     		movs	r2, #8
 286 0184 1340     		ands	r3, r2
 287 0186 33D0     		beq	.L20
 294:Generated_Source\PSoC4/I2C_I2C_INT.c ****                                         (I2C_mstrRdBufIndex + I2C_GET_RX_FIFO_ENTRIES);
 288              		.loc 1 294 0
 289 0188 6A4B     		ldr	r3, .L45+40
 290 018a 1A68     		ldr	r2, [r3]
 295:Generated_Source\PSoC4/I2C_I2C_INT.c **** 
 291              		.loc 1 295 0
 292 018c 6A4B     		ldr	r3, .L45+44
 293 018e 1B68     		ldr	r3, [r3]
 294 0190 1F21     		movs	r1, #31
 295 0192 1940     		ands	r1, r3
 296 0194 694B     		ldr	r3, .L45+48
 297 0196 1B68     		ldr	r3, [r3]
 298 0198 CB18     		adds	r3, r1, r3
 294:Generated_Source\PSoC4/I2C_I2C_INT.c ****                                         (I2C_mstrRdBufIndex + I2C_GET_RX_FIFO_ENTRIES);
 299              		.loc 1 294 0
 300 019a D31A     		subs	r3, r2, r3
 301 019c 7B60     		str	r3, [r7, #4]
 298:Generated_Source\PSoC4/I2C_I2C_INT.c ****                             {
 302              		.loc 1 298 0
 303 019e 7B68     		ldr	r3, [r7, #4]
 304 01a0 082B     		cmp	r3, #8
 305 01a2 02D9     		bls	.L21
 300:Generated_Source\PSoC4/I2C_I2C_INT.c ****                             }
 306              		.loc 1 300 0
 307 01a4 0823     		movs	r3, #8
 308 01a6 7B60     		str	r3, [r7, #4]
 309 01a8 1EE0     		b	.L23
 310              	.L21:
 304:Generated_Source\PSoC4/I2C_I2C_INT.c ****                                 {
 311              		.loc 1 304 0
 312 01aa 7B68     		ldr	r3, [r7, #4]
 313 01ac 002B     		cmp	r3, #0
 314 01ae 1BD1     		bne	.L23
 306:Generated_Source\PSoC4/I2C_I2C_INT.c **** 
 315              		.loc 1 306 0
 316 01b0 634B     		ldr	r3, .L45+52
 317 01b2 634A     		ldr	r2, .L45+52
 318 01b4 1268     		ldr	r2, [r2]
 319 01b6 6349     		ldr	r1, .L45+56
 320 01b8 0A40     		ands	r2, r1
 321 01ba 1A60     		str	r2, [r3]
 308:Generated_Source\PSoC4/I2C_I2C_INT.c ****                                     endTransfer = I2C_I2C_CMPLT_ANY_TRANSFER;
 322              		.loc 1 308 0
 323 01bc 0823     		movs	r3, #8
 324 01be 7B60     		str	r3, [r7, #4]
 309:Generated_Source\PSoC4/I2C_I2C_INT.c ****                                 }
 325              		.loc 1 309 0
 326 01c0 0123     		movs	r3, #1
ARM GAS  C:\Users\ADMINI~1\AppData\Local\Temp\ccsy1ynt.s 			page 22


 327 01c2 3B60     		str	r3, [r7]
 313:Generated_Source\PSoC4/I2C_I2C_INT.c ****                             {
 328              		.loc 1 313 0
 329 01c4 10E0     		b	.L23
 330              	.L24:
 315:Generated_Source\PSoC4/I2C_I2C_INT.c ****                                                                                         I2C_RX_FIFO
 331              		.loc 1 315 0 discriminator 2
 332 01c6 604B     		ldr	r3, .L45+60
 333 01c8 1A68     		ldr	r2, [r3]
 334 01ca 5C4B     		ldr	r3, .L45+48
 335 01cc 1B68     		ldr	r3, [r3]
 336 01ce D218     		adds	r2, r2, r3
 316:Generated_Source\PSoC4/I2C_I2C_INT.c ****                                 I2C_mstrRdBufIndex++;
 337              		.loc 1 316 0 discriminator 2
 338 01d0 5E4B     		ldr	r3, .L45+64
 339 01d2 1B68     		ldr	r3, [r3]
 315:Generated_Source\PSoC4/I2C_I2C_INT.c ****                                                                                         I2C_RX_FIFO
 340              		.loc 1 315 0 discriminator 2
 341 01d4 DBB2     		uxtb	r3, r3
 342 01d6 1370     		strb	r3, [r2]
 317:Generated_Source\PSoC4/I2C_I2C_INT.c ****                             }
 343              		.loc 1 317 0 discriminator 2
 344 01d8 584B     		ldr	r3, .L45+48
 345 01da 1B68     		ldr	r3, [r3]
 346 01dc 5A1C     		adds	r2, r3, #1
 347 01de 574B     		ldr	r3, .L45+48
 348 01e0 1A60     		str	r2, [r3]
 313:Generated_Source\PSoC4/I2C_I2C_INT.c ****                             {
 349              		.loc 1 313 0 discriminator 2
 350 01e2 7B68     		ldr	r3, [r7, #4]
 351 01e4 013B     		subs	r3, r3, #1
 352 01e6 7B60     		str	r3, [r7, #4]
 353              	.L23:
 313:Generated_Source\PSoC4/I2C_I2C_INT.c ****                             {
 354              		.loc 1 313 0 is_stmt 0 discriminator 1
 355 01e8 7B68     		ldr	r3, [r7, #4]
 356 01ea 002B     		cmp	r3, #0
 357 01ec EBD1     		bne	.L24
 358 01ee 1EE0     		b	.L25
 359              	.L20:
 325:Generated_Source\PSoC4/I2C_I2C_INT.c ****                         {
 360              		.loc 1 325 0 is_stmt 1
 361 01f0 4F4B     		ldr	r3, .L45+36
 362 01f2 1B68     		ldr	r3, [r3]
 363 01f4 0422     		movs	r2, #4
 364 01f6 1340     		ands	r3, r2
 365 01f8 19D0     		beq	.L25
 328:Generated_Source\PSoC4/I2C_I2C_INT.c ****                             I2C_mstrRdBufIndex++;
 366              		.loc 1 328 0
 367 01fa 534B     		ldr	r3, .L45+60
 368 01fc 1A68     		ldr	r2, [r3]
 369 01fe 4F4B     		ldr	r3, .L45+48
 370 0200 1B68     		ldr	r3, [r3]
 371 0202 D218     		adds	r2, r2, r3
 372 0204 514B     		ldr	r3, .L45+64
 373 0206 1B68     		ldr	r3, [r3]
 374 0208 DBB2     		uxtb	r3, r3
ARM GAS  C:\Users\ADMINI~1\AppData\Local\Temp\ccsy1ynt.s 			page 23


 375 020a 1370     		strb	r3, [r2]
 329:Generated_Source\PSoC4/I2C_I2C_INT.c **** 
 376              		.loc 1 329 0
 377 020c 4B4B     		ldr	r3, .L45+48
 378 020e 1B68     		ldr	r3, [r3]
 379 0210 5A1C     		adds	r2, r3, #1
 380 0212 4A4B     		ldr	r3, .L45+48
 381 0214 1A60     		str	r2, [r3]
 331:Generated_Source\PSoC4/I2C_I2C_INT.c ****                             {
 382              		.loc 1 331 0
 383 0216 494B     		ldr	r3, .L45+48
 384 0218 1A68     		ldr	r2, [r3]
 385 021a 464B     		ldr	r3, .L45+40
 386 021c 1B68     		ldr	r3, [r3]
 387 021e 9A42     		cmp	r2, r3
 388 0220 03D2     		bcs	.L26
 333:Generated_Source\PSoC4/I2C_I2C_INT.c ****                             }
 389              		.loc 1 333 0
 390 0222 4B4B     		ldr	r3, .L45+68
 391 0224 0422     		movs	r2, #4
 392 0226 1A60     		str	r2, [r3]
 393 0228 01E0     		b	.L25
 394              	.L26:
 337:Generated_Source\PSoC4/I2C_I2C_INT.c ****                             }
 395              		.loc 1 337 0
 396 022a 0123     		movs	r3, #1
 397 022c 3B60     		str	r3, [r7]
 398              	.L25:
 345:Generated_Source\PSoC4/I2C_I2C_INT.c ****                     }
 399              		.loc 1 345 0
 400 022e 494B     		ldr	r3, .L45+72
 401 0230 494A     		ldr	r2, .L45+76
 402 0232 1A60     		str	r2, [r3]
 403 0234 AFE0     		b	.L18
 404              	.L19:
 354:Generated_Source\PSoC4/I2C_I2C_INT.c ****                         {
 405              		.loc 1 354 0
 406 0236 394B     		ldr	r3, .L45+16
 407 0238 1B68     		ldr	r3, [r3]
 408 023a 0222     		movs	r2, #2
 409 023c 1340     		ands	r3, r2
 410 023e 32D0     		beq	.L28
 356:Generated_Source\PSoC4/I2C_I2C_INT.c **** 
 411              		.loc 1 356 0
 412 0240 384B     		ldr	r3, .L45+24
 413 0242 0222     		movs	r2, #2
 414 0244 1A60     		str	r2, [r3]
 359:Generated_Source\PSoC4/I2C_I2C_INT.c ****                                                                    I2C_GET_TX_FIFO_SR_VALID);
 415              		.loc 1 359 0
 416 0246 454B     		ldr	r3, .L45+80
 417 0248 1B68     		ldr	r3, [r3]
 418 024a 1F22     		movs	r2, #31
 419 024c 1A40     		ands	r2, r3
 360:Generated_Source\PSoC4/I2C_I2C_INT.c **** 
 420              		.loc 1 360 0
 421 024e 434B     		ldr	r3, .L45+80
 422 0250 1968     		ldr	r1, [r3]
ARM GAS  C:\Users\ADMINI~1\AppData\Local\Temp\ccsy1ynt.s 			page 24


 423 0252 8023     		movs	r3, #128
 424 0254 1B02     		lsls	r3, r3, #8
 425 0256 0B40     		ands	r3, r1
 359:Generated_Source\PSoC4/I2C_I2C_INT.c ****                                                                    I2C_GET_TX_FIFO_SR_VALID);
 426              		.loc 1 359 0
 427 0258 01D0     		beq	.L29
 359:Generated_Source\PSoC4/I2C_I2C_INT.c ****                                                                    I2C_GET_TX_FIFO_SR_VALID);
 428              		.loc 1 359 0 is_stmt 0 discriminator 1
 429 025a 0123     		movs	r3, #1
 430 025c 00E0     		b	.L30
 431              	.L29:
 359:Generated_Source\PSoC4/I2C_I2C_INT.c ****                                                                    I2C_GET_TX_FIFO_SR_VALID);
 432              		.loc 1 359 0 discriminator 2
 433 025e 0023     		movs	r3, #0
 434              	.L30:
 359:Generated_Source\PSoC4/I2C_I2C_INT.c ****                                                                    I2C_GET_TX_FIFO_SR_VALID);
 435              		.loc 1 359 0 discriminator 4
 436 0260 D218     		adds	r2, r2, r3
 437 0262 3F4B     		ldr	r3, .L45+84
 438 0264 1B68     		ldr	r3, [r3]
 439 0266 9A1A     		subs	r2, r3, r2
 440 0268 3D4B     		ldr	r3, .L45+84
 441 026a 1A60     		str	r2, [r3]
 363:Generated_Source\PSoC4/I2C_I2C_INT.c **** 
 442              		.loc 1 363 0 is_stmt 1 discriminator 4
 443 026c 3C4B     		ldr	r3, .L45+84
 444 026e 1A68     		ldr	r2, [r3]
 445 0270 3C4B     		ldr	r3, .L45+88
 446 0272 1A60     		str	r2, [r3]
 365:Generated_Source\PSoC4/I2C_I2C_INT.c ****                                                                      I2C_I2C_MSTAT_ERR_SHORT_XFER);
 447              		.loc 1 365 0 discriminator 4
 448 0274 2A4B     		ldr	r3, .L45+20
 449 0276 1B88     		ldrh	r3, [r3]
 450 0278 9BB2     		uxth	r3, r3
 451 027a 8422     		movs	r2, #132
 452 027c 9200     		lsls	r2, r2, #2
 453 027e 1343     		orrs	r3, r2
 454 0280 9AB2     		uxth	r2, r3
 455 0282 274B     		ldr	r3, .L45+20
 456 0284 1A80     		strh	r2, [r3]
 368:Generated_Source\PSoC4/I2C_I2C_INT.c **** 
 457              		.loc 1 368 0 discriminator 4
 458 0286 384B     		ldr	r3, .L45+92
 459 0288 374A     		ldr	r2, .L45+92
 460 028a 1268     		ldr	r2, [r2]
 461 028c 8021     		movs	r1, #128
 462 028e 4902     		lsls	r1, r1, #9
 463 0290 0A43     		orrs	r2, r1
 464 0292 1A60     		str	r2, [r3]
 465 0294 344B     		ldr	r3, .L45+92
 466 0296 344A     		ldr	r2, .L45+92
 467 0298 1268     		ldr	r2, [r2]
 468 029a 3449     		ldr	r1, .L45+96
 469 029c 0A40     		ands	r2, r1
 470 029e 1A60     		str	r2, [r3]
 370:Generated_Source\PSoC4/I2C_I2C_INT.c ****                         }
 471              		.loc 1 370 0 discriminator 4
ARM GAS  C:\Users\ADMINI~1\AppData\Local\Temp\ccsy1ynt.s 			page 25


 472 02a0 0123     		movs	r3, #1
 473 02a2 3B60     		str	r3, [r7]
 474 02a4 77E0     		b	.L18
 475              	.L28:
 377:Generated_Source\PSoC4/I2C_I2C_INT.c ****                         {
 476              		.loc 1 377 0
 477 02a6 324B     		ldr	r3, .L45+100
 478 02a8 1B68     		ldr	r3, [r3]
 479 02aa 1022     		movs	r2, #16
 480 02ac 1340     		ands	r3, r2
 481 02ae 67D0     		beq	.L31
 379:Generated_Source\PSoC4/I2C_I2C_INT.c ****                             {
 482              		.loc 1 379 0
 483 02b0 20E0     		b	.L32
 484              	.L36:
 384:Generated_Source\PSoC4/I2C_I2C_INT.c ****                                 {
 485              		.loc 1 384 0
 486 02b2 2B4B     		ldr	r3, .L45+84
 487 02b4 1A68     		ldr	r2, [r3]
 488 02b6 1C4B     		ldr	r3, .L45+28
 489 02b8 1B68     		ldr	r3, [r3]
 490 02ba 9A42     		cmp	r2, r3
 491 02bc 21D2     		bcs	.L43
 391:Generated_Source\PSoC4/I2C_I2C_INT.c ****                                     {
 492              		.loc 1 391 0
 493 02be 1A4B     		ldr	r3, .L45+28
 494 02c0 1B68     		ldr	r3, [r3]
 495 02c2 5A1E     		subs	r2, r3, #1
 496 02c4 264B     		ldr	r3, .L45+84
 497 02c6 1B68     		ldr	r3, [r3]
 498 02c8 9A42     		cmp	r2, r3
 499 02ca 05D1     		bne	.L34
 393:Generated_Source\PSoC4/I2C_I2C_INT.c ****                                         I2C_SetTxInterruptMode(I2C_INTR_TX_UNDERFLOW);
 500              		.loc 1 393 0
 501 02cc 294B     		ldr	r3, .L45+104
 502 02ce 4022     		movs	r2, #64
 503 02d0 1A60     		str	r2, [r3]
 394:Generated_Source\PSoC4/I2C_I2C_INT.c ****                                     }
 504              		.loc 1 394 0
 505 02d2 164B     		ldr	r3, .L45+32
 506 02d4 4022     		movs	r2, #64
 507 02d6 1A60     		str	r2, [r3]
 508              	.L34:
 399:Generated_Source\PSoC4/I2C_I2C_INT.c ****                                     I2C_mstrWrBufIndexTmp++;
 509              		.loc 1 399 0
 510 02d8 274A     		ldr	r2, .L45+108
 511 02da 284B     		ldr	r3, .L45+112
 512 02dc 1968     		ldr	r1, [r3]
 513 02de 204B     		ldr	r3, .L45+84
 514 02e0 1B68     		ldr	r3, [r3]
 515 02e2 CB18     		adds	r3, r1, r3
 516 02e4 1B78     		ldrb	r3, [r3]
 517 02e6 DBB2     		uxtb	r3, r3
 518 02e8 1360     		str	r3, [r2]
 400:Generated_Source\PSoC4/I2C_I2C_INT.c ****                                 }
 519              		.loc 1 400 0
 520 02ea 1D4B     		ldr	r3, .L45+84
ARM GAS  C:\Users\ADMINI~1\AppData\Local\Temp\ccsy1ynt.s 			page 26


 521 02ec 1B68     		ldr	r3, [r3]
 522 02ee 5A1C     		adds	r2, r3, #1
 523 02f0 1B4B     		ldr	r3, .L45+84
 524 02f2 1A60     		str	r2, [r3]
 525              	.L32:
 379:Generated_Source\PSoC4/I2C_I2C_INT.c ****                             {
 526              		.loc 1 379 0
 527 02f4 194B     		ldr	r3, .L45+80
 528 02f6 1B68     		ldr	r3, [r3]
 529 02f8 1F22     		movs	r2, #31
 530 02fa 1340     		ands	r3, r2
 531 02fc 082B     		cmp	r3, #8
 532 02fe D8D1     		bne	.L36
 533 0300 00E0     		b	.L35
 534              	.L43:
 404:Generated_Source\PSoC4/I2C_I2C_INT.c ****                                 }
 535              		.loc 1 404 0
 536 0302 C046     		nop
 537              	.L35:
 416:Generated_Source\PSoC4/I2C_I2C_INT.c ****                         #endif /* (I2C_CY_SCBIP_V0) */
 538              		.loc 1 416 0
 539 0304 1B4B     		ldr	r3, .L45+104
 540 0306 1022     		movs	r2, #16
 541 0308 1A60     		str	r2, [r3]
 542 030a 44E0     		b	.L18
 543              	.L46:
 544              		.align	2
 545              	.L45:
 546 030c 00000000 		.word	I2C_customIntrHandler
 547 0310 8C0E2440 		.word	1076104844
 548 0314 880E2440 		.word	1076104840
 549 0318 00000000 		.word	I2C_state
 550 031c 0C0F2440 		.word	1076104972
 551 0320 00000000 		.word	I2C_mstrStatus
 552 0324 000F2440 		.word	1076104960
 553 0328 00000000 		.word	I2C_mstrWrBufSize
 554 032c 880F2440 		.word	1076105096
 555 0330 CC0F2440 		.word	1076105164
 556 0334 00000000 		.word	I2C_mstrRdBufSize
 557 0338 08032440 		.word	1076101896
 558 033c 00000000 		.word	I2C_mstrRdBufIndex
 559 0340 60002440 		.word	1076101216
 560 0344 FFFEFFFF 		.word	-257
 561 0348 00000000 		.word	I2C_mstrRdBufPtr
 562 034c 40032440 		.word	1076101952
 563 0350 68002440 		.word	1076101224
 564 0354 C00F2440 		.word	1076105152
 565 0358 ED0F0000 		.word	4077
 566 035c 08022440 		.word	1076101640
 567 0360 00000000 		.word	I2C_mstrWrBufIndexTmp
 568 0364 00000000 		.word	I2C_mstrWrBufIndex
 569 0368 04022440 		.word	1076101636
 570 036c FFFFFEFF 		.word	-65537
 571 0370 8C0F2440 		.word	1076105100
 572 0374 800F2440 		.word	1076105088
 573 0378 40022440 		.word	1076101696
 574 037c 00000000 		.word	I2C_mstrWrBufPtr
ARM GAS  C:\Users\ADMINI~1\AppData\Local\Temp\ccsy1ynt.s 			page 27


 575              	.L31:
 423:Generated_Source\PSoC4/I2C_I2C_INT.c ****                         {
 576              		.loc 1 423 0
 577 0380 354B     		ldr	r3, .L47
 578 0382 1B68     		ldr	r3, [r3]
 579 0384 4022     		movs	r2, #64
 580 0386 1340     		ands	r3, r2
 581 0388 05D0     		beq	.L18
 426:Generated_Source\PSoC4/I2C_I2C_INT.c **** 
 582              		.loc 1 426 0
 583 038a 344B     		ldr	r3, .L47+4
 584 038c 1A68     		ldr	r2, [r3]
 585 038e 344B     		ldr	r3, .L47+8
 586 0390 1A60     		str	r2, [r3]
 428:Generated_Source\PSoC4/I2C_I2C_INT.c ****                         }
 587              		.loc 1 428 0
 588 0392 0123     		movs	r3, #1
 589 0394 3B60     		str	r3, [r7]
 590              	.L18:
 437:Generated_Source\PSoC4/I2C_I2C_INT.c ****                 {
 591              		.loc 1 437 0
 592 0396 3B68     		ldr	r3, [r7]
 593 0398 002B     		cmp	r3, #0
 594 039a 58D0     		beq	.L44
 440:Generated_Source\PSoC4/I2C_I2C_INT.c **** 
 595              		.loc 1 440 0
 596 039c 314B     		ldr	r3, .L47+12
 597 039e 314A     		ldr	r2, .L47+12
 598 03a0 1268     		ldr	r2, [r2]
 599 03a2 3149     		ldr	r1, .L47+16
 600 03a4 0A40     		ands	r2, r1
 601 03a6 1A60     		str	r2, [r3]
 443:Generated_Source\PSoC4/I2C_I2C_INT.c ****                     I2C_SetTxInterruptMode(I2C_NO_INTR_SOURCES);
 602              		.loc 1 443 0
 603 03a8 304B     		ldr	r3, .L47+20
 604 03aa 0022     		movs	r2, #0
 605 03ac 1A60     		str	r2, [r3]
 444:Generated_Source\PSoC4/I2C_I2C_INT.c **** 
 606              		.loc 1 444 0
 607 03ae 304B     		ldr	r3, .L47+24
 608 03b0 0022     		movs	r2, #0
 609 03b2 1A60     		str	r2, [r3]
 446:Generated_Source\PSoC4/I2C_I2C_INT.c ****                     {
 610              		.loc 1 446 0
 611 03b4 2F4B     		ldr	r3, .L47+28
 612 03b6 1B78     		ldrb	r3, [r3]
 613 03b8 DBB2     		uxtb	r3, r3
 614 03ba 0222     		movs	r2, #2
 615 03bc 1340     		ands	r3, r2
 616 03be DBB2     		uxtb	r3, r3
 617 03c0 002B     		cmp	r3, #0
 618 03c2 15D0     		beq	.L37
 450:Generated_Source\PSoC4/I2C_I2C_INT.c **** 
 619              		.loc 1 450 0
 620 03c4 2C4B     		ldr	r3, .L47+32
 621 03c6 1B78     		ldrb	r3, [r3]
 622 03c8 DBB2     		uxtb	r3, r3
ARM GAS  C:\Users\ADMINI~1\AppData\Local\Temp\ccsy1ynt.s 			page 28


 623 03ca 0122     		movs	r2, #1
 624 03cc 1340     		ands	r3, r2
 625 03ce DBB2     		uxtb	r3, r3
 449:Generated_Source\PSoC4/I2C_I2C_INT.c ****                                                                  I2C_GET_I2C_MSTAT_CMPLT);
 626              		.loc 1 449 0
 627 03d0 002B     		cmp	r3, #0
 628 03d2 01D0     		beq	.L38
 449:Generated_Source\PSoC4/I2C_I2C_INT.c ****                                                                  I2C_GET_I2C_MSTAT_CMPLT);
 629              		.loc 1 449 0 is_stmt 0 discriminator 1
 630 03d4 0923     		movs	r3, #9
 631 03d6 00E0     		b	.L39
 632              	.L38:
 449:Generated_Source\PSoC4/I2C_I2C_INT.c ****                                                                  I2C_GET_I2C_MSTAT_CMPLT);
 633              		.loc 1 449 0 discriminator 2
 634 03d8 0A23     		movs	r3, #10
 635              	.L39:
 449:Generated_Source\PSoC4/I2C_I2C_INT.c ****                                                                  I2C_GET_I2C_MSTAT_CMPLT);
 636              		.loc 1 449 0 discriminator 4
 637 03da 284A     		ldr	r2, .L47+36
 638 03dc 1288     		ldrh	r2, [r2]
 639 03de 92B2     		uxth	r2, r2
 640 03e0 1343     		orrs	r3, r2
 641 03e2 9AB2     		uxth	r2, r3
 642 03e4 254B     		ldr	r3, .L47+36
 643 03e6 1A80     		strh	r2, [r3]
 452:Generated_Source\PSoC4/I2C_I2C_INT.c ****                     }
 644              		.loc 1 452 0 is_stmt 1 discriminator 4
 645 03e8 234B     		ldr	r3, .L47+32
 646 03ea 6022     		movs	r2, #96
 647 03ec 1A70     		strb	r2, [r3]
 648              		.loc 1 849 0 discriminator 4
 649 03ee 2EE0     		b	.L44
 650              	.L37:
 462:Generated_Source\PSoC4/I2C_I2C_INT.c ****                     }
 651              		.loc 1 462 0
 652 03f0 234B     		ldr	r3, .L47+40
 653 03f2 244A     		ldr	r2, .L47+44
 654 03f4 1268     		ldr	r2, [r2]
 655 03f6 2021     		movs	r1, #32
 656 03f8 0A40     		ands	r2, r1
 657 03fa 01D0     		beq	.L40
 462:Generated_Source\PSoC4/I2C_I2C_INT.c ****                     }
 658              		.loc 1 462 0 is_stmt 0 discriminator 1
 659 03fc 1822     		movs	r2, #24
 660 03fe 00E0     		b	.L41
 661              	.L40:
 462:Generated_Source\PSoC4/I2C_I2C_INT.c ****                     }
 662              		.loc 1 462 0 discriminator 2
 663 0400 1022     		movs	r2, #16
 664              	.L41:
 462:Generated_Source\PSoC4/I2C_I2C_INT.c ****                     }
 665              		.loc 1 462 0 discriminator 4
 666 0402 1A60     		str	r2, [r3]
 667              		.loc 1 849 0 is_stmt 1 discriminator 4
 668 0404 23E0     		b	.L44
 669              	.L10:
 474:Generated_Source\PSoC4/I2C_I2C_INT.c ****     {
ARM GAS  C:\Users\ADMINI~1\AppData\Local\Temp\ccsy1ynt.s 			page 29


 670              		.loc 1 474 0
 671 0406 1C4B     		ldr	r3, .L47+32
 672 0408 1B78     		ldrb	r3, [r3]
 673 040a DBB2     		uxtb	r3, r3
 674 040c 1022     		movs	r2, #16
 675 040e 1340     		ands	r3, r2
 676 0410 DBB2     		uxtb	r3, r3
 677 0412 002B     		cmp	r3, #0
 678 0414 1BD1     		bne	.L44
 824:Generated_Source\PSoC4/I2C_I2C_INT.c **** 
 679              		.loc 1 824 0
 680 0416 1C4B     		ldr	r3, .L47+48
 681 0418 1B4A     		ldr	r2, .L47+48
 682 041a 1268     		ldr	r2, [r2]
 683 041c 5200     		lsls	r2, r2, #1
 684 041e 5208     		lsrs	r2, r2, #1
 685 0420 1A60     		str	r2, [r3]
 826:Generated_Source\PSoC4/I2C_I2C_INT.c **** 
 686              		.loc 1 826 0
 687 0422 154B     		ldr	r3, .L47+32
 688 0424 1022     		movs	r2, #16
 689 0426 1A70     		strb	r2, [r3]
 828:Generated_Source\PSoC4/I2C_I2C_INT.c ****         I2C_DISABLE_MASTER_AUTO_DATA;
 690              		.loc 1 828 0
 691 0428 0E4B     		ldr	r3, .L47+12
 692 042a 0E4A     		ldr	r2, .L47+12
 693 042c 1268     		ldr	r2, [r2]
 694 042e 1749     		ldr	r1, .L47+52
 695 0430 0A40     		ands	r2, r1
 696 0432 1A60     		str	r2, [r3]
 829:Generated_Source\PSoC4/I2C_I2C_INT.c **** 
 697              		.loc 1 829 0
 698 0434 0B4B     		ldr	r3, .L47+12
 699 0436 0B4A     		ldr	r2, .L47+12
 700 0438 1268     		ldr	r2, [r2]
 701 043a 1549     		ldr	r1, .L47+56
 702 043c 0A40     		ands	r2, r1
 703 043e 1A60     		str	r2, [r3]
 842:Generated_Source\PSoC4/I2C_I2C_INT.c ****     }
 704              		.loc 1 842 0
 705 0440 114B     		ldr	r3, .L47+48
 706 0442 114A     		ldr	r2, .L47+48
 707 0444 1268     		ldr	r2, [r2]
 708 0446 8021     		movs	r1, #128
 709 0448 0906     		lsls	r1, r1, #24
 710 044a 0A43     		orrs	r2, r1
 711 044c 1A60     		str	r2, [r3]
 712              	.L44:
 713              		.loc 1 849 0
 714 044e C046     		nop
 715 0450 BD46     		mov	sp, r7
 716 0452 02B0     		add	sp, sp, #8
 717              		@ sp needed
 718 0454 80BD     		pop	{r7, pc}
 719              	.L48:
 720 0456 C046     		.align	2
 721              	.L47:
ARM GAS  C:\Users\ADMINI~1\AppData\Local\Temp\ccsy1ynt.s 			page 30


 722 0458 8C0F2440 		.word	1076105100
 723 045c 00000000 		.word	I2C_mstrWrBufIndexTmp
 724 0460 00000000 		.word	I2C_mstrWrBufIndex
 725 0464 60002440 		.word	1076101216
 726 0468 FFFEFFFF 		.word	-257
 727 046c C80F2440 		.word	1076105160
 728 0470 880F2440 		.word	1076105096
 729 0474 00000000 		.word	I2C_mstrControl
 730 0478 00000000 		.word	I2C_state
 731 047c 00000000 		.word	I2C_mstrStatus
 732 0480 68002440 		.word	1076101224
 733 0484 64002440 		.word	1076101220
 734 0488 00002440 		.word	1076101120
 735 048c FF5FFFFF 		.word	-40961
 736 0490 FFFCFFFF 		.word	-769
 737              		.cfi_endproc
 738              	.LFE1:
 739              		.size	I2C_I2C_ISR, .-I2C_I2C_ISR
 740              		.text
 741              	.Letext0:
 742              		.file 2 "Generated_Source\\PSoC4/cytypes.h"
 743              		.file 3 "Generated_Source\\PSoC4\\I2C_PVT.h"
 744              		.file 4 "Generated_Source\\PSoC4\\I2C_I2C_PVT.h"