Archive member included to satisfy reference by file (symbol)

.\CortexM0\ARM_GCC_541\Debug\OS2.a(PWM_Blue.o)
                              .\CortexM0\ARM_GCC_541\Debug\bsp.o (PWM_Blue_WriteCompare)
.\CortexM0\ARM_GCC_541\Debug\OS2.a(PWM_Green.o)
                              .\CortexM0\ARM_GCC_541\Debug\bsp.o (PWM_Green_WriteCompare)
.\CortexM0\ARM_GCC_541\Debug\OS2.a(PWM_Red.o)
                              .\CortexM0\ARM_GCC_541\Debug\bsp.o (PWM_Red_WriteCompare)
.\CortexM0\ARM_GCC_541\Debug\OS2.a(Accel_Pin.o)
                              .\CortexM0\ARM_GCC_541\Debug\bsp.o (Accel_Pin_ClearInterrupt)
.\CortexM0\ARM_GCC_541\Debug\OS2.a(I2C.o)
                              .\CortexM0\ARM_GCC_541\Debug\bsp.o (I2C_Start)
.\CortexM0\ARM_GCC_541\Debug\OS2.a(I2C_I2C.o)
                              .\CortexM0\ARM_GCC_541\Debug\OS2.a(I2C.o) (I2C_I2CInit)
.\CortexM0\ARM_GCC_541\Debug\OS2.a(I2C_I2C_MASTER.o)
                              .\CortexM0\ARM_GCC_541\Debug\OS2.a(I2C_I2C.o) (I2C_mstrStatus)
.\CortexM0\ARM_GCC_541\Debug\OS2.a(SW2.o)
                              .\CortexM0\ARM_GCC_541\Debug\bsp.o (SW2_Read)
.\CortexM0\ARM_GCC_541\Debug\OS2.a(Accel_ISR.o)
                              .\CortexM0\ARM_GCC_541\Debug\bsp.o (Accel_ISR_StartEx)
.\CortexM0\ARM_GCC_541\Debug\OS2.a(Temp_Sensor.o)
                              .\CortexM0\ARM_GCC_541\Debug\bsp.o (Temp_Sensor_Start)
.\CortexM0\ARM_GCC_541\Debug\OS2.a(Temp_Sensor_INT.o)
                              .\CortexM0\ARM_GCC_541\Debug\OS2.a(Temp_Sensor.o) (Temp_Sensor_EOC_ISR_Int)
.\CortexM0\ARM_GCC_541\Debug\OS2.a(DMA.o)
                              .\CortexM0\ARM_GCC_541\Debug\app.o (DMA_Start)
.\CortexM0\ARM_GCC_541\Debug\OS2.a(Opamp.o)
                              .\CortexM0\ARM_GCC_541\Debug\bsp.o (Opamp_Start)
.\CortexM0\ARM_GCC_541\Debug\OS2.a(ADC.o)
                              .\CortexM0\ARM_GCC_541\Debug\bsp.o (ADC_Start)
.\CortexM0\ARM_GCC_541\Debug\OS2.a(ADC_INT.o)
                              .\CortexM0\ARM_GCC_541\Debug\OS2.a(ADC.o) (ADC_ISR)
.\CortexM0\ARM_GCC_541\Debug\OS2.a(Temp_Sensor_EOC_ISR.o)
                              .\CortexM0\ARM_GCC_541\Debug\OS2.a(Temp_Sensor.o) (Temp_Sensor_EOC_ISR_Disable)
.\CortexM0\ARM_GCC_541\Debug\OS2.a(CyLib.o)
                              .\CortexM0\ARM_GCC_541\Debug\cyfitter_cfg.o (CySysClkWriteImoFreq)
.\CortexM0\ARM_GCC_541\Debug\OS2.a(CyDMA.o)
                              .\CortexM0\ARM_GCC_541\Debug\OS2.a(DMA.o) (CyDmaEnable)
.\CortexM0\ARM_GCC_541\Debug\OS2.a(CyLFClk.o)
                              .\CortexM0\ARM_GCC_541\Debug\OS2.a(CyLib.o) (CySysClkWcoEnabled)
.\CortexM0\ARM_GCC_541\Debug\OS2.a(CyBootAsmGnu.o)
                              .\CortexM0\ARM_GCC_541\Debug\OS2.a(CyLib.o) (CyDelayCycles)
.\CortexM0\ARM_GCC_541\Debug\OS2.a(I2C_I2C_INT.o)
                              .\CortexM0\ARM_GCC_541\Debug\OS2.a(I2C_I2C.o) (I2C_I2C_ISR)
.\CortexM0\ARM_GCC_541\Debug\OS2.a(CyFlash.o)
                              .\CortexM0\ARM_GCC_541\Debug\OS2.a(CyLib.o) (CySysFlashSetWaitCycles)
c:/program files (x86)/cypress/psoc creator/4.2/psoc creator/import/gnu/arm/5.4.1/bin/../lib/gcc/arm-none-eabi/5.4.1/armv6-m\libgcc.a(_udivsi3.o)
                              .\CortexM0\ARM_GCC_541\Debug\app.o (__aeabi_uidiv)
c:/program files (x86)/cypress/psoc creator/4.2/psoc creator/import/gnu/arm/5.4.1/bin/../lib/gcc/arm-none-eabi/5.4.1/armv6-m\libgcc.a(_divsi3.o)
                              .\CortexM0\ARM_GCC_541\Debug\OS2.a(Temp_Sensor.o) (__aeabi_idiv)
c:/program files (x86)/cypress/psoc creator/4.2/psoc creator/import/gnu/arm/5.4.1/bin/../lib/gcc/arm-none-eabi/5.4.1/armv6-m\libgcc.a(_dvmd_tls.o)
                              c:/program files (x86)/cypress/psoc creator/4.2/psoc creator/import/gnu/arm/5.4.1/bin/../lib/gcc/arm-none-eabi/5.4.1/armv6-m\libgcc.a(_udivsi3.o) (__aeabi_idiv0)
c:/program files (x86)/cypress/psoc creator/4.2/psoc creator/import/gnu/arm/5.4.1/bin/../lib/gcc/arm-none-eabi/5.4.1/armv6-m\libgcc.a(_aeabi_ldivmod.o)
                              .\CortexM0\ARM_GCC_541\Debug\OS2.a(ADC.o) (__aeabi_ldivmod)
c:/program files (x86)/cypress/psoc creator/4.2/psoc creator/import/gnu/arm/5.4.1/bin/../lib/gcc/arm-none-eabi/5.4.1/armv6-m\libgcc.a(_aeabi_uldivmod.o)
                              .\CortexM0\ARM_GCC_541\Debug\cpu_bsp.o (__aeabi_uldivmod)
c:/program files (x86)/cypress/psoc creator/4.2/psoc creator/import/gnu/arm/5.4.1/bin/../lib/gcc/arm-none-eabi/5.4.1/armv6-m\libgcc.a(_muldi3.o)
                              .\CortexM0\ARM_GCC_541\Debug\OS2.a(ADC.o) (__aeabi_lmul)
c:/program files (x86)/cypress/psoc creator/4.2/psoc creator/import/gnu/arm/5.4.1/bin/../lib/gcc/arm-none-eabi/5.4.1/armv6-m\libgcc.a(_udivmoddi4.o)
                              c:/program files (x86)/cypress/psoc creator/4.2/psoc creator/import/gnu/arm/5.4.1/bin/../lib/gcc/arm-none-eabi/5.4.1/armv6-m\libgcc.a(_aeabi_uldivmod.o) (__udivmoddi4)
c:/program files (x86)/cypress/psoc creator/4.2/psoc creator/import/gnu/arm/5.4.1/bin/../lib/gcc/arm-none-eabi/5.4.1/armv6-m\libgcc.a(bpabi.o)
                              c:/program files (x86)/cypress/psoc creator/4.2/psoc creator/import/gnu/arm/5.4.1/bin/../lib/gcc/arm-none-eabi/5.4.1/armv6-m\libgcc.a(_aeabi_ldivmod.o) (__gnu_ldivmod_helper)
c:/program files (x86)/cypress/psoc creator/4.2/psoc creator/import/gnu/arm/5.4.1/bin/../lib/gcc/arm-none-eabi/5.4.1/armv6-m\libgcc.a(divsf3.o)
                              .\CortexM0\ARM_GCC_541\Debug\OS2.a(ADC.o) (__aeabi_fdiv)
c:/program files (x86)/cypress/psoc creator/4.2/psoc creator/import/gnu/arm/5.4.1/bin/../lib/gcc/arm-none-eabi/5.4.1/armv6-m\libgcc.a(mulsf3.o)
                              .\CortexM0\ARM_GCC_541\Debug\OS2.a(ADC.o) (__aeabi_fmul)
c:/program files (x86)/cypress/psoc creator/4.2/psoc creator/import/gnu/arm/5.4.1/bin/../lib/gcc/arm-none-eabi/5.4.1/armv6-m\libgcc.a(floatsisf.o)
                              .\CortexM0\ARM_GCC_541\Debug\OS2.a(ADC.o) (__aeabi_i2f)
c:/program files (x86)/cypress/psoc creator/4.2/psoc creator/import/gnu/arm/5.4.1/bin/../lib/gcc/arm-none-eabi/5.4.1/armv6-m\libgcc.a(floatunsisf.o)
                              .\CortexM0\ARM_GCC_541\Debug\app.o (__aeabi_ui2f)
c:/program files (x86)/cypress/psoc creator/4.2/psoc creator/import/gnu/arm/5.4.1/bin/../lib/gcc/arm-none-eabi/5.4.1/armv6-m\libgcc.a(adddf3.o)
                              .\CortexM0\ARM_GCC_541\Debug\app.o (__aeabi_dadd)
c:/program files (x86)/cypress/psoc creator/4.2/psoc creator/import/gnu/arm/5.4.1/bin/../lib/gcc/arm-none-eabi/5.4.1/armv6-m\libgcc.a(muldf3.o)
                              .\CortexM0\ARM_GCC_541\Debug\app.o (__aeabi_dmul)
c:/program files (x86)/cypress/psoc creator/4.2/psoc creator/import/gnu/arm/5.4.1/bin/../lib/gcc/arm-none-eabi/5.4.1/armv6-m\libgcc.a(extendsfdf2.o)
                              .\CortexM0\ARM_GCC_541\Debug\app.o (__aeabi_f2d)
c:/program files (x86)/cypress/psoc creator/4.2/psoc creator/import/gnu/arm/5.4.1/bin/../lib/gcc/arm-none-eabi/5.4.1/armv6-m\libgcc.a(truncdfsf2.o)
                              .\CortexM0\ARM_GCC_541\Debug\app.o (__aeabi_d2f)
c:/program files (x86)/cypress/psoc creator/4.2/psoc creator/import/gnu/arm/5.4.1/bin/../lib/gcc/arm-none-eabi/5.4.1/armv6-m\libgcc.a(_clzsi2.o)
                              c:/program files (x86)/cypress/psoc creator/4.2/psoc creator/import/gnu/arm/5.4.1/bin/../lib/gcc/arm-none-eabi/5.4.1/armv6-m\libgcc.a(divsf3.o) (__clzsi2)
c:/program files (x86)/cypress/psoc creator/4.2/psoc creator/import/gnu/arm/5.4.1/bin/../lib/gcc/arm-none-eabi/5.4.1/armv6-m\libgcc.a(_clzdi2.o)
                              c:/program files (x86)/cypress/psoc creator/4.2/psoc creator/import/gnu/arm/5.4.1/bin/../lib/gcc/arm-none-eabi/5.4.1/armv6-m\libgcc.a(_udivmoddi4.o) (__clzdi2)
c:/program files (x86)/cypress/psoc creator/4.2/psoc creator/import/gnu/arm/5.4.1/bin/../lib/gcc/arm-none-eabi/5.4.1/armv6-m\libgcc.a(_divdi3.o)
                              c:/program files (x86)/cypress/psoc creator/4.2/psoc creator/import/gnu/arm/5.4.1/bin/../lib/gcc/arm-none-eabi/5.4.1/armv6-m\libgcc.a(bpabi.o) (__divdi3)
c:/program files (x86)/cypress/psoc creator/4.2/psoc creator/import/gnu/arm/5.4.1/bin/../lib/gcc/arm-none-eabi/5.4.1/../../../../arm-none-eabi/lib/armv6-m\libg_nano.a(lib_a-errno.o)
                              .\CortexM0\ARM_GCC_541\Debug\Cm0Start.o (__errno)
c:/program files (x86)/cypress/psoc creator/4.2/psoc creator/import/gnu/arm/5.4.1/bin/../lib/gcc/arm-none-eabi/5.4.1/../../../../arm-none-eabi/lib/armv6-m\libg_nano.a(lib_a-exit.o)
                              c:/program files (x86)/cypress/psoc creator/4.2/psoc creator/import/gnu/arm/5.4.1/bin/../lib/gcc/arm-none-eabi/5.4.1/../../../../arm-none-eabi/lib/armv6-m/crt0.o (exit)
c:/program files (x86)/cypress/psoc creator/4.2/psoc creator/import/gnu/arm/5.4.1/bin/../lib/gcc/arm-none-eabi/5.4.1/../../../../arm-none-eabi/lib/armv6-m\libg_nano.a(lib_a-impure.o)
                              c:/program files (x86)/cypress/psoc creator/4.2/psoc creator/import/gnu/arm/5.4.1/bin/../lib/gcc/arm-none-eabi/5.4.1/../../../../arm-none-eabi/lib/armv6-m\libg_nano.a(lib_a-exit.o) (_global_impure_ptr)
c:/program files (x86)/cypress/psoc creator/4.2/psoc creator/import/gnu/arm/5.4.1/bin/../lib/gcc/arm-none-eabi/5.4.1/../../../../arm-none-eabi/lib/armv6-m\libg_nano.a(lib_a-init.o)
                              c:/program files (x86)/cypress/psoc creator/4.2/psoc creator/import/gnu/arm/5.4.1/bin/../lib/gcc/arm-none-eabi/5.4.1/../../../../arm-none-eabi/lib/armv6-m/crt0.o (__libc_init_array)
c:/program files (x86)/cypress/psoc creator/4.2/psoc creator/import/gnu/arm/5.4.1/bin/../lib/gcc/arm-none-eabi/5.4.1/../../../../arm-none-eabi/lib/armv6-m\libg_nano.a(lib_a-memcpy-stub.o)
                              .\CortexM0\ARM_GCC_541\Debug\cyfitter_cfg.o (memcpy)
c:/program files (x86)/cypress/psoc creator/4.2/psoc creator/import/gnu/arm/5.4.1/bin/../lib/gcc/arm-none-eabi/5.4.1/../../../../arm-none-eabi/lib/armv6-m\libg_nano.a(lib_a-memset.o)
                              c:/program files (x86)/cypress/psoc creator/4.2/psoc creator/import/gnu/arm/5.4.1/bin/../lib/gcc/arm-none-eabi/5.4.1/../../../../arm-none-eabi/lib/armv6-m/crt0.o (memset)

Allocating common symbols
Common symbol       size              file

OSTmrFreeList       0x4               .\CortexM0\ARM_GCC_541\Debug\os_core.o
OSTmrWheelTbl       0x38              .\CortexM0\ARM_GCC_541\Debug\os_core.o
Temp_Sensor_lo      0x2               .\CortexM0\ARM_GCC_541\Debug\OS2.a(Temp_Sensor.o)
OSLockNesting       0x1               .\CortexM0\ARM_GCC_541\Debug\os_core.o
OSTmrSemSignal      0x4               .\CortexM0\ARM_GCC_541\Debug\os_core.o
OSTaskRegNextAvailID
                    0x1               .\CortexM0\ARM_GCC_541\Debug\os_core.o
OSRunning           0x1               .\CortexM0\ARM_GCC_541\Debug\os_core.o
Mem_SegHeap         0x14              .\CortexM0\ARM_GCC_541\Debug\lib_mem.o
Temp_Sensor_contMode
                    0x1               .\CortexM0\ARM_GCC_541\Debug\OS2.a(Temp_Sensor.o)
I2C_mstrWrBufIndexTmp
                    0x4               .\CortexM0\ARM_GCC_541\Debug\OS2.a(I2C_I2C_MASTER.o)
OSIdleCtr           0x4               .\CortexM0\ARM_GCC_541\Debug\os_core.o
OSTmrUsed           0x2               .\CortexM0\ARM_GCC_541\Debug\os_core.o
OSPrioHighRdy       0x1               .\CortexM0\ARM_GCC_541\Debug\os_core.o
OSFlagTbl           0x50              .\CortexM0\ARM_GCC_541\Debug\os_core.o
OSTmrTbl            0x280             .\CortexM0\ARM_GCC_541\Debug\os_core.o
Mem_SegHeadPtr      0x4               .\CortexM0\ARM_GCC_541\Debug\lib_mem.o
OSPrioCur           0x1               .\CortexM0\ARM_GCC_541\Debug\os_core.o
Math_RandSeedCur    0x4               .\CortexM0\ARM_GCC_541\Debug\lib_math.o
CPU_IntDisMeasMax_cnts
                    0x4               .\CortexM0\ARM_GCC_541\Debug\cpu_core.o
uC_Probe_Temp_Val   0x4               .\CortexM0\ARM_GCC_541\Debug\app.o
OSTCBList           0x4               .\CortexM0\ARM_GCC_541\Debug\os_core.o
OSMemTbl            0x78              .\CortexM0\ARM_GCC_541\Debug\os_core.o
OSTickStepState     0x1               .\CortexM0\ARM_GCC_541\Debug\os_core.o
ADC_countsPer10Volt
                    0x4               .\CortexM0\ARM_GCC_541\Debug\OS2.a(ADC.o)
OSTaskStatStk       0x200             .\CortexM0\ARM_GCC_541\Debug\os_core.o
OSCtxSwCtr          0x4               .\CortexM0\ARM_GCC_541\Debug\os_core.o
CPU_TS_TmrFreq_Hz   0x4               .\CortexM0\ARM_GCC_541\Debug\cpu_core.o
CPU_IntDisMeasStart_cnts
                    0x4               .\CortexM0\ARM_GCC_541\Debug\cpu_core.o
OSTmrFree           0x2               .\CortexM0\ARM_GCC_541\Debug\os_core.o
OSIdleCtrMax        0x4               .\CortexM0\ARM_GCC_541\Debug\os_core.o
I2C_state           0x1               .\CortexM0\ARM_GCC_541\Debug\OS2.a(I2C_I2C.o)
I2C_mstrWrBufIndex  0x4               .\CortexM0\ARM_GCC_541\Debug\OS2.a(I2C_I2C_MASTER.o)
uC_Probe_Accel_X_Axis
                    0x2               .\CortexM0\ARM_GCC_541\Debug\app.o
OSTCBFreeList       0x4               .\CortexM0\ARM_GCC_541\Debug\os_core.o
OS_CPU_ExceptStkBase
                    0x4               .\CortexM0\ARM_GCC_541\Debug\os_cpu_c.o
Temp_Sensor_hi      0x2               .\CortexM0\ARM_GCC_541\Debug\OS2.a(Temp_Sensor.o)
ADC_offset          0x2               .\CortexM0\ARM_GCC_541\Debug\OS2.a(ADC.o)
OSCPUUsage          0x1               .\CortexM0\ARM_GCC_541\Debug\os_core.o
I2C_mstrWrBufSize   0x4               .\CortexM0\ARM_GCC_541\Debug\OS2.a(I2C_I2C_MASTER.o)
I2C_mstrStatus      0x2               .\CortexM0\ARM_GCC_541\Debug\OS2.a(I2C_I2C_MASTER.o)
OSTaskCtr           0x1               .\CortexM0\ARM_GCC_541\Debug\os_core.o
uC_Probe_AmbientLight
                    0x2               .\CortexM0\ARM_GCC_541\Debug\app.o
OSMemFreeList       0x4               .\CortexM0\ARM_GCC_541\Debug\os_core.o
I2C_mstrRdBufPtr    0x4               .\CortexM0\ARM_GCC_541\Debug\OS2.a(I2C_I2C_MASTER.o)
OSQTbl              0x60              .\CortexM0\ARM_GCC_541\Debug\os_core.o
I2C_mstrControl     0x1               .\CortexM0\ARM_GCC_541\Debug\OS2.a(I2C_I2C_MASTER.o)
OSTCBHighRdy        0x4               .\CortexM0\ARM_GCC_541\Debug\os_core.o
OSQFreeList         0x4               .\CortexM0\ARM_GCC_541\Debug\os_core.o
Mem_Heap            0x800             .\CortexM0\ARM_GCC_541\Debug\lib_mem.o
OSRdyGrp            0x1               .\CortexM0\ARM_GCC_541\Debug\os_core.o
I2C_mstrRdBufSize   0x4               .\CortexM0\ARM_GCC_541\Debug\OS2.a(I2C_I2C_MASTER.o)
CPU_IntDisNestCtr   0x2               .\CortexM0\ARM_GCC_541\Debug\cpu_core.o
uC_Probe_Accel_Z_Axis
                    0x2               .\CortexM0\ARM_GCC_541\Debug\app.o
CPU_IntDisMeasStop_cnts
                    0x4               .\CortexM0\ARM_GCC_541\Debug\cpu_core.o
CPU_IntDisMeasMaxCur_cnts
                    0x4               .\CortexM0\ARM_GCC_541\Debug\cpu_core.o
OSRdyTbl            0x8               .\CortexM0\ARM_GCC_541\Debug\os_core.o
I2C_mstrRdBufIndex  0x4               .\CortexM0\ARM_GCC_541\Debug\OS2.a(I2C_I2C_MASTER.o)
CPU_IntDisMeasCtr   0x2               .\CortexM0\ARM_GCC_541\Debug\cpu_core.o
OSTmrTaskStk        0x200             .\CortexM0\ARM_GCC_541\Debug\os_core.o
OSEventFreeList     0x4               .\CortexM0\ARM_GCC_541\Debug\os_core.o
CPU_IntDisMeasOvrhd_cnts
                    0x4               .\CortexM0\ARM_GCC_541\Debug\cpu_core.o
I2C_mstrWrBufPtr    0x4               .\CortexM0\ARM_GCC_541\Debug\OS2.a(I2C_I2C_MASTER.o)
uC_Probe_Accel_Y_Axis
                    0x2               .\CortexM0\ARM_GCC_541\Debug\app.o
uC_Probe_RGB_Val    0x4               .\CortexM0\ARM_GCC_541\Debug\app.o
OS_CPU_ExceptStk    0x200             .\CortexM0\ARM_GCC_541\Debug\os_cpu_c.o
OSIntNesting        0x1               .\CortexM0\ARM_GCC_541\Debug\os_core.o
OSTCBCur            0x4               .\CortexM0\ARM_GCC_541\Debug\os_core.o
OSTmrTime           0x4               .\CortexM0\ARM_GCC_541\Debug\os_core.o
OSTime              0x4               .\CortexM0\ARM_GCC_541\Debug\os_core.o
OSTmrSem            0x4               .\CortexM0\ARM_GCC_541\Debug\os_core.o
OSTaskIdleStk       0x200             .\CortexM0\ARM_GCC_541\Debug\os_core.o
Temp_Sensor_busyFlag
                    0x1               .\CortexM0\ARM_GCC_541\Debug\OS2.a(Temp_Sensor.o)
OSEventTbl          0x1e0             .\CortexM0\ARM_GCC_541\Debug\os_core.o
OSTCBTbl            0x790             .\CortexM0\ARM_GCC_541\Debug\os_core.o
OSFlagFreeList      0x4               .\CortexM0\ARM_GCC_541\Debug\os_core.o
OSStatRdy           0x1               .\CortexM0\ARM_GCC_541\Debug\os_core.o
OSTCBPrioTbl        0x100             .\CortexM0\ARM_GCC_541\Debug\os_core.o
CPU_Name            0x10              .\CortexM0\ARM_GCC_541\Debug\cpu_core.o
OSIdleCtrRun        0x4               .\CortexM0\ARM_GCC_541\Debug\os_core.o

Memory Configuration

Name             Origin             Length             Attributes
rom              0x00000000         0x00020000         xr
ram              0x20000000         0x00004000         xrw
*default*        0x00000000         0xffffffff

Linker script and memory map

LOAD c:/program files (x86)/cypress/psoc creator/4.2/psoc creator/import/gnu/arm/5.4.1/bin/../lib/gcc/arm-none-eabi/5.4.1/armv6-m/crti.o
LOAD c:/program files (x86)/cypress/psoc creator/4.2/psoc creator/import/gnu/arm/5.4.1/bin/../lib/gcc/arm-none-eabi/5.4.1/armv6-m/crtbegin.o
LOAD c:/program files (x86)/cypress/psoc creator/4.2/psoc creator/import/gnu/arm/5.4.1/bin/../lib/gcc/arm-none-eabi/5.4.1/../../../../arm-none-eabi/lib/armv6-m/crt0.o
START GROUP
LOAD .\CortexM0\ARM_GCC_541\Debug\app.o
LOAD .\CortexM0\ARM_GCC_541\Debug\app_hooks.o
LOAD .\CortexM0\ARM_GCC_541\Debug\bsp_os.o
LOAD .\CortexM0\ARM_GCC_541\Debug\cpu_bsp.o
LOAD .\CortexM0\ARM_GCC_541\Debug\bsp.o
LOAD .\CortexM0\ARM_GCC_541\Debug\cpu_c.o
LOAD .\CortexM0\ARM_GCC_541\Debug\cpu_core.o
LOAD .\CortexM0\ARM_GCC_541\Debug\os_cpu_c.o
LOAD .\CortexM0\ARM_GCC_541\Debug\os_core.o
LOAD .\CortexM0\ARM_GCC_541\Debug\os_flag.o
LOAD .\CortexM0\ARM_GCC_541\Debug\os_mbox.o
LOAD .\CortexM0\ARM_GCC_541\Debug\os_mem.o
LOAD .\CortexM0\ARM_GCC_541\Debug\os_mutex.o
LOAD .\CortexM0\ARM_GCC_541\Debug\os_q.o
LOAD .\CortexM0\ARM_GCC_541\Debug\os_sem.o
LOAD .\CortexM0\ARM_GCC_541\Debug\os_task.o
LOAD .\CortexM0\ARM_GCC_541\Debug\os_time.o
LOAD .\CortexM0\ARM_GCC_541\Debug\os_tmr.o
LOAD .\CortexM0\ARM_GCC_541\Debug\os_dbg_r.o
LOAD .\CortexM0\ARM_GCC_541\Debug\lib_ascii.o
LOAD .\CortexM0\ARM_GCC_541\Debug\lib_math.o
LOAD .\CortexM0\ARM_GCC_541\Debug\lib_mem.o
LOAD .\CortexM0\ARM_GCC_541\Debug\lib_str.o
LOAD .\CortexM0\ARM_GCC_541\Debug\cyfitter_cfg.o
LOAD .\CortexM0\ARM_GCC_541\Debug\cymetadata.o
LOAD .\CortexM0\ARM_GCC_541\Debug\Cm0Start.o
LOAD .\CortexM0\ARM_GCC_541\Debug\cpu_a.o
LOAD .\CortexM0\ARM_GCC_541\Debug\os_cpu_a.o
LOAD .\CortexM0\ARM_GCC_541\Debug\OS2.a
END GROUP
START GROUP
LOAD c:/program files (x86)/cypress/psoc creator/4.2/psoc creator/import/gnu/arm/5.4.1/bin/../lib/gcc/arm-none-eabi/5.4.1/armv6-m\libgcc.a
LOAD c:/program files (x86)/cypress/psoc creator/4.2/psoc creator/import/gnu/arm/5.4.1/bin/../lib/gcc/arm-none-eabi/5.4.1/../../../../arm-none-eabi/lib/armv6-m\libg_nano.a
LOAD c:/program files (x86)/cypress/psoc creator/4.2/psoc creator/import/gnu/arm/5.4.1/bin/../lib/gcc/arm-none-eabi/5.4.1/../../../../arm-none-eabi/lib/armv6-m\libc_nano.a
END GROUP
START GROUP
LOAD c:/program files (x86)/cypress/psoc creator/4.2/psoc creator/import/gnu/arm/5.4.1/bin/../lib/gcc/arm-none-eabi/5.4.1/armv6-m\libgcc.a
LOAD c:/program files (x86)/cypress/psoc creator/4.2/psoc creator/import/gnu/arm/5.4.1/bin/../lib/gcc/arm-none-eabi/5.4.1/../../../../arm-none-eabi/lib/armv6-m\libc_nano.a
END GROUP
LOAD c:/program files (x86)/cypress/psoc creator/4.2/psoc creator/import/gnu/arm/5.4.1/bin/../lib/gcc/arm-none-eabi/5.4.1/armv6-m/crtend.o
LOAD c:/program files (x86)/cypress/psoc creator/4.2/psoc creator/import/gnu/arm/5.4.1/bin/../lib/gcc/arm-none-eabi/5.4.1/armv6-m/crtn.o
START GROUP
LOAD c:/program files (x86)/cypress/psoc creator/4.2/psoc creator/import/gnu/arm/5.4.1/bin/../lib/gcc/arm-none-eabi/5.4.1/armv6-m\libgcc.a
LOAD c:/program files (x86)/cypress/psoc creator/4.2/psoc creator/import/gnu/arm/5.4.1/bin/../lib/gcc/arm-none-eabi/5.4.1/../../../../arm-none-eabi/lib/armv6-m\libc.a
LOAD c:/program files (x86)/cypress/psoc creator/4.2/psoc creator/import/gnu/arm/5.4.1/bin/../lib/gcc/arm-none-eabi/5.4.1/../../../../arm-none-eabi/lib/armv6-m\libnosys.a
END GROUP
                0x00000000                CY_APPL_ORIGIN = 0x0
                0x00000080                CY_FLASH_ROW_SIZE = 0x80
                0x00000001                CY_APPL_NUM = 0x1
                0x00000001                CY_APPL_MAX = 0x1
                0x00000040                CY_METADATA_SIZE = 0x40
                0x00000000                CY_APPL_LOADABLE = 0x0
                0x00000000                CY_CHECKSUM_EXCLUDE_SIZE = ALIGN (0x0, CY_FLASH_ROW_SIZE)
                0x00000000                CY_APP_FOR_STACK_AND_COPIER = 0x0
                [!provide]                PROVIDE (__cy_heap_start, _end)
                0x00000001                PROVIDE (__cy_region_num, ((__cy_regions_end - __cy_regions) / 0x10))
                0x20004000                PROVIDE (__cy_stack, (ORIGIN (ram) + LENGTH (ram)))
                [!provide]                PROVIDE (__cy_heap_end, (__cy_stack - 0x800))

.cybootloader   0x00000000        0x0
 *(.cybootloader)
                0x00000000                appl1_start = CY_APPL_ORIGIN?CY_APPL_ORIGIN:ALIGN (CY_FLASH_ROW_SIZE)
                0x0000ff80                appl2_start = (appl1_start + ALIGN ((((LENGTH (rom) - appl1_start) - (0x2 * CY_FLASH_ROW_SIZE)) / 0x2), CY_FLASH_ROW_SIZE))
                0x00000000                appl_start = (CY_APPL_NUM == 0x1)?appl1_start:appl2_start
                0x00000001                cy_project_type_bootloader = (appl_start == 0x0)?0x1:0x0
                0x00000000                cy_project_type_app_for_stack_and_copier = (CY_APP_FOR_STACK_AND_COPIER == 0x1)?0x1:0x0

.text           0x00000000    0x12f16
 CREATE_OBJECT_SYMBOLS
                0x00000000                PROVIDE (__cy_interrupt_vector, RomVectors)
 *(.romvectors)
 .romvectors    0x00000000       0x10 .\CortexM0\ARM_GCC_541\Debug\Cm0Start.o
                0x00000000                RomVectors
                0x00000001                ASSERT ((. != __cy_interrupt_vector), No interrupt vector)
                0x00000001                ASSERT (CY_APPL_ORIGIN?(SIZEOF (.cybootloader) <= CY_APPL_ORIGIN):0x1, Wrong image location)
                0x00000010                PROVIDE (__cy_reset, Reset)
 *(.text.Reset)
 .text.Reset    0x00000010        0x8 .\CortexM0\ARM_GCC_541\Debug\Cm0Start.o
                0x00000010                Reset
                0x00000001                ASSERT ((. != __cy_reset), No reset code)
 *(.psocinit)
 .psocinit      0x00000018      0x340 .\CortexM0\ARM_GCC_541\Debug\cyfitter_cfg.o
                0x00000110                cyfitter_cfg
                0x00000358                . = MAX (., 0x100)
 *(.text .text.* .gnu.linkonce.t.*)
 .text          0x00000358        0x0 c:/program files (x86)/cypress/psoc creator/4.2/psoc creator/import/gnu/arm/5.4.1/bin/../lib/gcc/arm-none-eabi/5.4.1/armv6-m/crti.o
 .text          0x00000358       0x60 c:/program files (x86)/cypress/psoc creator/4.2/psoc creator/import/gnu/arm/5.4.1/bin/../lib/gcc/arm-none-eabi/5.4.1/armv6-m/crtbegin.o
 .text          0x000003b8       0x78 c:/program files (x86)/cypress/psoc creator/4.2/psoc creator/import/gnu/arm/5.4.1/bin/../lib/gcc/arm-none-eabi/5.4.1/../../../../arm-none-eabi/lib/armv6-m/crt0.o
                0x000003b8                _start
                0x000003b8                _mainCRTStartup
 .text          0x00000430        0x0 .\CortexM0\ARM_GCC_541\Debug\app.o
 .text.main     0x00000430       0x60 .\CortexM0\ARM_GCC_541\Debug\app.o
                0x00000430                main
 .text.App_TaskStart
                0x00000490       0xd0 .\CortexM0\ARM_GCC_541\Debug\app.o
 .text.App_TaskCreate
                0x00000560       0x4c .\CortexM0\ARM_GCC_541\Debug\app.o
 .text.App_ObjCreate
                0x000005ac        0xc .\CortexM0\ARM_GCC_541\Debug\app.o
 .text.App_Demo_SensorTask
                0x000005b8       0xe8 .\CortexM0\ARM_GCC_541\Debug\app.o
 .text          0x000006a0        0x0 .\CortexM0\ARM_GCC_541\Debug\app_hooks.o
 .text.App_TaskCreateHook
                0x000006a0       0x10 .\CortexM0\ARM_GCC_541\Debug\app_hooks.o
                0x000006a0                App_TaskCreateHook
 .text.App_TaskDelHook
                0x000006b0       0x10 .\CortexM0\ARM_GCC_541\Debug\app_hooks.o
                0x000006b0                App_TaskDelHook
 .text.App_TaskIdleHook
                0x000006c0        0xc .\CortexM0\ARM_GCC_541\Debug\app_hooks.o
                0x000006c0                App_TaskIdleHook
 .text.App_TaskStatHook
                0x000006cc        0xc .\CortexM0\ARM_GCC_541\Debug\app_hooks.o
                0x000006cc                App_TaskStatHook
 .text.App_TaskReturnHook
                0x000006d8       0x10 .\CortexM0\ARM_GCC_541\Debug\app_hooks.o
                0x000006d8                App_TaskReturnHook
 .text.App_TaskSwHook
                0x000006e8        0xc .\CortexM0\ARM_GCC_541\Debug\app_hooks.o
                0x000006e8                App_TaskSwHook
 .text.App_TCBInitHook
                0x000006f4       0x10 .\CortexM0\ARM_GCC_541\Debug\app_hooks.o
                0x000006f4                App_TCBInitHook
 .text.App_TimeTickHook
                0x00000704        0xc .\CortexM0\ARM_GCC_541\Debug\app_hooks.o
                0x00000704                App_TimeTickHook
 .text          0x00000710        0x0 .\CortexM0\ARM_GCC_541\Debug\bsp_os.o
 .text.BSP_OS_SemCreate
                0x00000710       0x4c .\CortexM0\ARM_GCC_541\Debug\bsp_os.o
                0x00000710                BSP_OS_SemCreate
 .text.BSP_OS_SemWait
                0x0000075c       0x48 .\CortexM0\ARM_GCC_541\Debug\bsp_os.o
                0x0000075c                BSP_OS_SemWait
 .text.BSP_OS_SemPost
                0x000007a4       0x34 .\CortexM0\ARM_GCC_541\Debug\bsp_os.o
                0x000007a4                BSP_OS_SemPost
 .text.BSP_OS_TimeDlyMs
                0x000007d8       0x80 .\CortexM0\ARM_GCC_541\Debug\bsp_os.o
                0x000007d8                BSP_OS_TimeDlyMs
 .text.BSP_OS_TimeDly
                0x00000858       0x18 .\CortexM0\ARM_GCC_541\Debug\bsp_os.o
                0x00000858                BSP_OS_TimeDly
 .text          0x00000870        0x0 .\CortexM0\ARM_GCC_541\Debug\cpu_bsp.o
 .text.CPU_TS_TmrInit
                0x00000870       0x40 .\CortexM0\ARM_GCC_541\Debug\cpu_bsp.o
                0x00000870                CPU_TS_TmrInit
 .text.CPU_TS_TmrRd
                0x000008b0       0x1c .\CortexM0\ARM_GCC_541\Debug\cpu_bsp.o
                0x000008b0                CPU_TS_TmrRd
 .text.CPU_TS32_to_uSec
                0x000008cc       0x50 .\CortexM0\ARM_GCC_541\Debug\cpu_bsp.o
                0x000008cc                CPU_TS32_to_uSec
 .text          0x0000091c        0x0 .\CortexM0\ARM_GCC_541\Debug\bsp.o
 .text.BSP_Init
                0x0000091c       0x5c .\CortexM0\ARM_GCC_541\Debug\bsp.o
                0x0000091c                BSP_Init
 .text.BSP_CPU_TickInit
                0x00000978       0x20 .\CortexM0\ARM_GCC_541\Debug\bsp.o
                0x00000978                BSP_CPU_TickInit
 .text.BSP_CPU_ClkFreq
                0x00000998       0x10 .\CortexM0\ARM_GCC_541\Debug\bsp.o
                0x00000998                BSP_CPU_ClkFreq
 .text.BSP_RGB_On
                0x000009a8       0x18 .\CortexM0\ARM_GCC_541\Debug\bsp.o
                0x000009a8                BSP_RGB_On
 .text.BSP_RGB_Off
                0x000009c0       0x24 .\CortexM0\ARM_GCC_541\Debug\bsp.o
                0x000009c0                BSP_RGB_Off
 .text.BSP_RGB_ColorSet
                0x000009e4       0xe0 .\CortexM0\ARM_GCC_541\Debug\bsp.o
                0x000009e4                BSP_RGB_ColorSet
 .text.BSP_RGB_ColorRead
                0x00000ac4       0x9c .\CortexM0\ARM_GCC_541\Debug\bsp.o
                0x00000ac4                BSP_RGB_ColorRead
 .text.BSP_PB_StatusGet
                0x00000b60       0x30 .\CortexM0\ARM_GCC_541\Debug\bsp.o
                0x00000b60                BSP_PB_StatusGet
 .text.BSP_Accel_Init
                0x00000b90       0xec .\CortexM0\ARM_GCC_541\Debug\bsp.o
                0x00000b90                BSP_Accel_Init
 .text.BSP_Accel_InitSelfTst
                0x00000c7c       0xd0 .\CortexM0\ARM_GCC_541\Debug\bsp.o
 .text.BSP_Accel_RegRdWr
                0x00000d4c       0xd4 .\CortexM0\ARM_GCC_541\Debug\bsp.o
 .text.BSP_Accel_Rd
                0x00000e20      0x1b8 .\CortexM0\ARM_GCC_541\Debug\bsp.o
                0x00000e20                BSP_Accel_Rd
 .text.BSP_Accel_ISR_Handler
                0x00000fd8       0x20 .\CortexM0\ARM_GCC_541\Debug\bsp.o
                0x00000fd8                BSP_Accel_ISR_Handler
 .text          0x00000ff8        0x0 .\CortexM0\ARM_GCC_541\Debug\cpu_c.o
 .text.CPU_BitBandClr
                0x00000ff8       0x88 .\CortexM0\ARM_GCC_541\Debug\cpu_c.o
                0x00000ff8                CPU_BitBandClr
 .text.CPU_BitBandSet
                0x00001080       0x88 .\CortexM0\ARM_GCC_541\Debug\cpu_c.o
                0x00001080                CPU_BitBandSet
 .text.CPU_IntSrcDis
                0x00001108       0xfc .\CortexM0\ARM_GCC_541\Debug\cpu_c.o
                0x00001108                CPU_IntSrcDis
 .text.CPU_IntSrcEn
                0x00001204       0xfc .\CortexM0\ARM_GCC_541\Debug\cpu_c.o
                0x00001204                CPU_IntSrcEn
 .text.CPU_IntSrcPendClr
                0x00001300       0xd4 .\CortexM0\ARM_GCC_541\Debug\cpu_c.o
                0x00001300                CPU_IntSrcPendClr
 .text.CPU_IntSrcPrioSet
                0x000013d4      0x1d0 .\CortexM0\ARM_GCC_541\Debug\cpu_c.o
                0x000013d4                CPU_IntSrcPrioSet
 .text.CPU_IntSrcPrioGet
                0x000015a4      0x1ac .\CortexM0\ARM_GCC_541\Debug\cpu_c.o
                0x000015a4                CPU_IntSrcPrioGet
 .text.CPU_RevBits
                0x00001750       0x68 .\CortexM0\ARM_GCC_541\Debug\cpu_c.o
                0x00001750                CPU_RevBits
 .text          0x000017b8        0x0 .\CortexM0\ARM_GCC_541\Debug\cpu_core.o
 .text.CPU_Init
                0x000017b8       0x18 .\CortexM0\ARM_GCC_541\Debug\cpu_core.o
                0x000017b8                CPU_Init
 .text.CPU_SW_Exception
                0x000017d0        0x8 .\CortexM0\ARM_GCC_541\Debug\cpu_core.o
                0x000017d0                CPU_SW_Exception
 .text.CPU_NameClr
                0x000017d8       0x38 .\CortexM0\ARM_GCC_541\Debug\cpu_core.o
                0x000017d8                CPU_NameClr
 .text.CPU_NameGet
                0x00001810       0x5c .\CortexM0\ARM_GCC_541\Debug\cpu_core.o
                0x00001810                CPU_NameGet
 .text.CPU_NameSet
                0x0000186c       0x78 .\CortexM0\ARM_GCC_541\Debug\cpu_core.o
                0x0000186c                CPU_NameSet
 .text.CPU_TS_Get32
                0x000018e4       0x18 .\CortexM0\ARM_GCC_541\Debug\cpu_core.o
                0x000018e4                CPU_TS_Get32
 .text.CPU_TS_Update
                0x000018fc        0xc .\CortexM0\ARM_GCC_541\Debug\cpu_core.o
                0x000018fc                CPU_TS_Update
 .text.CPU_TS_TmrFreqGet
                0x00001908       0x38 .\CortexM0\ARM_GCC_541\Debug\cpu_core.o
                0x00001908                CPU_TS_TmrFreqGet
 .text.CPU_TS_TmrFreqSet
                0x00001940       0x1c .\CortexM0\ARM_GCC_541\Debug\cpu_core.o
                0x00001940                CPU_TS_TmrFreqSet
 .text.CPU_IntDisMeasMaxCurReset
                0x0000195c       0x38 .\CortexM0\ARM_GCC_541\Debug\cpu_core.o
                0x0000195c                CPU_IntDisMeasMaxCurReset
 .text.CPU_IntDisMeasMaxCurGet
                0x00001994       0x3c .\CortexM0\ARM_GCC_541\Debug\cpu_core.o
                0x00001994                CPU_IntDisMeasMaxCurGet
 .text.CPU_IntDisMeasMaxGet
                0x000019d0       0x3c .\CortexM0\ARM_GCC_541\Debug\cpu_core.o
                0x000019d0                CPU_IntDisMeasMaxGet
 .text.CPU_IntDisMeasStart
                0x00001a0c       0x40 .\CortexM0\ARM_GCC_541\Debug\cpu_core.o
                0x00001a0c                CPU_IntDisMeasStart
 .text.CPU_IntDisMeasStop
                0x00001a4c       0x6c .\CortexM0\ARM_GCC_541\Debug\cpu_core.o
                0x00001a4c                CPU_IntDisMeasStop
 .text.CPU_CntLeadZeros
                0x00001ab8       0x20 .\CortexM0\ARM_GCC_541\Debug\cpu_core.o
                0x00001ab8                CPU_CntLeadZeros
 .text.CPU_CntLeadZeros08
                0x00001ad8       0x2c .\CortexM0\ARM_GCC_541\Debug\cpu_core.o
                0x00001ad8                CPU_CntLeadZeros08
 .text.CPU_CntLeadZeros16
                0x00001b04       0x4c .\CortexM0\ARM_GCC_541\Debug\cpu_core.o
                0x00001b04                CPU_CntLeadZeros16
 .text.CPU_CntLeadZeros32
                0x00001b50       0x80 .\CortexM0\ARM_GCC_541\Debug\cpu_core.o
                0x00001b50                CPU_CntLeadZeros32
 .text.CPU_CntLeadZeros64
                0x00001bd0      0x168 .\CortexM0\ARM_GCC_541\Debug\cpu_core.o
                0x00001bd0                CPU_CntLeadZeros64
 .text.CPU_CntTrailZeros
                0x00001d38       0x3c .\CortexM0\ARM_GCC_541\Debug\cpu_core.o
                0x00001d38                CPU_CntTrailZeros
 .text.CPU_CntTrailZeros08
                0x00001d74       0x50 .\CortexM0\ARM_GCC_541\Debug\cpu_core.o
                0x00001d74                CPU_CntTrailZeros08
 .text.CPU_CntTrailZeros16
                0x00001dc4       0x50 .\CortexM0\ARM_GCC_541\Debug\cpu_core.o
                0x00001dc4                CPU_CntTrailZeros16
 .text.CPU_CntTrailZeros32
                0x00001e14       0x3c .\CortexM0\ARM_GCC_541\Debug\cpu_core.o
                0x00001e14                CPU_CntTrailZeros32
 .text.CPU_CntTrailZeros64
                0x00001e50       0x50 .\CortexM0\ARM_GCC_541\Debug\cpu_core.o
                0x00001e50                CPU_CntTrailZeros64
 .text.CPU_PopCnt32
                0x00001ea0       0x78 .\CortexM0\ARM_GCC_541\Debug\cpu_core.o
                0x00001ea0                CPU_PopCnt32
 .text.CPU_NameInit
                0x00001f18       0x10 .\CortexM0\ARM_GCC_541\Debug\cpu_core.o
 .text.CPU_TS_Init
                0x00001f28       0x18 .\CortexM0\ARM_GCC_541\Debug\cpu_core.o
 .text.CPU_IntDisMeasInit
                0x00001f40       0xb8 .\CortexM0\ARM_GCC_541\Debug\cpu_core.o
 .text.CPU_IntDisMeasMaxCalc
                0x00001ff8       0x34 .\CortexM0\ARM_GCC_541\Debug\cpu_core.o
 .text          0x0000202c        0x0 .\CortexM0\ARM_GCC_541\Debug\os_cpu_c.o
 .text.OSInitHookBegin
                0x0000202c       0x5c .\CortexM0\ARM_GCC_541\Debug\os_cpu_c.o
                0x0000202c                OSInitHookBegin
 .text.OSInitHookEnd
                0x00002088        0xc .\CortexM0\ARM_GCC_541\Debug\os_cpu_c.o
                0x00002088                OSInitHookEnd
 .text.OSTaskCreateHook
                0x00002094       0x18 .\CortexM0\ARM_GCC_541\Debug\os_cpu_c.o
                0x00002094                OSTaskCreateHook
 .text.OSTaskDelHook
                0x000020ac       0x18 .\CortexM0\ARM_GCC_541\Debug\os_cpu_c.o
                0x000020ac                OSTaskDelHook
 .text.OSTaskIdleHook
                0x000020c4       0x10 .\CortexM0\ARM_GCC_541\Debug\os_cpu_c.o
                0x000020c4                OSTaskIdleHook
 .text.OSTaskReturnHook
                0x000020d4       0x18 .\CortexM0\ARM_GCC_541\Debug\os_cpu_c.o
                0x000020d4                OSTaskReturnHook
 .text.OSTaskStatHook
                0x000020ec       0x10 .\CortexM0\ARM_GCC_541\Debug\os_cpu_c.o
                0x000020ec                OSTaskStatHook
 .text.OSTaskStkInit
                0x000020fc      0x130 .\CortexM0\ARM_GCC_541\Debug\os_cpu_c.o
                0x000020fc                OSTaskStkInit
 .text.OSTaskSwHook
                0x0000222c       0x10 .\CortexM0\ARM_GCC_541\Debug\os_cpu_c.o
                0x0000222c                OSTaskSwHook
 .text.OSTCBInitHook
                0x0000223c       0x18 .\CortexM0\ARM_GCC_541\Debug\os_cpu_c.o
                0x0000223c                OSTCBInitHook
 .text.OSTimeTickHook
                0x00002254       0x30 .\CortexM0\ARM_GCC_541\Debug\os_cpu_c.o
                0x00002254                OSTimeTickHook
 .text.SysTick_Handler
                0x00002284       0x2c .\CortexM0\ARM_GCC_541\Debug\os_cpu_c.o
                0x00002284                SysTick_Handler
 .text.OS_CPU_SysTickInit
                0x000022b0       0x60 .\CortexM0\ARM_GCC_541\Debug\os_cpu_c.o
                0x000022b0                OS_CPU_SysTickInit
 .text          0x00002310        0x0 .\CortexM0\ARM_GCC_541\Debug\os_core.o
 .text.OSEventNameGet
                0x00002310       0x9c .\CortexM0\ARM_GCC_541\Debug\os_core.o
                0x00002310                OSEventNameGet
 .text.OSEventNameSet
                0x000023ac       0x78 .\CortexM0\ARM_GCC_541\Debug\os_core.o
                0x000023ac                OSEventNameSet
 .text.OSEventPendMulti
                0x00002424      0x3f4 .\CortexM0\ARM_GCC_541\Debug\os_core.o
                0x00002424                OSEventPendMulti
 .text.OSInit   0x00002818       0x40 .\CortexM0\ARM_GCC_541\Debug\os_core.o
                0x00002818                OSInit
 .text.OSIntEnter
                0x00002858       0x30 .\CortexM0\ARM_GCC_541\Debug\os_core.o
                0x00002858                OSIntEnter
 .text.OSIntExit
                0x00002888       0xa8 .\CortexM0\ARM_GCC_541\Debug\os_core.o
                0x00002888                OSIntExit
 .text.OSSchedLock
                0x00002930       0x54 .\CortexM0\ARM_GCC_541\Debug\os_core.o
                0x00002930                OSSchedLock
 .text.OSSchedUnlock
                0x00002984       0x7c .\CortexM0\ARM_GCC_541\Debug\os_core.o
                0x00002984                OSSchedUnlock
 .text.OSStart  0x00002a00       0x54 .\CortexM0\ARM_GCC_541\Debug\os_core.o
                0x00002a00                OSStart
 .text.OSStatInit
                0x00002a54       0x60 .\CortexM0\ARM_GCC_541\Debug\os_core.o
                0x00002a54                OSStatInit
 .text.OSTimeTick
                0x00002ab4      0x158 .\CortexM0\ARM_GCC_541\Debug\os_core.o
                0x00002ab4                OSTimeTick
 .text.OSVersion
                0x00002c0c       0x10 .\CortexM0\ARM_GCC_541\Debug\os_core.o
                0x00002c0c                OSVersion
 .text.OS_Dummy
                0x00002c1c        0xc .\CortexM0\ARM_GCC_541\Debug\os_core.o
                0x00002c1c                OS_Dummy
 .text.OS_EventTaskRdy
                0x00002c28      0x118 .\CortexM0\ARM_GCC_541\Debug\os_core.o
                0x00002c28                OS_EventTaskRdy
 .text.OS_EventTaskWait
                0x00002d40       0xbc .\CortexM0\ARM_GCC_541\Debug\os_core.o
                0x00002d40                OS_EventTaskWait
 .text.OS_EventTaskWaitMulti
                0x00002dfc       0xe4 .\CortexM0\ARM_GCC_541\Debug\os_core.o
                0x00002dfc                OS_EventTaskWaitMulti
 .text.OS_EventTaskRemove
                0x00002ee0       0x74 .\CortexM0\ARM_GCC_541\Debug\os_core.o
                0x00002ee0                OS_EventTaskRemove
 .text.OS_EventTaskRemoveMulti
                0x00002f54       0xa4 .\CortexM0\ARM_GCC_541\Debug\os_core.o
                0x00002f54                OS_EventTaskRemoveMulti
 .text.OS_EventWaitListInit
                0x00002ff8       0x48 .\CortexM0\ARM_GCC_541\Debug\os_core.o
                0x00002ff8                OS_EventWaitListInit
 .text.OS_InitEventList
                0x00003040       0xc0 .\CortexM0\ARM_GCC_541\Debug\os_core.o
 .text.OS_InitMisc
                0x00003100       0x78 .\CortexM0\ARM_GCC_541\Debug\os_core.o
 .text.OS_InitRdyList
                0x00003178       0x68 .\CortexM0\ARM_GCC_541\Debug\os_core.o
 .text.OS_InitTaskIdle
                0x000031e0       0x50 .\CortexM0\ARM_GCC_541\Debug\os_core.o
 .text.OS_InitTaskStat
                0x00003230       0x50 .\CortexM0\ARM_GCC_541\Debug\os_core.o
 .text.OS_InitTCBList
                0x00003280       0xc4 .\CortexM0\ARM_GCC_541\Debug\os_core.o
 .text.OS_MemClr
                0x00003344       0x34 .\CortexM0\ARM_GCC_541\Debug\os_core.o
                0x00003344                OS_MemClr
 .text.OS_MemCopy
                0x00003378       0x3c .\CortexM0\ARM_GCC_541\Debug\os_core.o
                0x00003378                OS_MemCopy
 .text.OS_Sched
                0x000033b4       0x88 .\CortexM0\ARM_GCC_541\Debug\os_core.o
                0x000033b4                OS_Sched
 .text.OS_SchedNew
                0x0000343c       0x4c .\CortexM0\ARM_GCC_541\Debug\os_core.o
 .text.OS_StrLen
                0x00003488       0x48 .\CortexM0\ARM_GCC_541\Debug\os_core.o
                0x00003488                OS_StrLen
 .text.OS_TaskIdle
                0x000034d0       0x30 .\CortexM0\ARM_GCC_541\Debug\os_core.o
                0x000034d0                OS_TaskIdle
 .text.OS_TaskStat
                0x00003500       0xc0 .\CortexM0\ARM_GCC_541\Debug\os_core.o
                0x00003500                OS_TaskStat
 .text.OS_TaskStatStkChk
                0x000035c0       0x88 .\CortexM0\ARM_GCC_541\Debug\os_core.o
                0x000035c0                OS_TaskStatStkChk
 .text.OS_TCBInit
                0x00003648      0x22c .\CortexM0\ARM_GCC_541\Debug\os_core.o
                0x00003648                OS_TCBInit
 .text          0x00003874        0x0 .\CortexM0\ARM_GCC_541\Debug\os_flag.o
 .text.OSFlagAccept
                0x00003874      0x218 .\CortexM0\ARM_GCC_541\Debug\os_flag.o
                0x00003874                OSFlagAccept
 .text.OSFlagCreate
                0x00003a8c       0x90 .\CortexM0\ARM_GCC_541\Debug\os_flag.o
                0x00003a8c                OSFlagCreate
 .text.OSFlagDel
                0x00003b1c      0x15c .\CortexM0\ARM_GCC_541\Debug\os_flag.o
                0x00003b1c                OSFlagDel
 .text.OSFlagNameGet
                0x00003c78       0xa0 .\CortexM0\ARM_GCC_541\Debug\os_flag.o
                0x00003c78                OSFlagNameGet
 .text.OSFlagNameSet
                0x00003d18       0x7c .\CortexM0\ARM_GCC_541\Debug\os_flag.o
                0x00003d18                OSFlagNameSet
 .text.OSFlagPend
                0x00003d94      0x410 .\CortexM0\ARM_GCC_541\Debug\os_flag.o
                0x00003d94                OSFlagPend
 .text.OSFlagPendGetFlagsRdy
                0x000041a4       0x34 .\CortexM0\ARM_GCC_541\Debug\os_flag.o
                0x000041a4                OSFlagPendGetFlagsRdy
 .text.OSFlagPost
                0x000041d8      0x268 .\CortexM0\ARM_GCC_541\Debug\os_flag.o
                0x000041d8                OSFlagPost
 .text.OSFlagQuery
                0x00004440       0x60 .\CortexM0\ARM_GCC_541\Debug\os_flag.o
                0x00004440                OSFlagQuery
 .text.OS_FlagBlock
                0x000044a0       0xf8 .\CortexM0\ARM_GCC_541\Debug\os_flag.o
 .text.OS_FlagInit
                0x00004598       0xa8 .\CortexM0\ARM_GCC_541\Debug\os_flag.o
                0x00004598                OS_FlagInit
 .text.OS_FlagTaskRdy
                0x00004640       0xb8 .\CortexM0\ARM_GCC_541\Debug\os_flag.o
 .text.OS_FlagUnlink
                0x000046f8       0x5c .\CortexM0\ARM_GCC_541\Debug\os_flag.o
                0x000046f8                OS_FlagUnlink
 .text          0x00004754        0x0 .\CortexM0\ARM_GCC_541\Debug\os_mbox.o
 .text.OSMboxAccept
                0x00004754       0x48 .\CortexM0\ARM_GCC_541\Debug\os_mbox.o
                0x00004754                OSMboxAccept
 .text.OSMboxCreate
                0x0000479c       0x7c .\CortexM0\ARM_GCC_541\Debug\os_mbox.o
                0x0000479c                OSMboxCreate
 .text.OSMboxDel
                0x00004818      0x150 .\CortexM0\ARM_GCC_541\Debug\os_mbox.o
                0x00004818                OSMboxDel
 .text.OSMboxPend
                0x00004968      0x158 .\CortexM0\ARM_GCC_541\Debug\os_mbox.o
                0x00004968                OSMboxPend
 .text.OSMboxPendAbort
                0x00004ac0       0xd0 .\CortexM0\ARM_GCC_541\Debug\os_mbox.o
                0x00004ac0                OSMboxPendAbort
 .text.OSMboxPost
                0x00004b90       0x88 .\CortexM0\ARM_GCC_541\Debug\os_mbox.o
                0x00004b90                OSMboxPost
 .text.OSMboxPostOpt
                0x00004c18       0xb8 .\CortexM0\ARM_GCC_541\Debug\os_mbox.o
                0x00004c18                OSMboxPostOpt
 .text.OSMboxQuery
                0x00004cd0       0x98 .\CortexM0\ARM_GCC_541\Debug\os_mbox.o
                0x00004cd0                OSMboxQuery
 .text          0x00004d68        0x0 .\CortexM0\ARM_GCC_541\Debug\os_mem.o
 .text.OSMemCreate
                0x00004d68       0xf8 .\CortexM0\ARM_GCC_541\Debug\os_mem.o
                0x00004d68                OSMemCreate
 .text.OSMemGet
                0x00004e60       0x70 .\CortexM0\ARM_GCC_541\Debug\os_mem.o
                0x00004e60                OSMemGet
 .text.OSMemNameGet
                0x00004ed0       0x84 .\CortexM0\ARM_GCC_541\Debug\os_mem.o
                0x00004ed0                OSMemNameGet
 .text.OSMemNameSet
                0x00004f54       0x64 .\CortexM0\ARM_GCC_541\Debug\os_mem.o
                0x00004f54                OSMemNameSet
 .text.OSMemPut
                0x00004fb8       0x6c .\CortexM0\ARM_GCC_541\Debug\os_mem.o
                0x00004fb8                OSMemPut
 .text.OSMemQuery
                0x00005024       0x74 .\CortexM0\ARM_GCC_541\Debug\os_mem.o
                0x00005024                OSMemQuery
 .text.OS_MemInit
                0x00005098       0x90 .\CortexM0\ARM_GCC_541\Debug\os_mem.o
                0x00005098                OS_MemInit
 .text          0x00005128        0x0 .\CortexM0\ARM_GCC_541\Debug\os_mutex.o
 .text.OSMutexAccept
                0x00005128       0xf0 .\CortexM0\ARM_GCC_541\Debug\os_mutex.o
                0x00005128                OSMutexAccept
 .text.OSMutexCreate
                0x00005218      0x10c .\CortexM0\ARM_GCC_541\Debug\os_mutex.o
                0x00005218                OSMutexCreate
 .text.OSMutexDel
                0x00005324      0x1f0 .\CortexM0\ARM_GCC_541\Debug\os_mutex.o
                0x00005324                OSMutexDel
 .text.OSMutexPend
                0x00005514      0x3a8 .\CortexM0\ARM_GCC_541\Debug\os_mutex.o
                0x00005514                OSMutexPend
 .text.OSMutexPost
                0x000058bc      0x15c .\CortexM0\ARM_GCC_541\Debug\os_mutex.o
                0x000058bc                OSMutexPost
 .text.OSMutexQuery
                0x00005a18       0xcc .\CortexM0\ARM_GCC_541\Debug\os_mutex.o
                0x00005a18                OSMutexQuery
 .text.OSMutex_RdyAtPrio
                0x00005ae4      0x118 .\CortexM0\ARM_GCC_541\Debug\os_mutex.o
 .text          0x00005bfc        0x0 .\CortexM0\ARM_GCC_541\Debug\os_q.o
 .text.OSQAccept
                0x00005bfc       0x98 .\CortexM0\ARM_GCC_541\Debug\os_q.o
                0x00005bfc                OSQAccept
 .text.OSQCreate
                0x00005c94       0xf8 .\CortexM0\ARM_GCC_541\Debug\os_q.o
                0x00005c94                OSQCreate
 .text.OSQDel   0x00005d8c      0x17c .\CortexM0\ARM_GCC_541\Debug\os_q.o
                0x00005d8c                OSQDel
 .text.OSQFlush
                0x00005f08       0x58 .\CortexM0\ARM_GCC_541\Debug\os_q.o
                0x00005f08                OSQFlush
 .text.OSQPend  0x00005f60      0x184 .\CortexM0\ARM_GCC_541\Debug\os_q.o
                0x00005f60                OSQPend
 .text.OSQPendAbort
                0x000060e4       0xd0 .\CortexM0\ARM_GCC_541\Debug\os_q.o
                0x000060e4                OSQPendAbort
 .text.OSQPost  0x000061b4       0xb0 .\CortexM0\ARM_GCC_541\Debug\os_q.o
                0x000061b4                OSQPost
 .text.OSQPostFront
                0x00006264       0xb4 .\CortexM0\ARM_GCC_541\Debug\os_q.o
                0x00006264                OSQPostFront
 .text.OSQPostOpt
                0x00006318      0x110 .\CortexM0\ARM_GCC_541\Debug\os_q.o
                0x00006318                OSQPostOpt
 .text.OSQQuery
                0x00006428       0xc0 .\CortexM0\ARM_GCC_541\Debug\os_q.o
                0x00006428                OSQQuery
 .text.OS_QInit
                0x000064e8       0xa0 .\CortexM0\ARM_GCC_541\Debug\os_q.o
                0x000064e8                OS_QInit
 .text          0x00006588        0x0 .\CortexM0\ARM_GCC_541\Debug\os_sem.o
 .text.OSSemAccept
                0x00006588       0x60 .\CortexM0\ARM_GCC_541\Debug\os_sem.o
                0x00006588                OSSemAccept
 .text.OSSemCreate
                0x000065e8       0x84 .\CortexM0\ARM_GCC_541\Debug\os_sem.o
                0x000065e8                OSSemCreate
 .text.OSSemDel
                0x0000666c      0x150 .\CortexM0\ARM_GCC_541\Debug\os_sem.o
                0x0000666c                OSSemDel
 .text.OSSemPend
                0x000067bc      0x134 .\CortexM0\ARM_GCC_541\Debug\os_sem.o
                0x000067bc                OSSemPend
 .text.OSSemPendAbort
                0x000068f0       0xd0 .\CortexM0\ARM_GCC_541\Debug\os_sem.o
                0x000068f0                OSSemPendAbort
 .text.OSSemPost
                0x000069c0       0x88 .\CortexM0\ARM_GCC_541\Debug\os_sem.o
                0x000069c0                OSSemPost
 .text.OSSemQuery
                0x00006a48       0x98 .\CortexM0\ARM_GCC_541\Debug\os_sem.o
                0x00006a48                OSSemQuery
 .text.OSSemSet
                0x00006ae0       0x80 .\CortexM0\ARM_GCC_541\Debug\os_sem.o
                0x00006ae0                OSSemSet
 .text          0x00006b60        0x0 .\CortexM0\ARM_GCC_541\Debug\os_task.o
 .text.OSTaskChangePrio
                0x00006b60      0x348 .\CortexM0\ARM_GCC_541\Debug\os_task.o
                0x00006b60                OSTaskChangePrio
 .text.OSTaskCreate
                0x00006ea8       0xec .\CortexM0\ARM_GCC_541\Debug\os_task.o
                0x00006ea8                OSTaskCreate
 .text.OSTaskCreateExt
                0x00006f94      0x10c .\CortexM0\ARM_GCC_541\Debug\os_task.o
                0x00006f94                OSTaskCreateExt
 .text.OSTaskDel
                0x000070a0      0x214 .\CortexM0\ARM_GCC_541\Debug\os_task.o
                0x000070a0                OSTaskDel
 .text.OSTaskDelReq
                0x000072b4       0xb8 .\CortexM0\ARM_GCC_541\Debug\os_task.o
                0x000072b4                OSTaskDelReq
 .text.OSTaskNameGet
                0x0000736c       0xf8 .\CortexM0\ARM_GCC_541\Debug\os_task.o
                0x0000736c                OSTaskNameGet
 .text.OSTaskNameSet
                0x00007464       0xd0 .\CortexM0\ARM_GCC_541\Debug\os_task.o
                0x00007464                OSTaskNameSet
 .text.OSTaskResume
                0x00007534      0x10c .\CortexM0\ARM_GCC_541\Debug\os_task.o
                0x00007534                OSTaskResume
 .text.OSTaskStkChk
                0x00007640       0xf0 .\CortexM0\ARM_GCC_541\Debug\os_task.o
                0x00007640                OSTaskStkChk
 .text.OSTaskSuspend
                0x00007730      0x13c .\CortexM0\ARM_GCC_541\Debug\os_task.o
                0x00007730                OSTaskSuspend
 .text.OSTaskQuery
                0x0000786c       0xa4 .\CortexM0\ARM_GCC_541\Debug\os_task.o
                0x0000786c                OSTaskQuery
 .text.OSTaskRegGet
                0x00007910       0x9c .\CortexM0\ARM_GCC_541\Debug\os_task.o
                0x00007910                OSTaskRegGet
 .text.OSTaskRegGetID
                0x000079ac       0x64 .\CortexM0\ARM_GCC_541\Debug\os_task.o
                0x000079ac                OSTaskRegGetID
 .text.OSTaskRegSet
                0x00007a10       0xa4 .\CortexM0\ARM_GCC_541\Debug\os_task.o
                0x00007a10                OSTaskRegSet
 .text.OS_TaskReturn
                0x00007ab4       0x20 .\CortexM0\ARM_GCC_541\Debug\os_task.o
                0x00007ab4                OS_TaskReturn
 .text.OS_TaskStkClr
                0x00007ad4       0x44 .\CortexM0\ARM_GCC_541\Debug\os_task.o
                0x00007ad4                OS_TaskStkClr
 .text          0x00007b18        0x0 .\CortexM0\ARM_GCC_541\Debug\os_time.o
 .text.OSTimeDly
                0x00007b18       0xb8 .\CortexM0\ARM_GCC_541\Debug\os_time.o
                0x00007b18                OSTimeDly
 .text.OSTimeDlyHMSM
                0x00007bd0       0xe8 .\CortexM0\ARM_GCC_541\Debug\os_time.o
                0x00007bd0                OSTimeDlyHMSM
 .text.OSTimeDlyResume
                0x00007cb8      0x110 .\CortexM0\ARM_GCC_541\Debug\os_time.o
                0x00007cb8                OSTimeDlyResume
 .text.OSTimeGet
                0x00007dc8       0x30 .\CortexM0\ARM_GCC_541\Debug\os_time.o
                0x00007dc8                OSTimeGet
 .text.OSTimeSet
                0x00007df8       0x30 .\CortexM0\ARM_GCC_541\Debug\os_time.o
                0x00007df8                OSTimeSet
 .text          0x00007e28        0x0 .\CortexM0\ARM_GCC_541\Debug\os_tmr.o
 .text.OSTmrCreate
                0x00007e28       0xd8 .\CortexM0\ARM_GCC_541\Debug\os_tmr.o
                0x00007e28                OSTmrCreate
 .text.OSTmrDel
                0x00007f00       0xb4 .\CortexM0\ARM_GCC_541\Debug\os_tmr.o
                0x00007f00                OSTmrDel
 .text.OSTmrNameGet
                0x00007fb4       0xb8 .\CortexM0\ARM_GCC_541\Debug\os_tmr.o
                0x00007fb4                OSTmrNameGet
 .text.OSTmrRemainGet
                0x0000806c       0xf0 .\CortexM0\ARM_GCC_541\Debug\os_tmr.o
                0x0000806c                OSTmrRemainGet
 .text.OSTmrStateGet
                0x0000815c       0x80 .\CortexM0\ARM_GCC_541\Debug\os_tmr.o
                0x0000815c                OSTmrStateGet
 .text.OSTmrStart
                0x000081dc       0xb8 .\CortexM0\ARM_GCC_541\Debug\os_tmr.o
                0x000081dc                OSTmrStart
 .text.OSTmrStop
                0x00008294      0x110 .\CortexM0\ARM_GCC_541\Debug\os_tmr.o
                0x00008294                OSTmrStop
 .text.OSTmrSignal
                0x000083a4       0x28 .\CortexM0\ARM_GCC_541\Debug\os_tmr.o
                0x000083a4                OSTmrSignal
 .text.OSTmr_Alloc
                0x000083cc       0x5c .\CortexM0\ARM_GCC_541\Debug\os_tmr.o
 .text.OSTmr_Free
                0x00008428       0x7c .\CortexM0\ARM_GCC_541\Debug\os_tmr.o
 .text.OSTmr_Init
                0x000084a4      0x144 .\CortexM0\ARM_GCC_541\Debug\os_tmr.o
                0x000084a4                OSTmr_Init
 .text.OSTmr_InitTask
                0x000085e8       0x50 .\CortexM0\ARM_GCC_541\Debug\os_tmr.o
 .text.OSTmr_Link
                0x00008638       0xd0 .\CortexM0\ARM_GCC_541\Debug\os_tmr.o
 .text.OSTmr_Unlink
                0x00008708       0x9c .\CortexM0\ARM_GCC_541\Debug\os_tmr.o
 .text.OSTmr_Task
                0x000087a4       0xc0 .\CortexM0\ARM_GCC_541\Debug\os_tmr.o
 .text          0x00008864        0x0 .\CortexM0\ARM_GCC_541\Debug\os_dbg_r.o
 .text.OSDebugInit
                0x00008864      0x1d8 .\CortexM0\ARM_GCC_541\Debug\os_dbg_r.o
                0x00008864                OSDebugInit
 .text          0x00008a3c        0x0 .\CortexM0\ARM_GCC_541\Debug\lib_ascii.o
 .text.ASCII_IsAlpha
                0x00008a3c       0x48 .\CortexM0\ARM_GCC_541\Debug\lib_ascii.o
                0x00008a3c                ASCII_IsAlpha
 .text.ASCII_IsAlphaNum
                0x00008a84       0x58 .\CortexM0\ARM_GCC_541\Debug\lib_ascii.o
                0x00008a84                ASCII_IsAlphaNum
 .text.ASCII_IsLower
                0x00008adc       0x38 .\CortexM0\ARM_GCC_541\Debug\lib_ascii.o
                0x00008adc                ASCII_IsLower
 .text.ASCII_IsUpper
                0x00008b14       0x38 .\CortexM0\ARM_GCC_541\Debug\lib_ascii.o
                0x00008b14                ASCII_IsUpper
 .text.ASCII_IsDig
                0x00008b4c       0x38 .\CortexM0\ARM_GCC_541\Debug\lib_ascii.o
                0x00008b4c                ASCII_IsDig
 .text.ASCII_IsDigOct
                0x00008b84       0x38 .\CortexM0\ARM_GCC_541\Debug\lib_ascii.o
                0x00008b84                ASCII_IsDigOct
 .text.ASCII_IsDigHex
                0x00008bbc       0x58 .\CortexM0\ARM_GCC_541\Debug\lib_ascii.o
                0x00008bbc                ASCII_IsDigHex
 .text.ASCII_IsBlank
                0x00008c14       0x38 .\CortexM0\ARM_GCC_541\Debug\lib_ascii.o
                0x00008c14                ASCII_IsBlank
 .text.ASCII_IsSpace
                0x00008c4c       0x58 .\CortexM0\ARM_GCC_541\Debug\lib_ascii.o
                0x00008c4c                ASCII_IsSpace
 .text.ASCII_IsPrint
                0x00008ca4       0x38 .\CortexM0\ARM_GCC_541\Debug\lib_ascii.o
                0x00008ca4                ASCII_IsPrint
 .text.ASCII_IsGraph
                0x00008cdc       0x38 .\CortexM0\ARM_GCC_541\Debug\lib_ascii.o
                0x00008cdc                ASCII_IsGraph
 .text.ASCII_IsPunct
                0x00008d14       0x98 .\CortexM0\ARM_GCC_541\Debug\lib_ascii.o
                0x00008d14                ASCII_IsPunct
 .text.ASCII_IsCtrl
                0x00008dac       0x40 .\CortexM0\ARM_GCC_541\Debug\lib_ascii.o
                0x00008dac                ASCII_IsCtrl
 .text.ASCII_ToLower
                0x00008dec       0x40 .\CortexM0\ARM_GCC_541\Debug\lib_ascii.o
                0x00008dec                ASCII_ToLower
 .text.ASCII_ToUpper
                0x00008e2c       0x40 .\CortexM0\ARM_GCC_541\Debug\lib_ascii.o
                0x00008e2c                ASCII_ToUpper
 .text.ASCII_Cmp
                0x00008e6c       0x60 .\CortexM0\ARM_GCC_541\Debug\lib_ascii.o
                0x00008e6c                ASCII_Cmp
 .text          0x00008ecc        0x0 .\CortexM0\ARM_GCC_541\Debug\lib_math.o
 .text.Math_Init
                0x00008ecc       0x10 .\CortexM0\ARM_GCC_541\Debug\lib_math.o
                0x00008ecc                Math_Init
 .text.Math_RandSetSeed
                0x00008edc       0x38 .\CortexM0\ARM_GCC_541\Debug\lib_math.o
                0x00008edc                Math_RandSetSeed
 .text.Math_Rand
                0x00008f14       0x48 .\CortexM0\ARM_GCC_541\Debug\lib_math.o
                0x00008f14                Math_Rand
 .text.Math_RandSeed
                0x00008f5c       0x2c .\CortexM0\ARM_GCC_541\Debug\lib_math.o
                0x00008f5c                Math_RandSeed
 .text          0x00008f88        0x0 .\CortexM0\ARM_GCC_541\Debug\lib_mem.o
 .text.Mem_Init
                0x00008f88       0x54 .\CortexM0\ARM_GCC_541\Debug\lib_mem.o
                0x00008f88                Mem_Init
 .text.Mem_Clr  0x00008fdc       0x20 .\CortexM0\ARM_GCC_541\Debug\lib_mem.o
                0x00008fdc                Mem_Clr
 .text.Mem_Set  0x00008ffc       0xc0 .\CortexM0\ARM_GCC_541\Debug\lib_mem.o
                0x00008ffc                Mem_Set
 .text.Mem_Copy
                0x000090bc       0xdc .\CortexM0\ARM_GCC_541\Debug\lib_mem.o
                0x000090bc                Mem_Copy
 .text.Mem_Move
                0x00009198      0x124 .\CortexM0\ARM_GCC_541\Debug\lib_mem.o
                0x00009198                Mem_Move
 .text.Mem_Cmp  0x000092bc      0x15c .\CortexM0\ARM_GCC_541\Debug\lib_mem.o
                0x000092bc                Mem_Cmp
 .text.Mem_HeapAlloc
                0x00009418       0x54 .\CortexM0\ARM_GCC_541\Debug\lib_mem.o
                0x00009418                Mem_HeapAlloc
 .text.Mem_HeapGetSizeRem
                0x0000946c       0x3c .\CortexM0\ARM_GCC_541\Debug\lib_mem.o
                0x0000946c                Mem_HeapGetSizeRem
 .text.Mem_SegCreate
                0x000094a8       0x50 .\CortexM0\ARM_GCC_541\Debug\lib_mem.o
                0x000094a8                Mem_SegCreate
 .text.Mem_SegClr
                0x000094f8       0x40 .\CortexM0\ARM_GCC_541\Debug\lib_mem.o
                0x000094f8                Mem_SegClr
 .text.Mem_SegRemSizeGet
                0x00009538       0xac .\CortexM0\ARM_GCC_541\Debug\lib_mem.o
                0x00009538                Mem_SegRemSizeGet
 .text.Mem_SegAlloc
                0x000095e4       0x44 .\CortexM0\ARM_GCC_541\Debug\lib_mem.o
                0x000095e4                Mem_SegAlloc
 .text.Mem_SegAllocExt
                0x00009628       0x44 .\CortexM0\ARM_GCC_541\Debug\lib_mem.o
                0x00009628                Mem_SegAllocExt
 .text.Mem_SegAllocHW
                0x0000966c       0x48 .\CortexM0\ARM_GCC_541\Debug\lib_mem.o
                0x0000966c                Mem_SegAllocHW
 .text.Mem_PoolCreate
                0x000096b4      0x1b4 .\CortexM0\ARM_GCC_541\Debug\lib_mem.o
                0x000096b4                Mem_PoolCreate
 .text.Mem_PoolClr
                0x00009868       0x40 .\CortexM0\ARM_GCC_541\Debug\lib_mem.o
                0x00009868                Mem_PoolClr
 .text.Mem_PoolBlkGet
                0x000098a8       0x84 .\CortexM0\ARM_GCC_541\Debug\lib_mem.o
                0x000098a8                Mem_PoolBlkGet
 .text.Mem_PoolBlkFree
                0x0000992c       0x78 .\CortexM0\ARM_GCC_541\Debug\lib_mem.o
                0x0000992c                Mem_PoolBlkFree
 .text.Mem_PoolBlkGetNbrAvail
                0x000099a4       0x40 .\CortexM0\ARM_GCC_541\Debug\lib_mem.o
                0x000099a4                Mem_PoolBlkGetNbrAvail
 .text.Mem_DynPoolCreate
                0x000099e4       0x48 .\CortexM0\ARM_GCC_541\Debug\lib_mem.o
                0x000099e4                Mem_DynPoolCreate
 .text.Mem_DynPoolCreateHW
                0x00009a2c       0x4c .\CortexM0\ARM_GCC_541\Debug\lib_mem.o
                0x00009a2c                Mem_DynPoolCreateHW
 .text.Mem_DynPoolBlkGet
                0x00009a78       0xec .\CortexM0\ARM_GCC_541\Debug\lib_mem.o
                0x00009a78                Mem_DynPoolBlkGet
 .text.Mem_DynPoolBlkFree
                0x00009b64       0x90 .\CortexM0\ARM_GCC_541\Debug\lib_mem.o
                0x00009b64                Mem_DynPoolBlkFree
 .text.Mem_DynPoolBlkNbrAvailGet
                0x00009bf4       0x60 .\CortexM0\ARM_GCC_541\Debug\lib_mem.o
                0x00009bf4                Mem_DynPoolBlkNbrAvailGet
 .text.Mem_SegCreateCritical
                0x00009c54       0x48 .\CortexM0\ARM_GCC_541\Debug\lib_mem.o
 .text.Mem_SegOverlapChkCritical
                0x00009c9c       0x98 .\CortexM0\ARM_GCC_541\Debug\lib_mem.o
 .text.Mem_SegAllocInternal
                0x00009d34       0x6c .\CortexM0\ARM_GCC_541\Debug\lib_mem.o
 .text.Mem_SegAllocExtCritical
                0x00009da0       0xb8 .\CortexM0\ARM_GCC_541\Debug\lib_mem.o
 .text.Mem_DynPoolCreateInternal
                0x00009e58      0x108 .\CortexM0\ARM_GCC_541\Debug\lib_mem.o
 .text          0x00009f60        0x0 .\CortexM0\ARM_GCC_541\Debug\lib_str.o
 .text.Str_Len  0x00009f60       0x24 .\CortexM0\ARM_GCC_541\Debug\lib_str.o
                0x00009f60                Str_Len
 .text.Str_Len_N
                0x00009f84       0x40 .\CortexM0\ARM_GCC_541\Debug\lib_str.o
                0x00009f84                Str_Len_N
 .text.Str_Copy
                0x00009fc4       0x28 .\CortexM0\ARM_GCC_541\Debug\lib_str.o
                0x00009fc4                Str_Copy
 .text.Str_Copy_N
                0x00009fec       0x8c .\CortexM0\ARM_GCC_541\Debug\lib_str.o
                0x00009fec                Str_Copy_N
 .text.Str_Cat  0x0000a078       0x28 .\CortexM0\ARM_GCC_541\Debug\lib_str.o
                0x0000a078                Str_Cat
 .text.Str_Cat_N
                0x0000a0a0       0xb0 .\CortexM0\ARM_GCC_541\Debug\lib_str.o
                0x0000a0a0                Str_Cat_N
 .text.Str_Cmp  0x0000a150       0x30 .\CortexM0\ARM_GCC_541\Debug\lib_str.o
                0x0000a150                Str_Cmp
 .text.Str_Cmp_N
                0x0000a180      0x148 .\CortexM0\ARM_GCC_541\Debug\lib_str.o
                0x0000a180                Str_Cmp_N
 .text.Str_CmpIgnoreCase
                0x0000a2c8       0x30 .\CortexM0\ARM_GCC_541\Debug\lib_str.o
                0x0000a2c8                Str_CmpIgnoreCase
 .text.Str_CmpIgnoreCase_N
                0x0000a2f8      0x1ec .\CortexM0\ARM_GCC_541\Debug\lib_str.o
                0x0000a2f8                Str_CmpIgnoreCase_N
 .text.Str_Char
                0x0000a4e4       0x2c .\CortexM0\ARM_GCC_541\Debug\lib_str.o
                0x0000a4e4                Str_Char
 .text.Str_Char_N
                0x0000a510       0x8c .\CortexM0\ARM_GCC_541\Debug\lib_str.o
                0x0000a510                Str_Char_N
 .text.Str_Char_Last
                0x0000a59c       0x2c .\CortexM0\ARM_GCC_541\Debug\lib_str.o
                0x0000a59c                Str_Char_Last
 .text.Str_Char_Last_N
                0x0000a5c8       0x84 .\CortexM0\ARM_GCC_541\Debug\lib_str.o
                0x0000a5c8                Str_Char_Last_N
 .text.Str_Char_Replace
                0x0000a64c       0x3c .\CortexM0\ARM_GCC_541\Debug\lib_str.o
                0x0000a64c                Str_Char_Replace
 .text.Str_Char_Replace_N
                0x0000a688       0x80 .\CortexM0\ARM_GCC_541\Debug\lib_str.o
                0x0000a688                Str_Char_Replace_N
 .text.Str_Str  0x0000a708       0x28 .\CortexM0\ARM_GCC_541\Debug\lib_str.o
                0x0000a708                Str_Str
 .text.Str_Str_N
                0x0000a730      0x110 .\CortexM0\ARM_GCC_541\Debug\lib_str.o
                0x0000a730                Str_Str_N
 .text.Str_FmtNbr_Int32U
                0x0000a840       0x58 .\CortexM0\ARM_GCC_541\Debug\lib_str.o
                0x0000a840                Str_FmtNbr_Int32U
 .text.Str_FmtNbr_Int32S
                0x0000a898       0x80 .\CortexM0\ARM_GCC_541\Debug\lib_str.o
                0x0000a898                Str_FmtNbr_Int32S
 .text.Str_ParseNbr_Int32U
                0x0000a918       0x30 .\CortexM0\ARM_GCC_541\Debug\lib_str.o
                0x0000a918                Str_ParseNbr_Int32U
 .text.Str_ParseNbr_Int32S
                0x0000a948       0x60 .\CortexM0\ARM_GCC_541\Debug\lib_str.o
                0x0000a948                Str_ParseNbr_Int32S
 .text.Str_FmtNbr_Int32
                0x0000a9a8      0x3a4 .\CortexM0\ARM_GCC_541\Debug\lib_str.o
 .text.Str_ParseNbr_Int32
                0x0000ad4c      0x32c .\CortexM0\ARM_GCC_541\Debug\lib_str.o
 .text          0x0000b078        0x0 .\CortexM0\ARM_GCC_541\Debug\cyfitter_cfg.o
 .text.CYMEMZERO
                0x0000b078       0x20 .\CortexM0\ARM_GCC_541\Debug\cyfitter_cfg.o
 .text.CYCONFIGCPY
                0x0000b098       0x20 .\CortexM0\ARM_GCC_541\Debug\cyfitter_cfg.o
 .text.CYCONFIGCPYCODE
                0x0000b0b8       0x20 .\CortexM0\ARM_GCC_541\Debug\cyfitter_cfg.o
 .text.cfg_write_bytes32
                0x0000b0d8       0x84 .\CortexM0\ARM_GCC_541\Debug\cyfitter_cfg.o
 .text.AnalogSetDefault
                0x0000b15c       0x6c .\CortexM0\ARM_GCC_541\Debug\cyfitter_cfg.o
 .text.SetAnalogRoutingPumps
                0x0000b1c8       0x40 .\CortexM0\ARM_GCC_541\Debug\cyfitter_cfg.o
                0x0000b1c8                SetAnalogRoutingPumps
 .text          0x0000b208        0x0 .\CortexM0\ARM_GCC_541\Debug\cymetadata.o
 .text          0x0000b208        0x0 .\CortexM0\ARM_GCC_541\Debug\Cm0Start.o
 .text.IntDefaultHandler
                0x0000b208        0x8 .\CortexM0\ARM_GCC_541\Debug\Cm0Start.o
                0x0000b208                IntDefaultHandler
 .text._exit    0x0000b210       0x14 .\CortexM0\ARM_GCC_541\Debug\Cm0Start.o
                0x0000b210                _exit
 .text._sbrk    0x0000b224       0x50 .\CortexM0\ARM_GCC_541\Debug\Cm0Start.o
                0x0000b224                _sbrk
 .text.Start_c  0x0000b274       0x98 .\CortexM0\ARM_GCC_541\Debug\Cm0Start.o
                0x0000b274                Start_c
 .text.initialize_psoc
                0x0000b30c       0x70 .\CortexM0\ARM_GCC_541\Debug\Cm0Start.o
                0x0000b30c                initialize_psoc
 .text          0x0000b37c       0x20 .\CortexM0\ARM_GCC_541\Debug\cpu_a.o
                0x0000b37c                CPU_IntDis
                0x0000b380                CPU_IntEn
                0x0000b384                CPU_SR_Save
                0x0000b38c                CPU_SR_Restore
                0x0000b392                CPU_WaitForInt
                0x0000b396                CPU_WaitForExcept
 .text          0x0000b39c       0xc4 .\CortexM0\ARM_GCC_541\Debug\os_cpu_a.o
                0x0000b39c                OS_CPU_SR_Save
                0x0000b3a4                OS_CPU_SR_Restore
                0x0000b3aa                OSStartHighRdy
                0x0000b3d2                OSCtxSw
                0x0000b3da                OSIntCtxSw
                0x0000b3e2                PendSV_Handler
 .text          0x0000b460        0x0 .\CortexM0\ARM_GCC_541\Debug\OS2.a(PWM_Blue.o)
 .text.PWM_Blue_Init
                0x0000b460       0x58 .\CortexM0\ARM_GCC_541\Debug\OS2.a(PWM_Blue.o)
                0x0000b460                PWM_Blue_Init
 .text.PWM_Blue_Enable
                0x0000b4b8       0x3c .\CortexM0\ARM_GCC_541\Debug\OS2.a(PWM_Blue.o)
                0x0000b4b8                PWM_Blue_Enable
 .text.PWM_Blue_Start
                0x0000b4f4       0x24 .\CortexM0\ARM_GCC_541\Debug\OS2.a(PWM_Blue.o)
                0x0000b4f4                PWM_Blue_Start
 .text.PWM_Blue_Stop
                0x0000b518       0x34 .\CortexM0\ARM_GCC_541\Debug\OS2.a(PWM_Blue.o)
                0x0000b518                PWM_Blue_Stop
 .text.PWM_Blue_SetMode
                0x0000b54c       0x48 .\CortexM0\ARM_GCC_541\Debug\OS2.a(PWM_Blue.o)
                0x0000b54c                PWM_Blue_SetMode
 .text.PWM_Blue_SetQDMode
                0x0000b594       0x48 .\CortexM0\ARM_GCC_541\Debug\OS2.a(PWM_Blue.o)
                0x0000b594                PWM_Blue_SetQDMode
 .text.PWM_Blue_SetPrescaler
                0x0000b5dc       0x48 .\CortexM0\ARM_GCC_541\Debug\OS2.a(PWM_Blue.o)
                0x0000b5dc                PWM_Blue_SetPrescaler
 .text.PWM_Blue_SetOneShot
                0x0000b624       0x50 .\CortexM0\ARM_GCC_541\Debug\OS2.a(PWM_Blue.o)
                0x0000b624                PWM_Blue_SetOneShot
 .text.PWM_Blue_SetPWMMode
                0x0000b674       0x20 .\CortexM0\ARM_GCC_541\Debug\OS2.a(PWM_Blue.o)
                0x0000b674                PWM_Blue_SetPWMMode
 .text.PWM_Blue_SetPWMSyncKill
                0x0000b694       0x4c .\CortexM0\ARM_GCC_541\Debug\OS2.a(PWM_Blue.o)
                0x0000b694                PWM_Blue_SetPWMSyncKill
 .text.PWM_Blue_SetPWMStopOnKill
                0x0000b6e0       0x4c .\CortexM0\ARM_GCC_541\Debug\OS2.a(PWM_Blue.o)
                0x0000b6e0                PWM_Blue_SetPWMStopOnKill
 .text.PWM_Blue_SetPWMDeadTime
                0x0000b72c       0x50 .\CortexM0\ARM_GCC_541\Debug\OS2.a(PWM_Blue.o)
                0x0000b72c                PWM_Blue_SetPWMDeadTime
 .text.PWM_Blue_SetPWMInvert
                0x0000b77c       0x48 .\CortexM0\ARM_GCC_541\Debug\OS2.a(PWM_Blue.o)
                0x0000b77c                PWM_Blue_SetPWMInvert
 .text.PWM_Blue_WriteCounter
                0x0000b7c4       0x20 .\CortexM0\ARM_GCC_541\Debug\OS2.a(PWM_Blue.o)
                0x0000b7c4                PWM_Blue_WriteCounter
 .text.PWM_Blue_ReadCounter
                0x0000b7e4       0x18 .\CortexM0\ARM_GCC_541\Debug\OS2.a(PWM_Blue.o)
                0x0000b7e4                PWM_Blue_ReadCounter
 .text.PWM_Blue_SetCounterMode
                0x0000b7fc       0x48 .\CortexM0\ARM_GCC_541\Debug\OS2.a(PWM_Blue.o)
                0x0000b7fc                PWM_Blue_SetCounterMode
 .text.PWM_Blue_WritePeriod
                0x0000b844       0x20 .\CortexM0\ARM_GCC_541\Debug\OS2.a(PWM_Blue.o)
                0x0000b844                PWM_Blue_WritePeriod
 .text.PWM_Blue_ReadPeriod
                0x0000b864       0x18 .\CortexM0\ARM_GCC_541\Debug\OS2.a(PWM_Blue.o)
                0x0000b864                PWM_Blue_ReadPeriod
 .text.PWM_Blue_SetCompareSwap
                0x0000b87c       0x48 .\CortexM0\ARM_GCC_541\Debug\OS2.a(PWM_Blue.o)
                0x0000b87c                PWM_Blue_SetCompareSwap
 .text.PWM_Blue_WritePeriodBuf
                0x0000b8c4       0x20 .\CortexM0\ARM_GCC_541\Debug\OS2.a(PWM_Blue.o)
                0x0000b8c4                PWM_Blue_WritePeriodBuf
 .text.PWM_Blue_ReadPeriodBuf
                0x0000b8e4       0x18 .\CortexM0\ARM_GCC_541\Debug\OS2.a(PWM_Blue.o)
                0x0000b8e4                PWM_Blue_ReadPeriodBuf
 .text.PWM_Blue_SetPeriodSwap
                0x0000b8fc       0x4c .\CortexM0\ARM_GCC_541\Debug\OS2.a(PWM_Blue.o)
                0x0000b8fc                PWM_Blue_SetPeriodSwap
 .text.PWM_Blue_WriteCompare
                0x0000b948       0x20 .\CortexM0\ARM_GCC_541\Debug\OS2.a(PWM_Blue.o)
                0x0000b948                PWM_Blue_WriteCompare
 .text.PWM_Blue_ReadCompare
                0x0000b968       0x18 .\CortexM0\ARM_GCC_541\Debug\OS2.a(PWM_Blue.o)
                0x0000b968                PWM_Blue_ReadCompare
 .text.PWM_Blue_WriteCompareBuf
                0x0000b980       0x20 .\CortexM0\ARM_GCC_541\Debug\OS2.a(PWM_Blue.o)
                0x0000b980                PWM_Blue_WriteCompareBuf
 .text.PWM_Blue_ReadCompareBuf
                0x0000b9a0       0x18 .\CortexM0\ARM_GCC_541\Debug\OS2.a(PWM_Blue.o)
                0x0000b9a0                PWM_Blue_ReadCompareBuf
 .text.PWM_Blue_ReadCapture
                0x0000b9b8       0x18 .\CortexM0\ARM_GCC_541\Debug\OS2.a(PWM_Blue.o)
                0x0000b9b8                PWM_Blue_ReadCapture
 .text.PWM_Blue_ReadCaptureBuf
                0x0000b9d0       0x18 .\CortexM0\ARM_GCC_541\Debug\OS2.a(PWM_Blue.o)
                0x0000b9d0                PWM_Blue_ReadCaptureBuf
 .text.PWM_Blue_SetCaptureMode
                0x0000b9e8       0x44 .\CortexM0\ARM_GCC_541\Debug\OS2.a(PWM_Blue.o)
                0x0000b9e8                PWM_Blue_SetCaptureMode
 .text.PWM_Blue_SetReloadMode
                0x0000ba2c       0x48 .\CortexM0\ARM_GCC_541\Debug\OS2.a(PWM_Blue.o)
                0x0000ba2c                PWM_Blue_SetReloadMode
 .text.PWM_Blue_SetStartMode
                0x0000ba74       0x4c .\CortexM0\ARM_GCC_541\Debug\OS2.a(PWM_Blue.o)
                0x0000ba74                PWM_Blue_SetStartMode
 .text.PWM_Blue_SetStopMode
                0x0000bac0       0x48 .\CortexM0\ARM_GCC_541\Debug\OS2.a(PWM_Blue.o)
                0x0000bac0                PWM_Blue_SetStopMode
 .text.PWM_Blue_SetCountMode
                0x0000bb08       0x48 .\CortexM0\ARM_GCC_541\Debug\OS2.a(PWM_Blue.o)
                0x0000bb08                PWM_Blue_SetCountMode
 .text.PWM_Blue_TriggerCommand
                0x0000bb50       0x3c .\CortexM0\ARM_GCC_541\Debug\OS2.a(PWM_Blue.o)
                0x0000bb50                PWM_Blue_TriggerCommand
 .text.PWM_Blue_ReadStatus
                0x0000bb8c       0x20 .\CortexM0\ARM_GCC_541\Debug\OS2.a(PWM_Blue.o)
                0x0000bb8c                PWM_Blue_ReadStatus
 .text.PWM_Blue_SetInterruptMode
                0x0000bbac       0x1c .\CortexM0\ARM_GCC_541\Debug\OS2.a(PWM_Blue.o)
                0x0000bbac                PWM_Blue_SetInterruptMode
 .text.PWM_Blue_GetInterruptSourceMasked
                0x0000bbc8       0x14 .\CortexM0\ARM_GCC_541\Debug\OS2.a(PWM_Blue.o)
                0x0000bbc8                PWM_Blue_GetInterruptSourceMasked
 .text.PWM_Blue_GetInterruptSource
                0x0000bbdc       0x14 .\CortexM0\ARM_GCC_541\Debug\OS2.a(PWM_Blue.o)
                0x0000bbdc                PWM_Blue_GetInterruptSource
 .text.PWM_Blue_ClearInterrupt
                0x0000bbf0       0x1c .\CortexM0\ARM_GCC_541\Debug\OS2.a(PWM_Blue.o)
                0x0000bbf0                PWM_Blue_ClearInterrupt
 .text.PWM_Blue_SetInterrupt
                0x0000bc0c       0x1c .\CortexM0\ARM_GCC_541\Debug\OS2.a(PWM_Blue.o)
                0x0000bc0c                PWM_Blue_SetInterrupt
 .text          0x0000bc28        0x0 .\CortexM0\ARM_GCC_541\Debug\OS2.a(PWM_Green.o)
 .text.PWM_Green_Init
                0x0000bc28       0x58 .\CortexM0\ARM_GCC_541\Debug\OS2.a(PWM_Green.o)
                0x0000bc28                PWM_Green_Init
 .text.PWM_Green_Enable
                0x0000bc80       0x3c .\CortexM0\ARM_GCC_541\Debug\OS2.a(PWM_Green.o)
                0x0000bc80                PWM_Green_Enable
 .text.PWM_Green_Start
                0x0000bcbc       0x24 .\CortexM0\ARM_GCC_541\Debug\OS2.a(PWM_Green.o)
                0x0000bcbc                PWM_Green_Start
 .text.PWM_Green_Stop
                0x0000bce0       0x34 .\CortexM0\ARM_GCC_541\Debug\OS2.a(PWM_Green.o)
                0x0000bce0                PWM_Green_Stop
 .text.PWM_Green_SetMode
                0x0000bd14       0x48 .\CortexM0\ARM_GCC_541\Debug\OS2.a(PWM_Green.o)
                0x0000bd14                PWM_Green_SetMode
 .text.PWM_Green_SetQDMode
                0x0000bd5c       0x48 .\CortexM0\ARM_GCC_541\Debug\OS2.a(PWM_Green.o)
                0x0000bd5c                PWM_Green_SetQDMode
 .text.PWM_Green_SetPrescaler
                0x0000bda4       0x48 .\CortexM0\ARM_GCC_541\Debug\OS2.a(PWM_Green.o)
                0x0000bda4                PWM_Green_SetPrescaler
 .text.PWM_Green_SetOneShot
                0x0000bdec       0x50 .\CortexM0\ARM_GCC_541\Debug\OS2.a(PWM_Green.o)
                0x0000bdec                PWM_Green_SetOneShot
 .text.PWM_Green_SetPWMMode
                0x0000be3c       0x20 .\CortexM0\ARM_GCC_541\Debug\OS2.a(PWM_Green.o)
                0x0000be3c                PWM_Green_SetPWMMode
 .text.PWM_Green_SetPWMSyncKill
                0x0000be5c       0x4c .\CortexM0\ARM_GCC_541\Debug\OS2.a(PWM_Green.o)
                0x0000be5c                PWM_Green_SetPWMSyncKill
 .text.PWM_Green_SetPWMStopOnKill
                0x0000bea8       0x4c .\CortexM0\ARM_GCC_541\Debug\OS2.a(PWM_Green.o)
                0x0000bea8                PWM_Green_SetPWMStopOnKill
 .text.PWM_Green_SetPWMDeadTime
                0x0000bef4       0x50 .\CortexM0\ARM_GCC_541\Debug\OS2.a(PWM_Green.o)
                0x0000bef4                PWM_Green_SetPWMDeadTime
 .text.PWM_Green_SetPWMInvert
                0x0000bf44       0x48 .\CortexM0\ARM_GCC_541\Debug\OS2.a(PWM_Green.o)
                0x0000bf44                PWM_Green_SetPWMInvert
 .text.PWM_Green_WriteCounter
                0x0000bf8c       0x20 .\CortexM0\ARM_GCC_541\Debug\OS2.a(PWM_Green.o)
                0x0000bf8c                PWM_Green_WriteCounter
 .text.PWM_Green_ReadCounter
                0x0000bfac       0x18 .\CortexM0\ARM_GCC_541\Debug\OS2.a(PWM_Green.o)
                0x0000bfac                PWM_Green_ReadCounter
 .text.PWM_Green_SetCounterMode
                0x0000bfc4       0x48 .\CortexM0\ARM_GCC_541\Debug\OS2.a(PWM_Green.o)
                0x0000bfc4                PWM_Green_SetCounterMode
 .text.PWM_Green_WritePeriod
                0x0000c00c       0x20 .\CortexM0\ARM_GCC_541\Debug\OS2.a(PWM_Green.o)
                0x0000c00c                PWM_Green_WritePeriod
 .text.PWM_Green_ReadPeriod
                0x0000c02c       0x18 .\CortexM0\ARM_GCC_541\Debug\OS2.a(PWM_Green.o)
                0x0000c02c                PWM_Green_ReadPeriod
 .text.PWM_Green_SetCompareSwap
                0x0000c044       0x48 .\CortexM0\ARM_GCC_541\Debug\OS2.a(PWM_Green.o)
                0x0000c044                PWM_Green_SetCompareSwap
 .text.PWM_Green_WritePeriodBuf
                0x0000c08c       0x20 .\CortexM0\ARM_GCC_541\Debug\OS2.a(PWM_Green.o)
                0x0000c08c                PWM_Green_WritePeriodBuf
 .text.PWM_Green_ReadPeriodBuf
                0x0000c0ac       0x18 .\CortexM0\ARM_GCC_541\Debug\OS2.a(PWM_Green.o)
                0x0000c0ac                PWM_Green_ReadPeriodBuf
 .text.PWM_Green_SetPeriodSwap
                0x0000c0c4       0x4c .\CortexM0\ARM_GCC_541\Debug\OS2.a(PWM_Green.o)
                0x0000c0c4                PWM_Green_SetPeriodSwap
 .text.PWM_Green_WriteCompare
                0x0000c110       0x20 .\CortexM0\ARM_GCC_541\Debug\OS2.a(PWM_Green.o)
                0x0000c110                PWM_Green_WriteCompare
 .text.PWM_Green_ReadCompare
                0x0000c130       0x18 .\CortexM0\ARM_GCC_541\Debug\OS2.a(PWM_Green.o)
                0x0000c130                PWM_Green_ReadCompare
 .text.PWM_Green_WriteCompareBuf
                0x0000c148       0x20 .\CortexM0\ARM_GCC_541\Debug\OS2.a(PWM_Green.o)
                0x0000c148                PWM_Green_WriteCompareBuf
 .text.PWM_Green_ReadCompareBuf
                0x0000c168       0x18 .\CortexM0\ARM_GCC_541\Debug\OS2.a(PWM_Green.o)
                0x0000c168                PWM_Green_ReadCompareBuf
 .text.PWM_Green_ReadCapture
                0x0000c180       0x18 .\CortexM0\ARM_GCC_541\Debug\OS2.a(PWM_Green.o)
                0x0000c180                PWM_Green_ReadCapture
 .text.PWM_Green_ReadCaptureBuf
                0x0000c198       0x18 .\CortexM0\ARM_GCC_541\Debug\OS2.a(PWM_Green.o)
                0x0000c198                PWM_Green_ReadCaptureBuf
 .text.PWM_Green_SetCaptureMode
                0x0000c1b0       0x44 .\CortexM0\ARM_GCC_541\Debug\OS2.a(PWM_Green.o)
                0x0000c1b0                PWM_Green_SetCaptureMode
 .text.PWM_Green_SetReloadMode
                0x0000c1f4       0x48 .\CortexM0\ARM_GCC_541\Debug\OS2.a(PWM_Green.o)
                0x0000c1f4                PWM_Green_SetReloadMode
 .text.PWM_Green_SetStartMode
                0x0000c23c       0x4c .\CortexM0\ARM_GCC_541\Debug\OS2.a(PWM_Green.o)
                0x0000c23c                PWM_Green_SetStartMode
 .text.PWM_Green_SetStopMode
                0x0000c288       0x48 .\CortexM0\ARM_GCC_541\Debug\OS2.a(PWM_Green.o)
                0x0000c288                PWM_Green_SetStopMode
 .text.PWM_Green_SetCountMode
                0x0000c2d0       0x48 .\CortexM0\ARM_GCC_541\Debug\OS2.a(PWM_Green.o)
                0x0000c2d0                PWM_Green_SetCountMode
 .text.PWM_Green_TriggerCommand
                0x0000c318       0x3c .\CortexM0\ARM_GCC_541\Debug\OS2.a(PWM_Green.o)
                0x0000c318                PWM_Green_TriggerCommand
 .text.PWM_Green_ReadStatus
                0x0000c354       0x20 .\CortexM0\ARM_GCC_541\Debug\OS2.a(PWM_Green.o)
                0x0000c354                PWM_Green_ReadStatus
 .text.PWM_Green_SetInterruptMode
                0x0000c374       0x1c .\CortexM0\ARM_GCC_541\Debug\OS2.a(PWM_Green.o)
                0x0000c374                PWM_Green_SetInterruptMode
 .text.PWM_Green_GetInterruptSourceMasked
                0x0000c390       0x14 .\CortexM0\ARM_GCC_541\Debug\OS2.a(PWM_Green.o)
                0x0000c390                PWM_Green_GetInterruptSourceMasked
 .text.PWM_Green_GetInterruptSource
                0x0000c3a4       0x14 .\CortexM0\ARM_GCC_541\Debug\OS2.a(PWM_Green.o)
                0x0000c3a4                PWM_Green_GetInterruptSource
 .text.PWM_Green_ClearInterrupt
                0x0000c3b8       0x1c .\CortexM0\ARM_GCC_541\Debug\OS2.a(PWM_Green.o)
                0x0000c3b8                PWM_Green_ClearInterrupt
 .text.PWM_Green_SetInterrupt
                0x0000c3d4       0x1c .\CortexM0\ARM_GCC_541\Debug\OS2.a(PWM_Green.o)
                0x0000c3d4                PWM_Green_SetInterrupt
 .text          0x0000c3f0        0x0 .\CortexM0\ARM_GCC_541\Debug\OS2.a(PWM_Red.o)
 .text.PWM_Red_Init
                0x0000c3f0       0x58 .\CortexM0\ARM_GCC_541\Debug\OS2.a(PWM_Red.o)
                0x0000c3f0                PWM_Red_Init
 .text.PWM_Red_Enable
                0x0000c448       0x3c .\CortexM0\ARM_GCC_541\Debug\OS2.a(PWM_Red.o)
                0x0000c448                PWM_Red_Enable
 .text.PWM_Red_Start
                0x0000c484       0x24 .\CortexM0\ARM_GCC_541\Debug\OS2.a(PWM_Red.o)
                0x0000c484                PWM_Red_Start
 .text.PWM_Red_Stop
                0x0000c4a8       0x34 .\CortexM0\ARM_GCC_541\Debug\OS2.a(PWM_Red.o)
                0x0000c4a8                PWM_Red_Stop
 .text.PWM_Red_SetMode
                0x0000c4dc       0x48 .\CortexM0\ARM_GCC_541\Debug\OS2.a(PWM_Red.o)
                0x0000c4dc                PWM_Red_SetMode
 .text.PWM_Red_SetQDMode
                0x0000c524       0x48 .\CortexM0\ARM_GCC_541\Debug\OS2.a(PWM_Red.o)
                0x0000c524                PWM_Red_SetQDMode
 .text.PWM_Red_SetPrescaler
                0x0000c56c       0x48 .\CortexM0\ARM_GCC_541\Debug\OS2.a(PWM_Red.o)
                0x0000c56c                PWM_Red_SetPrescaler
 .text.PWM_Red_SetOneShot
                0x0000c5b4       0x50 .\CortexM0\ARM_GCC_541\Debug\OS2.a(PWM_Red.o)
                0x0000c5b4                PWM_Red_SetOneShot
 .text.PWM_Red_SetPWMMode
                0x0000c604       0x20 .\CortexM0\ARM_GCC_541\Debug\OS2.a(PWM_Red.o)
                0x0000c604                PWM_Red_SetPWMMode
 .text.PWM_Red_SetPWMSyncKill
                0x0000c624       0x4c .\CortexM0\ARM_GCC_541\Debug\OS2.a(PWM_Red.o)
                0x0000c624                PWM_Red_SetPWMSyncKill
 .text.PWM_Red_SetPWMStopOnKill
                0x0000c670       0x4c .\CortexM0\ARM_GCC_541\Debug\OS2.a(PWM_Red.o)
                0x0000c670                PWM_Red_SetPWMStopOnKill
 .text.PWM_Red_SetPWMDeadTime
                0x0000c6bc       0x50 .\CortexM0\ARM_GCC_541\Debug\OS2.a(PWM_Red.o)
                0x0000c6bc                PWM_Red_SetPWMDeadTime
 .text.PWM_Red_SetPWMInvert
                0x0000c70c       0x48 .\CortexM0\ARM_GCC_541\Debug\OS2.a(PWM_Red.o)
                0x0000c70c                PWM_Red_SetPWMInvert
 .text.PWM_Red_WriteCounter
                0x0000c754       0x20 .\CortexM0\ARM_GCC_541\Debug\OS2.a(PWM_Red.o)
                0x0000c754                PWM_Red_WriteCounter
 .text.PWM_Red_ReadCounter
                0x0000c774       0x18 .\CortexM0\ARM_GCC_541\Debug\OS2.a(PWM_Red.o)
                0x0000c774                PWM_Red_ReadCounter
 .text.PWM_Red_SetCounterMode
                0x0000c78c       0x48 .\CortexM0\ARM_GCC_541\Debug\OS2.a(PWM_Red.o)
                0x0000c78c                PWM_Red_SetCounterMode
 .text.PWM_Red_WritePeriod
                0x0000c7d4       0x20 .\CortexM0\ARM_GCC_541\Debug\OS2.a(PWM_Red.o)
                0x0000c7d4                PWM_Red_WritePeriod
 .text.PWM_Red_ReadPeriod
                0x0000c7f4       0x18 .\CortexM0\ARM_GCC_541\Debug\OS2.a(PWM_Red.o)
                0x0000c7f4                PWM_Red_ReadPeriod
 .text.PWM_Red_SetCompareSwap
                0x0000c80c       0x48 .\CortexM0\ARM_GCC_541\Debug\OS2.a(PWM_Red.o)
                0x0000c80c                PWM_Red_SetCompareSwap
 .text.PWM_Red_WritePeriodBuf
                0x0000c854       0x20 .\CortexM0\ARM_GCC_541\Debug\OS2.a(PWM_Red.o)
                0x0000c854                PWM_Red_WritePeriodBuf
 .text.PWM_Red_ReadPeriodBuf
                0x0000c874       0x18 .\CortexM0\ARM_GCC_541\Debug\OS2.a(PWM_Red.o)
                0x0000c874                PWM_Red_ReadPeriodBuf
 .text.PWM_Red_SetPeriodSwap
                0x0000c88c       0x4c .\CortexM0\ARM_GCC_541\Debug\OS2.a(PWM_Red.o)
                0x0000c88c                PWM_Red_SetPeriodSwap
 .text.PWM_Red_WriteCompare
                0x0000c8d8       0x20 .\CortexM0\ARM_GCC_541\Debug\OS2.a(PWM_Red.o)
                0x0000c8d8                PWM_Red_WriteCompare
 .text.PWM_Red_ReadCompare
                0x0000c8f8       0x18 .\CortexM0\ARM_GCC_541\Debug\OS2.a(PWM_Red.o)
                0x0000c8f8                PWM_Red_ReadCompare
 .text.PWM_Red_WriteCompareBuf
                0x0000c910       0x20 .\CortexM0\ARM_GCC_541\Debug\OS2.a(PWM_Red.o)
                0x0000c910                PWM_Red_WriteCompareBuf
 .text.PWM_Red_ReadCompareBuf
                0x0000c930       0x18 .\CortexM0\ARM_GCC_541\Debug\OS2.a(PWM_Red.o)
                0x0000c930                PWM_Red_ReadCompareBuf
 .text.PWM_Red_ReadCapture
                0x0000c948       0x18 .\CortexM0\ARM_GCC_541\Debug\OS2.a(PWM_Red.o)
                0x0000c948                PWM_Red_ReadCapture
 .text.PWM_Red_ReadCaptureBuf
                0x0000c960       0x18 .\CortexM0\ARM_GCC_541\Debug\OS2.a(PWM_Red.o)
                0x0000c960                PWM_Red_ReadCaptureBuf
 .text.PWM_Red_SetCaptureMode
                0x0000c978       0x44 .\CortexM0\ARM_GCC_541\Debug\OS2.a(PWM_Red.o)
                0x0000c978                PWM_Red_SetCaptureMode
 .text.PWM_Red_SetReloadMode
                0x0000c9bc       0x48 .\CortexM0\ARM_GCC_541\Debug\OS2.a(PWM_Red.o)
                0x0000c9bc                PWM_Red_SetReloadMode
 .text.PWM_Red_SetStartMode
                0x0000ca04       0x4c .\CortexM0\ARM_GCC_541\Debug\OS2.a(PWM_Red.o)
                0x0000ca04                PWM_Red_SetStartMode
 .text.PWM_Red_SetStopMode
                0x0000ca50       0x48 .\CortexM0\ARM_GCC_541\Debug\OS2.a(PWM_Red.o)
                0x0000ca50                PWM_Red_SetStopMode
 .text.PWM_Red_SetCountMode
                0x0000ca98       0x48 .\CortexM0\ARM_GCC_541\Debug\OS2.a(PWM_Red.o)
                0x0000ca98                PWM_Red_SetCountMode
 .text.PWM_Red_TriggerCommand
                0x0000cae0       0x3c .\CortexM0\ARM_GCC_541\Debug\OS2.a(PWM_Red.o)
                0x0000cae0                PWM_Red_TriggerCommand
 .text.PWM_Red_ReadStatus
                0x0000cb1c       0x20 .\CortexM0\ARM_GCC_541\Debug\OS2.a(PWM_Red.o)
                0x0000cb1c                PWM_Red_ReadStatus
 .text.PWM_Red_SetInterruptMode
                0x0000cb3c       0x1c .\CortexM0\ARM_GCC_541\Debug\OS2.a(PWM_Red.o)
                0x0000cb3c                PWM_Red_SetInterruptMode
 .text.PWM_Red_GetInterruptSourceMasked
                0x0000cb58       0x14 .\CortexM0\ARM_GCC_541\Debug\OS2.a(PWM_Red.o)
                0x0000cb58                PWM_Red_GetInterruptSourceMasked
 .text.PWM_Red_GetInterruptSource
                0x0000cb6c       0x14 .\CortexM0\ARM_GCC_541\Debug\OS2.a(PWM_Red.o)
                0x0000cb6c                PWM_Red_GetInterruptSource
 .text.PWM_Red_ClearInterrupt
                0x0000cb80       0x1c .\CortexM0\ARM_GCC_541\Debug\OS2.a(PWM_Red.o)
                0x0000cb80                PWM_Red_ClearInterrupt
 .text.PWM_Red_SetInterrupt
                0x0000cb9c       0x1c .\CortexM0\ARM_GCC_541\Debug\OS2.a(PWM_Red.o)
                0x0000cb9c                PWM_Red_SetInterrupt
 .text          0x0000cbb8        0x0 .\CortexM0\ARM_GCC_541\Debug\OS2.a(Accel_Pin.o)
 .text.Accel_Pin_Write
                0x0000cbb8       0x50 .\CortexM0\ARM_GCC_541\Debug\OS2.a(Accel_Pin.o)
                0x0000cbb8                Accel_Pin_Write
 .text.Accel_Pin_SetDriveMode
                0x0000cc08       0x30 .\CortexM0\ARM_GCC_541\Debug\OS2.a(Accel_Pin.o)
                0x0000cc08                Accel_Pin_SetDriveMode
 .text.Accel_Pin_Read
                0x0000cc38       0x1c .\CortexM0\ARM_GCC_541\Debug\OS2.a(Accel_Pin.o)
                0x0000cc38                Accel_Pin_Read
 .text.Accel_Pin_ReadDataReg
                0x0000cc54       0x1c .\CortexM0\ARM_GCC_541\Debug\OS2.a(Accel_Pin.o)
                0x0000cc54                Accel_Pin_ReadDataReg
 .text.Accel_Pin_ClearInterrupt
                0x0000cc70       0x30 .\CortexM0\ARM_GCC_541\Debug\OS2.a(Accel_Pin.o)
                0x0000cc70                Accel_Pin_ClearInterrupt
 .text          0x0000cca0        0x0 .\CortexM0\ARM_GCC_541\Debug\OS2.a(I2C.o)
 .text.I2C_Init
                0x0000cca0       0x10 .\CortexM0\ARM_GCC_541\Debug\OS2.a(I2C.o)
                0x0000cca0                I2C_Init
 .text.I2C_Enable
                0x0000ccb0       0x24 .\CortexM0\ARM_GCC_541\Debug\OS2.a(I2C.o)
                0x0000ccb0                I2C_Enable
 .text.I2C_Start
                0x0000ccd4       0x24 .\CortexM0\ARM_GCC_541\Debug\OS2.a(I2C.o)
                0x0000ccd4                I2C_Start
 .text.I2C_Stop
                0x0000ccf8       0x34 .\CortexM0\ARM_GCC_541\Debug\OS2.a(I2C.o)
                0x0000ccf8                I2C_Stop
 .text.I2C_SetRxFifoLevel
                0x0000cd2c       0x34 .\CortexM0\ARM_GCC_541\Debug\OS2.a(I2C.o)
                0x0000cd2c                I2C_SetRxFifoLevel
 .text.I2C_SetTxFifoLevel
                0x0000cd60       0x34 .\CortexM0\ARM_GCC_541\Debug\OS2.a(I2C.o)
                0x0000cd60                I2C_SetTxFifoLevel
 .text.I2C_SetCustomInterruptHandler
                0x0000cd94       0x1c .\CortexM0\ARM_GCC_541\Debug\OS2.a(I2C.o)
                0x0000cd94                I2C_SetCustomInterruptHandler
 .text.I2C_ScbEnableIntr
                0x0000cdb0       0x10 .\CortexM0\ARM_GCC_541\Debug\OS2.a(I2C.o)
 .text.I2C_ScbModePostEnable
                0x0000cdc0        0xc .\CortexM0\ARM_GCC_541\Debug\OS2.a(I2C.o)
 .text.I2C_ScbModeStop
                0x0000cdcc       0x10 .\CortexM0\ARM_GCC_541\Debug\OS2.a(I2C.o)
 .text          0x0000cddc        0x0 .\CortexM0\ARM_GCC_541\Debug\OS2.a(I2C_I2C.o)
 .text.I2C_I2CInit
                0x0000cddc       0xdc .\CortexM0\ARM_GCC_541\Debug\OS2.a(I2C_I2C.o)
                0x0000cddc                I2C_I2CInit
 .text.I2C_I2CStop
                0x0000ceb8       0x14 .\CortexM0\ARM_GCC_541\Debug\OS2.a(I2C_I2C.o)
                0x0000ceb8                I2C_I2CStop
 .text          0x0000cecc        0x0 .\CortexM0\ARM_GCC_541\Debug\OS2.a(I2C_I2C_MASTER.o)
 .text.I2C_I2CMasterWriteBuf
                0x0000cecc      0x11c .\CortexM0\ARM_GCC_541\Debug\OS2.a(I2C_I2C_MASTER.o)
                0x0000cecc                I2C_I2CMasterWriteBuf
 .text.I2C_I2CMasterReadBuf
                0x0000cfe8      0x12c .\CortexM0\ARM_GCC_541\Debug\OS2.a(I2C_I2C_MASTER.o)
                0x0000cfe8                I2C_I2CMasterReadBuf
 .text.I2C_I2CMasterSendStart
                0x0000d114      0x110 .\CortexM0\ARM_GCC_541\Debug\OS2.a(I2C_I2C_MASTER.o)
                0x0000d114                I2C_I2CMasterSendStart
 .text.I2C_I2CMasterSendRestart
                0x0000d224      0x108 .\CortexM0\ARM_GCC_541\Debug\OS2.a(I2C_I2C_MASTER.o)
                0x0000d224                I2C_I2CMasterSendRestart
 .text.I2C_I2CMasterSendStop
                0x0000d32c       0xbc .\CortexM0\ARM_GCC_541\Debug\OS2.a(I2C_I2C_MASTER.o)
                0x0000d32c                I2C_I2CMasterSendStop
 .text.I2C_I2CMasterWriteByte
                0x0000d3e8       0xcc .\CortexM0\ARM_GCC_541\Debug\OS2.a(I2C_I2C_MASTER.o)
                0x0000d3e8                I2C_I2CMasterWriteByte
 .text.I2C_I2CMasterReadByte
                0x0000d4b4       0xa8 .\CortexM0\ARM_GCC_541\Debug\OS2.a(I2C_I2C_MASTER.o)
                0x0000d4b4                I2C_I2CMasterReadByte
 .text.I2C_I2CMasterGetReadBufSize
                0x0000d55c       0x14 .\CortexM0\ARM_GCC_541\Debug\OS2.a(I2C_I2C_MASTER.o)
                0x0000d55c                I2C_I2CMasterGetReadBufSize
 .text.I2C_I2CMasterGetWriteBufSize
                0x0000d570       0x14 .\CortexM0\ARM_GCC_541\Debug\OS2.a(I2C_I2C_MASTER.o)
                0x0000d570                I2C_I2CMasterGetWriteBufSize
 .text.I2C_I2CMasterClearReadBuf
                0x0000d584       0x34 .\CortexM0\ARM_GCC_541\Debug\OS2.a(I2C_I2C_MASTER.o)
                0x0000d584                I2C_I2CMasterClearReadBuf
 .text.I2C_I2CMasterClearWriteBuf
                0x0000d5b8       0x34 .\CortexM0\ARM_GCC_541\Debug\OS2.a(I2C_I2C_MASTER.o)
                0x0000d5b8                I2C_I2CMasterClearWriteBuf
 .text.I2C_I2CMasterStatus
                0x0000d5ec       0x44 .\CortexM0\ARM_GCC_541\Debug\OS2.a(I2C_I2C_MASTER.o)
                0x0000d5ec                I2C_I2CMasterStatus
 .text.I2C_I2CMasterClearStatus
                0x0000d630       0x30 .\CortexM0\ARM_GCC_541\Debug\OS2.a(I2C_I2C_MASTER.o)
                0x0000d630                I2C_I2CMasterClearStatus
 .text.I2C_I2CReStartGeneration
                0x0000d660       0x38 .\CortexM0\ARM_GCC_541\Debug\OS2.a(I2C_I2C_MASTER.o)
                0x0000d660                I2C_I2CReStartGeneration
 .text          0x0000d698        0x0 .\CortexM0\ARM_GCC_541\Debug\OS2.a(SW2.o)
 .text.SW2_Write
                0x0000d698       0x48 .\CortexM0\ARM_GCC_541\Debug\OS2.a(SW2.o)
                0x0000d698                SW2_Write
 .text.SW2_SetDriveMode
                0x0000d6e0       0x30 .\CortexM0\ARM_GCC_541\Debug\OS2.a(SW2.o)
                0x0000d6e0                SW2_SetDriveMode
 .text.SW2_Read
                0x0000d710       0x1c .\CortexM0\ARM_GCC_541\Debug\OS2.a(SW2.o)
                0x0000d710                SW2_Read
 .text.SW2_ReadDataReg
                0x0000d72c       0x1c .\CortexM0\ARM_GCC_541\Debug\OS2.a(SW2.o)
                0x0000d72c                SW2_ReadDataReg
 .text.SW2_ClearInterrupt
                0x0000d748       0x30 .\CortexM0\ARM_GCC_541\Debug\OS2.a(SW2.o)
                0x0000d748                SW2_ClearInterrupt
 .text          0x0000d778        0x0 .\CortexM0\ARM_GCC_541\Debug\OS2.a(Accel_ISR.o)
 .text.Accel_ISR_Start
                0x0000d778       0x24 .\CortexM0\ARM_GCC_541\Debug\OS2.a(Accel_ISR.o)
                0x0000d778                Accel_ISR_Start
 .text.Accel_ISR_StartEx
                0x0000d79c       0x28 .\CortexM0\ARM_GCC_541\Debug\OS2.a(Accel_ISR.o)
                0x0000d79c                Accel_ISR_StartEx
 .text.Accel_ISR_Stop
                0x0000d7c4       0x1c .\CortexM0\ARM_GCC_541\Debug\OS2.a(Accel_ISR.o)
                0x0000d7c4                Accel_ISR_Stop
 .text.Accel_ISR_Interrupt
                0x0000d7e0        0xc .\CortexM0\ARM_GCC_541\Debug\OS2.a(Accel_ISR.o)
                0x0000d7e0                Accel_ISR_Interrupt
 .text.Accel_ISR_SetVector
                0x0000d7ec       0x1c .\CortexM0\ARM_GCC_541\Debug\OS2.a(Accel_ISR.o)
                0x0000d7ec                Accel_ISR_SetVector
 .text.Accel_ISR_GetVector
                0x0000d808       0x14 .\CortexM0\ARM_GCC_541\Debug\OS2.a(Accel_ISR.o)
                0x0000d808                Accel_ISR_GetVector
 .text.Accel_ISR_SetPriority
                0x0000d81c       0x50 .\CortexM0\ARM_GCC_541\Debug\OS2.a(Accel_ISR.o)
                0x0000d81c                Accel_ISR_SetPriority
 .text.Accel_ISR_GetPriority
                0x0000d86c       0x2c .\CortexM0\ARM_GCC_541\Debug\OS2.a(Accel_ISR.o)
                0x0000d86c                Accel_ISR_GetPriority
 .text.Accel_ISR_Enable
                0x0000d898       0x14 .\CortexM0\ARM_GCC_541\Debug\OS2.a(Accel_ISR.o)
                0x0000d898                Accel_ISR_Enable
 .text.Accel_ISR_GetState
                0x0000d8ac       0x20 .\CortexM0\ARM_GCC_541\Debug\OS2.a(Accel_ISR.o)
                0x0000d8ac                Accel_ISR_GetState
 .text.Accel_ISR_Disable
                0x0000d8cc       0x14 .\CortexM0\ARM_GCC_541\Debug\OS2.a(Accel_ISR.o)
                0x0000d8cc                Accel_ISR_Disable
 .text.Accel_ISR_SetPending
                0x0000d8e0       0x14 .\CortexM0\ARM_GCC_541\Debug\OS2.a(Accel_ISR.o)
                0x0000d8e0                Accel_ISR_SetPending
 .text.Accel_ISR_ClearPending
                0x0000d8f4       0x14 .\CortexM0\ARM_GCC_541\Debug\OS2.a(Accel_ISR.o)
                0x0000d8f4                Accel_ISR_ClearPending
 .text          0x0000d908        0x0 .\CortexM0\ARM_GCC_541\Debug\OS2.a(Temp_Sensor.o)
 .text.Temp_Sensor_Start
                0x0000d908       0x24 .\CortexM0\ARM_GCC_541\Debug\OS2.a(Temp_Sensor.o)
                0x0000d908                Temp_Sensor_Start
 .text.Temp_Sensor_Stop
                0x0000d92c       0x44 .\CortexM0\ARM_GCC_541\Debug\OS2.a(Temp_Sensor.o)
                0x0000d92c                Temp_Sensor_Stop
 .text.Temp_Sensor_Init
                0x0000d970       0x20 .\CortexM0\ARM_GCC_541\Debug\OS2.a(Temp_Sensor.o)
                0x0000d970                Temp_Sensor_Init
 .text.Temp_Sensor_Enable
                0x0000d990       0x78 .\CortexM0\ARM_GCC_541\Debug\OS2.a(Temp_Sensor.o)
                0x0000d990                Temp_Sensor_Enable
 .text.Temp_Sensor_Trigger
                0x0000da08       0x4c .\CortexM0\ARM_GCC_541\Debug\OS2.a(Temp_Sensor.o)
                0x0000da08                Temp_Sensor_Trigger
 .text.Temp_Sensor_GetTemperature
                0x0000da54       0x70 .\CortexM0\ARM_GCC_541\Debug\OS2.a(Temp_Sensor.o)
                0x0000da54                Temp_Sensor_GetTemperature
 .text.Temp_Sensor_ConversionStatus
                0x0000dac4       0x1c .\CortexM0\ARM_GCC_541\Debug\OS2.a(Temp_Sensor.o)
                0x0000dac4                Temp_Sensor_ConversionStatus
 .text.Temp_Sensor_SetMode
                0x0000dae0       0x20 .\CortexM0\ARM_GCC_541\Debug\OS2.a(Temp_Sensor.o)
                0x0000dae0                Temp_Sensor_SetMode
 .text.Temp_Sensor_DiscoverSensors
                0x0000db00      0x10c .\CortexM0\ARM_GCC_541\Debug\OS2.a(Temp_Sensor.o)
                0x0000db00                Temp_Sensor_DiscoverSensors
 .text          0x0000dc0c        0x0 .\CortexM0\ARM_GCC_541\Debug\OS2.a(Temp_Sensor_INT.o)
 .text.Temp_Sensor_EOC_ISR_Int
                0x0000dc0c       0xc0 .\CortexM0\ARM_GCC_541\Debug\OS2.a(Temp_Sensor_INT.o)
                0x0000dc0c                Temp_Sensor_EOC_ISR_Int
 .text          0x0000dccc        0x0 .\CortexM0\ARM_GCC_541\Debug\OS2.a(DMA.o)
 .text.DMA_ChEnable
                0x0000dccc       0x10 .\CortexM0\ARM_GCC_541\Debug\OS2.a(DMA.o)
 .text.DMA_ValidateDescriptor
                0x0000dcdc       0x1c .\CortexM0\ARM_GCC_541\Debug\OS2.a(DMA.o)
 .text.DMA_SetSrcAddress
                0x0000dcf8       0x20 .\CortexM0\ARM_GCC_541\Debug\OS2.a(DMA.o)
 .text.DMA_SetDstAddress
                0x0000dd18       0x20 .\CortexM0\ARM_GCC_541\Debug\OS2.a(DMA.o)
 .text.DMA_Start
                0x0000dd38       0x4c .\CortexM0\ARM_GCC_541\Debug\OS2.a(DMA.o)
                0x0000dd38                DMA_Start
 .text.DMA_Init
                0x0000dd84       0x28 .\CortexM0\ARM_GCC_541\Debug\OS2.a(DMA.o)
                0x0000dd84                DMA_Init
 .text          0x0000ddac        0x0 .\CortexM0\ARM_GCC_541\Debug\OS2.a(Opamp.o)
 .text.Opamp_Init
                0x0000ddac       0x34 .\CortexM0\ARM_GCC_541\Debug\OS2.a(Opamp.o)
                0x0000ddac                Opamp_Init
 .text.Opamp_Enable
                0x0000dde0       0x28 .\CortexM0\ARM_GCC_541\Debug\OS2.a(Opamp.o)
                0x0000dde0                Opamp_Enable
 .text.Opamp_Start
                0x0000de08       0x24 .\CortexM0\ARM_GCC_541\Debug\OS2.a(Opamp.o)
                0x0000de08                Opamp_Start
 .text.Opamp_Stop
                0x0000de2c       0x20 .\CortexM0\ARM_GCC_541\Debug\OS2.a(Opamp.o)
                0x0000de2c                Opamp_Stop
 .text.Opamp_SetPower
                0x0000de4c       0x38 .\CortexM0\ARM_GCC_541\Debug\OS2.a(Opamp.o)
                0x0000de4c                Opamp_SetPower
 .text.Opamp_PumpControl
                0x0000de84       0x3c .\CortexM0\ARM_GCC_541\Debug\OS2.a(Opamp.o)
                0x0000de84                Opamp_PumpControl
 .text          0x0000dec0        0x0 .\CortexM0\ARM_GCC_541\Debug\OS2.a(ADC.o)
 .text.ADC_Start
                0x0000dec0       0x24 .\CortexM0\ARM_GCC_541\Debug\OS2.a(ADC.o)
                0x0000dec0                ADC_Start
 .text.ADC_Init
                0x0000dee4      0x1bc .\CortexM0\ARM_GCC_541\Debug\OS2.a(ADC.o)
                0x0000dee4                ADC_Init
 .text.ADC_Enable
                0x0000e0a0       0x38 .\CortexM0\ARM_GCC_541\Debug\OS2.a(ADC.o)
                0x0000e0a0                ADC_Enable
 .text.ADC_Stop
                0x0000e0d8       0x1c .\CortexM0\ARM_GCC_541\Debug\OS2.a(ADC.o)
                0x0000e0d8                ADC_Stop
 .text.ADC_StartConvert
                0x0000e0f4       0x1c .\CortexM0\ARM_GCC_541\Debug\OS2.a(ADC.o)
                0x0000e0f4                ADC_StartConvert
 .text.ADC_StopConvert
                0x0000e110       0x20 .\CortexM0\ARM_GCC_541\Debug\OS2.a(ADC.o)
                0x0000e110                ADC_StopConvert
 .text.ADC_IsEndConversion
                0x0000e130       0x48 .\CortexM0\ARM_GCC_541\Debug\OS2.a(ADC.o)
                0x0000e130                ADC_IsEndConversion
 .text.ADC_GetResult16
                0x0000e178       0x44 .\CortexM0\ARM_GCC_541\Debug\OS2.a(ADC.o)
                0x0000e178                ADC_GetResult16
 .text.ADC_SetChanMask
                0x0000e1bc       0x20 .\CortexM0\ARM_GCC_541\Debug\OS2.a(ADC.o)
                0x0000e1bc                ADC_SetChanMask
 .text.ADC_SetLowLimit
                0x0000e1dc       0x30 .\CortexM0\ARM_GCC_541\Debug\OS2.a(ADC.o)
                0x0000e1dc                ADC_SetLowLimit
 .text.ADC_SetHighLimit
                0x0000e20c       0x30 .\CortexM0\ARM_GCC_541\Debug\OS2.a(ADC.o)
                0x0000e20c                ADC_SetHighLimit
 .text.ADC_SetLimitMask
                0x0000e23c       0x20 .\CortexM0\ARM_GCC_541\Debug\OS2.a(ADC.o)
                0x0000e23c                ADC_SetLimitMask
 .text.ADC_SetSatMask
                0x0000e25c       0x20 .\CortexM0\ARM_GCC_541\Debug\OS2.a(ADC.o)
                0x0000e25c                ADC_SetSatMask
 .text.ADC_SetOffset
                0x0000e27c       0x34 .\CortexM0\ARM_GCC_541\Debug\OS2.a(ADC.o)
                0x0000e27c                ADC_SetOffset
 .text.ADC_SetGain
                0x0000e2b0       0x2c .\CortexM0\ARM_GCC_541\Debug\OS2.a(ADC.o)
                0x0000e2b0                ADC_SetGain
 .text.ADC_CountsTo_mVolts
                0x0000e2dc       0xa0 .\CortexM0\ARM_GCC_541\Debug\OS2.a(ADC.o)
                0x0000e2dc                ADC_CountsTo_mVolts
 .text.ADC_CountsTo_uVolts
                0x0000e37c       0x90 .\CortexM0\ARM_GCC_541\Debug\OS2.a(ADC.o)
                0x0000e37c                ADC_CountsTo_uVolts
 .text.ADC_CountsTo_Volts
                0x0000e40c       0x80 .\CortexM0\ARM_GCC_541\Debug\OS2.a(ADC.o)
                0x0000e40c                ADC_CountsTo_Volts
 .text          0x0000e48c        0x0 .\CortexM0\ARM_GCC_541\Debug\OS2.a(ADC_INT.o)
 .text.ADC_ISR  0x0000e48c       0x20 .\CortexM0\ARM_GCC_541\Debug\OS2.a(ADC_INT.o)
                0x0000e48c                ADC_ISR
 .text          0x0000e4ac        0x0 .\CortexM0\ARM_GCC_541\Debug\OS2.a(Temp_Sensor_EOC_ISR.o)
 .text.Temp_Sensor_EOC_ISR_Start
                0x0000e4ac       0x24 .\CortexM0\ARM_GCC_541\Debug\OS2.a(Temp_Sensor_EOC_ISR.o)
                0x0000e4ac                Temp_Sensor_EOC_ISR_Start
 .text.Temp_Sensor_EOC_ISR_StartEx
                0x0000e4d0       0x28 .\CortexM0\ARM_GCC_541\Debug\OS2.a(Temp_Sensor_EOC_ISR.o)
                0x0000e4d0                Temp_Sensor_EOC_ISR_StartEx
 .text.Temp_Sensor_EOC_ISR_Stop
                0x0000e4f8       0x1c .\CortexM0\ARM_GCC_541\Debug\OS2.a(Temp_Sensor_EOC_ISR.o)
                0x0000e4f8                Temp_Sensor_EOC_ISR_Stop
 .text.Temp_Sensor_EOC_ISR_Interrupt
                0x0000e514        0xc .\CortexM0\ARM_GCC_541\Debug\OS2.a(Temp_Sensor_EOC_ISR.o)
                0x0000e514                Temp_Sensor_EOC_ISR_Interrupt
 .text.Temp_Sensor_EOC_ISR_SetVector
                0x0000e520       0x1c .\CortexM0\ARM_GCC_541\Debug\OS2.a(Temp_Sensor_EOC_ISR.o)
                0x0000e520                Temp_Sensor_EOC_ISR_SetVector
 .text.Temp_Sensor_EOC_ISR_GetVector
                0x0000e53c       0x14 .\CortexM0\ARM_GCC_541\Debug\OS2.a(Temp_Sensor_EOC_ISR.o)
                0x0000e53c                Temp_Sensor_EOC_ISR_GetVector
 .text.Temp_Sensor_EOC_ISR_SetPriority
                0x0000e550       0x50 .\CortexM0\ARM_GCC_541\Debug\OS2.a(Temp_Sensor_EOC_ISR.o)
                0x0000e550                Temp_Sensor_EOC_ISR_SetPriority
 .text.Temp_Sensor_EOC_ISR_GetPriority
                0x0000e5a0       0x2c .\CortexM0\ARM_GCC_541\Debug\OS2.a(Temp_Sensor_EOC_ISR.o)
                0x0000e5a0                Temp_Sensor_EOC_ISR_GetPriority
 .text.Temp_Sensor_EOC_ISR_Enable
                0x0000e5cc       0x14 .\CortexM0\ARM_GCC_541\Debug\OS2.a(Temp_Sensor_EOC_ISR.o)
                0x0000e5cc                Temp_Sensor_EOC_ISR_Enable
 .text.Temp_Sensor_EOC_ISR_GetState
                0x0000e5e0       0x1c .\CortexM0\ARM_GCC_541\Debug\OS2.a(Temp_Sensor_EOC_ISR.o)
                0x0000e5e0                Temp_Sensor_EOC_ISR_GetState
 .text.Temp_Sensor_EOC_ISR_Disable
                0x0000e5fc       0x14 .\CortexM0\ARM_GCC_541\Debug\OS2.a(Temp_Sensor_EOC_ISR.o)
                0x0000e5fc                Temp_Sensor_EOC_ISR_Disable
 .text.Temp_Sensor_EOC_ISR_SetPending
                0x0000e610       0x14 .\CortexM0\ARM_GCC_541\Debug\OS2.a(Temp_Sensor_EOC_ISR.o)
                0x0000e610                Temp_Sensor_EOC_ISR_SetPending
 .text.Temp_Sensor_EOC_ISR_ClearPending
                0x0000e624       0x14 .\CortexM0\ARM_GCC_541\Debug\OS2.a(Temp_Sensor_EOC_ISR.o)
                0x0000e624                Temp_Sensor_EOC_ISR_ClearPending
 .text          0x0000e638        0x0 .\CortexM0\ARM_GCC_541\Debug\OS2.a(CyLib.o)
 .text.CySysClkImoStart
                0x0000e638       0x1c .\CortexM0\ARM_GCC_541\Debug\OS2.a(CyLib.o)
                0x0000e638                CySysClkImoStart
 .text.CySysClkImoStop
                0x0000e654       0x20 .\CortexM0\ARM_GCC_541\Debug\OS2.a(CyLib.o)
                0x0000e654                CySysClkImoStop
 .text.CySysClkImoEnableWcoLock
                0x0000e674       0xfc .\CortexM0\ARM_GCC_541\Debug\OS2.a(CyLib.o)
                0x0000e674                CySysClkImoEnableWcoLock
 .text.CySysClkImoDisableWcoLock
                0x0000e770       0x20 .\CortexM0\ARM_GCC_541\Debug\OS2.a(CyLib.o)
                0x0000e770                CySysClkImoDisableWcoLock
 .text.CySysClkImoGetWcoLock
                0x0000e790       0x20 .\CortexM0\ARM_GCC_541\Debug\OS2.a(CyLib.o)
 .text.CySysClkWriteHfclkDirect
                0x0000e7b0       0x44 .\CortexM0\ARM_GCC_541\Debug\OS2.a(CyLib.o)
                0x0000e7b0                CySysClkWriteHfclkDirect
 .text.CySysClkWriteSysclkDiv
                0x0000e7f4       0x48 .\CortexM0\ARM_GCC_541\Debug\OS2.a(CyLib.o)
                0x0000e7f4                CySysClkWriteSysclkDiv
 .text.CySysClkWriteImoFreq
                0x0000e83c       0xb8 .\CortexM0\ARM_GCC_541\Debug\OS2.a(CyLib.o)
                0x0000e83c                CySysClkWriteImoFreq
 .text.CySysLvdEnable
                0x0000e8f4       0x64 .\CortexM0\ARM_GCC_541\Debug\OS2.a(CyLib.o)
                0x0000e8f4                CySysLvdEnable
 .text.CySysLvdDisable
                0x0000e958       0x2c .\CortexM0\ARM_GCC_541\Debug\OS2.a(CyLib.o)
                0x0000e958                CySysLvdDisable
 .text.CySysLvdGetInterruptSource
                0x0000e984       0x18 .\CortexM0\ARM_GCC_541\Debug\OS2.a(CyLib.o)
                0x0000e984                CySysLvdGetInterruptSource
 .text.CySysLvdClearInterrupt
                0x0000e99c       0x14 .\CortexM0\ARM_GCC_541\Debug\OS2.a(CyLib.o)
                0x0000e99c                CySysLvdClearInterrupt
 .text.CySysGetResetReason
                0x0000e9b0       0x30 .\CortexM0\ARM_GCC_541\Debug\OS2.a(CyLib.o)
                0x0000e9b0                CySysGetResetReason
 .text.CyDisableInts
                0x0000e9e0       0x24 .\CortexM0\ARM_GCC_541\Debug\OS2.a(CyLib.o)
                0x0000e9e0                CyDisableInts
 .text.CyEnableInts
                0x0000ea04       0x1c .\CortexM0\ARM_GCC_541\Debug\OS2.a(CyLib.o)
                0x0000ea04                CyEnableInts
 .text.CyIntSetSysVector
                0x0000ea20       0x48 .\CortexM0\ARM_GCC_541\Debug\OS2.a(CyLib.o)
                0x0000ea20                CyIntSetSysVector
 .text.CyIntGetSysVector
                0x0000ea68       0x34 .\CortexM0\ARM_GCC_541\Debug\OS2.a(CyLib.o)
                0x0000ea68                CyIntGetSysVector
 .text.CyIntSetVector
                0x0000ea9c       0x4c .\CortexM0\ARM_GCC_541\Debug\OS2.a(CyLib.o)
                0x0000ea9c                CyIntSetVector
 .text.CyIntGetVector
                0x0000eae8       0x38 .\CortexM0\ARM_GCC_541\Debug\OS2.a(CyLib.o)
                0x0000eae8                CyIntGetVector
 .text.CyIntSetPriority
                0x0000eb20       0xa8 .\CortexM0\ARM_GCC_541\Debug\OS2.a(CyLib.o)
                0x0000eb20                CyIntSetPriority
 .text.CyIntGetPriority
                0x0000ebc8       0x58 .\CortexM0\ARM_GCC_541\Debug\OS2.a(CyLib.o)
                0x0000ebc8                CyIntGetPriority
 .text.CyIntEnable
                0x0000ec20       0x2c .\CortexM0\ARM_GCC_541\Debug\OS2.a(CyLib.o)
                0x0000ec20                CyIntEnable
 .text.CyIntGetState
                0x0000ec4c       0x30 .\CortexM0\ARM_GCC_541\Debug\OS2.a(CyLib.o)
                0x0000ec4c                CyIntGetState
 .text.CyIntDisable
                0x0000ec7c       0x2c .\CortexM0\ARM_GCC_541\Debug\OS2.a(CyLib.o)
                0x0000ec7c                CyIntDisable
 .text.CyIntSetPending
                0x0000eca8       0x2c .\CortexM0\ARM_GCC_541\Debug\OS2.a(CyLib.o)
                0x0000eca8                CyIntSetPending
 .text.CyIntClearPending
                0x0000ecd4       0x2c .\CortexM0\ARM_GCC_541\Debug\OS2.a(CyLib.o)
                0x0000ecd4                CyIntClearPending
 .text.CyHalt   0x0000ed00       0x18 .\CortexM0\ARM_GCC_541\Debug\OS2.a(CyLib.o)
                0x0000ed00                CyHalt
 .text.CySoftwareReset
                0x0000ed18       0x24 .\CortexM0\ARM_GCC_541\Debug\OS2.a(CyLib.o)
                0x0000ed18                CySoftwareReset
 .text.CyDelay  0x0000ed3c       0x4c .\CortexM0\ARM_GCC_541\Debug\OS2.a(CyLib.o)
                0x0000ed3c                CyDelay
 .text.CyDelayUs
                0x0000ed88       0x28 .\CortexM0\ARM_GCC_541\Debug\OS2.a(CyLib.o)
                0x0000ed88                CyDelayUs
 .text.CyDelayFreq
                0x0000edb0       0x84 .\CortexM0\ARM_GCC_541\Debug\OS2.a(CyLib.o)
                0x0000edb0                CyDelayFreq
 .text.CySysTickStart
                0x0000ee34       0x24 .\CortexM0\ARM_GCC_541\Debug\OS2.a(CyLib.o)
                0x0000ee34                CySysTickStart
 .text.CySysTickInit
                0x0000ee58       0x68 .\CortexM0\ARM_GCC_541\Debug\OS2.a(CyLib.o)
                0x0000ee58                CySysTickInit
 .text.CySysTickEnable
                0x0000eec0       0x20 .\CortexM0\ARM_GCC_541\Debug\OS2.a(CyLib.o)
                0x0000eec0                CySysTickEnable
 .text.CySysTickStop
                0x0000eee0       0x1c .\CortexM0\ARM_GCC_541\Debug\OS2.a(CyLib.o)
                0x0000eee0                CySysTickStop
 .text.CySysTickEnableInterrupt
                0x0000eefc       0x1c .\CortexM0\ARM_GCC_541\Debug\OS2.a(CyLib.o)
                0x0000eefc                CySysTickEnableInterrupt
 .text.CySysTickDisableInterrupt
                0x0000ef18       0x1c .\CortexM0\ARM_GCC_541\Debug\OS2.a(CyLib.o)
                0x0000ef18                CySysTickDisableInterrupt
 .text.CySysTickSetReload
                0x0000ef34       0x20 .\CortexM0\ARM_GCC_541\Debug\OS2.a(CyLib.o)
                0x0000ef34                CySysTickSetReload
 .text.CySysTickGetReload
                0x0000ef54       0x18 .\CortexM0\ARM_GCC_541\Debug\OS2.a(CyLib.o)
                0x0000ef54                CySysTickGetReload
 .text.CySysTickGetValue
                0x0000ef6c       0x18 .\CortexM0\ARM_GCC_541\Debug\OS2.a(CyLib.o)
                0x0000ef6c                CySysTickGetValue
 .text.CySysTickSetClockSource
                0x0000ef84       0x34 .\CortexM0\ARM_GCC_541\Debug\OS2.a(CyLib.o)
                0x0000ef84                CySysTickSetClockSource
 .text.CySysTickGetCountFlag
                0x0000efb8       0x18 .\CortexM0\ARM_GCC_541\Debug\OS2.a(CyLib.o)
                0x0000efb8                CySysTickGetCountFlag
 .text.CySysTickClear
                0x0000efd0       0x14 .\CortexM0\ARM_GCC_541\Debug\OS2.a(CyLib.o)
                0x0000efd0                CySysTickClear
 .text.CySysTickSetCallback
                0x0000efe4       0x2c .\CortexM0\ARM_GCC_541\Debug\OS2.a(CyLib.o)
                0x0000efe4                CySysTickSetCallback
 .text.CySysTickGetCallback
                0x0000f010       0x1c .\CortexM0\ARM_GCC_541\Debug\OS2.a(CyLib.o)
                0x0000f010                CySysTickGetCallback
 .text.CySysTickServiceCallbacks
                0x0000f02c       0x44 .\CortexM0\ARM_GCC_541\Debug\OS2.a(CyLib.o)
 .text.CyGetUniqueId
                0x0000f070       0xc0 .\CortexM0\ARM_GCC_541\Debug\OS2.a(CyLib.o)
                0x0000f070                CyGetUniqueId
 .text          0x0000f130        0x0 .\CortexM0\ARM_GCC_541\Debug\OS2.a(CyDMA.o)
 .text.CyDmaEnable
                0x0000f130       0x34 .\CortexM0\ARM_GCC_541\Debug\OS2.a(CyDMA.o)
                0x0000f130                CyDmaEnable
 .text.CyDmaDisable
                0x0000f164       0x18 .\CortexM0\ARM_GCC_541\Debug\OS2.a(CyDMA.o)
                0x0000f164                CyDmaDisable
 .text.CyDmaGetStatus
                0x0000f17c       0x14 .\CortexM0\ARM_GCC_541\Debug\OS2.a(CyDMA.o)
                0x0000f17c                CyDmaGetStatus
 .text.CyDmaGetActiveChannels
                0x0000f190       0x14 .\CortexM0\ARM_GCC_541\Debug\OS2.a(CyDMA.o)
                0x0000f190                CyDmaGetActiveChannels
 .text.CyDmaGetActiveSrcAddress
                0x0000f1a4       0x14 .\CortexM0\ARM_GCC_541\Debug\OS2.a(CyDMA.o)
                0x0000f1a4                CyDmaGetActiveSrcAddress
 .text.CyDmaGetActiveDstAddress
                0x0000f1b8       0x14 .\CortexM0\ARM_GCC_541\Debug\OS2.a(CyDMA.o)
                0x0000f1b8                CyDmaGetActiveDstAddress
 .text.CyDmaSetInterruptVector
                0x0000f1cc       0x1c .\CortexM0\ARM_GCC_541\Debug\OS2.a(CyDMA.o)
                0x0000f1cc                CyDmaSetInterruptVector
 .text.CyDmaGetInterruptSource
                0x0000f1e8       0x14 .\CortexM0\ARM_GCC_541\Debug\OS2.a(CyDMA.o)
                0x0000f1e8                CyDmaGetInterruptSource
 .text.CyDmaClearInterruptSource
                0x0000f1fc       0x1c .\CortexM0\ARM_GCC_541\Debug\OS2.a(CyDMA.o)
                0x0000f1fc                CyDmaClearInterruptSource
 .text.CyDmaSetInterruptSourceMask
                0x0000f218       0x1c .\CortexM0\ARM_GCC_541\Debug\OS2.a(CyDMA.o)
                0x0000f218                CyDmaSetInterruptSourceMask
 .text.CyDmaGetInterruptSourceMask
                0x0000f234       0x14 .\CortexM0\ARM_GCC_541\Debug\OS2.a(CyDMA.o)
                0x0000f234                CyDmaGetInterruptSourceMask
 .text.CyDmaGetInterruptSourceMasked
                0x0000f248       0x14 .\CortexM0\ARM_GCC_541\Debug\OS2.a(CyDMA.o)
                0x0000f248                CyDmaGetInterruptSourceMasked
 .text.CyDmaSetInterruptCallback
                0x0000f25c       0x48 .\CortexM0\ARM_GCC_541\Debug\OS2.a(CyDMA.o)
                0x0000f25c                CyDmaSetInterruptCallback
 .text.CyDmaGetInterruptCallback
                0x0000f2a4       0x38 .\CortexM0\ARM_GCC_541\Debug\OS2.a(CyDMA.o)
                0x0000f2a4                CyDmaGetInterruptCallback
 .text.CyDmaInterrupt
                0x0000f2dc       0x50 .\CortexM0\ARM_GCC_541\Debug\OS2.a(CyDMA.o)
                0x0000f2dc                CyDmaInterrupt
 .text.CyDmaDefaultInterruptCallback
                0x0000f32c       0x10 .\CortexM0\ARM_GCC_541\Debug\OS2.a(CyDMA.o)
 .text.CyDmaChAlloc
                0x0000f33c       0x48 .\CortexM0\ARM_GCC_541\Debug\OS2.a(CyDMA.o)
                0x0000f33c                CyDmaChAlloc
 .text.CyDmaChFree
                0x0000f384       0x5c .\CortexM0\ARM_GCC_541\Debug\OS2.a(CyDMA.o)
                0x0000f384                CyDmaChFree
 .text.CyDmaChEnable
                0x0000f3e0       0x48 .\CortexM0\ARM_GCC_541\Debug\OS2.a(CyDMA.o)
                0x0000f3e0                CyDmaChEnable
 .text.CyDmaChDisable
                0x0000f428       0x44 .\CortexM0\ARM_GCC_541\Debug\OS2.a(CyDMA.o)
                0x0000f428                CyDmaChDisable
 .text.CyDmaTrigger
                0x0000f46c       0x40 .\CortexM0\ARM_GCC_541\Debug\OS2.a(CyDMA.o)
                0x0000f46c                CyDmaTrigger
 .text.CyDmaSetPriority
                0x0000f4ac       0x70 .\CortexM0\ARM_GCC_541\Debug\OS2.a(CyDMA.o)
                0x0000f4ac                CyDmaSetPriority
 .text.CyDmaGetPriority
                0x0000f51c       0x44 .\CortexM0\ARM_GCC_541\Debug\OS2.a(CyDMA.o)
                0x0000f51c                CyDmaGetPriority
 .text.CyDmaSetNextDescriptor
                0x0000f560       0x70 .\CortexM0\ARM_GCC_541\Debug\OS2.a(CyDMA.o)
                0x0000f560                CyDmaSetNextDescriptor
 .text.CyDmaGetNextDescriptor
                0x0000f5d0       0x44 .\CortexM0\ARM_GCC_541\Debug\OS2.a(CyDMA.o)
                0x0000f5d0                CyDmaGetNextDescriptor
 .text.CyDmaSetConfiguration
                0x0000f614      0x154 .\CortexM0\ARM_GCC_541\Debug\OS2.a(CyDMA.o)
                0x0000f614                CyDmaSetConfiguration
 .text.CyDmaValidateDescriptor
                0x0000f768       0x64 .\CortexM0\ARM_GCC_541\Debug\OS2.a(CyDMA.o)
                0x0000f768                CyDmaValidateDescriptor
 .text.CyDmaGetDescriptorStatus
                0x0000f7cc       0x60 .\CortexM0\ARM_GCC_541\Debug\OS2.a(CyDMA.o)
                0x0000f7cc                CyDmaGetDescriptorStatus
 .text.CyDmaSetSrcAddress
                0x0000f82c       0x60 .\CortexM0\ARM_GCC_541\Debug\OS2.a(CyDMA.o)
                0x0000f82c                CyDmaSetSrcAddress
 .text.CyDmaGetSrcAddress
                0x0000f88c       0x5c .\CortexM0\ARM_GCC_541\Debug\OS2.a(CyDMA.o)
                0x0000f88c                CyDmaGetSrcAddress
 .text.CyDmaSetDstAddress
                0x0000f8e8       0x64 .\CortexM0\ARM_GCC_541\Debug\OS2.a(CyDMA.o)
                0x0000f8e8                CyDmaSetDstAddress
 .text.CyDmaGetDstAddress
                0x0000f94c       0x60 .\CortexM0\ARM_GCC_541\Debug\OS2.a(CyDMA.o)
                0x0000f94c                CyDmaGetDstAddress
 .text.CyDmaSetDataElementSize
                0x0000f9ac       0x94 .\CortexM0\ARM_GCC_541\Debug\OS2.a(CyDMA.o)
                0x0000f9ac                CyDmaSetDataElementSize
 .text.CyDmaGetDataElementSize
                0x0000fa40       0x68 .\CortexM0\ARM_GCC_541\Debug\OS2.a(CyDMA.o)
                0x0000fa40                CyDmaGetDataElementSize
 .text.CyDmaSetNumDataElements
                0x0000faa8       0xa8 .\CortexM0\ARM_GCC_541\Debug\OS2.a(CyDMA.o)
                0x0000faa8                CyDmaSetNumDataElements
 .text.CyDmaGetNumDataElements
                0x0000fb50       0x6c .\CortexM0\ARM_GCC_541\Debug\OS2.a(CyDMA.o)
                0x0000fb50                CyDmaGetNumDataElements
 .text.CyDmaSetSrcDstTransferWidth
                0x0000fbbc       0x94 .\CortexM0\ARM_GCC_541\Debug\OS2.a(CyDMA.o)
                0x0000fbbc                CyDmaSetSrcDstTransferWidth
 .text.CyDmaGetSrcDstTransferWidth
                0x0000fc50       0x68 .\CortexM0\ARM_GCC_541\Debug\OS2.a(CyDMA.o)
                0x0000fc50                CyDmaGetSrcDstTransferWidth
 .text.CyDmaSetAddressIncrement
                0x0000fcb8       0x94 .\CortexM0\ARM_GCC_541\Debug\OS2.a(CyDMA.o)
                0x0000fcb8                CyDmaSetAddressIncrement
 .text.CyDmaGetAddressIncrement
                0x0000fd4c       0x68 .\CortexM0\ARM_GCC_541\Debug\OS2.a(CyDMA.o)
                0x0000fd4c                CyDmaGetAddressIncrement
 .text.CyDmaSetTriggerType
                0x0000fdb4       0x94 .\CortexM0\ARM_GCC_541\Debug\OS2.a(CyDMA.o)
                0x0000fdb4                CyDmaSetTriggerType
 .text.CyDmaGetTriggerType
                0x0000fe48       0x68 .\CortexM0\ARM_GCC_541\Debug\OS2.a(CyDMA.o)
                0x0000fe48                CyDmaGetTriggerType
 .text.CyDmaSetTransferMode
                0x0000feb0       0x90 .\CortexM0\ARM_GCC_541\Debug\OS2.a(CyDMA.o)
                0x0000feb0                CyDmaSetTransferMode
 .text.CyDmaGetTransferMode
                0x0000ff40       0x64 .\CortexM0\ARM_GCC_541\Debug\OS2.a(CyDMA.o)
                0x0000ff40                CyDmaGetTransferMode
 .text.CyDmaSetPreemptable
                0x0000ffa4       0x94 .\CortexM0\ARM_GCC_541\Debug\OS2.a(CyDMA.o)
                0x0000ffa4                CyDmaSetPreemptable
 .text.CyDmaGetPreemptable
                0x00010038       0x68 .\CortexM0\ARM_GCC_541\Debug\OS2.a(CyDMA.o)
                0x00010038                CyDmaGetPreemptable
 .text.CyDmaSetPostCompletionActions
                0x000100a0       0x94 .\CortexM0\ARM_GCC_541\Debug\OS2.a(CyDMA.o)
                0x000100a0                CyDmaSetPostCompletionActions
 .text.CyDmaGetPostCompletionActions
                0x00010134       0x68 .\CortexM0\ARM_GCC_541\Debug\OS2.a(CyDMA.o)
                0x00010134                CyDmaGetPostCompletionActions
 .text          0x0001019c        0x0 .\CortexM0\ARM_GCC_541\Debug\OS2.a(CyLFClk.o)
 .text.CySysClkWcoSetHighPowerMode
                0x0001019c       0x4c .\CortexM0\ARM_GCC_541\Debug\OS2.a(CyLFClk.o)
 .text.CySysClkIloStart
                0x000101e8       0x1c .\CortexM0\ARM_GCC_541\Debug\OS2.a(CyLFClk.o)
                0x000101e8                CySysClkIloStart
 .text.CySysClkIloStop
                0x00010204       0x60 .\CortexM0\ARM_GCC_541\Debug\OS2.a(CyLFClk.o)
                0x00010204                CySysClkIloStop
 .text.CySysClkIloEnabled
                0x00010264       0x1c .\CortexM0\ARM_GCC_541\Debug\OS2.a(CyLFClk.o)
 .text.CySysClkGetLfclkSource
                0x00010280       0x20 .\CortexM0\ARM_GCC_541\Debug\OS2.a(CyLFClk.o)
 .text.CySysClkSetLfclkSource
                0x000102a0       0x54 .\CortexM0\ARM_GCC_541\Debug\OS2.a(CyLFClk.o)
                0x000102a0                CySysClkSetLfclkSource
 .text.CySysClkWcoStart
                0x000102f4       0x20 .\CortexM0\ARM_GCC_541\Debug\OS2.a(CyLFClk.o)
                0x000102f4                CySysClkWcoStart
 .text.CySysClkWcoStop
                0x00010314       0x60 .\CortexM0\ARM_GCC_541\Debug\OS2.a(CyLFClk.o)
                0x00010314                CySysClkWcoStop
 .text.CySysClkWcoEnabled
                0x00010374       0x1c .\CortexM0\ARM_GCC_541\Debug\OS2.a(CyLFClk.o)
                0x00010374                CySysClkWcoEnabled
 .text.CySysClkWcoSetPowerMode
                0x00010390       0x34 .\CortexM0\ARM_GCC_541\Debug\OS2.a(CyLFClk.o)
                0x00010390                CySysClkWcoSetPowerMode
 .text.CySysWdtLock
                0x000103c4       0x34 .\CortexM0\ARM_GCC_541\Debug\OS2.a(CyLFClk.o)
                0x000103c4                CySysWdtLock
 .text.CySysWdtLocked
                0x000103f8       0x20 .\CortexM0\ARM_GCC_541\Debug\OS2.a(CyLFClk.o)
 .text.CySysWdtUnlock
                0x00010418       0x50 .\CortexM0\ARM_GCC_541\Debug\OS2.a(CyLFClk.o)
                0x00010418                CySysWdtUnlock
 .text.CySysWdtGetEnabledStatus
                0x00010468       0x34 .\CortexM0\ARM_GCC_541\Debug\OS2.a(CyLFClk.o)
                0x00010468                CySysWdtGetEnabledStatus
 .text.CySysWdtSetMode
                0x0001049c       0x5c .\CortexM0\ARM_GCC_541\Debug\OS2.a(CyLFClk.o)
                0x0001049c                CySysWdtSetMode
 .text.CySysWdtGetMode
                0x000104f8       0x24 .\CortexM0\ARM_GCC_541\Debug\OS2.a(CyLFClk.o)
                0x000104f8                CySysWdtGetMode
 .text.CySysWdtSetClearOnMatch
                0x0001051c       0x6c .\CortexM0\ARM_GCC_541\Debug\OS2.a(CyLFClk.o)
                0x0001051c                CySysWdtSetClearOnMatch
 .text.CySysWdtGetClearOnMatch
                0x00010588       0x44 .\CortexM0\ARM_GCC_541\Debug\OS2.a(CyLFClk.o)
                0x00010588                CySysWdtGetClearOnMatch
 .text.CySysWdtEnable
                0x000105cc       0x60 .\CortexM0\ARM_GCC_541\Debug\OS2.a(CyLFClk.o)
                0x000105cc                CySysWdtEnable
 .text.CySysWdtDisable
                0x0001062c       0x6c .\CortexM0\ARM_GCC_541\Debug\OS2.a(CyLFClk.o)
                0x0001062c                CySysWdtDisable
 .text.CySysWdtSetCascade
                0x00010698       0x58 .\CortexM0\ARM_GCC_541\Debug\OS2.a(CyLFClk.o)
                0x00010698                CySysWdtSetCascade
 .text.CySysWdtGetCascade
                0x000106f0       0x1c .\CortexM0\ARM_GCC_541\Debug\OS2.a(CyLFClk.o)
                0x000106f0                CySysWdtGetCascade
 .text.CySysWdtSetMatch
                0x0001070c       0x90 .\CortexM0\ARM_GCC_541\Debug\OS2.a(CyLFClk.o)
                0x0001070c                CySysWdtSetMatch
 .text.CySysWdtSetToggleBit
                0x0001079c       0x48 .\CortexM0\ARM_GCC_541\Debug\OS2.a(CyLFClk.o)
                0x0001079c                CySysWdtSetToggleBit
 .text.CySysWdtGetToggleBit
                0x000107e4       0x18 .\CortexM0\ARM_GCC_541\Debug\OS2.a(CyLFClk.o)
                0x000107e4                CySysWdtGetToggleBit
 .text.CySysWdtGetMatch
                0x000107fc       0x40 .\CortexM0\ARM_GCC_541\Debug\OS2.a(CyLFClk.o)
                0x000107fc                CySysWdtGetMatch
 .text.CySysWdtGetCount
                0x0001083c       0x54 .\CortexM0\ARM_GCC_541\Debug\OS2.a(CyLFClk.o)
                0x0001083c                CySysWdtGetCount
 .text.CySysWdtGetInterruptSource
                0x00010890       0x1c .\CortexM0\ARM_GCC_541\Debug\OS2.a(CyLFClk.o)
                0x00010890                CySysWdtGetInterruptSource
 .text.CySysWdtClearInterrupt
                0x000108ac       0x70 .\CortexM0\ARM_GCC_541\Debug\OS2.a(CyLFClk.o)
                0x000108ac                CySysWdtClearInterrupt
 .text.CySysWdtResetCounters
                0x0001091c       0x34 .\CortexM0\ARM_GCC_541\Debug\OS2.a(CyLFClk.o)
                0x0001091c                CySysWdtResetCounters
 .text.CySysWdtSetInterruptCallback
                0x00010950       0x40 .\CortexM0\ARM_GCC_541\Debug\OS2.a(CyLFClk.o)
                0x00010950                CySysWdtSetInterruptCallback
 .text.CySysWdtGetInterruptCallback
                0x00010990       0x34 .\CortexM0\ARM_GCC_541\Debug\OS2.a(CyLFClk.o)
                0x00010990                CySysWdtGetInterruptCallback
 .text.CySysWdtEnableCounterIsr
                0x000109c4       0x50 .\CortexM0\ARM_GCC_541\Debug\OS2.a(CyLFClk.o)
                0x000109c4                CySysWdtEnableCounterIsr
 .text.CySysWdtDisableCounterIsr
                0x00010a14       0x3c .\CortexM0\ARM_GCC_541\Debug\OS2.a(CyLFClk.o)
                0x00010a14                CySysWdtDisableCounterIsr
 .text.CySysWdtIsr
                0x00010a50       0xec .\CortexM0\ARM_GCC_541\Debug\OS2.a(CyLFClk.o)
                0x00010a50                CySysWdtIsr
 .text.CySysTimerDelay
                0x00010b3c       0x68 .\CortexM0\ARM_GCC_541\Debug\OS2.a(CyLFClk.o)
                0x00010b3c                CySysTimerDelay
 .text.CySysTimerDelayUntilMatch
                0x00010ba4       0xb0 .\CortexM0\ARM_GCC_541\Debug\OS2.a(CyLFClk.o)
                0x00010ba4                CySysTimerDelayUntilMatch
 .text.CySysWatchdogFeed
                0x00010c54       0x8c .\CortexM0\ARM_GCC_541\Debug\OS2.a(CyLFClk.o)
                0x00010c54                CySysWatchdogFeed
 .text.CySysClkLfclkPosedgeCatch
                0x00010ce0       0x98 .\CortexM0\ARM_GCC_541\Debug\OS2.a(CyLFClk.o)
 .text.CySysClkLfclkPosedgeRestore
                0x00010d78       0x3c .\CortexM0\ARM_GCC_541\Debug\OS2.a(CyLFClk.o)
 *fill*         0x00010db4        0x4 
 .text          0x00010db8       0x20 .\CortexM0\ARM_GCC_541\Debug\OS2.a(CyBootAsmGnu.o)
                0x00010db8                CyDelayCycles
                0x00010dca                CyEnterCriticalSection
                0x00010dd2                CyExitCriticalSection
 .text          0x00010dd8        0x0 .\CortexM0\ARM_GCC_541\Debug\OS2.a(I2C_I2C_INT.o)
 .text.I2C_I2C_ISR
                0x00010dd8      0x494 .\CortexM0\ARM_GCC_541\Debug\OS2.a(I2C_I2C_INT.o)
                0x00010dd8                I2C_I2C_ISR
 .text          0x0001126c        0x0 .\CortexM0\ARM_GCC_541\Debug\OS2.a(CyFlash.o)
 .text.CySysFlashWriteRow
                0x0001126c      0x15c .\CortexM0\ARM_GCC_541\Debug\OS2.a(CyFlash.o)
                0x0001126c                CySysFlashWriteRow
 .text.CySysFlashSetWaitCycles
                0x000113c8       0x78 .\CortexM0\ARM_GCC_541\Debug\OS2.a(CyFlash.o)
                0x000113c8                CySysFlashSetWaitCycles
 .text.CySysFlashClockBackup
                0x00011440       0x14 .\CortexM0\ARM_GCC_541\Debug\OS2.a(CyFlash.o)
 .text.CySysFlashClockRestore
                0x00011454       0x14 .\CortexM0\ARM_GCC_541\Debug\OS2.a(CyFlash.o)
 .text          0x00011468      0x114 c:/program files (x86)/cypress/psoc creator/4.2/psoc creator/import/gnu/arm/5.4.1/bin/../lib/gcc/arm-none-eabi/5.4.1/armv6-m\libgcc.a(_udivsi3.o)
                0x00011468                __aeabi_uidiv
                0x00011468                __udivsi3
                0x00011574                __aeabi_uidivmod
 .text          0x0001157c      0x1d4 c:/program files (x86)/cypress/psoc creator/4.2/psoc creator/import/gnu/arm/5.4.1/bin/../lib/gcc/arm-none-eabi/5.4.1/armv6-m\libgcc.a(_divsi3.o)
                0x0001157c                __divsi3
                0x0001157c                __aeabi_idiv
                0x00011748                __aeabi_idivmod
 .text          0x00011750        0x4 c:/program files (x86)/cypress/psoc creator/4.2/psoc creator/import/gnu/arm/5.4.1/bin/../lib/gcc/arm-none-eabi/5.4.1/armv6-m\libgcc.a(_dvmd_tls.o)
                0x00011750                __aeabi_idiv0
                0x00011750                __aeabi_ldiv0
 .text          0x00011754       0x48 c:/program files (x86)/cypress/psoc creator/4.2/psoc creator/import/gnu/arm/5.4.1/bin/../lib/gcc/arm-none-eabi/5.4.1/armv6-m\libgcc.a(_aeabi_ldivmod.o)
                0x00011754                __aeabi_ldivmod
 .text          0x0001179c       0x40 c:/program files (x86)/cypress/psoc creator/4.2/psoc creator/import/gnu/arm/5.4.1/bin/../lib/gcc/arm-none-eabi/5.4.1/armv6-m\libgcc.a(_aeabi_uldivmod.o)
                0x0001179c                __aeabi_uldivmod
 .text          0x000117dc       0x58 c:/program files (x86)/cypress/psoc creator/4.2/psoc creator/import/gnu/arm/5.4.1/bin/../lib/gcc/arm-none-eabi/5.4.1/armv6-m\libgcc.a(_muldi3.o)
                0x000117dc                __muldi3
                0x000117dc                __aeabi_lmul
 .text          0x00011834      0x180 c:/program files (x86)/cypress/psoc creator/4.2/psoc creator/import/gnu/arm/5.4.1/bin/../lib/gcc/arm-none-eabi/5.4.1/armv6-m\libgcc.a(_udivmoddi4.o)
                0x00011834                __udivmoddi4
 .text          0x000119b4       0x38 c:/program files (x86)/cypress/psoc creator/4.2/psoc creator/import/gnu/arm/5.4.1/bin/../lib/gcc/arm-none-eabi/5.4.1/armv6-m\libgcc.a(bpabi.o)
                0x000119b4                __gnu_ldivmod_helper
 .text          0x000119ec      0x234 c:/program files (x86)/cypress/psoc creator/4.2/psoc creator/import/gnu/arm/5.4.1/bin/../lib/gcc/arm-none-eabi/5.4.1/armv6-m\libgcc.a(divsf3.o)
                0x000119ec                __aeabi_fdiv
 .text          0x00011c20      0x228 c:/program files (x86)/cypress/psoc creator/4.2/psoc creator/import/gnu/arm/5.4.1/bin/../lib/gcc/arm-none-eabi/5.4.1/armv6-m\libgcc.a(mulsf3.o)
                0x00011c20                __aeabi_fmul
 .text          0x00011e48       0x90 c:/program files (x86)/cypress/psoc creator/4.2/psoc creator/import/gnu/arm/5.4.1/bin/../lib/gcc/arm-none-eabi/5.4.1/armv6-m\libgcc.a(floatsisf.o)
                0x00011e48                __aeabi_i2f
 .text          0x00011ed8       0x7c c:/program files (x86)/cypress/psoc creator/4.2/psoc creator/import/gnu/arm/5.4.1/bin/../lib/gcc/arm-none-eabi/5.4.1/armv6-m\libgcc.a(floatunsisf.o)
                0x00011ed8                __aeabi_ui2f
 .text          0x00011f54      0x658 c:/program files (x86)/cypress/psoc creator/4.2/psoc creator/import/gnu/arm/5.4.1/bin/../lib/gcc/arm-none-eabi/5.4.1/armv6-m\libgcc.a(adddf3.o)
                0x00011f54                __aeabi_dadd
 .text          0x000125ac      0x4f4 c:/program files (x86)/cypress/psoc creator/4.2/psoc creator/import/gnu/arm/5.4.1/bin/../lib/gcc/arm-none-eabi/5.4.1/armv6-m\libgcc.a(muldf3.o)
                0x000125ac                __aeabi_dmul
 .text          0x00012aa0       0xa8 c:/program files (x86)/cypress/psoc creator/4.2/psoc creator/import/gnu/arm/5.4.1/bin/../lib/gcc/arm-none-eabi/5.4.1/armv6-m\libgcc.a(extendsfdf2.o)
                0x00012aa0                __aeabi_f2d
 .text          0x00012b48      0x118 c:/program files (x86)/cypress/psoc creator/4.2/psoc creator/import/gnu/arm/5.4.1/bin/../lib/gcc/arm-none-eabi/5.4.1/armv6-m\libgcc.a(truncdfsf2.o)
                0x00012b48                __aeabi_d2f
 .text          0x00012c60       0x3c c:/program files (x86)/cypress/psoc creator/4.2/psoc creator/import/gnu/arm/5.4.1/bin/../lib/gcc/arm-none-eabi/5.4.1/armv6-m\libgcc.a(_clzsi2.o)
                0x00012c60                __clzsi2
 .text          0x00012c9c       0x18 c:/program files (x86)/cypress/psoc creator/4.2/psoc creator/import/gnu/arm/5.4.1/bin/../lib/gcc/arm-none-eabi/5.4.1/armv6-m\libgcc.a(_clzdi2.o)
                0x00012c9c                __clzdi2
 .text          0x00012cb4      0x1bc c:/program files (x86)/cypress/psoc creator/4.2/psoc creator/import/gnu/arm/5.4.1/bin/../lib/gcc/arm-none-eabi/5.4.1/armv6-m\libgcc.a(_divdi3.o)
                0x00012cb4                __divdi3
 .text          0x00012e70        0x0 c:/program files (x86)/cypress/psoc creator/4.2/psoc creator/import/gnu/arm/5.4.1/bin/../lib/gcc/arm-none-eabi/5.4.1/../../../../arm-none-eabi/lib/armv6-m\libg_nano.a(lib_a-errno.o)
 .text.__errno  0x00012e70        0xc c:/program files (x86)/cypress/psoc creator/4.2/psoc creator/import/gnu/arm/5.4.1/bin/../lib/gcc/arm-none-eabi/5.4.1/../../../../arm-none-eabi/lib/armv6-m\libg_nano.a(lib_a-errno.o)
                0x00012e70                __errno
 .text          0x00012e7c        0x0 c:/program files (x86)/cypress/psoc creator/4.2/psoc creator/import/gnu/arm/5.4.1/bin/../lib/gcc/arm-none-eabi/5.4.1/../../../../arm-none-eabi/lib/armv6-m\libg_nano.a(lib_a-exit.o)
 .text.exit     0x00012e7c       0x2c c:/program files (x86)/cypress/psoc creator/4.2/psoc creator/import/gnu/arm/5.4.1/bin/../lib/gcc/arm-none-eabi/5.4.1/../../../../arm-none-eabi/lib/armv6-m\libg_nano.a(lib_a-exit.o)
                0x00012e7c                exit
 .text          0x00012ea8        0x0 c:/program files (x86)/cypress/psoc creator/4.2/psoc creator/import/gnu/arm/5.4.1/bin/../lib/gcc/arm-none-eabi/5.4.1/../../../../arm-none-eabi/lib/armv6-m\libg_nano.a(lib_a-impure.o)
 .text          0x00012ea8        0x0 c:/program files (x86)/cypress/psoc creator/4.2/psoc creator/import/gnu/arm/5.4.1/bin/../lib/gcc/arm-none-eabi/5.4.1/../../../../arm-none-eabi/lib/armv6-m\libg_nano.a(lib_a-init.o)
 .text.__libc_init_array
                0x00012ea8       0x4c c:/program files (x86)/cypress/psoc creator/4.2/psoc creator/import/gnu/arm/5.4.1/bin/../lib/gcc/arm-none-eabi/5.4.1/../../../../arm-none-eabi/lib/armv6-m\libg_nano.a(lib_a-init.o)
                0x00012ea8                __libc_init_array
 .text          0x00012ef4        0x0 c:/program files (x86)/cypress/psoc creator/4.2/psoc creator/import/gnu/arm/5.4.1/bin/../lib/gcc/arm-none-eabi/5.4.1/../../../../arm-none-eabi/lib/armv6-m\libg_nano.a(lib_a-memcpy-stub.o)
 .text.memcpy   0x00012ef4       0x12 c:/program files (x86)/cypress/psoc creator/4.2/psoc creator/import/gnu/arm/5.4.1/bin/../lib/gcc/arm-none-eabi/5.4.1/../../../../arm-none-eabi/lib/armv6-m\libg_nano.a(lib_a-memcpy-stub.o)
                0x00012ef4                memcpy
 .text          0x00012f06        0x0 c:/program files (x86)/cypress/psoc creator/4.2/psoc creator/import/gnu/arm/5.4.1/bin/../lib/gcc/arm-none-eabi/5.4.1/../../../../arm-none-eabi/lib/armv6-m\libg_nano.a(lib_a-memset.o)
 .text.memset   0x00012f06       0x10 c:/program files (x86)/cypress/psoc creator/4.2/psoc creator/import/gnu/arm/5.4.1/bin/../lib/gcc/arm-none-eabi/5.4.1/../../../../arm-none-eabi/lib/armv6-m\libg_nano.a(lib_a-memset.o)
                0x00012f06                memset
 .text          0x00012f16        0x0 c:/program files (x86)/cypress/psoc creator/4.2/psoc creator/import/gnu/arm/5.4.1/bin/../lib/gcc/arm-none-eabi/5.4.1/armv6-m/crtend.o
 .text          0x00012f16        0x0 c:/program files (x86)/cypress/psoc creator/4.2/psoc creator/import/gnu/arm/5.4.1/bin/../lib/gcc/arm-none-eabi/5.4.1/armv6-m/crtn.o
 *(.plt)
 *(.gnu.warning)
 *(.glue_7t)
 .glue_7t       0x00012f16        0x0 linker stubs
 *(.glue_7)
 .glue_7        0x00012f16        0x0 linker stubs
 *(.vfp11_veneer)
 .vfp11_veneer  0x00012f16        0x0 linker stubs
 *(.bootloader)
 *(.ARM.extab* .gnu.linkonce.armextab.*)
 .ARM.extab     0x00012f16        0x0 c:/program files (x86)/cypress/psoc creator/4.2/psoc creator/import/gnu/arm/5.4.1/bin/../lib/gcc/arm-none-eabi/5.4.1/../../../../arm-none-eabi/lib/armv6-m/crt0.o
 .ARM.extab     0x00012f16        0x0 c:/program files (x86)/cypress/psoc creator/4.2/psoc creator/import/gnu/arm/5.4.1/bin/../lib/gcc/arm-none-eabi/5.4.1/armv6-m\libgcc.a(_udivmoddi4.o)
 .ARM.extab     0x00012f16        0x0 c:/program files (x86)/cypress/psoc creator/4.2/psoc creator/import/gnu/arm/5.4.1/bin/../lib/gcc/arm-none-eabi/5.4.1/armv6-m\libgcc.a(_divdi3.o)
 *(.gcc_except_table)

.v4_bx          0x00012f18        0x0
 .v4_bx         0x00012f18        0x0 linker stubs

.iplt           0x00012f18        0x0
 .iplt          0x00012f18        0x0 c:/program files (x86)/cypress/psoc creator/4.2/psoc creator/import/gnu/arm/5.4.1/bin/../lib/gcc/arm-none-eabi/5.4.1/armv6-m/crtbegin.o

.eh_frame_hdr
 *(.eh_frame_hdr)

.eh_frame       0x00012f18        0x4
 *(.eh_frame)
 .eh_frame      0x00012f18        0x0 c:/program files (x86)/cypress/psoc creator/4.2/psoc creator/import/gnu/arm/5.4.1/bin/../lib/gcc/arm-none-eabi/5.4.1/armv6-m/crtbegin.o
 .eh_frame      0x00012f18        0x4 c:/program files (x86)/cypress/psoc creator/4.2/psoc creator/import/gnu/arm/5.4.1/bin/../lib/gcc/arm-none-eabi/5.4.1/armv6-m/crtend.o
                [!provide]                PROVIDE (__exidx_start, .)

.ARM.exidx      0x00012f1c        0x8
 *(.ARM.exidx* .gnu.linkonce.armexidx.*)
 .ARM.exidx     0x00012f1c        0x8 c:/program files (x86)/cypress/psoc creator/4.2/psoc creator/import/gnu/arm/5.4.1/bin/../lib/gcc/arm-none-eabi/5.4.1/../../../../arm-none-eabi/lib/armv6-m/crt0.o
 .ARM.exidx     0x00012f24        0x0 c:/program files (x86)/cypress/psoc creator/4.2/psoc creator/import/gnu/arm/5.4.1/bin/../lib/gcc/arm-none-eabi/5.4.1/armv6-m\libgcc.a(_udivmoddi4.o)
                                  0x8 (size before relaxing)
 .ARM.exidx     0x00012f24        0x0 c:/program files (x86)/cypress/psoc creator/4.2/psoc creator/import/gnu/arm/5.4.1/bin/../lib/gcc/arm-none-eabi/5.4.1/armv6-m\libgcc.a(_divdi3.o)
                                  0x8 (size before relaxing)
                0x00012f24                __exidx_end = .

.rodata         0x00012f24      0x894
 *(.rodata .rodata.* .gnu.linkonce.r.*)
 .rodata        0x00012f24       0x22 .\CortexM0\ARM_GCC_541\Debug\app.o
 *fill*         0x00012f46        0x2 
 .rodata        0x00012f48      0x140 .\CortexM0\ARM_GCC_541\Debug\cpu_c.o
 .rodata        0x00013088      0x104 .\CortexM0\ARM_GCC_541\Debug\cpu_core.o
                0x00013188                CPU_EndiannessTest
 .rodata        0x0001318c      0x122 .\CortexM0\ARM_GCC_541\Debug\os_core.o
                0x0001318c                OSUnMapTbl
 *fill*         0x000132ae        0x2 
 .rodata        0x000132b0        0x2 .\CortexM0\ARM_GCC_541\Debug\os_flag.o
 *fill*         0x000132b2        0x2 
 .rodata        0x000132b4        0x2 .\CortexM0\ARM_GCC_541\Debug\os_mbox.o
 *fill*         0x000132b6        0x2 
 .rodata        0x000132b8        0x2 .\CortexM0\ARM_GCC_541\Debug\os_mem.o
 *fill*         0x000132ba        0x2 
 .rodata        0x000132bc        0x2 .\CortexM0\ARM_GCC_541\Debug\os_mutex.o
 *fill*         0x000132be        0x2 
 .rodata        0x000132c0        0x2 .\CortexM0\ARM_GCC_541\Debug\os_q.o
 *fill*         0x000132c2        0x2 
 .rodata        0x000132c4        0x2 .\CortexM0\ARM_GCC_541\Debug\os_sem.o
 *fill*         0x000132c6        0x2 
 .rodata        0x000132c8        0x2 .\CortexM0\ARM_GCC_541\Debug\os_task.o
 *fill*         0x000132ca        0x2 
 .rodata        0x000132cc       0x39 .\CortexM0\ARM_GCC_541\Debug\os_tmr.o
 *fill*         0x00013305        0x3 
 .rodata        0x00013308       0x76 .\CortexM0\ARM_GCC_541\Debug\os_dbg_r.o
                0x00013308                OSDebugEn
                0x0001330c                OSEndiannessTest
                0x00013310                OSEventEn
                0x00013312                OSEventMax
                0x00013314                OSEventNameEn
                0x00013316                OSEventSize
                0x00013318                OSEventTblSize
                0x0001331a                OSEventMultiEn
                0x0001331c                OSFlagEn
                0x0001331e                OSFlagGrpSize
                0x00013320                OSFlagNodeSize
                0x00013322                OSFlagWidth
                0x00013324                OSFlagMax
                0x00013326                OSFlagNameEn
                0x00013328                OSLowestPrio
                0x0001332a                OSMboxEn
                0x0001332c                OSMemEn
                0x0001332e                OSMemMax
                0x00013330                OSMemNameEn
                0x00013332                OSMemSize
                0x00013334                OSMemTblSize
                0x00013336                OSMutexEn
                0x00013338                OSPtrSize
                0x0001333a                OSQEn
                0x0001333c                OSQMax
                0x0001333e                OSQSize
                0x00013340                OSRdyTblSize
                0x00013342                OSSemEn
                0x00013344                OSStkWidth
                0x00013346                OSTaskCreateEn
                0x00013348                OSTaskCreateExtEn
                0x0001334a                OSTaskDelEn
                0x0001334c                OSTaskIdleStkSize
                0x0001334e                OSTaskProfileEn
                0x00013350                OSTaskMax
                0x00013352                OSTaskNameEn
                0x00013354                OSTaskStatEn
                0x00013356                OSTaskStatStkSize
                0x00013358                OSTaskStatStkChkEn
                0x0001335a                OSTaskSwHookEn
                0x0001335c                OSTaskRegTblSize
                0x0001335e                OSTCBPrioTblMax
                0x00013360                OSTCBSize
                0x00013362                OSTicksPerSec
                0x00013364                OSTimeTickHookEn
                0x00013366                OSVersionNbr
                0x00013368                OS_TLS_TblSize
                0x0001336a                OSTmrEn
                0x0001336c                OSTmrCfgMax
                0x0001336e                OSTmrCfgNameEn
                0x00013370                OSTmrCfgWheelSize
                0x00013372                OSTmrCfgTicksPerSec
                0x00013374                OSTmrSize
                0x00013376                OSTmrTblSize
                0x00013378                OSTmrWheelSize
                0x0001337a                OSTmrWheelTblSize
                0x0001337c                OSDataSize
 *fill*         0x0001337e        0x2 
 .rodata        0x00013380       0x3d .\CortexM0\ARM_GCC_541\Debug\lib_mem.o
 *fill*         0x000133bd        0x3 
 .rodata        0x000133c0       0x94 .\CortexM0\ARM_GCC_541\Debug\lib_str.o
 .rodata        0x00013454      0x1e6 .\CortexM0\ARM_GCC_541\Debug\cyfitter_cfg.o
 *fill*         0x0001363a        0x2 
 .rodata        0x0001363c        0x4 .\CortexM0\ARM_GCC_541\Debug\OS2.a(ADC.o)
 .rodata        0x00013640       0x2e .\CortexM0\ARM_GCC_541\Debug\OS2.a(CyLib.o)
                0x00013640                cyImoFreqMhz2Reg
 *fill*         0x0001366e        0x2 
 .rodata        0x00013670        0xc .\CortexM0\ARM_GCC_541\Debug\OS2.a(CyLFClk.o)
 .rodata        0x0001367c       0x80 c:/program files (x86)/cypress/psoc creator/4.2/psoc creator/import/gnu/arm/5.4.1/bin/../lib/gcc/arm-none-eabi/5.4.1/armv6-m\libgcc.a(divsf3.o)
 .rodata        0x000136fc       0x40 c:/program files (x86)/cypress/psoc creator/4.2/psoc creator/import/gnu/arm/5.4.1/bin/../lib/gcc/arm-none-eabi/5.4.1/armv6-m\libgcc.a(mulsf3.o)
 .rodata        0x0001373c       0x40 c:/program files (x86)/cypress/psoc creator/4.2/psoc creator/import/gnu/arm/5.4.1/bin/../lib/gcc/arm-none-eabi/5.4.1/armv6-m\libgcc.a(muldf3.o)
 .rodata.str1.1
                0x0001377c        0x2 c:/program files (x86)/cypress/psoc creator/4.2/psoc creator/import/gnu/arm/5.4.1/bin/../lib/gcc/arm-none-eabi/5.4.1/../../../../arm-none-eabi/lib/armv6-m\libg_nano.a(lib_a-impure.o)
 *fill*         0x0001377e        0x2 
 .rodata._global_impure_ptr
                0x00013780        0x4 c:/program files (x86)/cypress/psoc creator/4.2/psoc creator/import/gnu/arm/5.4.1/bin/../lib/gcc/arm-none-eabi/5.4.1/../../../../arm-none-eabi/lib/armv6-m\libg_nano.a(lib_a-impure.o)
                0x00013780                _global_impure_ptr
                0x00013784                . = ALIGN (0x4)
 *(.init)
 .init          0x00013784        0x4 c:/program files (x86)/cypress/psoc creator/4.2/psoc creator/import/gnu/arm/5.4.1/bin/../lib/gcc/arm-none-eabi/5.4.1/armv6-m/crti.o
                0x00013784                _init
 .init          0x00013788        0x8 c:/program files (x86)/cypress/psoc creator/4.2/psoc creator/import/gnu/arm/5.4.1/bin/../lib/gcc/arm-none-eabi/5.4.1/armv6-m/crtn.o
                0x00013790                . = ALIGN (0x4)
                0x00013790                __preinit_array_start = .
 *(.preinit_array)
                0x00013790                __preinit_array_end = .
                0x00013790                . = ALIGN (0x4)
                0x00013790                __init_array_start = .
 *(SORT(.init_array.*))
 *(.init_array)
 .init_array    0x00013790        0x4 c:/program files (x86)/cypress/psoc creator/4.2/psoc creator/import/gnu/arm/5.4.1/bin/../lib/gcc/arm-none-eabi/5.4.1/armv6-m/crtbegin.o
 .init_array    0x00013794        0x4 .\CortexM0\ARM_GCC_541\Debug\Cm0Start.o
                0x00013798                __init_array_end = .
                0x00013798                . = ALIGN (0x4)
 *(.fini)
 .fini          0x00013798        0x4 c:/program files (x86)/cypress/psoc creator/4.2/psoc creator/import/gnu/arm/5.4.1/bin/../lib/gcc/arm-none-eabi/5.4.1/armv6-m/crti.o
                0x00013798                _fini
 .fini          0x0001379c        0x8 c:/program files (x86)/cypress/psoc creator/4.2/psoc creator/import/gnu/arm/5.4.1/bin/../lib/gcc/arm-none-eabi/5.4.1/armv6-m/crtn.o
                0x000137a4                . = ALIGN (0x4)
                0x000137a4                __fini_array_start = .
 *(.fini_array)
 .fini_array    0x000137a4        0x4 c:/program files (x86)/cypress/psoc creator/4.2/psoc creator/import/gnu/arm/5.4.1/bin/../lib/gcc/arm-none-eabi/5.4.1/armv6-m/crtbegin.o
 *(SORT(.fini_array.*))
                0x000137a8                __fini_array_end = .
                0x000137a8                . = ALIGN (0x4)
 *crtbegin.o(.ctors)
 *(EXCLUDE_FILE(*crtend.o) .ctors)
 *(SORT(.ctors.*))
 *crtend.o(.ctors)
                0x000137a8                . = ALIGN (0x4)
 *crtbegin.o(.dtors)
 *(EXCLUDE_FILE(*crtend.o) .dtors)
 *(SORT(.dtors.*))
 *crtend.o(.dtors)
                0x000137a8                . = ALIGN (0x4)
                0x000137a8                __cy_regions = .
                0x000137a8        0x4 LONG 0x137b8 __cy_region_init_ram
                0x000137ac        0x4 LONG 0x200000c8 __cy_region_start_data
                0x000137b0        0x4 LONG 0xb0 __cy_region_init_size_ram
                0x000137b4        0x4 LONG 0x27d8 __cy_region_zero_size_ram
                0x000137b8                __cy_regions_end = .
                0x000137b8                . = ALIGN (0x8)
                0x000137b8                _etext = .

.cy_checksum_exclude
                0x000137b8        0x0
 *(.cy_checksum_exclude)

.ramvectors     0x20000000       0xc0
                0x20000000                __cy_region_start_ram = .
 *(.ramvectors)
 .ramvectors    0x20000000       0xc0 .\CortexM0\ARM_GCC_541\Debug\Cm0Start.o
                0x20000000                CyRamVectors

.noinit         0x200000c0        0x4
 *(.noinit)
 .noinit        0x200000c0        0x4 .\CortexM0\ARM_GCC_541\Debug\Cm0Start.o

.data           0x200000c8       0xb0 load address 0x000137b8
                0x200000c8                __cy_region_start_data = .
 *(.jcr)
 .jcr           0x200000c8        0x0 c:/program files (x86)/cypress/psoc creator/4.2/psoc creator/import/gnu/arm/5.4.1/bin/../lib/gcc/arm-none-eabi/5.4.1/armv6-m/crtbegin.o
 .jcr           0x200000c8        0x4 c:/program files (x86)/cypress/psoc creator/4.2/psoc creator/import/gnu/arm/5.4.1/bin/../lib/gcc/arm-none-eabi/5.4.1/armv6-m/crtend.o
 *(.got.plt)
 *(.got)
 *(.shdata)
 *(.data .data.* .gnu.linkonce.d.*)
 .data          0x200000cc        0x0 c:/program files (x86)/cypress/psoc creator/4.2/psoc creator/import/gnu/arm/5.4.1/bin/../lib/gcc/arm-none-eabi/5.4.1/armv6-m/crti.o
 .data          0x200000cc        0x4 c:/program files (x86)/cypress/psoc creator/4.2/psoc creator/import/gnu/arm/5.4.1/bin/../lib/gcc/arm-none-eabi/5.4.1/armv6-m/crtbegin.o
                0x200000cc                __dso_handle
 .data          0x200000d0        0x0 c:/program files (x86)/cypress/psoc creator/4.2/psoc creator/import/gnu/arm/5.4.1/bin/../lib/gcc/arm-none-eabi/5.4.1/../../../../arm-none-eabi/lib/armv6-m/crt0.o
 .data          0x200000d0        0x0 .\CortexM0\ARM_GCC_541\Debug\app.o
 .data          0x200000d0        0x0 .\CortexM0\ARM_GCC_541\Debug\app_hooks.o
 .data          0x200000d0        0x0 .\CortexM0\ARM_GCC_541\Debug\bsp_os.o
 .data          0x200000d0        0x0 .\CortexM0\ARM_GCC_541\Debug\cpu_bsp.o
 .data          0x200000d0        0x4 .\CortexM0\ARM_GCC_541\Debug\bsp.o
                0x200000d0                RGB_PrevVal
 .data          0x200000d4        0x0 .\CortexM0\ARM_GCC_541\Debug\cpu_c.o
 .data          0x200000d4        0x0 .\CortexM0\ARM_GCC_541\Debug\cpu_core.o
 .data          0x200000d4        0x0 .\CortexM0\ARM_GCC_541\Debug\os_cpu_c.o
 .data          0x200000d4        0x0 .\CortexM0\ARM_GCC_541\Debug\os_core.o
 .data          0x200000d4        0x0 .\CortexM0\ARM_GCC_541\Debug\os_flag.o
 .data          0x200000d4        0x0 .\CortexM0\ARM_GCC_541\Debug\os_mbox.o
 .data          0x200000d4        0x0 .\CortexM0\ARM_GCC_541\Debug\os_mem.o
 .data          0x200000d4        0x0 .\CortexM0\ARM_GCC_541\Debug\os_mutex.o
 .data          0x200000d4        0x0 .\CortexM0\ARM_GCC_541\Debug\os_q.o
 .data          0x200000d4        0x0 .\CortexM0\ARM_GCC_541\Debug\os_sem.o
 .data          0x200000d4        0x0 .\CortexM0\ARM_GCC_541\Debug\os_task.o
 .data          0x200000d4        0x0 .\CortexM0\ARM_GCC_541\Debug\os_time.o
 .data          0x200000d4        0x0 .\CortexM0\ARM_GCC_541\Debug\os_tmr.o
 .data          0x200000d4        0x0 .\CortexM0\ARM_GCC_541\Debug\os_dbg_r.o
 .data          0x200000d4        0x0 .\CortexM0\ARM_GCC_541\Debug\lib_ascii.o
 .data          0x200000d4        0x0 .\CortexM0\ARM_GCC_541\Debug\lib_math.o
 .data          0x200000d4        0x0 .\CortexM0\ARM_GCC_541\Debug\lib_mem.o
 .data          0x200000d4        0x0 .\CortexM0\ARM_GCC_541\Debug\lib_str.o
 .data          0x200000d4        0x0 .\CortexM0\ARM_GCC_541\Debug\cyfitter_cfg.o
 .data          0x200000d4        0x0 .\CortexM0\ARM_GCC_541\Debug\cymetadata.o
 .data          0x200000d4        0x4 .\CortexM0\ARM_GCC_541\Debug\Cm0Start.o
 .data          0x200000d8        0x0 .\CortexM0\ARM_GCC_541\Debug\cpu_a.o
 .data          0x200000d8        0x0 .\CortexM0\ARM_GCC_541\Debug\os_cpu_a.o
 .data          0x200000d8        0x0 .\CortexM0\ARM_GCC_541\Debug\OS2.a(PWM_Blue.o)
 .data          0x200000d8        0x0 .\CortexM0\ARM_GCC_541\Debug\OS2.a(PWM_Green.o)
 .data          0x200000d8        0x0 .\CortexM0\ARM_GCC_541\Debug\OS2.a(PWM_Red.o)
 .data          0x200000d8        0x0 .\CortexM0\ARM_GCC_541\Debug\OS2.a(Accel_Pin.o)
 .data          0x200000d8        0x0 .\CortexM0\ARM_GCC_541\Debug\OS2.a(I2C.o)
 .data          0x200000d8        0x0 .\CortexM0\ARM_GCC_541\Debug\OS2.a(I2C_I2C.o)
 .data          0x200000d8        0x0 .\CortexM0\ARM_GCC_541\Debug\OS2.a(I2C_I2C_MASTER.o)
 .data          0x200000d8        0x0 .\CortexM0\ARM_GCC_541\Debug\OS2.a(SW2.o)
 .data          0x200000d8        0x0 .\CortexM0\ARM_GCC_541\Debug\OS2.a(Accel_ISR.o)
 .data          0x200000d8        0x0 .\CortexM0\ARM_GCC_541\Debug\OS2.a(Temp_Sensor.o)
 .data          0x200000d8        0x0 .\CortexM0\ARM_GCC_541\Debug\OS2.a(Temp_Sensor_INT.o)
 .data          0x200000d8        0x0 .\CortexM0\ARM_GCC_541\Debug\OS2.a(DMA.o)
 .data          0x200000d8        0x0 .\CortexM0\ARM_GCC_541\Debug\OS2.a(Opamp.o)
 .data          0x200000d8        0x0 .\CortexM0\ARM_GCC_541\Debug\OS2.a(ADC.o)
 .data          0x200000d8        0x0 .\CortexM0\ARM_GCC_541\Debug\OS2.a(ADC_INT.o)
 .data          0x200000d8        0x0 .\CortexM0\ARM_GCC_541\Debug\OS2.a(Temp_Sensor_EOC_ISR.o)
 .data          0x200000d8       0x10 .\CortexM0\ARM_GCC_541\Debug\OS2.a(CyLib.o)
                0x200000d8                cydelayFreqHz
                0x200000dc                cydelayFreqKhz
                0x200000e0                cydelayFreqMhz
                0x200000e4                cydelay32kMs
 .data          0x200000e8       0x24 .\CortexM0\ARM_GCC_541\Debug\OS2.a(CyDMA.o)
 .data          0x2000010c        0x4 .\CortexM0\ARM_GCC_541\Debug\OS2.a(CyLFClk.o)
 .data          0x20000110        0x0 .\CortexM0\ARM_GCC_541\Debug\OS2.a(CyBootAsmGnu.o)
 .data          0x20000110        0x0 .\CortexM0\ARM_GCC_541\Debug\OS2.a(I2C_I2C_INT.o)
 .data          0x20000110        0x0 .\CortexM0\ARM_GCC_541\Debug\OS2.a(CyFlash.o)
 .data          0x20000110        0x0 c:/program files (x86)/cypress/psoc creator/4.2/psoc creator/import/gnu/arm/5.4.1/bin/../lib/gcc/arm-none-eabi/5.4.1/armv6-m\libgcc.a(_udivsi3.o)
 .data          0x20000110        0x0 c:/program files (x86)/cypress/psoc creator/4.2/psoc creator/import/gnu/arm/5.4.1/bin/../lib/gcc/arm-none-eabi/5.4.1/armv6-m\libgcc.a(_divsi3.o)
 .data          0x20000110        0x0 c:/program files (x86)/cypress/psoc creator/4.2/psoc creator/import/gnu/arm/5.4.1/bin/../lib/gcc/arm-none-eabi/5.4.1/armv6-m\libgcc.a(_dvmd_tls.o)
 .data          0x20000110        0x0 c:/program files (x86)/cypress/psoc creator/4.2/psoc creator/import/gnu/arm/5.4.1/bin/../lib/gcc/arm-none-eabi/5.4.1/armv6-m\libgcc.a(_aeabi_ldivmod.o)
 .data          0x20000110        0x0 c:/program files (x86)/cypress/psoc creator/4.2/psoc creator/import/gnu/arm/5.4.1/bin/../lib/gcc/arm-none-eabi/5.4.1/armv6-m\libgcc.a(_aeabi_uldivmod.o)
 .data          0x20000110        0x0 c:/program files (x86)/cypress/psoc creator/4.2/psoc creator/import/gnu/arm/5.4.1/bin/../lib/gcc/arm-none-eabi/5.4.1/armv6-m\libgcc.a(_muldi3.o)
 .data          0x20000110        0x0 c:/program files (x86)/cypress/psoc creator/4.2/psoc creator/import/gnu/arm/5.4.1/bin/../lib/gcc/arm-none-eabi/5.4.1/armv6-m\libgcc.a(_udivmoddi4.o)
 .data          0x20000110        0x0 c:/program files (x86)/cypress/psoc creator/4.2/psoc creator/import/gnu/arm/5.4.1/bin/../lib/gcc/arm-none-eabi/5.4.1/armv6-m\libgcc.a(bpabi.o)
 .data          0x20000110        0x0 c:/program files (x86)/cypress/psoc creator/4.2/psoc creator/import/gnu/arm/5.4.1/bin/../lib/gcc/arm-none-eabi/5.4.1/armv6-m\libgcc.a(divsf3.o)
 .data          0x20000110        0x0 c:/program files (x86)/cypress/psoc creator/4.2/psoc creator/import/gnu/arm/5.4.1/bin/../lib/gcc/arm-none-eabi/5.4.1/armv6-m\libgcc.a(mulsf3.o)
 .data          0x20000110        0x0 c:/program files (x86)/cypress/psoc creator/4.2/psoc creator/import/gnu/arm/5.4.1/bin/../lib/gcc/arm-none-eabi/5.4.1/armv6-m\libgcc.a(floatsisf.o)
 .data          0x20000110        0x0 c:/program files (x86)/cypress/psoc creator/4.2/psoc creator/import/gnu/arm/5.4.1/bin/../lib/gcc/arm-none-eabi/5.4.1/armv6-m\libgcc.a(floatunsisf.o)
 .data          0x20000110        0x0 c:/program files (x86)/cypress/psoc creator/4.2/psoc creator/import/gnu/arm/5.4.1/bin/../lib/gcc/arm-none-eabi/5.4.1/armv6-m\libgcc.a(adddf3.o)
 .data          0x20000110        0x0 c:/program files (x86)/cypress/psoc creator/4.2/psoc creator/import/gnu/arm/5.4.1/bin/../lib/gcc/arm-none-eabi/5.4.1/armv6-m\libgcc.a(muldf3.o)
 .data          0x20000110        0x0 c:/program files (x86)/cypress/psoc creator/4.2/psoc creator/import/gnu/arm/5.4.1/bin/../lib/gcc/arm-none-eabi/5.4.1/armv6-m\libgcc.a(extendsfdf2.o)
 .data          0x20000110        0x0 c:/program files (x86)/cypress/psoc creator/4.2/psoc creator/import/gnu/arm/5.4.1/bin/../lib/gcc/arm-none-eabi/5.4.1/armv6-m\libgcc.a(truncdfsf2.o)
 .data          0x20000110        0x0 c:/program files (x86)/cypress/psoc creator/4.2/psoc creator/import/gnu/arm/5.4.1/bin/../lib/gcc/arm-none-eabi/5.4.1/armv6-m\libgcc.a(_clzsi2.o)
 .data          0x20000110        0x0 c:/program files (x86)/cypress/psoc creator/4.2/psoc creator/import/gnu/arm/5.4.1/bin/../lib/gcc/arm-none-eabi/5.4.1/armv6-m\libgcc.a(_clzdi2.o)
 .data          0x20000110        0x0 c:/program files (x86)/cypress/psoc creator/4.2/psoc creator/import/gnu/arm/5.4.1/bin/../lib/gcc/arm-none-eabi/5.4.1/armv6-m\libgcc.a(_divdi3.o)
 .data          0x20000110        0x0 c:/program files (x86)/cypress/psoc creator/4.2/psoc creator/import/gnu/arm/5.4.1/bin/../lib/gcc/arm-none-eabi/5.4.1/../../../../arm-none-eabi/lib/armv6-m\libg_nano.a(lib_a-errno.o)
 .data          0x20000110        0x0 c:/program files (x86)/cypress/psoc creator/4.2/psoc creator/import/gnu/arm/5.4.1/bin/../lib/gcc/arm-none-eabi/5.4.1/../../../../arm-none-eabi/lib/armv6-m\libg_nano.a(lib_a-exit.o)
 .data          0x20000110        0x0 c:/program files (x86)/cypress/psoc creator/4.2/psoc creator/import/gnu/arm/5.4.1/bin/../lib/gcc/arm-none-eabi/5.4.1/../../../../arm-none-eabi/lib/armv6-m\libg_nano.a(lib_a-impure.o)
 .data.impure_data
                0x20000110       0x60 c:/program files (x86)/cypress/psoc creator/4.2/psoc creator/import/gnu/arm/5.4.1/bin/../lib/gcc/arm-none-eabi/5.4.1/../../../../arm-none-eabi/lib/armv6-m\libg_nano.a(lib_a-impure.o)
 .data._impure_ptr
                0x20000170        0x4 c:/program files (x86)/cypress/psoc creator/4.2/psoc creator/import/gnu/arm/5.4.1/bin/../lib/gcc/arm-none-eabi/5.4.1/../../../../arm-none-eabi/lib/armv6-m\libg_nano.a(lib_a-impure.o)
                0x20000170                _impure_ptr
 .data          0x20000174        0x0 c:/program files (x86)/cypress/psoc creator/4.2/psoc creator/import/gnu/arm/5.4.1/bin/../lib/gcc/arm-none-eabi/5.4.1/../../../../arm-none-eabi/lib/armv6-m\libg_nano.a(lib_a-init.o)
 .data          0x20000174        0x0 c:/program files (x86)/cypress/psoc creator/4.2/psoc creator/import/gnu/arm/5.4.1/bin/../lib/gcc/arm-none-eabi/5.4.1/../../../../arm-none-eabi/lib/armv6-m\libg_nano.a(lib_a-memcpy-stub.o)
 .data          0x20000174        0x0 c:/program files (x86)/cypress/psoc creator/4.2/psoc creator/import/gnu/arm/5.4.1/bin/../lib/gcc/arm-none-eabi/5.4.1/../../../../arm-none-eabi/lib/armv6-m\libg_nano.a(lib_a-memset.o)
 .data          0x20000174        0x0 c:/program files (x86)/cypress/psoc creator/4.2/psoc creator/import/gnu/arm/5.4.1/bin/../lib/gcc/arm-none-eabi/5.4.1/armv6-m/crtend.o
 .data          0x20000174        0x0 c:/program files (x86)/cypress/psoc creator/4.2/psoc creator/import/gnu/arm/5.4.1/bin/../lib/gcc/arm-none-eabi/5.4.1/armv6-m/crtn.o
                0x20000178                . = ALIGN (0x8)
 *fill*         0x20000174        0x4 
 *(.ram)
                0x20000178                _edata = .

.igot.plt       0x20000178        0x0 load address 0x00013868
 .igot.plt      0x20000178        0x0 c:/program files (x86)/cypress/psoc creator/4.2/psoc creator/import/gnu/arm/5.4.1/bin/../lib/gcc/arm-none-eabi/5.4.1/armv6-m/crtbegin.o

.bss            0x20000178     0x27d8 load address 0x00013868
                0x20000178                PROVIDE (__bss_start__, .)
 *(.shbss)
 *(.bss .bss.* .gnu.linkonce.b.*)
 .bss           0x20000178        0x0 c:/program files (x86)/cypress/psoc creator/4.2/psoc creator/import/gnu/arm/5.4.1/bin/../lib/gcc/arm-none-eabi/5.4.1/armv6-m/crti.o
 .bss           0x20000178       0x1c c:/program files (x86)/cypress/psoc creator/4.2/psoc creator/import/gnu/arm/5.4.1/bin/../lib/gcc/arm-none-eabi/5.4.1/armv6-m/crtbegin.o
 .bss           0x20000194        0x0 c:/program files (x86)/cypress/psoc creator/4.2/psoc creator/import/gnu/arm/5.4.1/bin/../lib/gcc/arm-none-eabi/5.4.1/../../../../arm-none-eabi/lib/armv6-m/crt0.o
 .bss           0x20000194      0x806 .\CortexM0\ARM_GCC_541\Debug\app.o
                0x20000194                uC_Probe_PB_Trigger
 .bss           0x2000099a        0x0 .\CortexM0\ARM_GCC_541\Debug\app_hooks.o
 .bss           0x2000099a        0x0 .\CortexM0\ARM_GCC_541\Debug\bsp_os.o
 .bss           0x2000099a        0x0 .\CortexM0\ARM_GCC_541\Debug\cpu_bsp.o
 .bss           0x2000099a        0x0 .\CortexM0\ARM_GCC_541\Debug\bsp.o
 .bss           0x2000099a        0x0 .\CortexM0\ARM_GCC_541\Debug\cpu_c.o
 .bss           0x2000099a        0x0 .\CortexM0\ARM_GCC_541\Debug\cpu_core.o
 .bss           0x2000099a        0x2 .\CortexM0\ARM_GCC_541\Debug\os_cpu_c.o
 .bss           0x2000099c        0x0 .\CortexM0\ARM_GCC_541\Debug\os_core.o
 .bss           0x2000099c        0x0 .\CortexM0\ARM_GCC_541\Debug\os_flag.o
 .bss           0x2000099c        0x0 .\CortexM0\ARM_GCC_541\Debug\os_mbox.o
 .bss           0x2000099c        0x0 .\CortexM0\ARM_GCC_541\Debug\os_mem.o
 .bss           0x2000099c        0x0 .\CortexM0\ARM_GCC_541\Debug\os_mutex.o
 .bss           0x2000099c        0x0 .\CortexM0\ARM_GCC_541\Debug\os_q.o
 .bss           0x2000099c        0x0 .\CortexM0\ARM_GCC_541\Debug\os_sem.o
 .bss           0x2000099c        0x0 .\CortexM0\ARM_GCC_541\Debug\os_task.o
 .bss           0x2000099c        0x0 .\CortexM0\ARM_GCC_541\Debug\os_time.o
 .bss           0x2000099c        0x0 .\CortexM0\ARM_GCC_541\Debug\os_tmr.o
 .bss           0x2000099c        0x0 .\CortexM0\ARM_GCC_541\Debug\os_dbg_r.o
 .bss           0x2000099c        0x0 .\CortexM0\ARM_GCC_541\Debug\lib_ascii.o
 .bss           0x2000099c        0x0 .\CortexM0\ARM_GCC_541\Debug\lib_math.o
 .bss           0x2000099c        0x0 .\CortexM0\ARM_GCC_541\Debug\lib_mem.o
 .bss           0x2000099c        0x0 .\CortexM0\ARM_GCC_541\Debug\lib_str.o
 .bss           0x2000099c        0x0 .\CortexM0\ARM_GCC_541\Debug\cyfitter_cfg.o
 .bss           0x2000099c        0x0 .\CortexM0\ARM_GCC_541\Debug\cymetadata.o
 .bss           0x2000099c        0x0 .\CortexM0\ARM_GCC_541\Debug\Cm0Start.o
 .bss           0x2000099c        0x0 .\CortexM0\ARM_GCC_541\Debug\cpu_a.o
 .bss           0x2000099c        0x0 .\CortexM0\ARM_GCC_541\Debug\os_cpu_a.o
 .bss           0x2000099c        0x1 .\CortexM0\ARM_GCC_541\Debug\OS2.a(PWM_Blue.o)
                0x2000099c                PWM_Blue_initVar
 .bss           0x2000099d        0x1 .\CortexM0\ARM_GCC_541\Debug\OS2.a(PWM_Green.o)
                0x2000099d                PWM_Green_initVar
 .bss           0x2000099e        0x1 .\CortexM0\ARM_GCC_541\Debug\OS2.a(PWM_Red.o)
                0x2000099e                PWM_Red_initVar
 .bss           0x2000099f        0x0 .\CortexM0\ARM_GCC_541\Debug\OS2.a(Accel_Pin.o)
 *fill*         0x2000099f        0x1 
 .bss           0x200009a0        0x8 .\CortexM0\ARM_GCC_541\Debug\OS2.a(I2C.o)
                0x200009a0                I2C_initVar
                0x200009a4                I2C_customIntrHandler
 .bss           0x200009a8        0x0 .\CortexM0\ARM_GCC_541\Debug\OS2.a(I2C_I2C.o)
 .bss           0x200009a8        0x0 .\CortexM0\ARM_GCC_541\Debug\OS2.a(I2C_I2C_MASTER.o)
 .bss           0x200009a8        0x0 .\CortexM0\ARM_GCC_541\Debug\OS2.a(SW2.o)
 .bss           0x200009a8        0x0 .\CortexM0\ARM_GCC_541\Debug\OS2.a(Accel_ISR.o)
 .bss           0x200009a8        0x1 .\CortexM0\ARM_GCC_541\Debug\OS2.a(Temp_Sensor.o)
                0x200009a8                Temp_Sensor_initVar
 .bss           0x200009a9        0x0 .\CortexM0\ARM_GCC_541\Debug\OS2.a(Temp_Sensor_INT.o)
 .bss           0x200009a9        0x1 .\CortexM0\ARM_GCC_541\Debug\OS2.a(DMA.o)
                0x200009a9                DMA_initVar
 *fill*         0x200009aa        0x2 
 .bss           0x200009ac        0x8 .\CortexM0\ARM_GCC_541\Debug\OS2.a(Opamp.o)
                0x200009ac                Opamp_initVar
 .bss           0x200009b4        0x1 .\CortexM0\ARM_GCC_541\Debug\OS2.a(ADC.o)
                0x200009b4                ADC_initVar
 .bss           0x200009b5        0x0 .\CortexM0\ARM_GCC_541\Debug\OS2.a(ADC_INT.o)
 .bss           0x200009b5        0x0 .\CortexM0\ARM_GCC_541\Debug\OS2.a(Temp_Sensor_EOC_ISR.o)
 *fill*         0x200009b5        0x3 
 .bss           0x200009b8       0x18 .\CortexM0\ARM_GCC_541\Debug\OS2.a(CyLib.o)
                0x200009cc                CySysTickInitVar
 .bss           0x200009d0        0x1 .\CortexM0\ARM_GCC_541\Debug\OS2.a(CyDMA.o)
 *fill*         0x200009d1        0x3 
 .bss           0x200009d4       0x1c .\CortexM0\ARM_GCC_541\Debug\OS2.a(CyLFClk.o)
 .bss           0x200009f0        0x0 .\CortexM0\ARM_GCC_541\Debug\OS2.a(CyBootAsmGnu.o)
 .bss           0x200009f0        0x0 .\CortexM0\ARM_GCC_541\Debug\OS2.a(I2C_I2C_INT.o)
 .bss           0x200009f0        0x0 .\CortexM0\ARM_GCC_541\Debug\OS2.a(CyFlash.o)
 .bss           0x200009f0        0x0 c:/program files (x86)/cypress/psoc creator/4.2/psoc creator/import/gnu/arm/5.4.1/bin/../lib/gcc/arm-none-eabi/5.4.1/armv6-m\libgcc.a(_udivsi3.o)
 .bss           0x200009f0        0x0 c:/program files (x86)/cypress/psoc creator/4.2/psoc creator/import/gnu/arm/5.4.1/bin/../lib/gcc/arm-none-eabi/5.4.1/armv6-m\libgcc.a(_divsi3.o)
 .bss           0x200009f0        0x0 c:/program files (x86)/cypress/psoc creator/4.2/psoc creator/import/gnu/arm/5.4.1/bin/../lib/gcc/arm-none-eabi/5.4.1/armv6-m\libgcc.a(_dvmd_tls.o)
 .bss           0x200009f0        0x0 c:/program files (x86)/cypress/psoc creator/4.2/psoc creator/import/gnu/arm/5.4.1/bin/../lib/gcc/arm-none-eabi/5.4.1/armv6-m\libgcc.a(_aeabi_ldivmod.o)
 .bss           0x200009f0        0x0 c:/program files (x86)/cypress/psoc creator/4.2/psoc creator/import/gnu/arm/5.4.1/bin/../lib/gcc/arm-none-eabi/5.4.1/armv6-m\libgcc.a(_aeabi_uldivmod.o)
 .bss           0x200009f0        0x0 c:/program files (x86)/cypress/psoc creator/4.2/psoc creator/import/gnu/arm/5.4.1/bin/../lib/gcc/arm-none-eabi/5.4.1/armv6-m\libgcc.a(_muldi3.o)
 .bss           0x200009f0        0x0 c:/program files (x86)/cypress/psoc creator/4.2/psoc creator/import/gnu/arm/5.4.1/bin/../lib/gcc/arm-none-eabi/5.4.1/armv6-m\libgcc.a(_udivmoddi4.o)
 .bss           0x200009f0        0x0 c:/program files (x86)/cypress/psoc creator/4.2/psoc creator/import/gnu/arm/5.4.1/bin/../lib/gcc/arm-none-eabi/5.4.1/armv6-m\libgcc.a(bpabi.o)
 .bss           0x200009f0        0x0 c:/program files (x86)/cypress/psoc creator/4.2/psoc creator/import/gnu/arm/5.4.1/bin/../lib/gcc/arm-none-eabi/5.4.1/armv6-m\libgcc.a(divsf3.o)
 .bss           0x200009f0        0x0 c:/program files (x86)/cypress/psoc creator/4.2/psoc creator/import/gnu/arm/5.4.1/bin/../lib/gcc/arm-none-eabi/5.4.1/armv6-m\libgcc.a(mulsf3.o)
 .bss           0x200009f0        0x0 c:/program files (x86)/cypress/psoc creator/4.2/psoc creator/import/gnu/arm/5.4.1/bin/../lib/gcc/arm-none-eabi/5.4.1/armv6-m\libgcc.a(floatsisf.o)
 .bss           0x200009f0        0x0 c:/program files (x86)/cypress/psoc creator/4.2/psoc creator/import/gnu/arm/5.4.1/bin/../lib/gcc/arm-none-eabi/5.4.1/armv6-m\libgcc.a(floatunsisf.o)
 .bss           0x200009f0        0x0 c:/program files (x86)/cypress/psoc creator/4.2/psoc creator/import/gnu/arm/5.4.1/bin/../lib/gcc/arm-none-eabi/5.4.1/armv6-m\libgcc.a(adddf3.o)
 .bss           0x200009f0        0x0 c:/program files (x86)/cypress/psoc creator/4.2/psoc creator/import/gnu/arm/5.4.1/bin/../lib/gcc/arm-none-eabi/5.4.1/armv6-m\libgcc.a(muldf3.o)
 .bss           0x200009f0        0x0 c:/program files (x86)/cypress/psoc creator/4.2/psoc creator/import/gnu/arm/5.4.1/bin/../lib/gcc/arm-none-eabi/5.4.1/armv6-m\libgcc.a(extendsfdf2.o)
 .bss           0x200009f0        0x0 c:/program files (x86)/cypress/psoc creator/4.2/psoc creator/import/gnu/arm/5.4.1/bin/../lib/gcc/arm-none-eabi/5.4.1/armv6-m\libgcc.a(truncdfsf2.o)
 .bss           0x200009f0        0x0 c:/program files (x86)/cypress/psoc creator/4.2/psoc creator/import/gnu/arm/5.4.1/bin/../lib/gcc/arm-none-eabi/5.4.1/armv6-m\libgcc.a(_clzsi2.o)
 .bss           0x200009f0        0x0 c:/program files (x86)/cypress/psoc creator/4.2/psoc creator/import/gnu/arm/5.4.1/bin/../lib/gcc/arm-none-eabi/5.4.1/armv6-m\libgcc.a(_clzdi2.o)
 .bss           0x200009f0        0x0 c:/program files (x86)/cypress/psoc creator/4.2/psoc creator/import/gnu/arm/5.4.1/bin/../lib/gcc/arm-none-eabi/5.4.1/armv6-m\libgcc.a(_divdi3.o)
 .bss           0x200009f0        0x0 c:/program files (x86)/cypress/psoc creator/4.2/psoc creator/import/gnu/arm/5.4.1/bin/../lib/gcc/arm-none-eabi/5.4.1/../../../../arm-none-eabi/lib/armv6-m\libg_nano.a(lib_a-errno.o)
 .bss           0x200009f0        0x0 c:/program files (x86)/cypress/psoc creator/4.2/psoc creator/import/gnu/arm/5.4.1/bin/../lib/gcc/arm-none-eabi/5.4.1/../../../../arm-none-eabi/lib/armv6-m\libg_nano.a(lib_a-exit.o)
 .bss           0x200009f0        0x0 c:/program files (x86)/cypress/psoc creator/4.2/psoc creator/import/gnu/arm/5.4.1/bin/../lib/gcc/arm-none-eabi/5.4.1/../../../../arm-none-eabi/lib/armv6-m\libg_nano.a(lib_a-impure.o)
 .bss           0x200009f0        0x0 c:/program files (x86)/cypress/psoc creator/4.2/psoc creator/import/gnu/arm/5.4.1/bin/../lib/gcc/arm-none-eabi/5.4.1/../../../../arm-none-eabi/lib/armv6-m\libg_nano.a(lib_a-init.o)
 .bss           0x200009f0        0x0 c:/program files (x86)/cypress/psoc creator/4.2/psoc creator/import/gnu/arm/5.4.1/bin/../lib/gcc/arm-none-eabi/5.4.1/../../../../arm-none-eabi/lib/armv6-m\libg_nano.a(lib_a-memcpy-stub.o)
 .bss           0x200009f0        0x0 c:/program files (x86)/cypress/psoc creator/4.2/psoc creator/import/gnu/arm/5.4.1/bin/../lib/gcc/arm-none-eabi/5.4.1/../../../../arm-none-eabi/lib/armv6-m\libg_nano.a(lib_a-memset.o)
 .bss           0x200009f0        0x0 c:/program files (x86)/cypress/psoc creator/4.2/psoc creator/import/gnu/arm/5.4.1/bin/../lib/gcc/arm-none-eabi/5.4.1/armv6-m/crtend.o
 .bss           0x200009f0        0x0 c:/program files (x86)/cypress/psoc creator/4.2/psoc creator/import/gnu/arm/5.4.1/bin/../lib/gcc/arm-none-eabi/5.4.1/armv6-m/crtn.o
 *(COMMON)
 COMMON         0x200009f0       0x10 .\CortexM0\ARM_GCC_541\Debug\app.o
                0x200009f0                uC_Probe_Temp_Val
                0x200009f4                uC_Probe_Accel_X_Axis
                0x200009f6                uC_Probe_AmbientLight
                0x200009f8                uC_Probe_Accel_Z_Axis
                0x200009fa                uC_Probe_Accel_Y_Axis
                0x200009fc                uC_Probe_RGB_Val
 COMMON         0x20000a00       0x30 .\CortexM0\ARM_GCC_541\Debug\cpu_core.o
                0x20000a00                CPU_IntDisMeasMax_cnts
                0x20000a04                CPU_TS_TmrFreq_Hz
                0x20000a08                CPU_IntDisMeasStart_cnts
                0x20000a0c                CPU_IntDisNestCtr
                0x20000a10                CPU_IntDisMeasStop_cnts
                0x20000a14                CPU_IntDisMeasMaxCur_cnts
                0x20000a18                CPU_IntDisMeasCtr
                0x20000a1c                CPU_IntDisMeasOvrhd_cnts
                0x20000a20                CPU_Name
 COMMON         0x20000a30      0x204 .\CortexM0\ARM_GCC_541\Debug\os_cpu_c.o
                0x20000a30                OS_CPU_ExceptStkBase
                0x20000a34                OS_CPU_ExceptStk
 COMMON         0x20000c34     0x14c4 .\CortexM0\ARM_GCC_541\Debug\os_core.o
                0x20000c34                OSTmrFreeList
                0x20000c38                OSTmrWheelTbl
                0x20000c70                OSLockNesting
                0x20000c74                OSTmrSemSignal
                0x20000c78                OSTaskRegNextAvailID
                0x20000c79                OSRunning
                0x20000c7c                OSIdleCtr
                0x20000c80                OSTmrUsed
                0x20000c82                OSPrioHighRdy
                0x20000c84                OSFlagTbl
                0x20000cd4                OSTmrTbl
                0x20000f54                OSPrioCur
                0x20000f58                OSTCBList
                0x20000f5c                OSMemTbl
                0x20000fd4                OSTickStepState
                0x20000fd8                OSTaskStatStk
                0x200011d8                OSCtxSwCtr
                0x200011dc                OSTmrFree
                0x200011e0                OSIdleCtrMax
                0x200011e4                OSTCBFreeList
                0x200011e8                OSCPUUsage
                0x200011e9                OSTaskCtr
                0x200011ec                OSMemFreeList
                0x200011f0                OSQTbl
                0x20001250                OSTCBHighRdy
                0x20001254                OSQFreeList
                0x20001258                OSRdyGrp
                0x2000125c                OSRdyTbl
                0x20001264                OSTmrTaskStk
                0x20001464                OSEventFreeList
                0x20001468                OSIntNesting
                0x2000146c                OSTCBCur
                0x20001470                OSTmrTime
                0x20001474                OSTime
                0x20001478                OSTmrSem
                0x2000147c                OSTaskIdleStk
                0x2000167c                OSEventTbl
                0x2000185c                OSTCBTbl
                0x20001fec                OSFlagFreeList
                0x20001ff0                OSStatRdy
                0x20001ff4                OSTCBPrioTbl
                0x200020f4                OSIdleCtrRun
 COMMON         0x200020f8        0x4 .\CortexM0\ARM_GCC_541\Debug\lib_math.o
                0x200020f8                Math_RandSeedCur
 COMMON         0x200020fc      0x818 .\CortexM0\ARM_GCC_541\Debug\lib_mem.o
                0x200020fc                Mem_SegHeap
                0x20002110                Mem_SegHeadPtr
                0x20002114                Mem_Heap
 COMMON         0x20002914        0x1 .\CortexM0\ARM_GCC_541\Debug\OS2.a(I2C_I2C.o)
                0x20002914                I2C_state
 *fill*         0x20002915        0x3 
 COMMON         0x20002918       0x24 .\CortexM0\ARM_GCC_541\Debug\OS2.a(I2C_I2C_MASTER.o)
                0x20002918                I2C_mstrWrBufIndexTmp
                0x2000291c                I2C_mstrWrBufIndex
                0x20002920                I2C_mstrWrBufSize
                0x20002924                I2C_mstrStatus
                0x20002928                I2C_mstrRdBufPtr
                0x2000292c                I2C_mstrControl
                0x20002930                I2C_mstrRdBufSize
                0x20002934                I2C_mstrRdBufIndex
                0x20002938                I2C_mstrWrBufPtr
 COMMON         0x2000293c        0x7 .\CortexM0\ARM_GCC_541\Debug\OS2.a(Temp_Sensor.o)
                0x2000293c                Temp_Sensor_lo
                0x2000293e                Temp_Sensor_contMode
                0x20002940                Temp_Sensor_hi
                0x20002942                Temp_Sensor_busyFlag
 *fill*         0x20002943        0x1 
 COMMON         0x20002944        0x6 .\CortexM0\ARM_GCC_541\Debug\OS2.a(ADC.o)
                0x20002944                ADC_countsPer10Volt
                0x20002948                ADC_offset
                0x20002950                . = ALIGN (0x8)
 *fill*         0x2000294a        0x6 
 *(.ram.b)
                0x20002950                _end = .
                0x20002950                __end = .
                0x20002950                PROVIDE (end, .)
                0x20002950                PROVIDE (__bss_end__, .)
                0x000137b8                __cy_region_init_ram = LOADADDR (.data)
                0x000000b0                __cy_region_init_size_ram = (_edata - ADDR (.data))
                0x000027d8                __cy_region_zero_size_ram = (_end - _edata)

.heap           0x20002950       0x80 load address 0x00013868
                0x20002950                . = _end
                0x200029d0                . = (. + 0x80)
 *fill*         0x20002950       0x80 
                0x200029d0                __cy_heap_limit = .

.stack          0x20003800      0x800
                0x20003800                __cy_stack_limit = .
                0x20004000                . = (. + 0x800)
 *fill*         0x20003800      0x800 
                0x00000001                ASSERT ((__cy_stack_limit >= __cy_heap_limit), region RAM overflowed with stack)
                0x00000000                cy_checksum_exclude_size = (CY_APPL_LOADABLE == 0x1)?SIZEOF (.cy_checksum_exclude):0x0
                0x00000001                ASSERT ((cy_checksum_exclude_size <= CY_CHECKSUM_EXCLUDE_SIZE), CY_BOOT: Section .cy_checksum_exclude size exceedes specified limit.)
                0x0001ffc0                cyloadermeta_start = (cy_project_type_bootloader || cy_project_type_app_for_stack_and_copier)?(LENGTH (rom) - CY_METADATA_SIZE):0xf0000000

.cyloadermeta
 *(.cyloadermeta)
                0x0001ffc0                cyloadablemeta_start = cy_project_type_app_for_stack_and_copier?((LENGTH (rom) - CY_FLASH_ROW_SIZE) - CY_METADATA_SIZE):((LENGTH (rom) - (CY_FLASH_ROW_SIZE * (CY_APPL_NUM - 0x1))) - CY_METADATA_SIZE)

.cyloadablemeta
 *(.cyloadablemeta)

.cyflashprotect
                0x90400000       0x80
 *(.cyflashprotect)
 .cyflashprotect
                0x90400000       0x80 .\CortexM0\ARM_GCC_541\Debug\cymetadata.o
                0x90400000                cy_meta_flashprotect

.cymeta         0x90500000        0xc
 *(.cymeta)
 .cymeta        0x90500000        0xc .\CortexM0\ARM_GCC_541\Debug\cymetadata.o
                0x90500000                cy_metadata

.cychipprotect  0x90600000        0x1
 *(.cychipprotect)
 .cychipprotect
                0x90600000        0x1 .\CortexM0\ARM_GCC_541\Debug\cymetadata.o
                0x90600000                cy_meta_chipprotect

.rel.dyn        0x00013868        0x0 load address 0x90600004
 .rel.iplt      0x00013868        0x0 c:/program files (x86)/cypress/psoc creator/4.2/psoc creator/import/gnu/arm/5.4.1/bin/../lib/gcc/arm-none-eabi/5.4.1/armv6-m/crtbegin.o

.stab
 *(.stab)

.stabstr
 *(.stabstr)

.debug
 *(.debug)

.line
 *(.line)

.debug_srcinfo
 *(.debug_srcinfo)

.debug_sfnames
 *(.debug_sfnames)

.debug_aranges  0x00000000     0x1960
 *(.debug_aranges)
 .debug_aranges
                0x00000000       0x40 .\CortexM0\ARM_GCC_541\Debug\app.o
 .debug_aranges
                0x00000040       0x58 .\CortexM0\ARM_GCC_541\Debug\app_hooks.o
 .debug_aranges
                0x00000098       0x40 .\CortexM0\ARM_GCC_541\Debug\bsp_os.o
 .debug_aranges
                0x000000d8       0x30 .\CortexM0\ARM_GCC_541\Debug\cpu_bsp.o
 .debug_aranges
                0x00000108       0x80 .\CortexM0\ARM_GCC_541\Debug\bsp.o
 .debug_aranges
                0x00000188       0x58 .\CortexM0\ARM_GCC_541\Debug\cpu_c.o
 .debug_aranges
                0x000001e0      0x100 .\CortexM0\ARM_GCC_541\Debug\cpu_core.o
 .debug_aranges
                0x000002e0       0x80 .\CortexM0\ARM_GCC_541\Debug\os_cpu_c.o
 .debug_aranges
                0x00000360      0x128 .\CortexM0\ARM_GCC_541\Debug\os_core.o
 .debug_aranges
                0x00000488       0x80 .\CortexM0\ARM_GCC_541\Debug\os_flag.o
 .debug_aranges
                0x00000508       0x58 .\CortexM0\ARM_GCC_541\Debug\os_mbox.o
 .debug_aranges
                0x00000560       0x50 .\CortexM0\ARM_GCC_541\Debug\os_mem.o
 .debug_aranges
                0x000005b0       0x50 .\CortexM0\ARM_GCC_541\Debug\os_mutex.o
 .debug_aranges
                0x00000600       0x70 .\CortexM0\ARM_GCC_541\Debug\os_q.o
 .debug_aranges
                0x00000670       0x58 .\CortexM0\ARM_GCC_541\Debug\os_sem.o
 .debug_aranges
                0x000006c8       0x98 .\CortexM0\ARM_GCC_541\Debug\os_task.o
 .debug_aranges
                0x00000760       0x40 .\CortexM0\ARM_GCC_541\Debug\os_time.o
 .debug_aranges
                0x000007a0       0x90 .\CortexM0\ARM_GCC_541\Debug\os_tmr.o
 .debug_aranges
                0x00000830       0x20 .\CortexM0\ARM_GCC_541\Debug\os_dbg_r.o
 .debug_aranges
                0x00000850       0x98 .\CortexM0\ARM_GCC_541\Debug\lib_ascii.o
 .debug_aranges
                0x000008e8       0x38 .\CortexM0\ARM_GCC_541\Debug\lib_math.o
 .debug_aranges
                0x00000920      0x100 .\CortexM0\ARM_GCC_541\Debug\lib_mem.o
 .debug_aranges
                0x00000a20       0xd8 .\CortexM0\ARM_GCC_541\Debug\lib_str.o
 .debug_aranges
                0x00000af8       0x58 .\CortexM0\ARM_GCC_541\Debug\cyfitter_cfg.o
 .debug_aranges
                0x00000b50       0x18 .\CortexM0\ARM_GCC_541\Debug\cymetadata.o
 .debug_aranges
                0x00000b68       0x48 .\CortexM0\ARM_GCC_541\Debug\Cm0Start.o
 .debug_aranges
                0x00000bb0       0x20 .\CortexM0\ARM_GCC_541\Debug\cpu_a.o
 .debug_aranges
                0x00000bd0       0x20 .\CortexM0\ARM_GCC_541\Debug\os_cpu_a.o
 .debug_aranges
                0x00000bf0      0x158 .\CortexM0\ARM_GCC_541\Debug\OS2.a(PWM_Blue.o)
 .debug_aranges
                0x00000d48      0x158 .\CortexM0\ARM_GCC_541\Debug\OS2.a(PWM_Green.o)
 .debug_aranges
                0x00000ea0      0x158 .\CortexM0\ARM_GCC_541\Debug\OS2.a(PWM_Red.o)
 .debug_aranges
                0x00000ff8       0x40 .\CortexM0\ARM_GCC_541\Debug\OS2.a(Accel_Pin.o)
 .debug_aranges
                0x00001038       0x68 .\CortexM0\ARM_GCC_541\Debug\OS2.a(I2C.o)
 .debug_aranges
                0x000010a0       0x28 .\CortexM0\ARM_GCC_541\Debug\OS2.a(I2C_I2C.o)
 .debug_aranges
                0x000010c8       0x88 .\CortexM0\ARM_GCC_541\Debug\OS2.a(I2C_I2C_MASTER.o)
 .debug_aranges
                0x00001150       0x40 .\CortexM0\ARM_GCC_541\Debug\OS2.a(SW2.o)
 .debug_aranges
                0x00001190       0x80 .\CortexM0\ARM_GCC_541\Debug\OS2.a(Accel_ISR.o)
 .debug_aranges
                0x00001210       0x60 .\CortexM0\ARM_GCC_541\Debug\OS2.a(Temp_Sensor.o)
 .debug_aranges
                0x00001270       0x20 .\CortexM0\ARM_GCC_541\Debug\OS2.a(Temp_Sensor_INT.o)
 .debug_aranges
                0x00001290       0x48 .\CortexM0\ARM_GCC_541\Debug\OS2.a(DMA.o)
 .debug_aranges
                0x000012d8       0x48 .\CortexM0\ARM_GCC_541\Debug\OS2.a(Opamp.o)
 .debug_aranges
                0x00001320       0xa8 .\CortexM0\ARM_GCC_541\Debug\OS2.a(ADC.o)
 .debug_aranges
                0x000013c8       0x20 .\CortexM0\ARM_GCC_541\Debug\OS2.a(ADC_INT.o)
 .debug_aranges
                0x000013e8       0x80 .\CortexM0\ARM_GCC_541\Debug\OS2.a(Temp_Sensor_EOC_ISR.o)
 .debug_aranges
                0x00001468      0x190 .\CortexM0\ARM_GCC_541\Debug\OS2.a(CyLib.o)
 .debug_aranges
                0x000015f8      0x198 .\CortexM0\ARM_GCC_541\Debug\OS2.a(CyDMA.o)
 .debug_aranges
                0x00001790      0x158 .\CortexM0\ARM_GCC_541\Debug\OS2.a(CyLFClk.o)
 .debug_aranges
                0x000018e8       0x20 .\CortexM0\ARM_GCC_541\Debug\OS2.a(CyBootAsmGnu.o)
 .debug_aranges
                0x00001908       0x20 .\CortexM0\ARM_GCC_541\Debug\OS2.a(I2C_I2C_INT.o)
 .debug_aranges
                0x00001928       0x38 .\CortexM0\ARM_GCC_541\Debug\OS2.a(CyFlash.o)

.debug_pubnames
 *(.debug_pubnames)

.debug_info     0x00000000    0x1080f
 *(.debug_info .gnu.linkonce.wi.*)
 .debug_info    0x00000000      0x2d7 .\CortexM0\ARM_GCC_541\Debug\app.o
 .debug_info    0x000002d7      0x456 .\CortexM0\ARM_GCC_541\Debug\app_hooks.o
 .debug_info    0x0000072d      0x2de .\CortexM0\ARM_GCC_541\Debug\bsp_os.o
 .debug_info    0x00000a0b      0x166 .\CortexM0\ARM_GCC_541\Debug\cpu_bsp.o
 .debug_info    0x00000b71      0x413 .\CortexM0\ARM_GCC_541\Debug\bsp.o
 .debug_info    0x00000f84      0x3e8 .\CortexM0\ARM_GCC_541\Debug\cpu_c.o
 .debug_info    0x0000136c      0x8b2 .\CortexM0\ARM_GCC_541\Debug\cpu_core.o
 .debug_info    0x00001c1e      0x5cc .\CortexM0\ARM_GCC_541\Debug\os_cpu_c.o
 .debug_info    0x000021ea     0x121d .\CortexM0\ARM_GCC_541\Debug\os_core.o
 .debug_info    0x00003407      0xa09 .\CortexM0\ARM_GCC_541\Debug\os_flag.o
 .debug_info    0x00003e10      0x6e9 .\CortexM0\ARM_GCC_541\Debug\os_mbox.o
 .debug_info    0x000044f9      0x44b .\CortexM0\ARM_GCC_541\Debug\os_mem.o
 .debug_info    0x00004944      0x76c .\CortexM0\ARM_GCC_541\Debug\os_mutex.o
 .debug_info    0x000050b0      0x91c .\CortexM0\ARM_GCC_541\Debug\os_q.o
 .debug_info    0x000059cc      0x6c3 .\CortexM0\ARM_GCC_541\Debug\os_sem.o
 .debug_info    0x0000608f      0xb24 .\CortexM0\ARM_GCC_541\Debug\os_task.o
 .debug_info    0x00006bb3      0x540 .\CortexM0\ARM_GCC_541\Debug\os_time.o
 .debug_info    0x000070f3      0x9cb .\CortexM0\ARM_GCC_541\Debug\os_tmr.o
 .debug_info    0x00007abe      0xc66 .\CortexM0\ARM_GCC_541\Debug\os_dbg_r.o
 .debug_info    0x00008724      0x421 .\CortexM0\ARM_GCC_541\Debug\lib_ascii.o
 .debug_info    0x00008b45      0x166 .\CortexM0\ARM_GCC_541\Debug\lib_math.o
 .debug_info    0x00008cab     0x129b .\CortexM0\ARM_GCC_541\Debug\lib_mem.o
 .debug_info    0x00009f46      0xd56 .\CortexM0\ARM_GCC_541\Debug\lib_str.o
 .debug_info    0x0000ac9c      0x3a1 .\CortexM0\ARM_GCC_541\Debug\cyfitter_cfg.o
 .debug_info    0x0000b03d       0xf8 .\CortexM0\ARM_GCC_541\Debug\cymetadata.o
 .debug_info    0x0000b135      0x30a .\CortexM0\ARM_GCC_541\Debug\Cm0Start.o
 .debug_info    0x0000b43f       0xbe .\CortexM0\ARM_GCC_541\Debug\cpu_a.o
 .debug_info    0x0000b4fd       0xd0 .\CortexM0\ARM_GCC_541\Debug\os_cpu_a.o
 .debug_info    0x0000b5cd      0x6f7 .\CortexM0\ARM_GCC_541\Debug\OS2.a(PWM_Blue.o)
 .debug_info    0x0000bcc4      0x6f7 .\CortexM0\ARM_GCC_541\Debug\OS2.a(PWM_Green.o)
 .debug_info    0x0000c3bb      0x6f7 .\CortexM0\ARM_GCC_541\Debug\OS2.a(PWM_Red.o)
 .debug_info    0x0000cab2      0x14c .\CortexM0\ARM_GCC_541\Debug\OS2.a(Accel_Pin.o)
 .debug_info    0x0000cbfe      0x1e9 .\CortexM0\ARM_GCC_541\Debug\OS2.a(I2C.o)
 .debug_info    0x0000cde7      0x120 .\CortexM0\ARM_GCC_541\Debug\OS2.a(I2C_I2C.o)
 .debug_info    0x0000cf07      0x46d .\CortexM0\ARM_GCC_541\Debug\OS2.a(I2C_I2C_MASTER.o)
 .debug_info    0x0000d374      0x14c .\CortexM0\ARM_GCC_541\Debug\OS2.a(SW2.o)
 .debug_info    0x0000d4c0      0x24b .\CortexM0\ARM_GCC_541\Debug\OS2.a(Accel_ISR.o)
 .debug_info    0x0000d70b      0x2b1 .\CortexM0\ARM_GCC_541\Debug\OS2.a(Temp_Sensor.o)
 .debug_info    0x0000d9bc      0x13f .\CortexM0\ARM_GCC_541\Debug\OS2.a(Temp_Sensor_INT.o)
 .debug_info    0x0000dafb      0x24b .\CortexM0\ARM_GCC_541\Debug\OS2.a(DMA.o)
 .debug_info    0x0000dd46      0x164 .\CortexM0\ARM_GCC_541\Debug\OS2.a(Opamp.o)
 .debug_info    0x0000deaa      0x48a .\CortexM0\ARM_GCC_541\Debug\OS2.a(ADC.o)
 .debug_info    0x0000e334       0xcb .\CortexM0\ARM_GCC_541\Debug\OS2.a(ADC_INT.o)
 .debug_info    0x0000e3ff      0x24b .\CortexM0\ARM_GCC_541\Debug\OS2.a(Temp_Sensor_EOC_ISR.o)
 .debug_info    0x0000e64a      0x91f .\CortexM0\ARM_GCC_541\Debug\OS2.a(CyLib.o)
 .debug_info    0x0000ef69      0xc47 .\CortexM0\ARM_GCC_541\Debug\OS2.a(CyDMA.o)
 .debug_info    0x0000fbb0      0x848 .\CortexM0\ARM_GCC_541\Debug\OS2.a(CyLFClk.o)
 .debug_info    0x000103f8       0xa8 .\CortexM0\ARM_GCC_541\Debug\OS2.a(CyBootAsmGnu.o)
 .debug_info    0x000104a0      0x18f .\CortexM0\ARM_GCC_541\Debug\OS2.a(I2C_I2C_INT.o)
 .debug_info    0x0001062f      0x1e0 .\CortexM0\ARM_GCC_541\Debug\OS2.a(CyFlash.o)

.debug_abbrev   0x00000000     0x3aa4
 *(.debug_abbrev)
 .debug_abbrev  0x00000000      0x120 .\CortexM0\ARM_GCC_541\Debug\app.o
 .debug_abbrev  0x00000120       0xc5 .\CortexM0\ARM_GCC_541\Debug\app_hooks.o
 .debug_abbrev  0x000001e5      0x10e .\CortexM0\ARM_GCC_541\Debug\bsp_os.o
 .debug_abbrev  0x000002f3       0xbb .\CortexM0\ARM_GCC_541\Debug\cpu_bsp.o
 .debug_abbrev  0x000003ae      0x157 .\CortexM0\ARM_GCC_541\Debug\bsp.o
 .debug_abbrev  0x00000505      0x147 .\CortexM0\ARM_GCC_541\Debug\cpu_c.o
 .debug_abbrev  0x0000064c      0x20a .\CortexM0\ARM_GCC_541\Debug\cpu_core.o
 .debug_abbrev  0x00000856      0x1a2 .\CortexM0\ARM_GCC_541\Debug\os_cpu_c.o
 .debug_abbrev  0x000009f8      0x25f .\CortexM0\ARM_GCC_541\Debug\os_core.o
 .debug_abbrev  0x00000c57      0x18d .\CortexM0\ARM_GCC_541\Debug\os_flag.o
 .debug_abbrev  0x00000de4      0x136 .\CortexM0\ARM_GCC_541\Debug\os_mbox.o
 .debug_abbrev  0x00000f1a      0x141 .\CortexM0\ARM_GCC_541\Debug\os_mem.o
 .debug_abbrev  0x0000105b      0x168 .\CortexM0\ARM_GCC_541\Debug\os_mutex.o
 .debug_abbrev  0x000011c3      0x15f .\CortexM0\ARM_GCC_541\Debug\os_q.o
 .debug_abbrev  0x00001322      0x15f .\CortexM0\ARM_GCC_541\Debug\os_sem.o
 .debug_abbrev  0x00001481      0x192 .\CortexM0\ARM_GCC_541\Debug\os_task.o
 .debug_abbrev  0x00001613      0x11d .\CortexM0\ARM_GCC_541\Debug\os_time.o
 .debug_abbrev  0x00001730      0x1aa .\CortexM0\ARM_GCC_541\Debug\os_tmr.o
 .debug_abbrev  0x000018da       0xf2 .\CortexM0\ARM_GCC_541\Debug\os_dbg_r.o
 .debug_abbrev  0x000019cc       0xd4 .\CortexM0\ARM_GCC_541\Debug\lib_ascii.o
 .debug_abbrev  0x00001aa0       0xfb .\CortexM0\ARM_GCC_541\Debug\lib_math.o
 .debug_abbrev  0x00001b9b      0x202 .\CortexM0\ARM_GCC_541\Debug\lib_mem.o
 .debug_abbrev  0x00001d9d      0x130 .\CortexM0\ARM_GCC_541\Debug\lib_str.o
 .debug_abbrev  0x00001ecd      0x1b3 .\CortexM0\ARM_GCC_541\Debug\cyfitter_cfg.o
 .debug_abbrev  0x00002080       0x5d .\CortexM0\ARM_GCC_541\Debug\cymetadata.o
 .debug_abbrev  0x000020dd      0x1c8 .\CortexM0\ARM_GCC_541\Debug\Cm0Start.o
 .debug_abbrev  0x000022a5       0x14 .\CortexM0\ARM_GCC_541\Debug\cpu_a.o
 .debug_abbrev  0x000022b9       0x14 .\CortexM0\ARM_GCC_541\Debug\os_cpu_a.o
 .debug_abbrev  0x000022cd      0x109 .\CortexM0\ARM_GCC_541\Debug\OS2.a(PWM_Blue.o)
 .debug_abbrev  0x000023d6      0x109 .\CortexM0\ARM_GCC_541\Debug\OS2.a(PWM_Green.o)
 .debug_abbrev  0x000024df      0x109 .\CortexM0\ARM_GCC_541\Debug\OS2.a(PWM_Red.o)
 .debug_abbrev  0x000025e8       0xb7 .\CortexM0\ARM_GCC_541\Debug\OS2.a(Accel_Pin.o)
 .debug_abbrev  0x0000269f       0xe8 .\CortexM0\ARM_GCC_541\Debug\OS2.a(I2C.o)
 .debug_abbrev  0x00002787       0x9d .\CortexM0\ARM_GCC_541\Debug\OS2.a(I2C_I2C.o)
 .debug_abbrev  0x00002824      0x170 .\CortexM0\ARM_GCC_541\Debug\OS2.a(I2C_I2C_MASTER.o)
 .debug_abbrev  0x00002994       0xb7 .\CortexM0\ARM_GCC_541\Debug\OS2.a(SW2.o)
 .debug_abbrev  0x00002a4b      0x177 .\CortexM0\ARM_GCC_541\Debug\OS2.a(Accel_ISR.o)
 .debug_abbrev  0x00002bc2      0x160 .\CortexM0\ARM_GCC_541\Debug\OS2.a(Temp_Sensor.o)
 .debug_abbrev  0x00002d22       0x97 .\CortexM0\ARM_GCC_541\Debug\OS2.a(Temp_Sensor_INT.o)
 .debug_abbrev  0x00002db9      0x117 .\CortexM0\ARM_GCC_541\Debug\OS2.a(DMA.o)
 .debug_abbrev  0x00002ed0       0xd3 .\CortexM0\ARM_GCC_541\Debug\OS2.a(Opamp.o)
 .debug_abbrev  0x00002fa3      0x170 .\CortexM0\ARM_GCC_541\Debug\OS2.a(ADC.o)
 .debug_abbrev  0x00003113       0x72 .\CortexM0\ARM_GCC_541\Debug\OS2.a(ADC_INT.o)
 .debug_abbrev  0x00003185      0x177 .\CortexM0\ARM_GCC_541\Debug\OS2.a(Temp_Sensor_EOC_ISR.o)
 .debug_abbrev  0x000032fc      0x200 .\CortexM0\ARM_GCC_541\Debug\OS2.a(CyLib.o)
 .debug_abbrev  0x000034fc      0x1d7 .\CortexM0\ARM_GCC_541\Debug\OS2.a(CyDMA.o)
 .debug_abbrev  0x000036d3      0x226 .\CortexM0\ARM_GCC_541\Debug\OS2.a(CyLFClk.o)
 .debug_abbrev  0x000038f9       0x14 .\CortexM0\ARM_GCC_541\Debug\OS2.a(CyBootAsmGnu.o)
 .debug_abbrev  0x0000390d       0x95 .\CortexM0\ARM_GCC_541\Debug\OS2.a(I2C_I2C_INT.o)
 .debug_abbrev  0x000039a2      0x102 .\CortexM0\ARM_GCC_541\Debug\OS2.a(CyFlash.o)

.debug_line     0x00000000     0x7392
 *(.debug_line)
 .debug_line    0x00000000      0x1a6 .\CortexM0\ARM_GCC_541\Debug\app.o
 .debug_line    0x000001a6      0x140 .\CortexM0\ARM_GCC_541\Debug\app_hooks.o
 .debug_line    0x000002e6      0x185 .\CortexM0\ARM_GCC_541\Debug\bsp_os.o
 .debug_line    0x0000046b       0xe1 .\CortexM0\ARM_GCC_541\Debug\cpu_bsp.o
 .debug_line    0x0000054c      0x23c .\CortexM0\ARM_GCC_541\Debug\bsp.o
 .debug_line    0x00000788      0x1c5 .\CortexM0\ARM_GCC_541\Debug\cpu_c.o
 .debug_line    0x0000094d      0x3ab .\CortexM0\ARM_GCC_541\Debug\cpu_core.o
 .debug_line    0x00000cf8      0x1c3 .\CortexM0\ARM_GCC_541\Debug\os_cpu_c.o
 .debug_line    0x00000ebb      0x5e1 .\CortexM0\ARM_GCC_541\Debug\os_core.o
 .debug_line    0x0000149c      0x35a .\CortexM0\ARM_GCC_541\Debug\os_flag.o
 .debug_line    0x000017f6      0x219 .\CortexM0\ARM_GCC_541\Debug\os_mbox.o
 .debug_line    0x00001a0f      0x1d6 .\CortexM0\ARM_GCC_541\Debug\os_mem.o
 .debug_line    0x00001be5      0x267 .\CortexM0\ARM_GCC_541\Debug\os_mutex.o
 .debug_line    0x00001e4c      0x2c4 .\CortexM0\ARM_GCC_541\Debug\os_q.o
 .debug_line    0x00002110      0x20a .\CortexM0\ARM_GCC_541\Debug\os_sem.o
 .debug_line    0x0000231a      0x363 .\CortexM0\ARM_GCC_541\Debug\os_task.o
 .debug_line    0x0000267d      0x151 .\CortexM0\ARM_GCC_541\Debug\os_time.o
 .debug_line    0x000027ce      0x325 .\CortexM0\ARM_GCC_541\Debug\os_tmr.o
 .debug_line    0x00002af3       0xfb .\CortexM0\ARM_GCC_541\Debug\os_dbg_r.o
 .debug_line    0x00002bee      0x41f .\CortexM0\ARM_GCC_541\Debug\lib_ascii.o
 .debug_line    0x0000300d       0xea .\CortexM0\ARM_GCC_541\Debug\lib_math.o
 .debug_line    0x000030f7      0x5a9 .\CortexM0\ARM_GCC_541\Debug\lib_mem.o
 .debug_line    0x000036a0      0x52e .\CortexM0\ARM_GCC_541\Debug\lib_str.o
 .debug_line    0x00003bce      0x1d7 .\CortexM0\ARM_GCC_541\Debug\cyfitter_cfg.o
 .debug_line    0x00003da5      0x141 .\CortexM0\ARM_GCC_541\Debug\cymetadata.o
 .debug_line    0x00003ee6      0x1c8 .\CortexM0\ARM_GCC_541\Debug\Cm0Start.o
 .debug_line    0x000040ae       0x7e .\CortexM0\ARM_GCC_541\Debug\cpu_a.o
 .debug_line    0x0000412c       0xdc .\CortexM0\ARM_GCC_541\Debug\os_cpu_a.o
 .debug_line    0x00004208      0x373 .\CortexM0\ARM_GCC_541\Debug\OS2.a(PWM_Blue.o)
 .debug_line    0x0000457b      0x374 .\CortexM0\ARM_GCC_541\Debug\OS2.a(PWM_Green.o)
 .debug_line    0x000048ef      0x372 .\CortexM0\ARM_GCC_541\Debug\OS2.a(PWM_Red.o)
 .debug_line    0x00004c61       0xad .\CortexM0\ARM_GCC_541\Debug\OS2.a(Accel_Pin.o)
 .debug_line    0x00004d0e      0x11c .\CortexM0\ARM_GCC_541\Debug\OS2.a(I2C.o)
 .debug_line    0x00004e2a       0x9a .\CortexM0\ARM_GCC_541\Debug\OS2.a(I2C_I2C.o)
 .debug_line    0x00004ec4      0x2a0 .\CortexM0\ARM_GCC_541\Debug\OS2.a(I2C_I2C_MASTER.o)
 .debug_line    0x00005164       0xa7 .\CortexM0\ARM_GCC_541\Debug\OS2.a(SW2.o)
 .debug_line    0x0000520b      0x158 .\CortexM0\ARM_GCC_541\Debug\OS2.a(Accel_ISR.o)
 .debug_line    0x00005363      0x133 .\CortexM0\ARM_GCC_541\Debug\OS2.a(Temp_Sensor.o)
 .debug_line    0x00005496       0xb4 .\CortexM0\ARM_GCC_541\Debug\OS2.a(Temp_Sensor_INT.o)
 .debug_line    0x0000554a       0xd6 .\CortexM0\ARM_GCC_541\Debug\OS2.a(DMA.o)
 .debug_line    0x00005620       0xc2 .\CortexM0\ARM_GCC_541\Debug\OS2.a(Opamp.o)
 .debug_line    0x000056e2      0x293 .\CortexM0\ARM_GCC_541\Debug\OS2.a(ADC.o)
 .debug_line    0x00005975       0x62 .\CortexM0\ARM_GCC_541\Debug\OS2.a(ADC_INT.o)
 .debug_line    0x000059d7      0x152 .\CortexM0\ARM_GCC_541\Debug\OS2.a(Temp_Sensor_EOC_ISR.o)
 .debug_line    0x00005b29      0x497 .\CortexM0\ARM_GCC_541\Debug\OS2.a(CyLib.o)
 .debug_line    0x00005fc0      0xafd .\CortexM0\ARM_GCC_541\Debug\OS2.a(CyDMA.o)
 .debug_line    0x00006abd      0x5bb .\CortexM0\ARM_GCC_541\Debug\OS2.a(CyLFClk.o)
 .debug_line    0x00007078       0x66 .\CortexM0\ARM_GCC_541\Debug\OS2.a(CyBootAsmGnu.o)
 .debug_line    0x000070de      0x1a9 .\CortexM0\ARM_GCC_541\Debug\OS2.a(I2C_I2C_INT.o)
 .debug_line    0x00007287      0x10b .\CortexM0\ARM_GCC_541\Debug\OS2.a(CyFlash.o)

.debug_frame    0x00000000     0x5854
 *(.debug_frame)
 .debug_frame   0x00000000       0xb4 .\CortexM0\ARM_GCC_541\Debug\app.o
 .debug_frame   0x000000b4      0x100 .\CortexM0\ARM_GCC_541\Debug\app_hooks.o
 .debug_frame   0x000001b4       0xb4 .\CortexM0\ARM_GCC_541\Debug\bsp_os.o
 .debug_frame   0x00000268       0x78 .\CortexM0\ARM_GCC_541\Debug\cpu_bsp.o
 .debug_frame   0x000002e0      0x1b0 .\CortexM0\ARM_GCC_541\Debug\bsp.o
 .debug_frame   0x00000490      0x110 .\CortexM0\ARM_GCC_541\Debug\cpu_c.o
 .debug_frame   0x000005a0      0x3a4 .\CortexM0\ARM_GCC_541\Debug\cpu_core.o
 .debug_frame   0x00000944      0x19c .\CortexM0\ARM_GCC_541\Debug\os_cpu_c.o
 .debug_frame   0x00000ae0      0x440 .\CortexM0\ARM_GCC_541\Debug\os_core.o
 .debug_frame   0x00000f20      0x1bc .\CortexM0\ARM_GCC_541\Debug\os_flag.o
 .debug_frame   0x000010dc      0x110 .\CortexM0\ARM_GCC_541\Debug\os_mbox.o
 .debug_frame   0x000011ec       0xf4 .\CortexM0\ARM_GCC_541\Debug\os_mem.o
 .debug_frame   0x000012e0       0xf4 .\CortexM0\ARM_GCC_541\Debug\os_mutex.o
 .debug_frame   0x000013d4      0x170 .\CortexM0\ARM_GCC_541\Debug\os_q.o
 .debug_frame   0x00001544      0x110 .\CortexM0\ARM_GCC_541\Debug\os_sem.o
 .debug_frame   0x00001654      0x21c .\CortexM0\ARM_GCC_541\Debug\os_task.o
 .debug_frame   0x00001870       0xb8 .\CortexM0\ARM_GCC_541\Debug\os_time.o
 .debug_frame   0x00001928      0x1f8 .\CortexM0\ARM_GCC_541\Debug\os_tmr.o
 .debug_frame   0x00001b20       0x30 .\CortexM0\ARM_GCC_541\Debug\os_dbg_r.o
 .debug_frame   0x00001b50      0x214 .\CortexM0\ARM_GCC_541\Debug\lib_ascii.o
 .debug_frame   0x00001d64       0x8c .\CortexM0\ARM_GCC_541\Debug\lib_math.o
 .debug_frame   0x00001df0      0x3e4 .\CortexM0\ARM_GCC_541\Debug\lib_mem.o
 .debug_frame   0x000021d4      0x334 .\CortexM0\ARM_GCC_541\Debug\lib_str.o
 .debug_frame   0x00002508      0x108 .\CortexM0\ARM_GCC_541\Debug\cyfitter_cfg.o
 .debug_frame   0x00002610       0xc8 .\CortexM0\ARM_GCC_541\Debug\Cm0Start.o
 .debug_frame   0x000026d8      0x52c .\CortexM0\ARM_GCC_541\Debug\OS2.a(PWM_Blue.o)
 .debug_frame   0x00002c04      0x52c .\CortexM0\ARM_GCC_541\Debug\OS2.a(PWM_Green.o)
 .debug_frame   0x00003130      0x52c .\CortexM0\ARM_GCC_541\Debug\OS2.a(PWM_Red.o)
 .debug_frame   0x0000365c       0xa8 .\CortexM0\ARM_GCC_541\Debug\OS2.a(Accel_Pin.o)
 .debug_frame   0x00003704      0x134 .\CortexM0\ARM_GCC_541\Debug\OS2.a(I2C.o)
 .debug_frame   0x00003838       0x48 .\CortexM0\ARM_GCC_541\Debug\OS2.a(I2C_I2C.o)
 .debug_frame   0x00003880      0x1c0 .\CortexM0\ARM_GCC_541\Debug\OS2.a(I2C_I2C_MASTER.o)
 .debug_frame   0x00003a40       0xa8 .\CortexM0\ARM_GCC_541\Debug\OS2.a(SW2.o)
 .debug_frame   0x00003ae8      0x190 .\CortexM0\ARM_GCC_541\Debug\OS2.a(Accel_ISR.o)
 .debug_frame   0x00003c78      0x134 .\CortexM0\ARM_GCC_541\Debug\OS2.a(Temp_Sensor.o)
 .debug_frame   0x00003dac       0x34 .\CortexM0\ARM_GCC_541\Debug\OS2.a(Temp_Sensor_INT.o)
 .debug_frame   0x00003de0       0xc8 .\CortexM0\ARM_GCC_541\Debug\OS2.a(DMA.o)
 .debug_frame   0x00003ea8       0xc0 .\CortexM0\ARM_GCC_541\Debug\OS2.a(Opamp.o)
 .debug_frame   0x00003f68      0x248 .\CortexM0\ARM_GCC_541\Debug\OS2.a(ADC.o)
 .debug_frame   0x000041b0       0x30 .\CortexM0\ARM_GCC_541\Debug\OS2.a(ADC_INT.o)
 .debug_frame   0x000041e0      0x190 .\CortexM0\ARM_GCC_541\Debug\OS2.a(Temp_Sensor_EOC_ISR.o)
 .debug_frame   0x00004370      0x5c0 .\CortexM0\ARM_GCC_541\Debug\OS2.a(CyLib.o)
 .debug_frame   0x00004930      0x5e8 .\CortexM0\ARM_GCC_541\Debug\OS2.a(CyDMA.o)
 .debug_frame   0x00004f18      0x500 .\CortexM0\ARM_GCC_541\Debug\OS2.a(CyLFClk.o)
 .debug_frame   0x00005418       0x30 .\CortexM0\ARM_GCC_541\Debug\OS2.a(I2C_I2C_INT.o)
 .debug_frame   0x00005448       0x98 .\CortexM0\ARM_GCC_541\Debug\OS2.a(CyFlash.o)
 .debug_frame   0x000054e0       0x20 c:/program files (x86)/cypress/psoc creator/4.2/psoc creator/import/gnu/arm/5.4.1/bin/../lib/gcc/arm-none-eabi/5.4.1/armv6-m\libgcc.a(_udivsi3.o)
 .debug_frame   0x00005500       0x20 c:/program files (x86)/cypress/psoc creator/4.2/psoc creator/import/gnu/arm/5.4.1/bin/../lib/gcc/arm-none-eabi/5.4.1/armv6-m\libgcc.a(_divsi3.o)
 .debug_frame   0x00005520       0x34 c:/program files (x86)/cypress/psoc creator/4.2/psoc creator/import/gnu/arm/5.4.1/bin/../lib/gcc/arm-none-eabi/5.4.1/armv6-m\libgcc.a(_muldi3.o)
 .debug_frame   0x00005554       0x3c c:/program files (x86)/cypress/psoc creator/4.2/psoc creator/import/gnu/arm/5.4.1/bin/../lib/gcc/arm-none-eabi/5.4.1/armv6-m\libgcc.a(_udivmoddi4.o)
 .debug_frame   0x00005590       0x30 c:/program files (x86)/cypress/psoc creator/4.2/psoc creator/import/gnu/arm/5.4.1/bin/../lib/gcc/arm-none-eabi/5.4.1/armv6-m\libgcc.a(bpabi.o)
 .debug_frame   0x000055c0       0x3c c:/program files (x86)/cypress/psoc creator/4.2/psoc creator/import/gnu/arm/5.4.1/bin/../lib/gcc/arm-none-eabi/5.4.1/armv6-m\libgcc.a(divsf3.o)
 .debug_frame   0x000055fc       0x38 c:/program files (x86)/cypress/psoc creator/4.2/psoc creator/import/gnu/arm/5.4.1/bin/../lib/gcc/arm-none-eabi/5.4.1/armv6-m\libgcc.a(mulsf3.o)
 .debug_frame   0x00005634       0x2c c:/program files (x86)/cypress/psoc creator/4.2/psoc creator/import/gnu/arm/5.4.1/bin/../lib/gcc/arm-none-eabi/5.4.1/armv6-m\libgcc.a(floatsisf.o)
 .debug_frame   0x00005660       0x2c c:/program files (x86)/cypress/psoc creator/4.2/psoc creator/import/gnu/arm/5.4.1/bin/../lib/gcc/arm-none-eabi/5.4.1/armv6-m\libgcc.a(floatunsisf.o)
 .debug_frame   0x0000568c       0x3c c:/program files (x86)/cypress/psoc creator/4.2/psoc creator/import/gnu/arm/5.4.1/bin/../lib/gcc/arm-none-eabi/5.4.1/armv6-m\libgcc.a(adddf3.o)
 .debug_frame   0x000056c8       0x3c c:/program files (x86)/cypress/psoc creator/4.2/psoc creator/import/gnu/arm/5.4.1/bin/../lib/gcc/arm-none-eabi/5.4.1/armv6-m\libgcc.a(muldf3.o)
 .debug_frame   0x00005704       0x2c c:/program files (x86)/cypress/psoc creator/4.2/psoc creator/import/gnu/arm/5.4.1/bin/../lib/gcc/arm-none-eabi/5.4.1/armv6-m\libgcc.a(extendsfdf2.o)
 .debug_frame   0x00005730       0x2c c:/program files (x86)/cypress/psoc creator/4.2/psoc creator/import/gnu/arm/5.4.1/bin/../lib/gcc/arm-none-eabi/5.4.1/armv6-m\libgcc.a(truncdfsf2.o)
 .debug_frame   0x0000575c       0x3c c:/program files (x86)/cypress/psoc creator/4.2/psoc creator/import/gnu/arm/5.4.1/bin/../lib/gcc/arm-none-eabi/5.4.1/armv6-m\libgcc.a(_divdi3.o)
 .debug_frame   0x00005798       0x20 c:/program files (x86)/cypress/psoc creator/4.2/psoc creator/import/gnu/arm/5.4.1/bin/../lib/gcc/arm-none-eabi/5.4.1/../../../../arm-none-eabi/lib/armv6-m\libg_nano.a(lib_a-errno.o)
 .debug_frame   0x000057b8       0x28 c:/program files (x86)/cypress/psoc creator/4.2/psoc creator/import/gnu/arm/5.4.1/bin/../lib/gcc/arm-none-eabi/5.4.1/../../../../arm-none-eabi/lib/armv6-m\libg_nano.a(lib_a-exit.o)
 .debug_frame   0x000057e0       0x2c c:/program files (x86)/cypress/psoc creator/4.2/psoc creator/import/gnu/arm/5.4.1/bin/../lib/gcc/arm-none-eabi/5.4.1/../../../../arm-none-eabi/lib/armv6-m\libg_nano.a(lib_a-init.o)
 .debug_frame   0x0000580c       0x28 c:/program files (x86)/cypress/psoc creator/4.2/psoc creator/import/gnu/arm/5.4.1/bin/../lib/gcc/arm-none-eabi/5.4.1/../../../../arm-none-eabi/lib/armv6-m\libg_nano.a(lib_a-memcpy-stub.o)
 .debug_frame   0x00005834       0x20 c:/program files (x86)/cypress/psoc creator/4.2/psoc creator/import/gnu/arm/5.4.1/bin/../lib/gcc/arm-none-eabi/5.4.1/../../../../arm-none-eabi/lib/armv6-m\libg_nano.a(lib_a-memset.o)

.debug_str      0x00000000     0x5c54
 *(.debug_str)
 .debug_str     0x00000000      0x319 .\CortexM0\ARM_GCC_541\Debug\app.o
                                0x35e (size before relaxing)
 .debug_str     0x00000319      0x2e9 .\CortexM0\ARM_GCC_541\Debug\app_hooks.o
                                0x497 (size before relaxing)
 .debug_str     0x00000602       0xdb .\CortexM0\ARM_GCC_541\Debug\bsp_os.o
                                0x30d (size before relaxing)
 .debug_str     0x000006dd       0xa1 .\CortexM0\ARM_GCC_541\Debug\cpu_bsp.o
                                0x23f (size before relaxing)
 .debug_str     0x0000077e      0x1f9 .\CortexM0\ARM_GCC_541\Debug\bsp.o
                                0x3eb (size before relaxing)
 .debug_str     0x00000977      0x116 .\CortexM0\ARM_GCC_541\Debug\cpu_c.o
                                0x2ba (size before relaxing)
 .debug_str     0x00000a8d      0x406 .\CortexM0\ARM_GCC_541\Debug\cpu_core.o
                                0x5f1 (size before relaxing)
 .debug_str     0x00000e93      0x16c .\CortexM0\ARM_GCC_541\Debug\os_cpu_c.o
                                0x585 (size before relaxing)
 .debug_str     0x00000fff      0x68f .\CortexM0\ARM_GCC_541\Debug\os_core.o
                                0xace (size before relaxing)
 .debug_str     0x0000168e      0x15b .\CortexM0\ARM_GCC_541\Debug\os_flag.o
                                0x63a (size before relaxing)
 .debug_str     0x000017e9       0xdc .\CortexM0\ARM_GCC_541\Debug\os_mbox.o
                                0x553 (size before relaxing)
 .debug_str     0x000018c5       0xfc .\CortexM0\ARM_GCC_541\Debug\os_mem.o
                                0x32d (size before relaxing)
 .debug_str     0x000019c1       0xe1 .\CortexM0\ARM_GCC_541\Debug\os_mutex.o
                                0x59c (size before relaxing)
 .debug_str     0x00001aa2       0xc1 .\CortexM0\ARM_GCC_541\Debug\os_q.o
                                0x5bd (size before relaxing)
 .debug_str     0x00001b63       0xb4 .\CortexM0\ARM_GCC_541\Debug\os_sem.o
                                0x53e (size before relaxing)
 .debug_str     0x00001c17      0x169 .\CortexM0\ARM_GCC_541\Debug\os_task.o
                                0x693 (size before relaxing)
 .debug_str     0x00001d80       0x7e .\CortexM0\ARM_GCC_541\Debug\os_time.o
                                0x4e9 (size before relaxing)
 .debug_str     0x00001dfe      0x133 .\CortexM0\ARM_GCC_541\Debug\os_tmr.o
                                0x6a3 (size before relaxing)
 .debug_str     0x00001f31      0x31c .\CortexM0\ARM_GCC_541\Debug\os_dbg_r.o
                                0xa9a (size before relaxing)
 .debug_str     0x0000224d      0x160 .\CortexM0\ARM_GCC_541\Debug\lib_ascii.o
                                0x2f0 (size before relaxing)
 .debug_str     0x000023ad       0x88 .\CortexM0\ARM_GCC_541\Debug\lib_math.o
                                0x204 (size before relaxing)
 .debug_str     0x00002435      0x869 .\CortexM0\ARM_GCC_541\Debug\lib_mem.o
                                0xa93 (size before relaxing)
 .debug_str     0x00002c9e      0x482 .\CortexM0\ARM_GCC_541\Debug\lib_str.o
                                0x679 (size before relaxing)
 .debug_str     0x00003120      0x123 .\CortexM0\ARM_GCC_541\Debug\cyfitter_cfg.o
                                0x305 (size before relaxing)
 .debug_str     0x00003243       0x63 .\CortexM0\ARM_GCC_541\Debug\cymetadata.o
                                0x1e0 (size before relaxing)
 .debug_str     0x000032a6      0x114 .\CortexM0\ARM_GCC_541\Debug\Cm0Start.o
                                0x2e6 (size before relaxing)
 .debug_str     0x000033ba      0x462 .\CortexM0\ARM_GCC_541\Debug\OS2.a(PWM_Blue.o)
                                0x61a (size before relaxing)
 .debug_str     0x0000381c      0x3cf .\CortexM0\ARM_GCC_541\Debug\OS2.a(PWM_Green.o)
                                0x644 (size before relaxing)
 .debug_str     0x00003beb      0x37b .\CortexM0\ARM_GCC_541\Debug\OS2.a(PWM_Red.o)
                                0x5f0 (size before relaxing)
 .debug_str     0x00003f66       0x9b .\CortexM0\ARM_GCC_541\Debug\OS2.a(Accel_Pin.o)
                                0x237 (size before relaxing)
 .debug_str     0x00004001      0x103 .\CortexM0\ARM_GCC_541\Debug\OS2.a(I2C.o)
                                0x2a9 (size before relaxing)
 .debug_str     0x00004104       0x78 .\CortexM0\ARM_GCC_541\Debug\OS2.a(I2C_I2C.o)
                                0x225 (size before relaxing)
 .debug_str     0x0000417c      0x22a .\CortexM0\ARM_GCC_541\Debug\OS2.a(I2C_I2C_MASTER.o)
                                0x422 (size before relaxing)
 .debug_str     0x000043a6       0x64 .\CortexM0\ARM_GCC_541\Debug\OS2.a(SW2.o)
                                0x213 (size before relaxing)
 .debug_str     0x0000440a      0x145 .\CortexM0\ARM_GCC_541\Debug\OS2.a(Accel_ISR.o)
                                0x30d (size before relaxing)
 .debug_str     0x0000454f      0x180 .\CortexM0\ARM_GCC_541\Debug\OS2.a(Temp_Sensor.o)
                                0x34d (size before relaxing)
 .debug_str     0x000046cf       0x4a .\CortexM0\ARM_GCC_541\Debug\OS2.a(Temp_Sensor_INT.o)
                                0x24e (size before relaxing)
 .debug_str     0x00004719       0xf2 .\CortexM0\ARM_GCC_541\Debug\OS2.a(DMA.o)
                                0x293 (size before relaxing)
 .debug_str     0x0000480b       0x9d .\CortexM0\ARM_GCC_541\Debug\OS2.a(Opamp.o)
                                0x22e (size before relaxing)
 .debug_str     0x000048a8      0x1ca .\CortexM0\ARM_GCC_541\Debug\OS2.a(ADC.o)
                                0x3ab (size before relaxing)
 .debug_str     0x00004a72       0x35 .\CortexM0\ARM_GCC_541\Debug\OS2.a(ADC_INT.o)
                                0x1d5 (size before relaxing)
 .debug_str     0x00004aa7      0x1aa .\CortexM0\ARM_GCC_541\Debug\OS2.a(Temp_Sensor_EOC_ISR.o)
                                0x399 (size before relaxing)
 .debug_str     0x00004c51      0x4a3 .\CortexM0\ARM_GCC_541\Debug\OS2.a(CyLib.o)
                                0x699 (size before relaxing)
 .debug_str     0x000050f4      0x57c .\CortexM0\ARM_GCC_541\Debug\OS2.a(CyDMA.o)
                                0x7da (size before relaxing)
 .debug_str     0x00005670      0x4fd .\CortexM0\ARM_GCC_541\Debug\OS2.a(CyLFClk.o)
                                0x6e9 (size before relaxing)
 .debug_str     0x00005b6d       0x47 .\CortexM0\ARM_GCC_541\Debug\OS2.a(I2C_I2C_INT.o)
                                0x2c2 (size before relaxing)
 .debug_str     0x00005bb4       0xa0 .\CortexM0\ARM_GCC_541\Debug\OS2.a(CyFlash.o)
                                0x275 (size before relaxing)

.debug_loc
 *(.debug_loc)

.debug_macinfo
 *(.debug_macinfo)

.debug_ranges   0x00000000     0x1608
 *(.debug_ranges)
 .debug_ranges  0x00000000       0x30 .\CortexM0\ARM_GCC_541\Debug\app.o
 .debug_ranges  0x00000030       0x48 .\CortexM0\ARM_GCC_541\Debug\app_hooks.o
 .debug_ranges  0x00000078       0x30 .\CortexM0\ARM_GCC_541\Debug\bsp_os.o
 .debug_ranges  0x000000a8       0x20 .\CortexM0\ARM_GCC_541\Debug\cpu_bsp.o
 .debug_ranges  0x000000c8       0x70 .\CortexM0\ARM_GCC_541\Debug\bsp.o
 .debug_ranges  0x00000138       0x48 .\CortexM0\ARM_GCC_541\Debug\cpu_c.o
 .debug_ranges  0x00000180       0xf0 .\CortexM0\ARM_GCC_541\Debug\cpu_core.o
 .debug_ranges  0x00000270       0x70 .\CortexM0\ARM_GCC_541\Debug\os_cpu_c.o
 .debug_ranges  0x000002e0      0x118 .\CortexM0\ARM_GCC_541\Debug\os_core.o
 .debug_ranges  0x000003f8       0x70 .\CortexM0\ARM_GCC_541\Debug\os_flag.o
 .debug_ranges  0x00000468       0x48 .\CortexM0\ARM_GCC_541\Debug\os_mbox.o
 .debug_ranges  0x000004b0       0x40 .\CortexM0\ARM_GCC_541\Debug\os_mem.o
 .debug_ranges  0x000004f0       0x40 .\CortexM0\ARM_GCC_541\Debug\os_mutex.o
 .debug_ranges  0x00000530       0x60 .\CortexM0\ARM_GCC_541\Debug\os_q.o
 .debug_ranges  0x00000590       0x48 .\CortexM0\ARM_GCC_541\Debug\os_sem.o
 .debug_ranges  0x000005d8       0x88 .\CortexM0\ARM_GCC_541\Debug\os_task.o
 .debug_ranges  0x00000660       0x30 .\CortexM0\ARM_GCC_541\Debug\os_time.o
 .debug_ranges  0x00000690       0x80 .\CortexM0\ARM_GCC_541\Debug\os_tmr.o
 .debug_ranges  0x00000710       0x10 .\CortexM0\ARM_GCC_541\Debug\os_dbg_r.o
 .debug_ranges  0x00000720       0x88 .\CortexM0\ARM_GCC_541\Debug\lib_ascii.o
 .debug_ranges  0x000007a8       0x28 .\CortexM0\ARM_GCC_541\Debug\lib_math.o
 .debug_ranges  0x000007d0       0xf0 .\CortexM0\ARM_GCC_541\Debug\lib_mem.o
 .debug_ranges  0x000008c0       0xc8 .\CortexM0\ARM_GCC_541\Debug\lib_str.o
 .debug_ranges  0x00000988       0x48 .\CortexM0\ARM_GCC_541\Debug\cyfitter_cfg.o
 .debug_ranges  0x000009d0       0x38 .\CortexM0\ARM_GCC_541\Debug\Cm0Start.o
 .debug_ranges  0x00000a08      0x148 .\CortexM0\ARM_GCC_541\Debug\OS2.a(PWM_Blue.o)
 .debug_ranges  0x00000b50      0x148 .\CortexM0\ARM_GCC_541\Debug\OS2.a(PWM_Green.o)
 .debug_ranges  0x00000c98      0x148 .\CortexM0\ARM_GCC_541\Debug\OS2.a(PWM_Red.o)
 .debug_ranges  0x00000de0       0x30 .\CortexM0\ARM_GCC_541\Debug\OS2.a(Accel_Pin.o)
 .debug_ranges  0x00000e10       0x58 .\CortexM0\ARM_GCC_541\Debug\OS2.a(I2C.o)
 .debug_ranges  0x00000e68       0x18 .\CortexM0\ARM_GCC_541\Debug\OS2.a(I2C_I2C.o)
 .debug_ranges  0x00000e80       0x78 .\CortexM0\ARM_GCC_541\Debug\OS2.a(I2C_I2C_MASTER.o)
 .debug_ranges  0x00000ef8       0x30 .\CortexM0\ARM_GCC_541\Debug\OS2.a(SW2.o)
 .debug_ranges  0x00000f28       0x70 .\CortexM0\ARM_GCC_541\Debug\OS2.a(Accel_ISR.o)
 .debug_ranges  0x00000f98       0x50 .\CortexM0\ARM_GCC_541\Debug\OS2.a(Temp_Sensor.o)
 .debug_ranges  0x00000fe8       0x10 .\CortexM0\ARM_GCC_541\Debug\OS2.a(Temp_Sensor_INT.o)
 .debug_ranges  0x00000ff8       0x38 .\CortexM0\ARM_GCC_541\Debug\OS2.a(DMA.o)
 .debug_ranges  0x00001030       0x38 .\CortexM0\ARM_GCC_541\Debug\OS2.a(Opamp.o)
 .debug_ranges  0x00001068       0x98 .\CortexM0\ARM_GCC_541\Debug\OS2.a(ADC.o)
 .debug_ranges  0x00001100       0x10 .\CortexM0\ARM_GCC_541\Debug\OS2.a(ADC_INT.o)
 .debug_ranges  0x00001110       0x70 .\CortexM0\ARM_GCC_541\Debug\OS2.a(Temp_Sensor_EOC_ISR.o)
 .debug_ranges  0x00001180      0x180 .\CortexM0\ARM_GCC_541\Debug\OS2.a(CyLib.o)
 .debug_ranges  0x00001300      0x188 .\CortexM0\ARM_GCC_541\Debug\OS2.a(CyDMA.o)
 .debug_ranges  0x00001488      0x148 .\CortexM0\ARM_GCC_541\Debug\OS2.a(CyLFClk.o)
 .debug_ranges  0x000015d0       0x10 .\CortexM0\ARM_GCC_541\Debug\OS2.a(I2C_I2C_INT.o)
 .debug_ranges  0x000015e0       0x28 .\CortexM0\ARM_GCC_541\Debug\OS2.a(CyFlash.o)

.comment        0x00000000       0x6e
 .comment       0x00000000       0x6e .\CortexM0\ARM_GCC_541\Debug\app.o
                                 0x6f (size before relaxing)
 .comment       0x0000006e       0x6f .\CortexM0\ARM_GCC_541\Debug\app_hooks.o
 .comment       0x0000006e       0x6f .\CortexM0\ARM_GCC_541\Debug\bsp_os.o
 .comment       0x0000006e       0x6f .\CortexM0\ARM_GCC_541\Debug\cpu_bsp.o
 .comment       0x0000006e       0x6f .\CortexM0\ARM_GCC_541\Debug\bsp.o
 .comment       0x0000006e       0x6f .\CortexM0\ARM_GCC_541\Debug\cpu_c.o
 .comment       0x0000006e       0x6f .\CortexM0\ARM_GCC_541\Debug\cpu_core.o
 .comment       0x0000006e       0x6f .\CortexM0\ARM_GCC_541\Debug\os_cpu_c.o
 .comment       0x0000006e       0x6f .\CortexM0\ARM_GCC_541\Debug\os_core.o
 .comment       0x0000006e       0x6f .\CortexM0\ARM_GCC_541\Debug\os_flag.o
 .comment       0x0000006e       0x6f .\CortexM0\ARM_GCC_541\Debug\os_mbox.o
 .comment       0x0000006e       0x6f .\CortexM0\ARM_GCC_541\Debug\os_mem.o
 .comment       0x0000006e       0x6f .\CortexM0\ARM_GCC_541\Debug\os_mutex.o
 .comment       0x0000006e       0x6f .\CortexM0\ARM_GCC_541\Debug\os_q.o
 .comment       0x0000006e       0x6f .\CortexM0\ARM_GCC_541\Debug\os_sem.o
 .comment       0x0000006e       0x6f .\CortexM0\ARM_GCC_541\Debug\os_task.o
 .comment       0x0000006e       0x6f .\CortexM0\ARM_GCC_541\Debug\os_time.o
 .comment       0x0000006e       0x6f .\CortexM0\ARM_GCC_541\Debug\os_tmr.o
 .comment       0x0000006e       0x6f .\CortexM0\ARM_GCC_541\Debug\os_dbg_r.o
 .comment       0x0000006e       0x6f .\CortexM0\ARM_GCC_541\Debug\lib_ascii.o
 .comment       0x0000006e       0x6f .\CortexM0\ARM_GCC_541\Debug\lib_math.o
 .comment       0x0000006e       0x6f .\CortexM0\ARM_GCC_541\Debug\lib_mem.o
 .comment       0x0000006e       0x6f .\CortexM0\ARM_GCC_541\Debug\lib_str.o
 .comment       0x0000006e       0x6f .\CortexM0\ARM_GCC_541\Debug\cyfitter_cfg.o
 .comment       0x0000006e       0x6f .\CortexM0\ARM_GCC_541\Debug\cymetadata.o
 .comment       0x0000006e       0x6f .\CortexM0\ARM_GCC_541\Debug\Cm0Start.o
 .comment       0x0000006e       0x6f .\CortexM0\ARM_GCC_541\Debug\OS2.a(PWM_Blue.o)
 .comment       0x0000006e       0x6f .\CortexM0\ARM_GCC_541\Debug\OS2.a(PWM_Green.o)
 .comment       0x0000006e       0x6f .\CortexM0\ARM_GCC_541\Debug\OS2.a(PWM_Red.o)
 .comment       0x0000006e       0x6f .\CortexM0\ARM_GCC_541\Debug\OS2.a(Accel_Pin.o)
 .comment       0x0000006e       0x6f .\CortexM0\ARM_GCC_541\Debug\OS2.a(I2C.o)
 .comment       0x0000006e       0x6f .\CortexM0\ARM_GCC_541\Debug\OS2.a(I2C_I2C.o)
 .comment       0x0000006e       0x6f .\CortexM0\ARM_GCC_541\Debug\OS2.a(I2C_I2C_MASTER.o)
 .comment       0x0000006e       0x6f .\CortexM0\ARM_GCC_541\Debug\OS2.a(SW2.o)
 .comment       0x0000006e       0x6f .\CortexM0\ARM_GCC_541\Debug\OS2.a(Accel_ISR.o)
 .comment       0x0000006e       0x6f .\CortexM0\ARM_GCC_541\Debug\OS2.a(Temp_Sensor.o)
 .comment       0x0000006e       0x6f .\CortexM0\ARM_GCC_541\Debug\OS2.a(Temp_Sensor_INT.o)
 .comment       0x0000006e       0x6f .\CortexM0\ARM_GCC_541\Debug\OS2.a(DMA.o)
 .comment       0x0000006e       0x6f .\CortexM0\ARM_GCC_541\Debug\OS2.a(Opamp.o)
 .comment       0x0000006e       0x6f .\CortexM0\ARM_GCC_541\Debug\OS2.a(ADC.o)
 .comment       0x0000006e       0x6f .\CortexM0\ARM_GCC_541\Debug\OS2.a(ADC_INT.o)
 .comment       0x0000006e       0x6f .\CortexM0\ARM_GCC_541\Debug\OS2.a(Temp_Sensor_EOC_ISR.o)
 .comment       0x0000006e       0x6f .\CortexM0\ARM_GCC_541\Debug\OS2.a(CyLib.o)
 .comment       0x0000006e       0x6f .\CortexM0\ARM_GCC_541\Debug\OS2.a(CyDMA.o)
 .comment       0x0000006e       0x6f .\CortexM0\ARM_GCC_541\Debug\OS2.a(CyLFClk.o)
 .comment       0x0000006e       0x6f .\CortexM0\ARM_GCC_541\Debug\OS2.a(I2C_I2C_INT.o)
 .comment       0x0000006e       0x6f .\CortexM0\ARM_GCC_541\Debug\OS2.a(CyFlash.o)

.debug_weaknames
 *(.debug_weaknames)

.debug_funcnames
 *(.debug_funcnames)

.debug_typenames
 *(.debug_typenames)

.debug_varnames
 *(.debug_varnames)

.note.gnu.arm.ident
 *(.note.gnu.arm.ident)

.ARM.attributes
                0x00000000       0x28
 *(.ARM.attributes)
 .ARM.attributes
                0x00000000       0x1e c:/program files (x86)/cypress/psoc creator/4.2/psoc creator/import/gnu/arm/5.4.1/bin/../lib/gcc/arm-none-eabi/5.4.1/armv6-m/crti.o
 .ARM.attributes
                0x0000001e       0x2c c:/program files (x86)/cypress/psoc creator/4.2/psoc creator/import/gnu/arm/5.4.1/bin/../lib/gcc/arm-none-eabi/5.4.1/armv6-m/crtbegin.o
 .ARM.attributes
                0x0000004a       0x1b c:/program files (x86)/cypress/psoc creator/4.2/psoc creator/import/gnu/arm/5.4.1/bin/../lib/gcc/arm-none-eabi/5.4.1/../../../../arm-none-eabi/lib/armv6-m/crt0.o
 .ARM.attributes
                0x00000065       0x31 .\CortexM0\ARM_GCC_541\Debug\app.o
 .ARM.attributes
                0x00000096       0x31 .\CortexM0\ARM_GCC_541\Debug\app_hooks.o
 .ARM.attributes
                0x000000c7       0x31 .\CortexM0\ARM_GCC_541\Debug\bsp_os.o
 .ARM.attributes
                0x000000f8       0x31 .\CortexM0\ARM_GCC_541\Debug\cpu_bsp.o
 .ARM.attributes
                0x00000129       0x31 .\CortexM0\ARM_GCC_541\Debug\bsp.o
 .ARM.attributes
                0x0000015a       0x31 .\CortexM0\ARM_GCC_541\Debug\cpu_c.o
 .ARM.attributes
                0x0000018b       0x31 .\CortexM0\ARM_GCC_541\Debug\cpu_core.o
 .ARM.attributes
                0x000001bc       0x31 .\CortexM0\ARM_GCC_541\Debug\os_cpu_c.o
 .ARM.attributes
                0x000001ed       0x31 .\CortexM0\ARM_GCC_541\Debug\os_core.o
 .ARM.attributes
                0x0000021e       0x31 .\CortexM0\ARM_GCC_541\Debug\os_flag.o
 .ARM.attributes
                0x0000024f       0x31 .\CortexM0\ARM_GCC_541\Debug\os_mbox.o
 .ARM.attributes
                0x00000280       0x31 .\CortexM0\ARM_GCC_541\Debug\os_mem.o
 .ARM.attributes
                0x000002b1       0x31 .\CortexM0\ARM_GCC_541\Debug\os_mutex.o
 .ARM.attributes
                0x000002e2       0x31 .\CortexM0\ARM_GCC_541\Debug\os_q.o
 .ARM.attributes
                0x00000313       0x31 .\CortexM0\ARM_GCC_541\Debug\os_sem.o
 .ARM.attributes
                0x00000344       0x31 .\CortexM0\ARM_GCC_541\Debug\os_task.o
 .ARM.attributes
                0x00000375       0x31 .\CortexM0\ARM_GCC_541\Debug\os_time.o
 .ARM.attributes
                0x000003a6       0x31 .\CortexM0\ARM_GCC_541\Debug\os_tmr.o
 .ARM.attributes
                0x000003d7       0x31 .\CortexM0\ARM_GCC_541\Debug\os_dbg_r.o
 .ARM.attributes
                0x00000408       0x31 .\CortexM0\ARM_GCC_541\Debug\lib_ascii.o
 .ARM.attributes
                0x00000439       0x31 .\CortexM0\ARM_GCC_541\Debug\lib_math.o
 .ARM.attributes
                0x0000046a       0x31 .\CortexM0\ARM_GCC_541\Debug\lib_mem.o
 .ARM.attributes
                0x0000049b       0x31 .\CortexM0\ARM_GCC_541\Debug\lib_str.o
 .ARM.attributes
                0x000004cc       0x31 .\CortexM0\ARM_GCC_541\Debug\cyfitter_cfg.o
 .ARM.attributes
                0x000004fd       0x31 .\CortexM0\ARM_GCC_541\Debug\cymetadata.o
 .ARM.attributes
                0x0000052e       0x31 .\CortexM0\ARM_GCC_541\Debug\Cm0Start.o
 .ARM.attributes
                0x0000055f       0x21 .\CortexM0\ARM_GCC_541\Debug\cpu_a.o
 .ARM.attributes
                0x00000580       0x21 .\CortexM0\ARM_GCC_541\Debug\os_cpu_a.o
 .ARM.attributes
                0x000005a1       0x31 .\CortexM0\ARM_GCC_541\Debug\OS2.a(PWM_Blue.o)
 .ARM.attributes
                0x000005d2       0x31 .\CortexM0\ARM_GCC_541\Debug\OS2.a(PWM_Green.o)
 .ARM.attributes
                0x00000603       0x31 .\CortexM0\ARM_GCC_541\Debug\OS2.a(PWM_Red.o)
 .ARM.attributes
                0x00000634       0x31 .\CortexM0\ARM_GCC_541\Debug\OS2.a(Accel_Pin.o)
 .ARM.attributes
                0x00000665       0x31 .\CortexM0\ARM_GCC_541\Debug\OS2.a(I2C.o)
 .ARM.attributes
                0x00000696       0x31 .\CortexM0\ARM_GCC_541\Debug\OS2.a(I2C_I2C.o)
 .ARM.attributes
                0x000006c7       0x31 .\CortexM0\ARM_GCC_541\Debug\OS2.a(I2C_I2C_MASTER.o)
 .ARM.attributes
                0x000006f8       0x31 .\CortexM0\ARM_GCC_541\Debug\OS2.a(SW2.o)
 .ARM.attributes
                0x00000729       0x31 .\CortexM0\ARM_GCC_541\Debug\OS2.a(Accel_ISR.o)
 .ARM.attributes
                0x0000075a       0x31 .\CortexM0\ARM_GCC_541\Debug\OS2.a(Temp_Sensor.o)
 .ARM.attributes
                0x0000078b       0x31 .\CortexM0\ARM_GCC_541\Debug\OS2.a(Temp_Sensor_INT.o)
 .ARM.attributes
                0x000007bc       0x31 .\CortexM0\ARM_GCC_541\Debug\OS2.a(DMA.o)
 .ARM.attributes
                0x000007ed       0x31 .\CortexM0\ARM_GCC_541\Debug\OS2.a(Opamp.o)
 .ARM.attributes
                0x0000081e       0x31 .\CortexM0\ARM_GCC_541\Debug\OS2.a(ADC.o)
 .ARM.attributes
                0x0000084f       0x31 .\CortexM0\ARM_GCC_541\Debug\OS2.a(ADC_INT.o)
 .ARM.attributes
                0x00000880       0x31 .\CortexM0\ARM_GCC_541\Debug\OS2.a(Temp_Sensor_EOC_ISR.o)
 .ARM.attributes
                0x000008b1       0x31 .\CortexM0\ARM_GCC_541\Debug\OS2.a(CyLib.o)
 .ARM.attributes
                0x000008e2       0x31 .\CortexM0\ARM_GCC_541\Debug\OS2.a(CyDMA.o)
 .ARM.attributes
                0x00000913       0x31 .\CortexM0\ARM_GCC_541\Debug\OS2.a(CyLFClk.o)
 .ARM.attributes
                0x00000944       0x21 .\CortexM0\ARM_GCC_541\Debug\OS2.a(CyBootAsmGnu.o)
 .ARM.attributes
                0x00000965       0x31 .\CortexM0\ARM_GCC_541\Debug\OS2.a(I2C_I2C_INT.o)
 .ARM.attributes
                0x00000996       0x31 .\CortexM0\ARM_GCC_541\Debug\OS2.a(CyFlash.o)
 .ARM.attributes
                0x000009c7       0x1e c:/program files (x86)/cypress/psoc creator/4.2/psoc creator/import/gnu/arm/5.4.1/bin/../lib/gcc/arm-none-eabi/5.4.1/armv6-m\libgcc.a(_udivsi3.o)
 .ARM.attributes
                0x000009e5       0x1e c:/program files (x86)/cypress/psoc creator/4.2/psoc creator/import/gnu/arm/5.4.1/bin/../lib/gcc/arm-none-eabi/5.4.1/armv6-m\libgcc.a(_divsi3.o)
 .ARM.attributes
                0x00000a03       0x1e c:/program files (x86)/cypress/psoc creator/4.2/psoc creator/import/gnu/arm/5.4.1/bin/../lib/gcc/arm-none-eabi/5.4.1/armv6-m\libgcc.a(_dvmd_tls.o)
 .ARM.attributes
                0x00000a21       0x1e c:/program files (x86)/cypress/psoc creator/4.2/psoc creator/import/gnu/arm/5.4.1/bin/../lib/gcc/arm-none-eabi/5.4.1/armv6-m\libgcc.a(_aeabi_ldivmod.o)
 .ARM.attributes
                0x00000a3f       0x1e c:/program files (x86)/cypress/psoc creator/4.2/psoc creator/import/gnu/arm/5.4.1/bin/../lib/gcc/arm-none-eabi/5.4.1/armv6-m\libgcc.a(_aeabi_uldivmod.o)
 .ARM.attributes
                0x00000a5d       0x2c c:/program files (x86)/cypress/psoc creator/4.2/psoc creator/import/gnu/arm/5.4.1/bin/../lib/gcc/arm-none-eabi/5.4.1/armv6-m\libgcc.a(_muldi3.o)
 .ARM.attributes
                0x00000a89       0x2c c:/program files (x86)/cypress/psoc creator/4.2/psoc creator/import/gnu/arm/5.4.1/bin/../lib/gcc/arm-none-eabi/5.4.1/armv6-m\libgcc.a(_udivmoddi4.o)
 .ARM.attributes
                0x00000ab5       0x2c c:/program files (x86)/cypress/psoc creator/4.2/psoc creator/import/gnu/arm/5.4.1/bin/../lib/gcc/arm-none-eabi/5.4.1/armv6-m\libgcc.a(bpabi.o)
 .ARM.attributes
                0x00000ae1       0x2c c:/program files (x86)/cypress/psoc creator/4.2/psoc creator/import/gnu/arm/5.4.1/bin/../lib/gcc/arm-none-eabi/5.4.1/armv6-m\libgcc.a(divsf3.o)
 .ARM.attributes
                0x00000b0d       0x2c c:/program files (x86)/cypress/psoc creator/4.2/psoc creator/import/gnu/arm/5.4.1/bin/../lib/gcc/arm-none-eabi/5.4.1/armv6-m\libgcc.a(mulsf3.o)
 .ARM.attributes
                0x00000b39       0x2c c:/program files (x86)/cypress/psoc creator/4.2/psoc creator/import/gnu/arm/5.4.1/bin/../lib/gcc/arm-none-eabi/5.4.1/armv6-m\libgcc.a(floatsisf.o)
 .ARM.attributes
                0x00000b65       0x2c c:/program files (x86)/cypress/psoc creator/4.2/psoc creator/import/gnu/arm/5.4.1/bin/../lib/gcc/arm-none-eabi/5.4.1/armv6-m\libgcc.a(floatunsisf.o)
 .ARM.attributes
                0x00000b91       0x2c c:/program files (x86)/cypress/psoc creator/4.2/psoc creator/import/gnu/arm/5.4.1/bin/../lib/gcc/arm-none-eabi/5.4.1/armv6-m\libgcc.a(adddf3.o)
 .ARM.attributes
                0x00000bbd       0x2c c:/program files (x86)/cypress/psoc creator/4.2/psoc creator/import/gnu/arm/5.4.1/bin/../lib/gcc/arm-none-eabi/5.4.1/armv6-m\libgcc.a(muldf3.o)
 .ARM.attributes
                0x00000be9       0x2c c:/program files (x86)/cypress/psoc creator/4.2/psoc creator/import/gnu/arm/5.4.1/bin/../lib/gcc/arm-none-eabi/5.4.1/armv6-m\libgcc.a(extendsfdf2.o)
 .ARM.attributes
                0x00000c15       0x2c c:/program files (x86)/cypress/psoc creator/4.2/psoc creator/import/gnu/arm/5.4.1/bin/../lib/gcc/arm-none-eabi/5.4.1/armv6-m\libgcc.a(truncdfsf2.o)
 .ARM.attributes
                0x00000c41       0x1e c:/program files (x86)/cypress/psoc creator/4.2/psoc creator/import/gnu/arm/5.4.1/bin/../lib/gcc/arm-none-eabi/5.4.1/armv6-m\libgcc.a(_clzsi2.o)
 .ARM.attributes
                0x00000c5f       0x1e c:/program files (x86)/cypress/psoc creator/4.2/psoc creator/import/gnu/arm/5.4.1/bin/../lib/gcc/arm-none-eabi/5.4.1/armv6-m\libgcc.a(_clzdi2.o)
 .ARM.attributes
                0x00000c7d       0x2c c:/program files (x86)/cypress/psoc creator/4.2/psoc creator/import/gnu/arm/5.4.1/bin/../lib/gcc/arm-none-eabi/5.4.1/armv6-m\libgcc.a(_divdi3.o)
 .ARM.attributes
                0x00000ca9       0x2c c:/program files (x86)/cypress/psoc creator/4.2/psoc creator/import/gnu/arm/5.4.1/bin/../lib/gcc/arm-none-eabi/5.4.1/../../../../arm-none-eabi/lib/armv6-m\libg_nano.a(lib_a-errno.o)
 .ARM.attributes
                0x00000cd5       0x2c c:/program files (x86)/cypress/psoc creator/4.2/psoc creator/import/gnu/arm/5.4.1/bin/../lib/gcc/arm-none-eabi/5.4.1/../../../../arm-none-eabi/lib/armv6-m\libg_nano.a(lib_a-exit.o)
 .ARM.attributes
                0x00000d01       0x2c c:/program files (x86)/cypress/psoc creator/4.2/psoc creator/import/gnu/arm/5.4.1/bin/../lib/gcc/arm-none-eabi/5.4.1/../../../../arm-none-eabi/lib/armv6-m\libg_nano.a(lib_a-impure.o)
 .ARM.attributes
                0x00000d2d       0x2c c:/program files (x86)/cypress/psoc creator/4.2/psoc creator/import/gnu/arm/5.4.1/bin/../lib/gcc/arm-none-eabi/5.4.1/../../../../arm-none-eabi/lib/armv6-m\libg_nano.a(lib_a-init.o)
 .ARM.attributes
                0x00000d59       0x2c c:/program files (x86)/cypress/psoc creator/4.2/psoc creator/import/gnu/arm/5.4.1/bin/../lib/gcc/arm-none-eabi/5.4.1/../../../../arm-none-eabi/lib/armv6-m\libg_nano.a(lib_a-memcpy-stub.o)
 .ARM.attributes
                0x00000d85       0x2c c:/program files (x86)/cypress/psoc creator/4.2/psoc creator/import/gnu/arm/5.4.1/bin/../lib/gcc/arm-none-eabi/5.4.1/../../../../arm-none-eabi/lib/armv6-m\libg_nano.a(lib_a-memset.o)
 .ARM.attributes
                0x00000db1       0x2c c:/program files (x86)/cypress/psoc creator/4.2/psoc creator/import/gnu/arm/5.4.1/bin/../lib/gcc/arm-none-eabi/5.4.1/armv6-m/crtend.o
 .ARM.attributes
                0x00000ddd       0x1e c:/program files (x86)/cypress/psoc creator/4.2/psoc creator/import/gnu/arm/5.4.1/bin/../lib/gcc/arm-none-eabi/5.4.1/armv6-m/crtn.o

/DISCARD/
 *(.note.GNU-stack)
OUTPUT(D:\CYTEST\Micrium_CY8CKIT-044_OS2\Examples\Cypress\CY8CKIT-044\OS2\PSoC\OS2.cydsn\CortexM0\ARM_GCC_541\Debug\OS2.elf elf32-littlearm)
