ARM GAS  C:\Users\ADMINI~1\AppData\Local\Temp\ccyqxABf.s 			page 1


   1              		.syntax unified
   2              		.cpu cortex-m0
   3              		.fpu softvfp
   4              		.eabi_attribute 20, 1
   5              		.eabi_attribute 21, 1
   6              		.eabi_attribute 23, 3
   7              		.eabi_attribute 24, 1
   8              		.eabi_attribute 25, 1
   9              		.eabi_attribute 26, 1
  10              		.eabi_attribute 30, 6
  11              		.eabi_attribute 34, 0
  12              		.eabi_attribute 18, 4
  13              		.thumb
  14              		.syntax unified
  15              		.file	"os_dbg_r.c"
  16              		.text
  17              	.Ltext0:
  18              		.cfi_sections	.debug_frame
  19              		.global	OSDebugEn
  20              		.section	.rodata
  21              		.align	1
  22              		.type	OSDebugEn, %object
  23              		.size	OSDebugEn, 2
  24              	OSDebugEn:
  25 0000 0100     		.short	1
  26              		.global	OSEndiannessTest
  27 0002 0000     		.align	2
  28              		.type	OSEndiannessTest, %object
  29              		.size	OSEndiannessTest, 4
  30              	OSEndiannessTest:
  31 0004 78563412 		.word	305419896
  32              		.global	OSEventEn
  33              		.align	1
  34              		.type	OSEventEn, %object
  35              		.size	OSEventEn, 2
  36              	OSEventEn:
  37 0008 0100     		.short	1
  38              		.global	OSEventMax
  39              		.align	1
  40              		.type	OSEventMax, %object
  41              		.size	OSEventMax, 2
  42              	OSEventMax:
  43 000a 1400     		.short	20
  44              		.global	OSEventNameEn
  45              		.align	1
  46              		.type	OSEventNameEn, %object
  47              		.size	OSEventNameEn, 2
  48              	OSEventNameEn:
  49 000c 0100     		.short	1
  50              		.global	OSEventSize
  51              		.align	1
  52              		.type	OSEventSize, %object
  53              		.size	OSEventSize, 2
  54              	OSEventSize:
  55 000e 1800     		.short	24
  56              		.global	OSEventTblSize
  57              		.align	1
ARM GAS  C:\Users\ADMINI~1\AppData\Local\Temp\ccyqxABf.s 			page 2


  58              		.type	OSEventTblSize, %object
  59              		.size	OSEventTblSize, 2
  60              	OSEventTblSize:
  61 0010 E001     		.short	480
  62              		.global	OSEventMultiEn
  63              		.align	1
  64              		.type	OSEventMultiEn, %object
  65              		.size	OSEventMultiEn, 2
  66              	OSEventMultiEn:
  67 0012 0100     		.short	1
  68              		.global	OSFlagEn
  69              		.align	1
  70              		.type	OSFlagEn, %object
  71              		.size	OSFlagEn, 2
  72              	OSFlagEn:
  73 0014 0100     		.short	1
  74              		.global	OSFlagGrpSize
  75              		.align	1
  76              		.type	OSFlagGrpSize, %object
  77              		.size	OSFlagGrpSize, 2
  78              	OSFlagGrpSize:
  79 0016 1000     		.short	16
  80              		.global	OSFlagNodeSize
  81              		.align	1
  82              		.type	OSFlagNodeSize, %object
  83              		.size	OSFlagNodeSize, 2
  84              	OSFlagNodeSize:
  85 0018 1400     		.short	20
  86              		.global	OSFlagWidth
  87              		.align	1
  88              		.type	OSFlagWidth, %object
  89              		.size	OSFlagWidth, 2
  90              	OSFlagWidth:
  91 001a 0200     		.short	2
  92              		.global	OSFlagMax
  93              		.align	1
  94              		.type	OSFlagMax, %object
  95              		.size	OSFlagMax, 2
  96              	OSFlagMax:
  97 001c 0500     		.short	5
  98              		.global	OSFlagNameEn
  99              		.align	1
 100              		.type	OSFlagNameEn, %object
 101              		.size	OSFlagNameEn, 2
 102              	OSFlagNameEn:
 103 001e 0100     		.short	1
 104              		.global	OSLowestPrio
 105              		.align	1
 106              		.type	OSLowestPrio, %object
 107              		.size	OSLowestPrio, 2
 108              	OSLowestPrio:
 109 0020 3F00     		.short	63
 110              		.global	OSMboxEn
 111              		.align	1
 112              		.type	OSMboxEn, %object
 113              		.size	OSMboxEn, 2
 114              	OSMboxEn:
ARM GAS  C:\Users\ADMINI~1\AppData\Local\Temp\ccyqxABf.s 			page 3


 115 0022 0100     		.short	1
 116              		.global	OSMemEn
 117              		.align	1
 118              		.type	OSMemEn, %object
 119              		.size	OSMemEn, 2
 120              	OSMemEn:
 121 0024 0100     		.short	1
 122              		.global	OSMemMax
 123              		.align	1
 124              		.type	OSMemMax, %object
 125              		.size	OSMemMax, 2
 126              	OSMemMax:
 127 0026 0500     		.short	5
 128              		.global	OSMemNameEn
 129              		.align	1
 130              		.type	OSMemNameEn, %object
 131              		.size	OSMemNameEn, 2
 132              	OSMemNameEn:
 133 0028 0100     		.short	1
 134              		.global	OSMemSize
 135              		.align	1
 136              		.type	OSMemSize, %object
 137              		.size	OSMemSize, 2
 138              	OSMemSize:
 139 002a 1800     		.short	24
 140              		.global	OSMemTblSize
 141              		.align	1
 142              		.type	OSMemTblSize, %object
 143              		.size	OSMemTblSize, 2
 144              	OSMemTblSize:
 145 002c 7800     		.short	120
 146              		.global	OSMutexEn
 147              		.align	1
 148              		.type	OSMutexEn, %object
 149              		.size	OSMutexEn, 2
 150              	OSMutexEn:
 151 002e 0100     		.short	1
 152              		.global	OSPtrSize
 153              		.align	1
 154              		.type	OSPtrSize, %object
 155              		.size	OSPtrSize, 2
 156              	OSPtrSize:
 157 0030 0400     		.short	4
 158              		.global	OSQEn
 159              		.align	1
 160              		.type	OSQEn, %object
 161              		.size	OSQEn, 2
 162              	OSQEn:
 163 0032 0100     		.short	1
 164              		.global	OSQMax
 165              		.align	1
 166              		.type	OSQMax, %object
 167              		.size	OSQMax, 2
 168              	OSQMax:
 169 0034 0400     		.short	4
 170              		.global	OSQSize
 171              		.align	1
ARM GAS  C:\Users\ADMINI~1\AppData\Local\Temp\ccyqxABf.s 			page 4


 172              		.type	OSQSize, %object
 173              		.size	OSQSize, 2
 174              	OSQSize:
 175 0036 1800     		.short	24
 176              		.global	OSRdyTblSize
 177              		.align	1
 178              		.type	OSRdyTblSize, %object
 179              		.size	OSRdyTblSize, 2
 180              	OSRdyTblSize:
 181 0038 0800     		.short	8
 182              		.global	OSSemEn
 183              		.align	1
 184              		.type	OSSemEn, %object
 185              		.size	OSSemEn, 2
 186              	OSSemEn:
 187 003a 0100     		.short	1
 188              		.global	OSStkWidth
 189              		.align	1
 190              		.type	OSStkWidth, %object
 191              		.size	OSStkWidth, 2
 192              	OSStkWidth:
 193 003c 0400     		.short	4
 194              		.global	OSTaskCreateEn
 195              		.align	1
 196              		.type	OSTaskCreateEn, %object
 197              		.size	OSTaskCreateEn, 2
 198              	OSTaskCreateEn:
 199 003e 0100     		.short	1
 200              		.global	OSTaskCreateExtEn
 201              		.align	1
 202              		.type	OSTaskCreateExtEn, %object
 203              		.size	OSTaskCreateExtEn, 2
 204              	OSTaskCreateExtEn:
 205 0040 0100     		.short	1
 206              		.global	OSTaskDelEn
 207              		.align	1
 208              		.type	OSTaskDelEn, %object
 209              		.size	OSTaskDelEn, 2
 210              	OSTaskDelEn:
 211 0042 0100     		.short	1
 212              		.global	OSTaskIdleStkSize
 213              		.align	1
 214              		.type	OSTaskIdleStkSize, %object
 215              		.size	OSTaskIdleStkSize, 2
 216              	OSTaskIdleStkSize:
 217 0044 8000     		.short	128
 218              		.global	OSTaskProfileEn
 219              		.align	1
 220              		.type	OSTaskProfileEn, %object
 221              		.size	OSTaskProfileEn, 2
 222              	OSTaskProfileEn:
 223 0046 0100     		.short	1
 224              		.global	OSTaskMax
 225              		.align	1
 226              		.type	OSTaskMax, %object
 227              		.size	OSTaskMax, 2
 228              	OSTaskMax:
ARM GAS  C:\Users\ADMINI~1\AppData\Local\Temp\ccyqxABf.s 			page 5


 229 0048 1600     		.short	22
 230              		.global	OSTaskNameEn
 231              		.align	1
 232              		.type	OSTaskNameEn, %object
 233              		.size	OSTaskNameEn, 2
 234              	OSTaskNameEn:
 235 004a 0100     		.short	1
 236              		.global	OSTaskStatEn
 237              		.align	1
 238              		.type	OSTaskStatEn, %object
 239              		.size	OSTaskStatEn, 2
 240              	OSTaskStatEn:
 241 004c 0100     		.short	1
 242              		.global	OSTaskStatStkSize
 243              		.align	1
 244              		.type	OSTaskStatStkSize, %object
 245              		.size	OSTaskStatStkSize, 2
 246              	OSTaskStatStkSize:
 247 004e 8000     		.short	128
 248              		.global	OSTaskStatStkChkEn
 249              		.align	1
 250              		.type	OSTaskStatStkChkEn, %object
 251              		.size	OSTaskStatStkChkEn, 2
 252              	OSTaskStatStkChkEn:
 253 0050 0100     		.short	1
 254              		.global	OSTaskSwHookEn
 255              		.align	1
 256              		.type	OSTaskSwHookEn, %object
 257              		.size	OSTaskSwHookEn, 2
 258              	OSTaskSwHookEn:
 259 0052 0100     		.short	1
 260              		.global	OSTaskRegTblSize
 261              		.align	1
 262              		.type	OSTaskRegTblSize, %object
 263              		.size	OSTaskRegTblSize, 2
 264              	OSTaskRegTblSize:
 265 0054 0100     		.short	1
 266              		.global	OSTCBPrioTblMax
 267              		.align	1
 268              		.type	OSTCBPrioTblMax, %object
 269              		.size	OSTCBPrioTblMax, 2
 270              	OSTCBPrioTblMax:
 271 0056 4000     		.short	64
 272              		.global	OSTCBSize
 273              		.align	1
 274              		.type	OSTCBSize, %object
 275              		.size	OSTCBSize, 2
 276              	OSTCBSize:
 277 0058 5800     		.short	88
 278              		.global	OSTicksPerSec
 279              		.align	1
 280              		.type	OSTicksPerSec, %object
 281              		.size	OSTicksPerSec, 2
 282              	OSTicksPerSec:
 283 005a E803     		.short	1000
 284              		.global	OSTimeTickHookEn
 285              		.align	1
ARM GAS  C:\Users\ADMINI~1\AppData\Local\Temp\ccyqxABf.s 			page 6


 286              		.type	OSTimeTickHookEn, %object
 287              		.size	OSTimeTickHookEn, 2
 288              	OSTimeTickHookEn:
 289 005c 0100     		.short	1
 290              		.global	OSVersionNbr
 291              		.align	1
 292              		.type	OSVersionNbr, %object
 293              		.size	OSVersionNbr, 2
 294              	OSVersionNbr:
 295 005e 1B72     		.short	29211
 296              		.global	OS_TLS_TblSize
 297              		.align	1
 298              		.type	OS_TLS_TblSize, %object
 299              		.size	OS_TLS_TblSize, 2
 300              	OS_TLS_TblSize:
 301 0060 0000     		.space	2
 302              		.global	OSTmrEn
 303              		.align	1
 304              		.type	OSTmrEn, %object
 305              		.size	OSTmrEn, 2
 306              	OSTmrEn:
 307 0062 0100     		.short	1
 308              		.global	OSTmrCfgMax
 309              		.align	1
 310              		.type	OSTmrCfgMax, %object
 311              		.size	OSTmrCfgMax, 2
 312              	OSTmrCfgMax:
 313 0064 1000     		.short	16
 314              		.global	OSTmrCfgNameEn
 315              		.align	1
 316              		.type	OSTmrCfgNameEn, %object
 317              		.size	OSTmrCfgNameEn, 2
 318              	OSTmrCfgNameEn:
 319 0066 0100     		.short	1
 320              		.global	OSTmrCfgWheelSize
 321              		.align	1
 322              		.type	OSTmrCfgWheelSize, %object
 323              		.size	OSTmrCfgWheelSize, 2
 324              	OSTmrCfgWheelSize:
 325 0068 0700     		.short	7
 326              		.global	OSTmrCfgTicksPerSec
 327              		.align	1
 328              		.type	OSTmrCfgTicksPerSec, %object
 329              		.size	OSTmrCfgTicksPerSec, 2
 330              	OSTmrCfgTicksPerSec:
 331 006a 0A00     		.short	10
 332              		.global	OSTmrSize
 333              		.align	1
 334              		.type	OSTmrSize, %object
 335              		.size	OSTmrSize, 2
 336              	OSTmrSize:
 337 006c 2800     		.short	40
 338              		.global	OSTmrTblSize
 339              		.align	1
 340              		.type	OSTmrTblSize, %object
 341              		.size	OSTmrTblSize, 2
 342              	OSTmrTblSize:
ARM GAS  C:\Users\ADMINI~1\AppData\Local\Temp\ccyqxABf.s 			page 7


 343 006e 8002     		.short	640
 344              		.global	OSTmrWheelSize
 345              		.align	1
 346              		.type	OSTmrWheelSize, %object
 347              		.size	OSTmrWheelSize, 2
 348              	OSTmrWheelSize:
 349 0070 0800     		.short	8
 350              		.global	OSTmrWheelTblSize
 351              		.align	1
 352              		.type	OSTmrWheelTblSize, %object
 353              		.size	OSTmrWheelTblSize, 2
 354              	OSTmrWheelTblSize:
 355 0072 3800     		.short	56
 356              		.global	OSDataSize
 357              		.align	1
 358              		.type	OSDataSize, %object
 359              		.size	OSDataSize, 2
 360              	OSDataSize:
 361 0074 AB14     		.short	5291
 362              		.section	.text.OSDebugInit,"ax",%progbits
 363              		.align	2
 364              		.global	OSDebugInit
 365              		.code	16
 366              		.thumb_func
 367              		.type	OSDebugInit, %function
 368              	OSDebugInit:
 369              	.LFB1:
 370              		.file 1 "..\\..\\..\\..\\..\\..\\Software\\uCOS-II\\Source\\os_dbg_r.c"
   1:..\..\..\..\..\..\Software\uCOS-II\Source/os_dbg_r.c **** /*
   2:..\..\..\..\..\..\Software\uCOS-II\Source/os_dbg_r.c **** ***************************************************************************************************
   3:..\..\..\..\..\..\Software\uCOS-II\Source/os_dbg_r.c **** *                                                uC/OS-II
   4:..\..\..\..\..\..\Software\uCOS-II\Source/os_dbg_r.c **** *                                          The Real-Time Kernel
   5:..\..\..\..\..\..\Software\uCOS-II\Source/os_dbg_r.c **** *                                           DEBUGGER CONSTANTS
   6:..\..\..\..\..\..\Software\uCOS-II\Source/os_dbg_r.c **** *
   7:..\..\..\..\..\..\Software\uCOS-II\Source/os_dbg_r.c **** *                              (c) Copyright 1992-2013, Micrium, Weston, FL
   8:..\..\..\..\..\..\Software\uCOS-II\Source/os_dbg_r.c **** *                                           All Rights Reserved
   9:..\..\..\..\..\..\Software\uCOS-II\Source/os_dbg_r.c **** *
  10:..\..\..\..\..\..\Software\uCOS-II\Source/os_dbg_r.c **** * File    : OS_DBG.C
  11:..\..\..\..\..\..\Software\uCOS-II\Source/os_dbg_r.c **** * By      : Jean J. Labrosse
  12:..\..\..\..\..\..\Software\uCOS-II\Source/os_dbg_r.c **** * Version : V2.92.11
  13:..\..\..\..\..\..\Software\uCOS-II\Source/os_dbg_r.c **** *
  14:..\..\..\..\..\..\Software\uCOS-II\Source/os_dbg_r.c **** * LICENSING TERMS:
  15:..\..\..\..\..\..\Software\uCOS-II\Source/os_dbg_r.c **** * ---------------
  16:..\..\..\..\..\..\Software\uCOS-II\Source/os_dbg_r.c **** *   uC/OS-II is provided in source form for FREE evaluation, for educational use or for peaceful re
  17:..\..\..\..\..\..\Software\uCOS-II\Source/os_dbg_r.c **** * If you plan on using  uC/OS-II  in a commercial product you need to contact Micrium to properly l
  18:..\..\..\..\..\..\Software\uCOS-II\Source/os_dbg_r.c **** * its use in your product. We provide ALL the source code for your convenience and to help you expe
  19:..\..\..\..\..\..\Software\uCOS-II\Source/os_dbg_r.c **** * uC/OS-II.   The fact that the  source is provided does  NOT  mean that you can use it without  pa
  20:..\..\..\..\..\..\Software\uCOS-II\Source/os_dbg_r.c **** * licensing fee.
  21:..\..\..\..\..\..\Software\uCOS-II\Source/os_dbg_r.c **** ***************************************************************************************************
  22:..\..\..\..\..\..\Software\uCOS-II\Source/os_dbg_r.c **** */
  23:..\..\..\..\..\..\Software\uCOS-II\Source/os_dbg_r.c **** 
  24:..\..\..\..\..\..\Software\uCOS-II\Source/os_dbg_r.c **** #define  MICRIUM_SOURCE
  25:..\..\..\..\..\..\Software\uCOS-II\Source/os_dbg_r.c **** 
  26:..\..\..\..\..\..\Software\uCOS-II\Source/os_dbg_r.c **** #include <ucos_ii.h>
  27:..\..\..\..\..\..\Software\uCOS-II\Source/os_dbg_r.c **** 
  28:..\..\..\..\..\..\Software\uCOS-II\Source/os_dbg_r.c **** /*
  29:..\..\..\..\..\..\Software\uCOS-II\Source/os_dbg_r.c **** ***************************************************************************************************
ARM GAS  C:\Users\ADMINI~1\AppData\Local\Temp\ccyqxABf.s 			page 8


  30:..\..\..\..\..\..\Software\uCOS-II\Source/os_dbg_r.c **** *                                             DEBUG DATA
  31:..\..\..\..\..\..\Software\uCOS-II\Source/os_dbg_r.c **** ***************************************************************************************************
  32:..\..\..\..\..\..\Software\uCOS-II\Source/os_dbg_r.c **** */
  33:..\..\..\..\..\..\Software\uCOS-II\Source/os_dbg_r.c **** 
  34:..\..\..\..\..\..\Software\uCOS-II\Source/os_dbg_r.c **** INT16U  const  OSDebugEn             = OS_DEBUG_EN;             /* Debug constants are defined belo
  35:..\..\..\..\..\..\Software\uCOS-II\Source/os_dbg_r.c **** 
  36:..\..\..\..\..\..\Software\uCOS-II\Source/os_dbg_r.c **** #if OS_DEBUG_EN > 0u
  37:..\..\..\..\..\..\Software\uCOS-II\Source/os_dbg_r.c **** 
  38:..\..\..\..\..\..\Software\uCOS-II\Source/os_dbg_r.c **** INT32U  const  OSEndiannessTest      = 0x12345678uL;            /* Variable to test CPU endianness 
  39:..\..\..\..\..\..\Software\uCOS-II\Source/os_dbg_r.c **** 
  40:..\..\..\..\..\..\Software\uCOS-II\Source/os_dbg_r.c **** INT16U  const  OSEventEn             = OS_EVENT_EN;
  41:..\..\..\..\..\..\Software\uCOS-II\Source/os_dbg_r.c **** INT16U  const  OSEventMax            = OS_MAX_EVENTS;           /* Number of event control blocks  
  42:..\..\..\..\..\..\Software\uCOS-II\Source/os_dbg_r.c **** INT16U  const  OSEventNameEn         = OS_EVENT_NAME_EN;
  43:..\..\..\..\..\..\Software\uCOS-II\Source/os_dbg_r.c **** #if (OS_EVENT_EN) && (OS_MAX_EVENTS > 0u)
  44:..\..\..\..\..\..\Software\uCOS-II\Source/os_dbg_r.c **** INT16U  const  OSEventSize           = sizeof(OS_EVENT);        /* Size in Bytes of OS_EVENT       
  45:..\..\..\..\..\..\Software\uCOS-II\Source/os_dbg_r.c **** INT16U  const  OSEventTblSize        = sizeof(OSEventTbl);      /* Size of OSEventTbl[] in bytes   
  46:..\..\..\..\..\..\Software\uCOS-II\Source/os_dbg_r.c **** #else
  47:..\..\..\..\..\..\Software\uCOS-II\Source/os_dbg_r.c **** INT16U  const  OSEventSize           = 0u;
  48:..\..\..\..\..\..\Software\uCOS-II\Source/os_dbg_r.c **** INT16U  const  OSEventTblSize        = 0u;
  49:..\..\..\..\..\..\Software\uCOS-II\Source/os_dbg_r.c **** #endif
  50:..\..\..\..\..\..\Software\uCOS-II\Source/os_dbg_r.c **** INT16U  const  OSEventMultiEn        = OS_EVENT_MULTI_EN;
  51:..\..\..\..\..\..\Software\uCOS-II\Source/os_dbg_r.c **** 
  52:..\..\..\..\..\..\Software\uCOS-II\Source/os_dbg_r.c **** 
  53:..\..\..\..\..\..\Software\uCOS-II\Source/os_dbg_r.c **** INT16U  const  OSFlagEn              = OS_FLAG_EN;
  54:..\..\..\..\..\..\Software\uCOS-II\Source/os_dbg_r.c **** #if (OS_FLAG_EN > 0u) && (OS_MAX_FLAGS > 0u)
  55:..\..\..\..\..\..\Software\uCOS-II\Source/os_dbg_r.c **** INT16U  const  OSFlagGrpSize         = sizeof(OS_FLAG_GRP);     /* Size in Bytes of OS_FLAG_GRP    
  56:..\..\..\..\..\..\Software\uCOS-II\Source/os_dbg_r.c **** INT16U  const  OSFlagNodeSize        = sizeof(OS_FLAG_NODE);    /* Size in Bytes of OS_FLAG_NODE   
  57:..\..\..\..\..\..\Software\uCOS-II\Source/os_dbg_r.c **** INT16U  const  OSFlagWidth           = sizeof(OS_FLAGS);        /* Width (in bytes) of OS_FLAGS    
  58:..\..\..\..\..\..\Software\uCOS-II\Source/os_dbg_r.c **** #else
  59:..\..\..\..\..\..\Software\uCOS-II\Source/os_dbg_r.c **** INT16U  const  OSFlagGrpSize         = 0u;
  60:..\..\..\..\..\..\Software\uCOS-II\Source/os_dbg_r.c **** INT16U  const  OSFlagNodeSize        = 0u;
  61:..\..\..\..\..\..\Software\uCOS-II\Source/os_dbg_r.c **** INT16U  const  OSFlagWidth           = 0u;
  62:..\..\..\..\..\..\Software\uCOS-II\Source/os_dbg_r.c **** #endif
  63:..\..\..\..\..\..\Software\uCOS-II\Source/os_dbg_r.c **** INT16U  const  OSFlagMax             = OS_MAX_FLAGS;
  64:..\..\..\..\..\..\Software\uCOS-II\Source/os_dbg_r.c **** INT16U  const  OSFlagNameEn          = OS_FLAG_NAME_EN;
  65:..\..\..\..\..\..\Software\uCOS-II\Source/os_dbg_r.c **** 
  66:..\..\..\..\..\..\Software\uCOS-II\Source/os_dbg_r.c **** INT16U  const  OSLowestPrio          = OS_LOWEST_PRIO;
  67:..\..\..\..\..\..\Software\uCOS-II\Source/os_dbg_r.c **** 
  68:..\..\..\..\..\..\Software\uCOS-II\Source/os_dbg_r.c **** INT16U  const  OSMboxEn              = OS_MBOX_EN;
  69:..\..\..\..\..\..\Software\uCOS-II\Source/os_dbg_r.c **** 
  70:..\..\..\..\..\..\Software\uCOS-II\Source/os_dbg_r.c **** INT16U  const  OSMemEn               = OS_MEM_EN;
  71:..\..\..\..\..\..\Software\uCOS-II\Source/os_dbg_r.c **** INT16U  const  OSMemMax              = OS_MAX_MEM_PART;         /* Number of memory partitions     
  72:..\..\..\..\..\..\Software\uCOS-II\Source/os_dbg_r.c **** INT16U  const  OSMemNameEn           = OS_MEM_NAME_EN;
  73:..\..\..\..\..\..\Software\uCOS-II\Source/os_dbg_r.c **** #if (OS_MEM_EN > 0u) && (OS_MAX_MEM_PART > 0u)
  74:..\..\..\..\..\..\Software\uCOS-II\Source/os_dbg_r.c **** INT16U  const  OSMemSize             = sizeof(OS_MEM);          /* Mem. Partition header sine (byte
  75:..\..\..\..\..\..\Software\uCOS-II\Source/os_dbg_r.c **** INT16U  const  OSMemTblSize          = sizeof(OSMemTbl);
  76:..\..\..\..\..\..\Software\uCOS-II\Source/os_dbg_r.c **** #else
  77:..\..\..\..\..\..\Software\uCOS-II\Source/os_dbg_r.c **** INT16U  const  OSMemSize             = 0u;
  78:..\..\..\..\..\..\Software\uCOS-II\Source/os_dbg_r.c **** INT16U  const  OSMemTblSize          = 0u;
  79:..\..\..\..\..\..\Software\uCOS-II\Source/os_dbg_r.c **** #endif
  80:..\..\..\..\..\..\Software\uCOS-II\Source/os_dbg_r.c **** INT16U  const  OSMutexEn             = OS_MUTEX_EN;
  81:..\..\..\..\..\..\Software\uCOS-II\Source/os_dbg_r.c **** 
  82:..\..\..\..\..\..\Software\uCOS-II\Source/os_dbg_r.c **** INT16U  const  OSPtrSize             = sizeof(void *);          /* Size in Bytes of a pointer      
  83:..\..\..\..\..\..\Software\uCOS-II\Source/os_dbg_r.c **** 
  84:..\..\..\..\..\..\Software\uCOS-II\Source/os_dbg_r.c **** INT16U  const  OSQEn                 = OS_Q_EN;
  85:..\..\..\..\..\..\Software\uCOS-II\Source/os_dbg_r.c **** INT16U  const  OSQMax                = OS_MAX_QS;               /* Number of queues                
  86:..\..\..\..\..\..\Software\uCOS-II\Source/os_dbg_r.c **** #if (OS_Q_EN > 0u) && (OS_MAX_QS > 0u)
ARM GAS  C:\Users\ADMINI~1\AppData\Local\Temp\ccyqxABf.s 			page 9


  87:..\..\..\..\..\..\Software\uCOS-II\Source/os_dbg_r.c **** INT16U  const  OSQSize               = sizeof(OS_Q);            /* Size in bytes of OS_Q structure 
  88:..\..\..\..\..\..\Software\uCOS-II\Source/os_dbg_r.c **** #else
  89:..\..\..\..\..\..\Software\uCOS-II\Source/os_dbg_r.c **** INT16U  const  OSQSize               = 0u;
  90:..\..\..\..\..\..\Software\uCOS-II\Source/os_dbg_r.c **** #endif
  91:..\..\..\..\..\..\Software\uCOS-II\Source/os_dbg_r.c **** 
  92:..\..\..\..\..\..\Software\uCOS-II\Source/os_dbg_r.c **** INT16U  const  OSRdyTblSize          = OS_RDY_TBL_SIZE;         /* Number of bytes in the ready tab
  93:..\..\..\..\..\..\Software\uCOS-II\Source/os_dbg_r.c **** 
  94:..\..\..\..\..\..\Software\uCOS-II\Source/os_dbg_r.c **** INT16U  const  OSSemEn               = OS_SEM_EN;
  95:..\..\..\..\..\..\Software\uCOS-II\Source/os_dbg_r.c **** 
  96:..\..\..\..\..\..\Software\uCOS-II\Source/os_dbg_r.c **** INT16U  const  OSStkWidth            = sizeof(OS_STK);          /* Size in Bytes of a stack entry  
  97:..\..\..\..\..\..\Software\uCOS-II\Source/os_dbg_r.c **** 
  98:..\..\..\..\..\..\Software\uCOS-II\Source/os_dbg_r.c **** INT16U  const  OSTaskCreateEn        = OS_TASK_CREATE_EN;
  99:..\..\..\..\..\..\Software\uCOS-II\Source/os_dbg_r.c **** INT16U  const  OSTaskCreateExtEn     = OS_TASK_CREATE_EXT_EN;
 100:..\..\..\..\..\..\Software\uCOS-II\Source/os_dbg_r.c **** INT16U  const  OSTaskDelEn           = OS_TASK_DEL_EN;
 101:..\..\..\..\..\..\Software\uCOS-II\Source/os_dbg_r.c **** INT16U  const  OSTaskIdleStkSize     = OS_TASK_IDLE_STK_SIZE;
 102:..\..\..\..\..\..\Software\uCOS-II\Source/os_dbg_r.c **** INT16U  const  OSTaskProfileEn       = OS_TASK_PROFILE_EN;
 103:..\..\..\..\..\..\Software\uCOS-II\Source/os_dbg_r.c **** INT16U  const  OSTaskMax             = OS_MAX_TASKS + OS_N_SYS_TASKS; /* Total max. number of tasks
 104:..\..\..\..\..\..\Software\uCOS-II\Source/os_dbg_r.c **** INT16U  const  OSTaskNameEn          = OS_TASK_NAME_EN;
 105:..\..\..\..\..\..\Software\uCOS-II\Source/os_dbg_r.c **** INT16U  const  OSTaskStatEn          = OS_TASK_STAT_EN;
 106:..\..\..\..\..\..\Software\uCOS-II\Source/os_dbg_r.c **** INT16U  const  OSTaskStatStkSize     = OS_TASK_STAT_STK_SIZE;
 107:..\..\..\..\..\..\Software\uCOS-II\Source/os_dbg_r.c **** INT16U  const  OSTaskStatStkChkEn    = OS_TASK_STAT_STK_CHK_EN;
 108:..\..\..\..\..\..\Software\uCOS-II\Source/os_dbg_r.c **** INT16U  const  OSTaskSwHookEn        = OS_TASK_SW_HOOK_EN;
 109:..\..\..\..\..\..\Software\uCOS-II\Source/os_dbg_r.c **** INT16U  const  OSTaskRegTblSize      = OS_TASK_REG_TBL_SIZE;
 110:..\..\..\..\..\..\Software\uCOS-II\Source/os_dbg_r.c **** 
 111:..\..\..\..\..\..\Software\uCOS-II\Source/os_dbg_r.c **** INT16U  const  OSTCBPrioTblMax       = OS_LOWEST_PRIO + 1u;     /* Number of entries in OSTCBPrioTb
 112:..\..\..\..\..\..\Software\uCOS-II\Source/os_dbg_r.c **** INT16U  const  OSTCBSize             = sizeof(OS_TCB);          /* Size in Bytes of OS_TCB         
 113:..\..\..\..\..\..\Software\uCOS-II\Source/os_dbg_r.c **** INT16U  const  OSTicksPerSec         = OS_TICKS_PER_SEC;
 114:..\..\..\..\..\..\Software\uCOS-II\Source/os_dbg_r.c **** INT16U  const  OSTimeTickHookEn      = OS_TIME_TICK_HOOK_EN;
 115:..\..\..\..\..\..\Software\uCOS-II\Source/os_dbg_r.c **** INT16U  const  OSVersionNbr          = OS_VERSION;
 116:..\..\..\..\..\..\Software\uCOS-II\Source/os_dbg_r.c **** 
 117:..\..\..\..\..\..\Software\uCOS-II\Source/os_dbg_r.c **** #if OS_TASK_CREATE_EXT_EN > 0u
 118:..\..\..\..\..\..\Software\uCOS-II\Source/os_dbg_r.c **** #if defined(OS_TLS_TBL_SIZE) && (OS_TLS_TBL_SIZE > 0u)
 119:..\..\..\..\..\..\Software\uCOS-II\Source/os_dbg_r.c **** INT16U  const  OS_TLS_TblSize        = OS_TLS_TBL_SIZE * sizeof(OS_TLS);
 120:..\..\..\..\..\..\Software\uCOS-II\Source/os_dbg_r.c **** #else
 121:..\..\..\..\..\..\Software\uCOS-II\Source/os_dbg_r.c **** INT16U  const  OS_TLS_TblSize        = 0u;
 122:..\..\..\..\..\..\Software\uCOS-II\Source/os_dbg_r.c **** #endif
 123:..\..\..\..\..\..\Software\uCOS-II\Source/os_dbg_r.c **** #endif
 124:..\..\..\..\..\..\Software\uCOS-II\Source/os_dbg_r.c **** 
 125:..\..\..\..\..\..\Software\uCOS-II\Source/os_dbg_r.c **** INT16U  const  OSTmrEn               = OS_TMR_EN;
 126:..\..\..\..\..\..\Software\uCOS-II\Source/os_dbg_r.c **** INT16U  const  OSTmrCfgMax           = OS_TMR_CFG_MAX;
 127:..\..\..\..\..\..\Software\uCOS-II\Source/os_dbg_r.c **** INT16U  const  OSTmrCfgNameEn        = OS_TMR_CFG_NAME_EN;
 128:..\..\..\..\..\..\Software\uCOS-II\Source/os_dbg_r.c **** INT16U  const  OSTmrCfgWheelSize     = OS_TMR_CFG_WHEEL_SIZE;
 129:..\..\..\..\..\..\Software\uCOS-II\Source/os_dbg_r.c **** INT16U  const  OSTmrCfgTicksPerSec   = OS_TMR_CFG_TICKS_PER_SEC;
 130:..\..\..\..\..\..\Software\uCOS-II\Source/os_dbg_r.c **** 
 131:..\..\..\..\..\..\Software\uCOS-II\Source/os_dbg_r.c **** #if (OS_TMR_EN > 0u) && (OS_TMR_CFG_MAX > 0u)
 132:..\..\..\..\..\..\Software\uCOS-II\Source/os_dbg_r.c **** INT16U  const  OSTmrSize             = sizeof(OS_TMR);
 133:..\..\..\..\..\..\Software\uCOS-II\Source/os_dbg_r.c **** INT16U  const  OSTmrTblSize          = sizeof(OSTmrTbl);
 134:..\..\..\..\..\..\Software\uCOS-II\Source/os_dbg_r.c **** INT16U  const  OSTmrWheelSize        = sizeof(OS_TMR_WHEEL);
 135:..\..\..\..\..\..\Software\uCOS-II\Source/os_dbg_r.c **** INT16U  const  OSTmrWheelTblSize     = sizeof(OSTmrWheelTbl);
 136:..\..\..\..\..\..\Software\uCOS-II\Source/os_dbg_r.c **** #else
 137:..\..\..\..\..\..\Software\uCOS-II\Source/os_dbg_r.c **** INT16U  const  OSTmrSize             = 0u;
 138:..\..\..\..\..\..\Software\uCOS-II\Source/os_dbg_r.c **** INT16U  const  OSTmrTblSize          = 0u;
 139:..\..\..\..\..\..\Software\uCOS-II\Source/os_dbg_r.c **** INT16U  const  OSTmrWheelSize        = 0u;
 140:..\..\..\..\..\..\Software\uCOS-II\Source/os_dbg_r.c **** INT16U  const  OSTmrWheelTblSize     = 0u;
 141:..\..\..\..\..\..\Software\uCOS-II\Source/os_dbg_r.c **** #endif
 142:..\..\..\..\..\..\Software\uCOS-II\Source/os_dbg_r.c **** 
 143:..\..\..\..\..\..\Software\uCOS-II\Source/os_dbg_r.c **** #endif
ARM GAS  C:\Users\ADMINI~1\AppData\Local\Temp\ccyqxABf.s 			page 10


 144:..\..\..\..\..\..\Software\uCOS-II\Source/os_dbg_r.c **** 
 145:..\..\..\..\..\..\Software\uCOS-II\Source/os_dbg_r.c **** /*$PAGE*/
 146:..\..\..\..\..\..\Software\uCOS-II\Source/os_dbg_r.c **** /*
 147:..\..\..\..\..\..\Software\uCOS-II\Source/os_dbg_r.c **** ***************************************************************************************************
 148:..\..\..\..\..\..\Software\uCOS-II\Source/os_dbg_r.c **** *                                             DEBUG DATA
 149:..\..\..\..\..\..\Software\uCOS-II\Source/os_dbg_r.c **** *                            TOTAL DATA SPACE (i.e. RAM) USED BY uC/OS-II
 150:..\..\..\..\..\..\Software\uCOS-II\Source/os_dbg_r.c **** ***************************************************************************************************
 151:..\..\..\..\..\..\Software\uCOS-II\Source/os_dbg_r.c **** */
 152:..\..\..\..\..\..\Software\uCOS-II\Source/os_dbg_r.c **** #if OS_DEBUG_EN > 0u
 153:..\..\..\..\..\..\Software\uCOS-II\Source/os_dbg_r.c **** 
 154:..\..\..\..\..\..\Software\uCOS-II\Source/os_dbg_r.c **** INT16U  const  OSDataSize = sizeof(OSCtxSwCtr)
 155:..\..\..\..\..\..\Software\uCOS-II\Source/os_dbg_r.c **** #if (OS_EVENT_EN) && (OS_MAX_EVENTS > 0u)
 156:..\..\..\..\..\..\Software\uCOS-II\Source/os_dbg_r.c ****                           + sizeof(OSEventFreeList)
 157:..\..\..\..\..\..\Software\uCOS-II\Source/os_dbg_r.c ****                           + sizeof(OSEventTbl)
 158:..\..\..\..\..\..\Software\uCOS-II\Source/os_dbg_r.c **** #endif
 159:..\..\..\..\..\..\Software\uCOS-II\Source/os_dbg_r.c **** 
 160:..\..\..\..\..\..\Software\uCOS-II\Source/os_dbg_r.c **** #if (OS_FLAG_EN > 0u) && (OS_MAX_FLAGS > 0u)
 161:..\..\..\..\..\..\Software\uCOS-II\Source/os_dbg_r.c ****                           + sizeof(OSFlagTbl)
 162:..\..\..\..\..\..\Software\uCOS-II\Source/os_dbg_r.c ****                           + sizeof(OSFlagFreeList)
 163:..\..\..\..\..\..\Software\uCOS-II\Source/os_dbg_r.c **** #endif
 164:..\..\..\..\..\..\Software\uCOS-II\Source/os_dbg_r.c **** 
 165:..\..\..\..\..\..\Software\uCOS-II\Source/os_dbg_r.c **** #if OS_TASK_STAT_EN > 0u
 166:..\..\..\..\..\..\Software\uCOS-II\Source/os_dbg_r.c ****                           + sizeof(OSCPUUsage)
 167:..\..\..\..\..\..\Software\uCOS-II\Source/os_dbg_r.c ****                           + sizeof(OSIdleCtrMax)
 168:..\..\..\..\..\..\Software\uCOS-II\Source/os_dbg_r.c ****                           + sizeof(OSIdleCtrRun)
 169:..\..\..\..\..\..\Software\uCOS-II\Source/os_dbg_r.c ****                           + sizeof(OSStatRdy)
 170:..\..\..\..\..\..\Software\uCOS-II\Source/os_dbg_r.c ****                           + sizeof(OSTaskStatStk)
 171:..\..\..\..\..\..\Software\uCOS-II\Source/os_dbg_r.c **** #endif
 172:..\..\..\..\..\..\Software\uCOS-II\Source/os_dbg_r.c **** 
 173:..\..\..\..\..\..\Software\uCOS-II\Source/os_dbg_r.c **** #if OS_TICK_STEP_EN > 0u
 174:..\..\..\..\..\..\Software\uCOS-II\Source/os_dbg_r.c ****                           + sizeof(OSTickStepState)
 175:..\..\..\..\..\..\Software\uCOS-II\Source/os_dbg_r.c **** #endif
 176:..\..\..\..\..\..\Software\uCOS-II\Source/os_dbg_r.c **** 
 177:..\..\..\..\..\..\Software\uCOS-II\Source/os_dbg_r.c **** #if (OS_MEM_EN > 0u) && (OS_MAX_MEM_PART > 0u)
 178:..\..\..\..\..\..\Software\uCOS-II\Source/os_dbg_r.c ****                           + sizeof(OSMemFreeList)
 179:..\..\..\..\..\..\Software\uCOS-II\Source/os_dbg_r.c ****                           + sizeof(OSMemTbl)
 180:..\..\..\..\..\..\Software\uCOS-II\Source/os_dbg_r.c **** #endif
 181:..\..\..\..\..\..\Software\uCOS-II\Source/os_dbg_r.c **** 
 182:..\..\..\..\..\..\Software\uCOS-II\Source/os_dbg_r.c **** #ifdef OS_SAFETY_CRITICAL_IEC61508
 183:..\..\..\..\..\..\Software\uCOS-II\Source/os_dbg_r.c ****                           + sizeof(OSSafetyCriticalStartFlag)
 184:..\..\..\..\..\..\Software\uCOS-II\Source/os_dbg_r.c **** #endif
 185:..\..\..\..\..\..\Software\uCOS-II\Source/os_dbg_r.c **** 
 186:..\..\..\..\..\..\Software\uCOS-II\Source/os_dbg_r.c **** #if (OS_Q_EN > 0u) && (OS_MAX_QS > 0u)
 187:..\..\..\..\..\..\Software\uCOS-II\Source/os_dbg_r.c ****                           + sizeof(OSQFreeList)
 188:..\..\..\..\..\..\Software\uCOS-II\Source/os_dbg_r.c ****                           + sizeof(OSQTbl)
 189:..\..\..\..\..\..\Software\uCOS-II\Source/os_dbg_r.c **** #endif
 190:..\..\..\..\..\..\Software\uCOS-II\Source/os_dbg_r.c **** 
 191:..\..\..\..\..\..\Software\uCOS-II\Source/os_dbg_r.c **** #if OS_TASK_REG_TBL_SIZE > 0u
 192:..\..\..\..\..\..\Software\uCOS-II\Source/os_dbg_r.c ****                           + sizeof(OSTaskRegNextAvailID)
 193:..\..\..\..\..\..\Software\uCOS-II\Source/os_dbg_r.c **** #endif
 194:..\..\..\..\..\..\Software\uCOS-II\Source/os_dbg_r.c **** 
 195:..\..\..\..\..\..\Software\uCOS-II\Source/os_dbg_r.c **** #if OS_TIME_GET_SET_EN > 0u
 196:..\..\..\..\..\..\Software\uCOS-II\Source/os_dbg_r.c ****                           + sizeof(OSTime)
 197:..\..\..\..\..\..\Software\uCOS-II\Source/os_dbg_r.c **** #endif
 198:..\..\..\..\..\..\Software\uCOS-II\Source/os_dbg_r.c **** 
 199:..\..\..\..\..\..\Software\uCOS-II\Source/os_dbg_r.c **** #if (OS_TMR_EN > 0u) && (OS_TMR_CFG_MAX > 0u)
 200:..\..\..\..\..\..\Software\uCOS-II\Source/os_dbg_r.c ****                           + sizeof(OSTmrFree)
ARM GAS  C:\Users\ADMINI~1\AppData\Local\Temp\ccyqxABf.s 			page 11


 201:..\..\..\..\..\..\Software\uCOS-II\Source/os_dbg_r.c ****                           + sizeof(OSTmrUsed)
 202:..\..\..\..\..\..\Software\uCOS-II\Source/os_dbg_r.c ****                           + sizeof(OSTmrTime)
 203:..\..\..\..\..\..\Software\uCOS-II\Source/os_dbg_r.c ****                           + sizeof(OSTmrSem)
 204:..\..\..\..\..\..\Software\uCOS-II\Source/os_dbg_r.c ****                           + sizeof(OSTmrSemSignal)
 205:..\..\..\..\..\..\Software\uCOS-II\Source/os_dbg_r.c ****                           + sizeof(OSTmrTbl)
 206:..\..\..\..\..\..\Software\uCOS-II\Source/os_dbg_r.c ****                           + sizeof(OSTmrFreeList)
 207:..\..\..\..\..\..\Software\uCOS-II\Source/os_dbg_r.c ****                           + sizeof(OSTmrTaskStk)
 208:..\..\..\..\..\..\Software\uCOS-II\Source/os_dbg_r.c ****                           + sizeof(OSTmrWheelTbl)
 209:..\..\..\..\..\..\Software\uCOS-II\Source/os_dbg_r.c **** #endif
 210:..\..\..\..\..\..\Software\uCOS-II\Source/os_dbg_r.c ****                           + sizeof(OSIntNesting)
 211:..\..\..\..\..\..\Software\uCOS-II\Source/os_dbg_r.c ****                           + sizeof(OSLockNesting)
 212:..\..\..\..\..\..\Software\uCOS-II\Source/os_dbg_r.c ****                           + sizeof(OSPrioCur)
 213:..\..\..\..\..\..\Software\uCOS-II\Source/os_dbg_r.c ****                           + sizeof(OSPrioHighRdy)
 214:..\..\..\..\..\..\Software\uCOS-II\Source/os_dbg_r.c ****                           + sizeof(OSRdyGrp)
 215:..\..\..\..\..\..\Software\uCOS-II\Source/os_dbg_r.c ****                           + sizeof(OSRdyTbl)
 216:..\..\..\..\..\..\Software\uCOS-II\Source/os_dbg_r.c ****                           + sizeof(OSRunning)
 217:..\..\..\..\..\..\Software\uCOS-II\Source/os_dbg_r.c ****                           + sizeof(OSTaskCtr)
 218:..\..\..\..\..\..\Software\uCOS-II\Source/os_dbg_r.c ****                           + sizeof(OSIdleCtr)
 219:..\..\..\..\..\..\Software\uCOS-II\Source/os_dbg_r.c ****                           + sizeof(OSTaskIdleStk)
 220:..\..\..\..\..\..\Software\uCOS-II\Source/os_dbg_r.c ****                           + sizeof(OSTCBCur)
 221:..\..\..\..\..\..\Software\uCOS-II\Source/os_dbg_r.c ****                           + sizeof(OSTCBFreeList)
 222:..\..\..\..\..\..\Software\uCOS-II\Source/os_dbg_r.c ****                           + sizeof(OSTCBHighRdy)
 223:..\..\..\..\..\..\Software\uCOS-II\Source/os_dbg_r.c ****                           + sizeof(OSTCBList)
 224:..\..\..\..\..\..\Software\uCOS-II\Source/os_dbg_r.c ****                           + sizeof(OSTCBPrioTbl)
 225:..\..\..\..\..\..\Software\uCOS-II\Source/os_dbg_r.c ****                           + sizeof(OSTCBTbl);
 226:..\..\..\..\..\..\Software\uCOS-II\Source/os_dbg_r.c **** 
 227:..\..\..\..\..\..\Software\uCOS-II\Source/os_dbg_r.c **** #endif
 228:..\..\..\..\..\..\Software\uCOS-II\Source/os_dbg_r.c **** 
 229:..\..\..\..\..\..\Software\uCOS-II\Source/os_dbg_r.c **** /*$PAGE*/
 230:..\..\..\..\..\..\Software\uCOS-II\Source/os_dbg_r.c **** /*
 231:..\..\..\..\..\..\Software\uCOS-II\Source/os_dbg_r.c **** ***************************************************************************************************
 232:..\..\..\..\..\..\Software\uCOS-II\Source/os_dbg_r.c **** *                                       OS DEBUG INITIALIZATION
 233:..\..\..\..\..\..\Software\uCOS-II\Source/os_dbg_r.c **** *
 234:..\..\..\..\..\..\Software\uCOS-II\Source/os_dbg_r.c **** * Description: This function is used to make sure that debug variables that are unused in the appli
 235:..\..\..\..\..\..\Software\uCOS-II\Source/os_dbg_r.c **** *              are not optimized away.  This function might not be necessary for all compilers.  In
 236:..\..\..\..\..\..\Software\uCOS-II\Source/os_dbg_r.c **** *              case, you should simply DELETE the code in this function while still leaving the dec
 237:..\..\..\..\..\..\Software\uCOS-II\Source/os_dbg_r.c **** *              of the function itself.
 238:..\..\..\..\..\..\Software\uCOS-II\Source/os_dbg_r.c **** *
 239:..\..\..\..\..\..\Software\uCOS-II\Source/os_dbg_r.c **** * Arguments  : none
 240:..\..\..\..\..\..\Software\uCOS-II\Source/os_dbg_r.c **** *
 241:..\..\..\..\..\..\Software\uCOS-II\Source/os_dbg_r.c **** * Returns    : none
 242:..\..\..\..\..\..\Software\uCOS-II\Source/os_dbg_r.c **** *
 243:..\..\..\..\..\..\Software\uCOS-II\Source/os_dbg_r.c **** * Note(s)    : (1) This code doesn't do anything, it simply prevents the compiler from optimizing o
 244:..\..\..\..\..\..\Software\uCOS-II\Source/os_dbg_r.c **** *                  the 'const' variables which are declared in this file.
 245:..\..\..\..\..\..\Software\uCOS-II\Source/os_dbg_r.c **** *              (2) You may decide to 'compile out' the code (by using #if 0/#endif) INSIDE the func
 246:..\..\..\..\..\..\Software\uCOS-II\Source/os_dbg_r.c **** *                  if your compiler DOES NOT optimize out the 'const' variables above.
 247:..\..\..\..\..\..\Software\uCOS-II\Source/os_dbg_r.c **** ***************************************************************************************************
 248:..\..\..\..\..\..\Software\uCOS-II\Source/os_dbg_r.c **** */
 249:..\..\..\..\..\..\Software\uCOS-II\Source/os_dbg_r.c **** 
 250:..\..\..\..\..\..\Software\uCOS-II\Source/os_dbg_r.c **** #if OS_DEBUG_EN > 0u
 251:..\..\..\..\..\..\Software\uCOS-II\Source/os_dbg_r.c **** void  OSDebugInit (void)
 252:..\..\..\..\..\..\Software\uCOS-II\Source/os_dbg_r.c **** {
 371              		.loc 1 252 0
 372              		.cfi_startproc
 373              		@ args = 0, pretend = 0, frame = 8
 374              		@ frame_needed = 1, uses_anonymous_args = 0
 375 0000 80B5     		push	{r7, lr}
ARM GAS  C:\Users\ADMINI~1\AppData\Local\Temp\ccyqxABf.s 			page 12


 376              		.cfi_def_cfa_offset 8
 377              		.cfi_offset 7, -8
 378              		.cfi_offset 14, -4
 379 0002 82B0     		sub	sp, sp, #8
 380              		.cfi_def_cfa_offset 16
 381 0004 00AF     		add	r7, sp, #0
 382              		.cfi_def_cfa_register 7
 253:..\..\..\..\..\..\Software\uCOS-II\Source/os_dbg_r.c ****     void  const  *ptemp;
 254:..\..\..\..\..\..\Software\uCOS-II\Source/os_dbg_r.c **** 
 255:..\..\..\..\..\..\Software\uCOS-II\Source/os_dbg_r.c **** 
 256:..\..\..\..\..\..\Software\uCOS-II\Source/os_dbg_r.c ****     ptemp = (void const *)&OSDebugEn;
 383              		.loc 1 256 0
 384 0006 3B4B     		ldr	r3, .L2
 385 0008 7B60     		str	r3, [r7, #4]
 257:..\..\..\..\..\..\Software\uCOS-II\Source/os_dbg_r.c **** 
 258:..\..\..\..\..\..\Software\uCOS-II\Source/os_dbg_r.c ****     ptemp = (void const *)&OSEndiannessTest;
 386              		.loc 1 258 0
 387 000a 3B4B     		ldr	r3, .L2+4
 388 000c 7B60     		str	r3, [r7, #4]
 259:..\..\..\..\..\..\Software\uCOS-II\Source/os_dbg_r.c **** 
 260:..\..\..\..\..\..\Software\uCOS-II\Source/os_dbg_r.c ****     ptemp = (void const *)&OSEventMax;
 389              		.loc 1 260 0
 390 000e 3B4B     		ldr	r3, .L2+8
 391 0010 7B60     		str	r3, [r7, #4]
 261:..\..\..\..\..\..\Software\uCOS-II\Source/os_dbg_r.c ****     ptemp = (void const *)&OSEventNameEn;
 392              		.loc 1 261 0
 393 0012 3B4B     		ldr	r3, .L2+12
 394 0014 7B60     		str	r3, [r7, #4]
 262:..\..\..\..\..\..\Software\uCOS-II\Source/os_dbg_r.c ****     ptemp = (void const *)&OSEventEn;
 395              		.loc 1 262 0
 396 0016 3B4B     		ldr	r3, .L2+16
 397 0018 7B60     		str	r3, [r7, #4]
 263:..\..\..\..\..\..\Software\uCOS-II\Source/os_dbg_r.c ****     ptemp = (void const *)&OSEventSize;
 398              		.loc 1 263 0
 399 001a 3B4B     		ldr	r3, .L2+20
 400 001c 7B60     		str	r3, [r7, #4]
 264:..\..\..\..\..\..\Software\uCOS-II\Source/os_dbg_r.c ****     ptemp = (void const *)&OSEventTblSize;
 401              		.loc 1 264 0
 402 001e 3B4B     		ldr	r3, .L2+24
 403 0020 7B60     		str	r3, [r7, #4]
 265:..\..\..\..\..\..\Software\uCOS-II\Source/os_dbg_r.c ****     ptemp = (void const *)&OSEventMultiEn;
 404              		.loc 1 265 0
 405 0022 3B4B     		ldr	r3, .L2+28
 406 0024 7B60     		str	r3, [r7, #4]
 266:..\..\..\..\..\..\Software\uCOS-II\Source/os_dbg_r.c **** 
 267:..\..\..\..\..\..\Software\uCOS-II\Source/os_dbg_r.c ****     ptemp = (void const *)&OSFlagEn;
 407              		.loc 1 267 0
 408 0026 3B4B     		ldr	r3, .L2+32
 409 0028 7B60     		str	r3, [r7, #4]
 268:..\..\..\..\..\..\Software\uCOS-II\Source/os_dbg_r.c ****     ptemp = (void const *)&OSFlagGrpSize;
 410              		.loc 1 268 0
 411 002a 3B4B     		ldr	r3, .L2+36
 412 002c 7B60     		str	r3, [r7, #4]
 269:..\..\..\..\..\..\Software\uCOS-II\Source/os_dbg_r.c ****     ptemp = (void const *)&OSFlagNodeSize;
 413              		.loc 1 269 0
 414 002e 3B4B     		ldr	r3, .L2+40
 415 0030 7B60     		str	r3, [r7, #4]
ARM GAS  C:\Users\ADMINI~1\AppData\Local\Temp\ccyqxABf.s 			page 13


 270:..\..\..\..\..\..\Software\uCOS-II\Source/os_dbg_r.c ****     ptemp = (void const *)&OSFlagWidth;
 416              		.loc 1 270 0
 417 0032 3B4B     		ldr	r3, .L2+44
 418 0034 7B60     		str	r3, [r7, #4]
 271:..\..\..\..\..\..\Software\uCOS-II\Source/os_dbg_r.c ****     ptemp = (void const *)&OSFlagMax;
 419              		.loc 1 271 0
 420 0036 3B4B     		ldr	r3, .L2+48
 421 0038 7B60     		str	r3, [r7, #4]
 272:..\..\..\..\..\..\Software\uCOS-II\Source/os_dbg_r.c ****     ptemp = (void const *)&OSFlagNameEn;
 422              		.loc 1 272 0
 423 003a 3B4B     		ldr	r3, .L2+52
 424 003c 7B60     		str	r3, [r7, #4]
 273:..\..\..\..\..\..\Software\uCOS-II\Source/os_dbg_r.c **** 
 274:..\..\..\..\..\..\Software\uCOS-II\Source/os_dbg_r.c ****     ptemp = (void const *)&OSLowestPrio;
 425              		.loc 1 274 0
 426 003e 3B4B     		ldr	r3, .L2+56
 427 0040 7B60     		str	r3, [r7, #4]
 275:..\..\..\..\..\..\Software\uCOS-II\Source/os_dbg_r.c **** 
 276:..\..\..\..\..\..\Software\uCOS-II\Source/os_dbg_r.c ****     ptemp = (void const *)&OSMboxEn;
 428              		.loc 1 276 0
 429 0042 3B4B     		ldr	r3, .L2+60
 430 0044 7B60     		str	r3, [r7, #4]
 277:..\..\..\..\..\..\Software\uCOS-II\Source/os_dbg_r.c **** 
 278:..\..\..\..\..\..\Software\uCOS-II\Source/os_dbg_r.c ****     ptemp = (void const *)&OSMemEn;
 431              		.loc 1 278 0
 432 0046 3B4B     		ldr	r3, .L2+64
 433 0048 7B60     		str	r3, [r7, #4]
 279:..\..\..\..\..\..\Software\uCOS-II\Source/os_dbg_r.c ****     ptemp = (void const *)&OSMemMax;
 434              		.loc 1 279 0
 435 004a 3B4B     		ldr	r3, .L2+68
 436 004c 7B60     		str	r3, [r7, #4]
 280:..\..\..\..\..\..\Software\uCOS-II\Source/os_dbg_r.c ****     ptemp = (void const *)&OSMemNameEn;
 437              		.loc 1 280 0
 438 004e 3B4B     		ldr	r3, .L2+72
 439 0050 7B60     		str	r3, [r7, #4]
 281:..\..\..\..\..\..\Software\uCOS-II\Source/os_dbg_r.c ****     ptemp = (void const *)&OSMemSize;
 440              		.loc 1 281 0
 441 0052 3B4B     		ldr	r3, .L2+76
 442 0054 7B60     		str	r3, [r7, #4]
 282:..\..\..\..\..\..\Software\uCOS-II\Source/os_dbg_r.c ****     ptemp = (void const *)&OSMemTblSize;
 443              		.loc 1 282 0
 444 0056 3B4B     		ldr	r3, .L2+80
 445 0058 7B60     		str	r3, [r7, #4]
 283:..\..\..\..\..\..\Software\uCOS-II\Source/os_dbg_r.c **** 
 284:..\..\..\..\..\..\Software\uCOS-II\Source/os_dbg_r.c ****     ptemp = (void const *)&OSMutexEn;
 446              		.loc 1 284 0
 447 005a 3B4B     		ldr	r3, .L2+84
 448 005c 7B60     		str	r3, [r7, #4]
 285:..\..\..\..\..\..\Software\uCOS-II\Source/os_dbg_r.c **** 
 286:..\..\..\..\..\..\Software\uCOS-II\Source/os_dbg_r.c ****     ptemp = (void const *)&OSPtrSize;
 449              		.loc 1 286 0
 450 005e 3B4B     		ldr	r3, .L2+88
 451 0060 7B60     		str	r3, [r7, #4]
 287:..\..\..\..\..\..\Software\uCOS-II\Source/os_dbg_r.c **** 
 288:..\..\..\..\..\..\Software\uCOS-II\Source/os_dbg_r.c ****     ptemp = (void const *)&OSQEn;
 452              		.loc 1 288 0
 453 0062 3B4B     		ldr	r3, .L2+92
ARM GAS  C:\Users\ADMINI~1\AppData\Local\Temp\ccyqxABf.s 			page 14


 454 0064 7B60     		str	r3, [r7, #4]
 289:..\..\..\..\..\..\Software\uCOS-II\Source/os_dbg_r.c ****     ptemp = (void const *)&OSQMax;
 455              		.loc 1 289 0
 456 0066 3B4B     		ldr	r3, .L2+96
 457 0068 7B60     		str	r3, [r7, #4]
 290:..\..\..\..\..\..\Software\uCOS-II\Source/os_dbg_r.c ****     ptemp = (void const *)&OSQSize;
 458              		.loc 1 290 0
 459 006a 3B4B     		ldr	r3, .L2+100
 460 006c 7B60     		str	r3, [r7, #4]
 291:..\..\..\..\..\..\Software\uCOS-II\Source/os_dbg_r.c **** 
 292:..\..\..\..\..\..\Software\uCOS-II\Source/os_dbg_r.c ****     ptemp = (void const *)&OSRdyTblSize;
 461              		.loc 1 292 0
 462 006e 3B4B     		ldr	r3, .L2+104
 463 0070 7B60     		str	r3, [r7, #4]
 293:..\..\..\..\..\..\Software\uCOS-II\Source/os_dbg_r.c **** 
 294:..\..\..\..\..\..\Software\uCOS-II\Source/os_dbg_r.c ****     ptemp = (void const *)&OSSemEn;
 464              		.loc 1 294 0
 465 0072 3B4B     		ldr	r3, .L2+108
 466 0074 7B60     		str	r3, [r7, #4]
 295:..\..\..\..\..\..\Software\uCOS-II\Source/os_dbg_r.c **** 
 296:..\..\..\..\..\..\Software\uCOS-II\Source/os_dbg_r.c ****     ptemp = (void const *)&OSStkWidth;
 467              		.loc 1 296 0
 468 0076 3B4B     		ldr	r3, .L2+112
 469 0078 7B60     		str	r3, [r7, #4]
 297:..\..\..\..\..\..\Software\uCOS-II\Source/os_dbg_r.c **** 
 298:..\..\..\..\..\..\Software\uCOS-II\Source/os_dbg_r.c ****     ptemp = (void const *)&OSTaskCreateEn;
 470              		.loc 1 298 0
 471 007a 3B4B     		ldr	r3, .L2+116
 472 007c 7B60     		str	r3, [r7, #4]
 299:..\..\..\..\..\..\Software\uCOS-II\Source/os_dbg_r.c ****     ptemp = (void const *)&OSTaskCreateExtEn;
 473              		.loc 1 299 0
 474 007e 3B4B     		ldr	r3, .L2+120
 475 0080 7B60     		str	r3, [r7, #4]
 300:..\..\..\..\..\..\Software\uCOS-II\Source/os_dbg_r.c ****     ptemp = (void const *)&OSTaskDelEn;
 476              		.loc 1 300 0
 477 0082 3B4B     		ldr	r3, .L2+124
 478 0084 7B60     		str	r3, [r7, #4]
 301:..\..\..\..\..\..\Software\uCOS-II\Source/os_dbg_r.c ****     ptemp = (void const *)&OSTaskIdleStkSize;
 479              		.loc 1 301 0
 480 0086 3B4B     		ldr	r3, .L2+128
 481 0088 7B60     		str	r3, [r7, #4]
 302:..\..\..\..\..\..\Software\uCOS-II\Source/os_dbg_r.c ****     ptemp = (void const *)&OSTaskProfileEn;
 482              		.loc 1 302 0
 483 008a 3B4B     		ldr	r3, .L2+132
 484 008c 7B60     		str	r3, [r7, #4]
 303:..\..\..\..\..\..\Software\uCOS-II\Source/os_dbg_r.c ****     ptemp = (void const *)&OSTaskMax;
 485              		.loc 1 303 0
 486 008e 3B4B     		ldr	r3, .L2+136
 487 0090 7B60     		str	r3, [r7, #4]
 304:..\..\..\..\..\..\Software\uCOS-II\Source/os_dbg_r.c ****     ptemp = (void const *)&OSTaskNameEn;
 488              		.loc 1 304 0
 489 0092 3B4B     		ldr	r3, .L2+140
 490 0094 7B60     		str	r3, [r7, #4]
 305:..\..\..\..\..\..\Software\uCOS-II\Source/os_dbg_r.c ****     ptemp = (void const *)&OSTaskStatEn;
 491              		.loc 1 305 0
 492 0096 3B4B     		ldr	r3, .L2+144
 493 0098 7B60     		str	r3, [r7, #4]
ARM GAS  C:\Users\ADMINI~1\AppData\Local\Temp\ccyqxABf.s 			page 15


 306:..\..\..\..\..\..\Software\uCOS-II\Source/os_dbg_r.c ****     ptemp = (void const *)&OSTaskStatStkSize;
 494              		.loc 1 306 0
 495 009a 3B4B     		ldr	r3, .L2+148
 496 009c 7B60     		str	r3, [r7, #4]
 307:..\..\..\..\..\..\Software\uCOS-II\Source/os_dbg_r.c ****     ptemp = (void const *)&OSTaskStatStkChkEn;
 497              		.loc 1 307 0
 498 009e 3B4B     		ldr	r3, .L2+152
 499 00a0 7B60     		str	r3, [r7, #4]
 308:..\..\..\..\..\..\Software\uCOS-II\Source/os_dbg_r.c ****     ptemp = (void const *)&OSTaskSwHookEn;
 500              		.loc 1 308 0
 501 00a2 3B4B     		ldr	r3, .L2+156
 502 00a4 7B60     		str	r3, [r7, #4]
 309:..\..\..\..\..\..\Software\uCOS-II\Source/os_dbg_r.c **** 
 310:..\..\..\..\..\..\Software\uCOS-II\Source/os_dbg_r.c ****     ptemp = (void const *)&OSTCBPrioTblMax;
 503              		.loc 1 310 0
 504 00a6 3B4B     		ldr	r3, .L2+160
 505 00a8 7B60     		str	r3, [r7, #4]
 311:..\..\..\..\..\..\Software\uCOS-II\Source/os_dbg_r.c ****     ptemp = (void const *)&OSTCBSize;
 506              		.loc 1 311 0
 507 00aa 3B4B     		ldr	r3, .L2+164
 508 00ac 7B60     		str	r3, [r7, #4]
 312:..\..\..\..\..\..\Software\uCOS-II\Source/os_dbg_r.c **** 
 313:..\..\..\..\..\..\Software\uCOS-II\Source/os_dbg_r.c ****     ptemp = (void const *)&OSTicksPerSec;
 509              		.loc 1 313 0
 510 00ae 3B4B     		ldr	r3, .L2+168
 511 00b0 7B60     		str	r3, [r7, #4]
 314:..\..\..\..\..\..\Software\uCOS-II\Source/os_dbg_r.c ****     ptemp = (void const *)&OSTimeTickHookEn;
 512              		.loc 1 314 0
 513 00b2 3B4B     		ldr	r3, .L2+172
 514 00b4 7B60     		str	r3, [r7, #4]
 315:..\..\..\..\..\..\Software\uCOS-II\Source/os_dbg_r.c **** 
 316:..\..\..\..\..\..\Software\uCOS-II\Source/os_dbg_r.c **** #if OS_TMR_EN > 0u
 317:..\..\..\..\..\..\Software\uCOS-II\Source/os_dbg_r.c ****     ptemp = (void const *)&OSTmrTbl[0];
 515              		.loc 1 317 0
 516 00b6 3B4B     		ldr	r3, .L2+176
 517 00b8 7B60     		str	r3, [r7, #4]
 318:..\..\..\..\..\..\Software\uCOS-II\Source/os_dbg_r.c ****     ptemp = (void const *)&OSTmrWheelTbl[0];
 518              		.loc 1 318 0
 519 00ba 3B4B     		ldr	r3, .L2+180
 520 00bc 7B60     		str	r3, [r7, #4]
 319:..\..\..\..\..\..\Software\uCOS-II\Source/os_dbg_r.c **** 
 320:..\..\..\..\..\..\Software\uCOS-II\Source/os_dbg_r.c ****     ptemp = (void const *)&OSTmrEn;
 521              		.loc 1 320 0
 522 00be 3B4B     		ldr	r3, .L2+184
 523 00c0 7B60     		str	r3, [r7, #4]
 321:..\..\..\..\..\..\Software\uCOS-II\Source/os_dbg_r.c ****     ptemp = (void const *)&OSTmrCfgMax;
 524              		.loc 1 321 0
 525 00c2 3B4B     		ldr	r3, .L2+188
 526 00c4 7B60     		str	r3, [r7, #4]
 322:..\..\..\..\..\..\Software\uCOS-II\Source/os_dbg_r.c ****     ptemp = (void const *)&OSTmrCfgNameEn;
 527              		.loc 1 322 0
 528 00c6 3B4B     		ldr	r3, .L2+192
 529 00c8 7B60     		str	r3, [r7, #4]
 323:..\..\..\..\..\..\Software\uCOS-II\Source/os_dbg_r.c ****     ptemp = (void const *)&OSTmrCfgWheelSize;
 530              		.loc 1 323 0
 531 00ca 3B4B     		ldr	r3, .L2+196
 532 00cc 7B60     		str	r3, [r7, #4]
ARM GAS  C:\Users\ADMINI~1\AppData\Local\Temp\ccyqxABf.s 			page 16


 324:..\..\..\..\..\..\Software\uCOS-II\Source/os_dbg_r.c ****     ptemp = (void const *)&OSTmrCfgTicksPerSec;
 533              		.loc 1 324 0
 534 00ce 3B4B     		ldr	r3, .L2+200
 535 00d0 7B60     		str	r3, [r7, #4]
 325:..\..\..\..\..\..\Software\uCOS-II\Source/os_dbg_r.c ****     ptemp = (void const *)&OSTmrSize;
 536              		.loc 1 325 0
 537 00d2 3B4B     		ldr	r3, .L2+204
 538 00d4 7B60     		str	r3, [r7, #4]
 326:..\..\..\..\..\..\Software\uCOS-II\Source/os_dbg_r.c ****     ptemp = (void const *)&OSTmrTblSize;
 539              		.loc 1 326 0
 540 00d6 3B4B     		ldr	r3, .L2+208
 541 00d8 7B60     		str	r3, [r7, #4]
 327:..\..\..\..\..\..\Software\uCOS-II\Source/os_dbg_r.c **** 
 328:..\..\..\..\..\..\Software\uCOS-II\Source/os_dbg_r.c ****     ptemp = (void const *)&OSTmrWheelSize;
 542              		.loc 1 328 0
 543 00da 3B4B     		ldr	r3, .L2+212
 544 00dc 7B60     		str	r3, [r7, #4]
 329:..\..\..\..\..\..\Software\uCOS-II\Source/os_dbg_r.c ****     ptemp = (void const *)&OSTmrWheelTblSize;
 545              		.loc 1 329 0
 546 00de 3B4B     		ldr	r3, .L2+216
 547 00e0 7B60     		str	r3, [r7, #4]
 330:..\..\..\..\..\..\Software\uCOS-II\Source/os_dbg_r.c **** #endif
 331:..\..\..\..\..\..\Software\uCOS-II\Source/os_dbg_r.c **** 
 332:..\..\..\..\..\..\Software\uCOS-II\Source/os_dbg_r.c ****     ptemp = (void const *)&OSVersionNbr;
 548              		.loc 1 332 0
 549 00e2 3B4B     		ldr	r3, .L2+220
 550 00e4 7B60     		str	r3, [r7, #4]
 333:..\..\..\..\..\..\Software\uCOS-II\Source/os_dbg_r.c **** 
 334:..\..\..\..\..\..\Software\uCOS-II\Source/os_dbg_r.c ****     ptemp = (void const *)&OSDataSize;
 551              		.loc 1 334 0
 552 00e6 3B4B     		ldr	r3, .L2+224
 553 00e8 7B60     		str	r3, [r7, #4]
 335:..\..\..\..\..\..\Software\uCOS-II\Source/os_dbg_r.c **** 
 336:..\..\..\..\..\..\Software\uCOS-II\Source/os_dbg_r.c ****     ptemp = ptemp;                             /* Prevent compiler warning for 'ptemp' not being us
 337:..\..\..\..\..\..\Software\uCOS-II\Source/os_dbg_r.c **** }
 554              		.loc 1 337 0
 555 00ea C046     		nop
 556 00ec BD46     		mov	sp, r7
 557 00ee 02B0     		add	sp, sp, #8
 558              		@ sp needed
 559 00f0 80BD     		pop	{r7, pc}
 560              	.L3:
 561 00f2 C046     		.align	2
 562              	.L2:
 563 00f4 00000000 		.word	OSDebugEn
 564 00f8 00000000 		.word	OSEndiannessTest
 565 00fc 00000000 		.word	OSEventMax
 566 0100 00000000 		.word	OSEventNameEn
 567 0104 00000000 		.word	OSEventEn
 568 0108 00000000 		.word	OSEventSize
 569 010c 00000000 		.word	OSEventTblSize
 570 0110 00000000 		.word	OSEventMultiEn
 571 0114 00000000 		.word	OSFlagEn
 572 0118 00000000 		.word	OSFlagGrpSize
 573 011c 00000000 		.word	OSFlagNodeSize
 574 0120 00000000 		.word	OSFlagWidth
 575 0124 00000000 		.word	OSFlagMax
ARM GAS  C:\Users\ADMINI~1\AppData\Local\Temp\ccyqxABf.s 			page 17


 576 0128 00000000 		.word	OSFlagNameEn
 577 012c 00000000 		.word	OSLowestPrio
 578 0130 00000000 		.word	OSMboxEn
 579 0134 00000000 		.word	OSMemEn
 580 0138 00000000 		.word	OSMemMax
 581 013c 00000000 		.word	OSMemNameEn
 582 0140 00000000 		.word	OSMemSize
 583 0144 00000000 		.word	OSMemTblSize
 584 0148 00000000 		.word	OSMutexEn
 585 014c 00000000 		.word	OSPtrSize
 586 0150 00000000 		.word	OSQEn
 587 0154 00000000 		.word	OSQMax
 588 0158 00000000 		.word	OSQSize
 589 015c 00000000 		.word	OSRdyTblSize
 590 0160 00000000 		.word	OSSemEn
 591 0164 00000000 		.word	OSStkWidth
 592 0168 00000000 		.word	OSTaskCreateEn
 593 016c 00000000 		.word	OSTaskCreateExtEn
 594 0170 00000000 		.word	OSTaskDelEn
 595 0174 00000000 		.word	OSTaskIdleStkSize
 596 0178 00000000 		.word	OSTaskProfileEn
 597 017c 00000000 		.word	OSTaskMax
 598 0180 00000000 		.word	OSTaskNameEn
 599 0184 00000000 		.word	OSTaskStatEn
 600 0188 00000000 		.word	OSTaskStatStkSize
 601 018c 00000000 		.word	OSTaskStatStkChkEn
 602 0190 00000000 		.word	OSTaskSwHookEn
 603 0194 00000000 		.word	OSTCBPrioTblMax
 604 0198 00000000 		.word	OSTCBSize
 605 019c 00000000 		.word	OSTicksPerSec
 606 01a0 00000000 		.word	OSTimeTickHookEn
 607 01a4 00000000 		.word	OSTmrTbl
 608 01a8 00000000 		.word	OSTmrWheelTbl
 609 01ac 00000000 		.word	OSTmrEn
 610 01b0 00000000 		.word	OSTmrCfgMax
 611 01b4 00000000 		.word	OSTmrCfgNameEn
 612 01b8 00000000 		.word	OSTmrCfgWheelSize
 613 01bc 00000000 		.word	OSTmrCfgTicksPerSec
 614 01c0 00000000 		.word	OSTmrSize
 615 01c4 00000000 		.word	OSTmrTblSize
 616 01c8 00000000 		.word	OSTmrWheelSize
 617 01cc 00000000 		.word	OSTmrWheelTblSize
 618 01d0 00000000 		.word	OSVersionNbr
 619 01d4 00000000 		.word	OSDataSize
 620              		.cfi_endproc
 621              	.LFE1:
 622              		.size	OSDebugInit, .-OSDebugInit
 623              		.text
 624              	.Letext0:
 625              		.file 2 "..\\..\\..\\..\\..\\..\\Software\\uCOS-II\\Ports\\ARM-Cortex-M0\\Generic\\GNU/os_cpu.h"
 626              		.file 3 "..\\..\\..\\..\\..\\..\\Software\\uCOS-II\\Source/ucos_ii.h"