ARM GAS  C:\Users\ADMINI~1\AppData\Local\Temp\ccsfG4Nc.s 			page 1


   1              		.syntax unified
   2              		.cpu cortex-m0
   3              		.fpu softvfp
   4              		.eabi_attribute 20, 1
   5              		.eabi_attribute 21, 1
   6              		.eabi_attribute 23, 3
   7              		.eabi_attribute 24, 1
   8              		.eabi_attribute 25, 1
   9              		.eabi_attribute 26, 1
  10              		.eabi_attribute 30, 6
  11              		.eabi_attribute 34, 0
  12              		.eabi_attribute 18, 4
  13              		.thumb
  14              		.syntax unified
  15              		.file	"os_mbox.c"
  16              		.text
  17              	.Ltext0:
  18              		.cfi_sections	.debug_frame
  19              		.section	.text.OSMboxAccept,"ax",%progbits
  20              		.align	2
  21              		.global	OSMboxAccept
  22              		.code	16
  23              		.thumb_func
  24              		.type	OSMboxAccept, %function
  25              	OSMboxAccept:
  26              	.LFB1:
  27              		.file 1 "..\\..\\..\\..\\..\\..\\Software\\uCOS-II\\Source\\os_mbox.c"
   1:..\..\..\..\..\..\Software\uCOS-II\Source/os_mbox.c **** /*
   2:..\..\..\..\..\..\Software\uCOS-II\Source/os_mbox.c **** ***************************************************************************************************
   3:..\..\..\..\..\..\Software\uCOS-II\Source/os_mbox.c **** *                                                uC/OS-II
   4:..\..\..\..\..\..\Software\uCOS-II\Source/os_mbox.c **** *                                          The Real-Time Kernel
   5:..\..\..\..\..\..\Software\uCOS-II\Source/os_mbox.c **** *                                       MESSAGE MAILBOX MANAGEMENT
   6:..\..\..\..\..\..\Software\uCOS-II\Source/os_mbox.c **** *
   7:..\..\..\..\..\..\Software\uCOS-II\Source/os_mbox.c **** *                              (c) Copyright 1992-2013, Micrium, Weston, FL
   8:..\..\..\..\..\..\Software\uCOS-II\Source/os_mbox.c **** *                                           All Rights Reserved
   9:..\..\..\..\..\..\Software\uCOS-II\Source/os_mbox.c **** *
  10:..\..\..\..\..\..\Software\uCOS-II\Source/os_mbox.c **** * File    : OS_MBOX.C
  11:..\..\..\..\..\..\Software\uCOS-II\Source/os_mbox.c **** * By      : Jean J. Labrosse
  12:..\..\..\..\..\..\Software\uCOS-II\Source/os_mbox.c **** * Version : V2.92.11
  13:..\..\..\..\..\..\Software\uCOS-II\Source/os_mbox.c **** *
  14:..\..\..\..\..\..\Software\uCOS-II\Source/os_mbox.c **** * LICENSING TERMS:
  15:..\..\..\..\..\..\Software\uCOS-II\Source/os_mbox.c **** * ---------------
  16:..\..\..\..\..\..\Software\uCOS-II\Source/os_mbox.c **** *   uC/OS-II is provided in source form for FREE evaluation, for educational use or for peaceful re
  17:..\..\..\..\..\..\Software\uCOS-II\Source/os_mbox.c **** * If you plan on using  uC/OS-II  in a commercial product you need to contact Micrium to properly l
  18:..\..\..\..\..\..\Software\uCOS-II\Source/os_mbox.c **** * its use in your product. We provide ALL the source code for your convenience and to help you expe
  19:..\..\..\..\..\..\Software\uCOS-II\Source/os_mbox.c **** * uC/OS-II.   The fact that the  source is provided does  NOT  mean that you can use it without  pa
  20:..\..\..\..\..\..\Software\uCOS-II\Source/os_mbox.c **** * licensing fee.
  21:..\..\..\..\..\..\Software\uCOS-II\Source/os_mbox.c **** ***************************************************************************************************
  22:..\..\..\..\..\..\Software\uCOS-II\Source/os_mbox.c **** */
  23:..\..\..\..\..\..\Software\uCOS-II\Source/os_mbox.c **** 
  24:..\..\..\..\..\..\Software\uCOS-II\Source/os_mbox.c **** #define  MICRIUM_SOURCE
  25:..\..\..\..\..\..\Software\uCOS-II\Source/os_mbox.c **** 
  26:..\..\..\..\..\..\Software\uCOS-II\Source/os_mbox.c **** #ifndef  OS_MASTER_FILE
  27:..\..\..\..\..\..\Software\uCOS-II\Source/os_mbox.c **** #include <ucos_ii.h>
  28:..\..\..\..\..\..\Software\uCOS-II\Source/os_mbox.c **** #endif
  29:..\..\..\..\..\..\Software\uCOS-II\Source/os_mbox.c **** 
  30:..\..\..\..\..\..\Software\uCOS-II\Source/os_mbox.c **** #if OS_MBOX_EN > 0u
ARM GAS  C:\Users\ADMINI~1\AppData\Local\Temp\ccsfG4Nc.s 			page 2


  31:..\..\..\..\..\..\Software\uCOS-II\Source/os_mbox.c **** /*
  32:..\..\..\..\..\..\Software\uCOS-II\Source/os_mbox.c **** ***************************************************************************************************
  33:..\..\..\..\..\..\Software\uCOS-II\Source/os_mbox.c **** *                                        ACCEPT MESSAGE FROM MAILBOX
  34:..\..\..\..\..\..\Software\uCOS-II\Source/os_mbox.c **** *
  35:..\..\..\..\..\..\Software\uCOS-II\Source/os_mbox.c **** * Description: This function checks the mailbox to see if a message is available.  Unlike OSMboxPen
  36:..\..\..\..\..\..\Software\uCOS-II\Source/os_mbox.c **** *              OSMboxAccept() does not suspend the calling task if a message is not available.
  37:..\..\..\..\..\..\Software\uCOS-II\Source/os_mbox.c **** *
  38:..\..\..\..\..\..\Software\uCOS-II\Source/os_mbox.c **** * Arguments  : pevent        is a pointer to the event control block
  39:..\..\..\..\..\..\Software\uCOS-II\Source/os_mbox.c **** *
  40:..\..\..\..\..\..\Software\uCOS-II\Source/os_mbox.c **** * Returns    : != (void *)0  is the message in the mailbox if one is available.  The mailbox is cle
  41:..\..\..\..\..\..\Software\uCOS-II\Source/os_mbox.c **** *                            so the next time OSMboxAccept() is called, the mailbox will be empty.
  42:..\..\..\..\..\..\Software\uCOS-II\Source/os_mbox.c **** *              == (void *)0  if the mailbox is empty or,
  43:..\..\..\..\..\..\Software\uCOS-II\Source/os_mbox.c **** *                            if 'pevent' is a NULL pointer or,
  44:..\..\..\..\..\..\Software\uCOS-II\Source/os_mbox.c **** *                            if you didn't pass the proper event pointer.
  45:..\..\..\..\..\..\Software\uCOS-II\Source/os_mbox.c **** ***************************************************************************************************
  46:..\..\..\..\..\..\Software\uCOS-II\Source/os_mbox.c **** */
  47:..\..\..\..\..\..\Software\uCOS-II\Source/os_mbox.c **** 
  48:..\..\..\..\..\..\Software\uCOS-II\Source/os_mbox.c **** #if OS_MBOX_ACCEPT_EN > 0u
  49:..\..\..\..\..\..\Software\uCOS-II\Source/os_mbox.c **** void  *OSMboxAccept (OS_EVENT *pevent)
  50:..\..\..\..\..\..\Software\uCOS-II\Source/os_mbox.c **** {
  28              		.loc 1 50 0
  29              		.cfi_startproc
  30              		@ args = 0, pretend = 0, frame = 16
  31              		@ frame_needed = 1, uses_anonymous_args = 0
  32 0000 80B5     		push	{r7, lr}
  33              		.cfi_def_cfa_offset 8
  34              		.cfi_offset 7, -8
  35              		.cfi_offset 14, -4
  36 0002 84B0     		sub	sp, sp, #16
  37              		.cfi_def_cfa_offset 24
  38 0004 00AF     		add	r7, sp, #0
  39              		.cfi_def_cfa_register 7
  40 0006 7860     		str	r0, [r7, #4]
  51:..\..\..\..\..\..\Software\uCOS-II\Source/os_mbox.c ****     void      *pmsg;
  52:..\..\..\..\..\..\Software\uCOS-II\Source/os_mbox.c **** #if OS_CRITICAL_METHOD == 3u                              /* Allocate storage for CPU status regist
  53:..\..\..\..\..\..\Software\uCOS-II\Source/os_mbox.c ****     OS_CPU_SR  cpu_sr = 0u;
  41              		.loc 1 53 0
  42 0008 0023     		movs	r3, #0
  43 000a FB60     		str	r3, [r7, #12]
  54:..\..\..\..\..\..\Software\uCOS-II\Source/os_mbox.c **** #endif
  55:..\..\..\..\..\..\Software\uCOS-II\Source/os_mbox.c **** 
  56:..\..\..\..\..\..\Software\uCOS-II\Source/os_mbox.c **** 
  57:..\..\..\..\..\..\Software\uCOS-II\Source/os_mbox.c **** 
  58:..\..\..\..\..\..\Software\uCOS-II\Source/os_mbox.c **** #if OS_ARG_CHK_EN > 0u
  59:..\..\..\..\..\..\Software\uCOS-II\Source/os_mbox.c ****     if (pevent == (OS_EVENT *)0) {                        /* Validate 'pevent'                     
  44              		.loc 1 59 0
  45 000c 7B68     		ldr	r3, [r7, #4]
  46 000e 002B     		cmp	r3, #0
  47 0010 01D1     		bne	.L2
  60:..\..\..\..\..\..\Software\uCOS-II\Source/os_mbox.c ****         return ((void *)0);
  48              		.loc 1 60 0
  49 0012 0023     		movs	r3, #0
  50 0014 14E0     		b	.L3
  51              	.L2:
  61:..\..\..\..\..\..\Software\uCOS-II\Source/os_mbox.c ****     }
  62:..\..\..\..\..\..\Software\uCOS-II\Source/os_mbox.c **** #endif
  63:..\..\..\..\..\..\Software\uCOS-II\Source/os_mbox.c ****     if (pevent->OSEventType != OS_EVENT_TYPE_MBOX) {      /* Validate event block type             
ARM GAS  C:\Users\ADMINI~1\AppData\Local\Temp\ccsfG4Nc.s 			page 3


  52              		.loc 1 63 0
  53 0016 7B68     		ldr	r3, [r7, #4]
  54 0018 1B78     		ldrb	r3, [r3]
  55 001a 012B     		cmp	r3, #1
  56 001c 01D0     		beq	.L4
  64:..\..\..\..\..\..\Software\uCOS-II\Source/os_mbox.c ****         return ((void *)0);
  57              		.loc 1 64 0
  58 001e 0023     		movs	r3, #0
  59 0020 0EE0     		b	.L3
  60              	.L4:
  65:..\..\..\..\..\..\Software\uCOS-II\Source/os_mbox.c ****     }
  66:..\..\..\..\..\..\Software\uCOS-II\Source/os_mbox.c ****     OS_ENTER_CRITICAL();
  61              		.loc 1 66 0
  62 0022 FFF7FEFF 		bl	OS_CPU_SR_Save
  63 0026 0300     		movs	r3, r0
  64 0028 FB60     		str	r3, [r7, #12]
  67:..\..\..\..\..\..\Software\uCOS-II\Source/os_mbox.c ****     pmsg               = pevent->OSEventPtr;
  65              		.loc 1 67 0
  66 002a 7B68     		ldr	r3, [r7, #4]
  67 002c 5B68     		ldr	r3, [r3, #4]
  68 002e BB60     		str	r3, [r7, #8]
  68:..\..\..\..\..\..\Software\uCOS-II\Source/os_mbox.c ****     pevent->OSEventPtr = (void *)0;                       /* Clear the mailbox                     
  69              		.loc 1 68 0
  70 0030 7B68     		ldr	r3, [r7, #4]
  71 0032 0022     		movs	r2, #0
  72 0034 5A60     		str	r2, [r3, #4]
  69:..\..\..\..\..\..\Software\uCOS-II\Source/os_mbox.c ****     OS_EXIT_CRITICAL();
  73              		.loc 1 69 0
  74 0036 FB68     		ldr	r3, [r7, #12]
  75 0038 1800     		movs	r0, r3
  76 003a FFF7FEFF 		bl	OS_CPU_SR_Restore
  70:..\..\..\..\..\..\Software\uCOS-II\Source/os_mbox.c ****     return (pmsg);                                        /* Return the message received (or NULL) 
  77              		.loc 1 70 0
  78 003e BB68     		ldr	r3, [r7, #8]
  79              	.L3:
  71:..\..\..\..\..\..\Software\uCOS-II\Source/os_mbox.c **** }
  80              		.loc 1 71 0
  81 0040 1800     		movs	r0, r3
  82 0042 BD46     		mov	sp, r7
  83 0044 04B0     		add	sp, sp, #16
  84              		@ sp needed
  85 0046 80BD     		pop	{r7, pc}
  86              		.cfi_endproc
  87              	.LFE1:
  88              		.size	OSMboxAccept, .-OSMboxAccept
  89              		.section	.rodata
  90              		.align	2
  91              	.LC2:
  92 0000 3F00     		.ascii	"?\000"
  93              		.section	.text.OSMboxCreate,"ax",%progbits
  94              		.align	2
  95              		.global	OSMboxCreate
  96              		.code	16
  97              		.thumb_func
  98              		.type	OSMboxCreate, %function
  99              	OSMboxCreate:
 100              	.LFB2:
ARM GAS  C:\Users\ADMINI~1\AppData\Local\Temp\ccsfG4Nc.s 			page 4


  72:..\..\..\..\..\..\Software\uCOS-II\Source/os_mbox.c **** #endif
  73:..\..\..\..\..\..\Software\uCOS-II\Source/os_mbox.c **** /*$PAGE*/
  74:..\..\..\..\..\..\Software\uCOS-II\Source/os_mbox.c **** /*
  75:..\..\..\..\..\..\Software\uCOS-II\Source/os_mbox.c **** ***************************************************************************************************
  76:..\..\..\..\..\..\Software\uCOS-II\Source/os_mbox.c **** *                                          CREATE A MESSAGE MAILBOX
  77:..\..\..\..\..\..\Software\uCOS-II\Source/os_mbox.c **** *
  78:..\..\..\..\..\..\Software\uCOS-II\Source/os_mbox.c **** * Description: This function creates a message mailbox if free event control blocks are available.
  79:..\..\..\..\..\..\Software\uCOS-II\Source/os_mbox.c **** *
  80:..\..\..\..\..\..\Software\uCOS-II\Source/os_mbox.c **** * Arguments  : pmsg          is a pointer to a message that you wish to deposit in the mailbox.  If
  81:..\..\..\..\..\..\Software\uCOS-II\Source/os_mbox.c **** *                            you set this value to the NULL pointer (i.e. (void *)0) then the mailb
  82:..\..\..\..\..\..\Software\uCOS-II\Source/os_mbox.c **** *                            will be considered empty.
  83:..\..\..\..\..\..\Software\uCOS-II\Source/os_mbox.c **** *
  84:..\..\..\..\..\..\Software\uCOS-II\Source/os_mbox.c **** * Returns    : != (OS_EVENT *)0  is a pointer to the event control clock (OS_EVENT) associated with
  85:..\..\..\..\..\..\Software\uCOS-II\Source/os_mbox.c **** *                                created mailbox
  86:..\..\..\..\..\..\Software\uCOS-II\Source/os_mbox.c **** *              == (OS_EVENT *)0  if no event control blocks were available
  87:..\..\..\..\..\..\Software\uCOS-II\Source/os_mbox.c **** ***************************************************************************************************
  88:..\..\..\..\..\..\Software\uCOS-II\Source/os_mbox.c **** */
  89:..\..\..\..\..\..\Software\uCOS-II\Source/os_mbox.c **** 
  90:..\..\..\..\..\..\Software\uCOS-II\Source/os_mbox.c **** OS_EVENT  *OSMboxCreate (void *pmsg)
  91:..\..\..\..\..\..\Software\uCOS-II\Source/os_mbox.c **** {
 101              		.loc 1 91 0
 102              		.cfi_startproc
 103              		@ args = 0, pretend = 0, frame = 16
 104              		@ frame_needed = 1, uses_anonymous_args = 0
 105 0000 80B5     		push	{r7, lr}
 106              		.cfi_def_cfa_offset 8
 107              		.cfi_offset 7, -8
 108              		.cfi_offset 14, -4
 109 0002 84B0     		sub	sp, sp, #16
 110              		.cfi_def_cfa_offset 24
 111 0004 00AF     		add	r7, sp, #0
 112              		.cfi_def_cfa_register 7
 113 0006 7860     		str	r0, [r7, #4]
  92:..\..\..\..\..\..\Software\uCOS-II\Source/os_mbox.c ****     OS_EVENT  *pevent;
  93:..\..\..\..\..\..\Software\uCOS-II\Source/os_mbox.c **** #if OS_CRITICAL_METHOD == 3u                     /* Allocate storage for CPU status register       
  94:..\..\..\..\..\..\Software\uCOS-II\Source/os_mbox.c ****     OS_CPU_SR  cpu_sr = 0u;
 114              		.loc 1 94 0
 115 0008 0023     		movs	r3, #0
 116 000a FB60     		str	r3, [r7, #12]
  95:..\..\..\..\..\..\Software\uCOS-II\Source/os_mbox.c **** #endif
  96:..\..\..\..\..\..\Software\uCOS-II\Source/os_mbox.c **** 
  97:..\..\..\..\..\..\Software\uCOS-II\Source/os_mbox.c **** 
  98:..\..\..\..\..\..\Software\uCOS-II\Source/os_mbox.c **** 
  99:..\..\..\..\..\..\Software\uCOS-II\Source/os_mbox.c **** #ifdef OS_SAFETY_CRITICAL_IEC61508
 100:..\..\..\..\..\..\Software\uCOS-II\Source/os_mbox.c ****     if (OSSafetyCriticalStartFlag == OS_TRUE) {
 101:..\..\..\..\..\..\Software\uCOS-II\Source/os_mbox.c ****         OS_SAFETY_CRITICAL_EXCEPTION();
 102:..\..\..\..\..\..\Software\uCOS-II\Source/os_mbox.c ****         return ((OS_EVENT *)0);
 103:..\..\..\..\..\..\Software\uCOS-II\Source/os_mbox.c ****     }
 104:..\..\..\..\..\..\Software\uCOS-II\Source/os_mbox.c **** #endif
 105:..\..\..\..\..\..\Software\uCOS-II\Source/os_mbox.c **** 
 106:..\..\..\..\..\..\Software\uCOS-II\Source/os_mbox.c ****     if (OSIntNesting > 0u) {                     /* See if called from ISR ...                     
 117              		.loc 1 106 0
 118 000c 184B     		ldr	r3, .L10
 119 000e 1B78     		ldrb	r3, [r3]
 120 0010 002B     		cmp	r3, #0
 121 0012 01D0     		beq	.L6
 107:..\..\..\..\..\..\Software\uCOS-II\Source/os_mbox.c ****         return ((OS_EVENT *)0);                  /* ... can't CREATE from an ISR                   
ARM GAS  C:\Users\ADMINI~1\AppData\Local\Temp\ccsfG4Nc.s 			page 5


 122              		.loc 1 107 0
 123 0014 0023     		movs	r3, #0
 124 0016 27E0     		b	.L7
 125              	.L6:
 108:..\..\..\..\..\..\Software\uCOS-II\Source/os_mbox.c ****     }
 109:..\..\..\..\..\..\Software\uCOS-II\Source/os_mbox.c ****     OS_ENTER_CRITICAL();
 126              		.loc 1 109 0
 127 0018 FFF7FEFF 		bl	OS_CPU_SR_Save
 128 001c 0300     		movs	r3, r0
 129 001e FB60     		str	r3, [r7, #12]
 110:..\..\..\..\..\..\Software\uCOS-II\Source/os_mbox.c ****     pevent = OSEventFreeList;                    /* Get next free event control block              
 130              		.loc 1 110 0
 131 0020 144B     		ldr	r3, .L10+4
 132 0022 1B68     		ldr	r3, [r3]
 133 0024 BB60     		str	r3, [r7, #8]
 111:..\..\..\..\..\..\Software\uCOS-II\Source/os_mbox.c ****     if (OSEventFreeList != (OS_EVENT *)0) {      /* See if pool of free ECB pool was empty         
 134              		.loc 1 111 0
 135 0026 134B     		ldr	r3, .L10+4
 136 0028 1B68     		ldr	r3, [r3]
 137 002a 002B     		cmp	r3, #0
 138 002c 04D0     		beq	.L8
 112:..\..\..\..\..\..\Software\uCOS-II\Source/os_mbox.c ****         OSEventFreeList = (OS_EVENT *)OSEventFreeList->OSEventPtr;
 139              		.loc 1 112 0
 140 002e 114B     		ldr	r3, .L10+4
 141 0030 1B68     		ldr	r3, [r3]
 142 0032 5A68     		ldr	r2, [r3, #4]
 143 0034 0F4B     		ldr	r3, .L10+4
 144 0036 1A60     		str	r2, [r3]
 145              	.L8:
 113:..\..\..\..\..\..\Software\uCOS-II\Source/os_mbox.c ****     }
 114:..\..\..\..\..\..\Software\uCOS-II\Source/os_mbox.c ****     OS_EXIT_CRITICAL();
 146              		.loc 1 114 0
 147 0038 FB68     		ldr	r3, [r7, #12]
 148 003a 1800     		movs	r0, r3
 149 003c FFF7FEFF 		bl	OS_CPU_SR_Restore
 115:..\..\..\..\..\..\Software\uCOS-II\Source/os_mbox.c ****     if (pevent != (OS_EVENT *)0) {
 150              		.loc 1 115 0
 151 0040 BB68     		ldr	r3, [r7, #8]
 152 0042 002B     		cmp	r3, #0
 153 0044 0FD0     		beq	.L9
 116:..\..\..\..\..\..\Software\uCOS-II\Source/os_mbox.c ****         pevent->OSEventType    = OS_EVENT_TYPE_MBOX;
 154              		.loc 1 116 0
 155 0046 BB68     		ldr	r3, [r7, #8]
 156 0048 0122     		movs	r2, #1
 157 004a 1A70     		strb	r2, [r3]
 117:..\..\..\..\..\..\Software\uCOS-II\Source/os_mbox.c ****         pevent->OSEventCnt     = 0u;
 158              		.loc 1 117 0
 159 004c BB68     		ldr	r3, [r7, #8]
 160 004e 0022     		movs	r2, #0
 161 0050 1A81     		strh	r2, [r3, #8]
 118:..\..\..\..\..\..\Software\uCOS-II\Source/os_mbox.c ****         pevent->OSEventPtr     = pmsg;           /* Deposit message in event control block         
 162              		.loc 1 118 0
 163 0052 BB68     		ldr	r3, [r7, #8]
 164 0054 7A68     		ldr	r2, [r7, #4]
 165 0056 5A60     		str	r2, [r3, #4]
 119:..\..\..\..\..\..\Software\uCOS-II\Source/os_mbox.c **** #if OS_EVENT_NAME_EN > 0u
 120:..\..\..\..\..\..\Software\uCOS-II\Source/os_mbox.c ****         pevent->OSEventName    = (INT8U *)(void *)"?";
ARM GAS  C:\Users\ADMINI~1\AppData\Local\Temp\ccsfG4Nc.s 			page 6


 166              		.loc 1 120 0
 167 0058 BB68     		ldr	r3, [r7, #8]
 168 005a 074A     		ldr	r2, .L10+8
 169 005c 5A61     		str	r2, [r3, #20]
 121:..\..\..\..\..\..\Software\uCOS-II\Source/os_mbox.c **** #endif
 122:..\..\..\..\..\..\Software\uCOS-II\Source/os_mbox.c ****         OS_EventWaitListInit(pevent);
 170              		.loc 1 122 0
 171 005e BB68     		ldr	r3, [r7, #8]
 172 0060 1800     		movs	r0, r3
 173 0062 FFF7FEFF 		bl	OS_EventWaitListInit
 174              	.L9:
 123:..\..\..\..\..\..\Software\uCOS-II\Source/os_mbox.c ****     }
 124:..\..\..\..\..\..\Software\uCOS-II\Source/os_mbox.c ****     return (pevent);                             /* Return pointer to event control block          
 175              		.loc 1 124 0
 176 0066 BB68     		ldr	r3, [r7, #8]
 177              	.L7:
 125:..\..\..\..\..\..\Software\uCOS-II\Source/os_mbox.c **** }
 178              		.loc 1 125 0
 179 0068 1800     		movs	r0, r3
 180 006a BD46     		mov	sp, r7
 181 006c 04B0     		add	sp, sp, #16
 182              		@ sp needed
 183 006e 80BD     		pop	{r7, pc}
 184              	.L11:
 185              		.align	2
 186              	.L10:
 187 0070 00000000 		.word	OSIntNesting
 188 0074 00000000 		.word	OSEventFreeList
 189 0078 00000000 		.word	.LC2
 190              		.cfi_endproc
 191              	.LFE2:
 192              		.size	OSMboxCreate, .-OSMboxCreate
 193              		.section	.text.OSMboxDel,"ax",%progbits
 194              		.align	2
 195              		.global	OSMboxDel
 196              		.code	16
 197              		.thumb_func
 198              		.type	OSMboxDel, %function
 199              	OSMboxDel:
 200              	.LFB3:
 126:..\..\..\..\..\..\Software\uCOS-II\Source/os_mbox.c **** /*$PAGE*/
 127:..\..\..\..\..\..\Software\uCOS-II\Source/os_mbox.c **** /*
 128:..\..\..\..\..\..\Software\uCOS-II\Source/os_mbox.c **** ***************************************************************************************************
 129:..\..\..\..\..\..\Software\uCOS-II\Source/os_mbox.c **** *                                           DELETE A MAIBOX
 130:..\..\..\..\..\..\Software\uCOS-II\Source/os_mbox.c **** *
 131:..\..\..\..\..\..\Software\uCOS-II\Source/os_mbox.c **** * Description: This function deletes a mailbox and readies all tasks pending on the mailbox.
 132:..\..\..\..\..\..\Software\uCOS-II\Source/os_mbox.c **** *
 133:..\..\..\..\..\..\Software\uCOS-II\Source/os_mbox.c **** * Arguments  : pevent        is a pointer to the event control block associated with the desired
 134:..\..\..\..\..\..\Software\uCOS-II\Source/os_mbox.c **** *                            mailbox.
 135:..\..\..\..\..\..\Software\uCOS-II\Source/os_mbox.c **** *
 136:..\..\..\..\..\..\Software\uCOS-II\Source/os_mbox.c **** *              opt           determines delete options as follows:
 137:..\..\..\..\..\..\Software\uCOS-II\Source/os_mbox.c **** *                            opt == OS_DEL_NO_PEND   Delete the mailbox ONLY if no task pending
 138:..\..\..\..\..\..\Software\uCOS-II\Source/os_mbox.c **** *                            opt == OS_DEL_ALWAYS    Deletes the mailbox even if tasks are waiting.
 139:..\..\..\..\..\..\Software\uCOS-II\Source/os_mbox.c **** *                                                    In this case, all the tasks pending will be re
 140:..\..\..\..\..\..\Software\uCOS-II\Source/os_mbox.c **** *
 141:..\..\..\..\..\..\Software\uCOS-II\Source/os_mbox.c **** *              perr          is a pointer to an error code that can contain one of the following va
 142:..\..\..\..\..\..\Software\uCOS-II\Source/os_mbox.c **** *                            OS_ERR_NONE             The call was successful and the mailbox was de
ARM GAS  C:\Users\ADMINI~1\AppData\Local\Temp\ccsfG4Nc.s 			page 7


 143:..\..\..\..\..\..\Software\uCOS-II\Source/os_mbox.c **** *                            OS_ERR_DEL_ISR          If you attempted to delete the mailbox from an
 144:..\..\..\..\..\..\Software\uCOS-II\Source/os_mbox.c **** *                            OS_ERR_INVALID_OPT      An invalid option was specified
 145:..\..\..\..\..\..\Software\uCOS-II\Source/os_mbox.c **** *                            OS_ERR_TASK_WAITING     One or more tasks were waiting on the mailbox
 146:..\..\..\..\..\..\Software\uCOS-II\Source/os_mbox.c **** *                            OS_ERR_EVENT_TYPE       If you didn't pass a pointer to a mailbox
 147:..\..\..\..\..\..\Software\uCOS-II\Source/os_mbox.c **** *                            OS_ERR_PEVENT_NULL      If 'pevent' is a NULL pointer.
 148:..\..\..\..\..\..\Software\uCOS-II\Source/os_mbox.c **** *
 149:..\..\..\..\..\..\Software\uCOS-II\Source/os_mbox.c **** * Returns    : pevent        upon error
 150:..\..\..\..\..\..\Software\uCOS-II\Source/os_mbox.c **** *              (OS_EVENT *)0 if the mailbox was successfully deleted.
 151:..\..\..\..\..\..\Software\uCOS-II\Source/os_mbox.c **** *
 152:..\..\..\..\..\..\Software\uCOS-II\Source/os_mbox.c **** * Note(s)    : 1) This function must be used with care.  Tasks that would normally expect the prese
 153:..\..\..\..\..\..\Software\uCOS-II\Source/os_mbox.c **** *                 the mailbox MUST check the return code of OSMboxPend().
 154:..\..\..\..\..\..\Software\uCOS-II\Source/os_mbox.c **** *              2) OSMboxAccept() callers will not know that the intended mailbox has been deleted!
 155:..\..\..\..\..\..\Software\uCOS-II\Source/os_mbox.c **** *              3) This call can potentially disable interrupts for a long time.  The interrupt disa
 156:..\..\..\..\..\..\Software\uCOS-II\Source/os_mbox.c **** *                 time is directly proportional to the number of tasks waiting on the mailbox.
 157:..\..\..\..\..\..\Software\uCOS-II\Source/os_mbox.c **** *              4) Because ALL tasks pending on the mailbox will be readied, you MUST be careful in
 158:..\..\..\..\..\..\Software\uCOS-II\Source/os_mbox.c **** *                 applications where the mailbox is used for mutual exclusion because the resource(
 159:..\..\..\..\..\..\Software\uCOS-II\Source/os_mbox.c **** *                 will no longer be guarded by the mailbox.
 160:..\..\..\..\..\..\Software\uCOS-II\Source/os_mbox.c **** *              5) All tasks that were waiting for the mailbox will be readied and returned an 
 161:..\..\..\..\..\..\Software\uCOS-II\Source/os_mbox.c **** *                 OS_ERR_PEND_ABORT if OSMboxDel() was called with OS_DEL_ALWAYS
 162:..\..\..\..\..\..\Software\uCOS-II\Source/os_mbox.c **** ***************************************************************************************************
 163:..\..\..\..\..\..\Software\uCOS-II\Source/os_mbox.c **** */
 164:..\..\..\..\..\..\Software\uCOS-II\Source/os_mbox.c **** 
 165:..\..\..\..\..\..\Software\uCOS-II\Source/os_mbox.c **** #if OS_MBOX_DEL_EN > 0u
 166:..\..\..\..\..\..\Software\uCOS-II\Source/os_mbox.c **** OS_EVENT  *OSMboxDel (OS_EVENT  *pevent,
 167:..\..\..\..\..\..\Software\uCOS-II\Source/os_mbox.c ****                       INT8U      opt,
 168:..\..\..\..\..\..\Software\uCOS-II\Source/os_mbox.c ****                       INT8U     *perr)
 169:..\..\..\..\..\..\Software\uCOS-II\Source/os_mbox.c **** {
 201              		.loc 1 169 0
 202              		.cfi_startproc
 203              		@ args = 0, pretend = 0, frame = 32
 204              		@ frame_needed = 1, uses_anonymous_args = 0
 205 0000 80B5     		push	{r7, lr}
 206              		.cfi_def_cfa_offset 8
 207              		.cfi_offset 7, -8
 208              		.cfi_offset 14, -4
 209 0002 88B0     		sub	sp, sp, #32
 210              		.cfi_def_cfa_offset 40
 211 0004 00AF     		add	r7, sp, #0
 212              		.cfi_def_cfa_register 7
 213 0006 F860     		str	r0, [r7, #12]
 214 0008 7A60     		str	r2, [r7, #4]
 215 000a 0B23     		movs	r3, #11
 216 000c FB18     		adds	r3, r7, r3
 217 000e 0A1C     		adds	r2, r1, #0
 218 0010 1A70     		strb	r2, [r3]
 170:..\..\..\..\..\..\Software\uCOS-II\Source/os_mbox.c ****     BOOLEAN    tasks_waiting;
 171:..\..\..\..\..\..\Software\uCOS-II\Source/os_mbox.c ****     OS_EVENT  *pevent_return;
 172:..\..\..\..\..\..\Software\uCOS-II\Source/os_mbox.c **** #if OS_CRITICAL_METHOD == 3u                               /* Allocate storage for CPU status regis
 173:..\..\..\..\..\..\Software\uCOS-II\Source/os_mbox.c ****     OS_CPU_SR  cpu_sr = 0u;
 219              		.loc 1 173 0
 220 0012 0023     		movs	r3, #0
 221 0014 7B61     		str	r3, [r7, #20]
 174:..\..\..\..\..\..\Software\uCOS-II\Source/os_mbox.c **** #endif
 175:..\..\..\..\..\..\Software\uCOS-II\Source/os_mbox.c **** 
 176:..\..\..\..\..\..\Software\uCOS-II\Source/os_mbox.c **** 
 177:..\..\..\..\..\..\Software\uCOS-II\Source/os_mbox.c **** 
 178:..\..\..\..\..\..\Software\uCOS-II\Source/os_mbox.c **** #ifdef OS_SAFETY_CRITICAL
ARM GAS  C:\Users\ADMINI~1\AppData\Local\Temp\ccsfG4Nc.s 			page 8


 179:..\..\..\..\..\..\Software\uCOS-II\Source/os_mbox.c ****     if (perr == (INT8U *)0) {
 180:..\..\..\..\..\..\Software\uCOS-II\Source/os_mbox.c ****         OS_SAFETY_CRITICAL_EXCEPTION();
 181:..\..\..\..\..\..\Software\uCOS-II\Source/os_mbox.c ****         return ((OS_EVENT *)0);
 182:..\..\..\..\..\..\Software\uCOS-II\Source/os_mbox.c ****     }
 183:..\..\..\..\..\..\Software\uCOS-II\Source/os_mbox.c **** #endif
 184:..\..\..\..\..\..\Software\uCOS-II\Source/os_mbox.c **** 
 185:..\..\..\..\..\..\Software\uCOS-II\Source/os_mbox.c **** #if OS_ARG_CHK_EN > 0u
 186:..\..\..\..\..\..\Software\uCOS-II\Source/os_mbox.c ****     if (pevent == (OS_EVENT *)0) {                         /* Validate 'pevent'                    
 222              		.loc 1 186 0
 223 0016 FB68     		ldr	r3, [r7, #12]
 224 0018 002B     		cmp	r3, #0
 225 001a 04D1     		bne	.L13
 187:..\..\..\..\..\..\Software\uCOS-II\Source/os_mbox.c ****         *perr = OS_ERR_PEVENT_NULL;
 226              		.loc 1 187 0
 227 001c 7B68     		ldr	r3, [r7, #4]
 228 001e 0422     		movs	r2, #4
 229 0020 1A70     		strb	r2, [r3]
 188:..\..\..\..\..\..\Software\uCOS-II\Source/os_mbox.c ****         return (pevent);
 230              		.loc 1 188 0
 231 0022 FB68     		ldr	r3, [r7, #12]
 232 0024 89E0     		b	.L14
 233              	.L13:
 189:..\..\..\..\..\..\Software\uCOS-II\Source/os_mbox.c ****     }
 190:..\..\..\..\..\..\Software\uCOS-II\Source/os_mbox.c **** #endif
 191:..\..\..\..\..\..\Software\uCOS-II\Source/os_mbox.c ****     if (pevent->OSEventType != OS_EVENT_TYPE_MBOX) {       /* Validate event block type            
 234              		.loc 1 191 0
 235 0026 FB68     		ldr	r3, [r7, #12]
 236 0028 1B78     		ldrb	r3, [r3]
 237 002a 012B     		cmp	r3, #1
 238 002c 04D0     		beq	.L15
 192:..\..\..\..\..\..\Software\uCOS-II\Source/os_mbox.c ****         *perr = OS_ERR_EVENT_TYPE;
 239              		.loc 1 192 0
 240 002e 7B68     		ldr	r3, [r7, #4]
 241 0030 0122     		movs	r2, #1
 242 0032 1A70     		strb	r2, [r3]
 193:..\..\..\..\..\..\Software\uCOS-II\Source/os_mbox.c ****         return (pevent);
 243              		.loc 1 193 0
 244 0034 FB68     		ldr	r3, [r7, #12]
 245 0036 80E0     		b	.L14
 246              	.L15:
 194:..\..\..\..\..\..\Software\uCOS-II\Source/os_mbox.c ****     }
 195:..\..\..\..\..\..\Software\uCOS-II\Source/os_mbox.c ****     if (OSIntNesting > 0u) {                               /* See if called from ISR ...           
 247              		.loc 1 195 0
 248 0038 424B     		ldr	r3, .L29
 249 003a 1B78     		ldrb	r3, [r3]
 250 003c 002B     		cmp	r3, #0
 251 003e 04D0     		beq	.L16
 196:..\..\..\..\..\..\Software\uCOS-II\Source/os_mbox.c ****         *perr = OS_ERR_DEL_ISR;                            /* ... can't DELETE from an ISR         
 252              		.loc 1 196 0
 253 0040 7B68     		ldr	r3, [r7, #4]
 254 0042 0F22     		movs	r2, #15
 255 0044 1A70     		strb	r2, [r3]
 197:..\..\..\..\..\..\Software\uCOS-II\Source/os_mbox.c ****         return (pevent);
 256              		.loc 1 197 0
 257 0046 FB68     		ldr	r3, [r7, #12]
 258 0048 77E0     		b	.L14
 259              	.L16:
ARM GAS  C:\Users\ADMINI~1\AppData\Local\Temp\ccsfG4Nc.s 			page 9


 198:..\..\..\..\..\..\Software\uCOS-II\Source/os_mbox.c ****     }
 199:..\..\..\..\..\..\Software\uCOS-II\Source/os_mbox.c ****     OS_ENTER_CRITICAL();
 260              		.loc 1 199 0
 261 004a FFF7FEFF 		bl	OS_CPU_SR_Save
 262 004e 0300     		movs	r3, r0
 263 0050 7B61     		str	r3, [r7, #20]
 200:..\..\..\..\..\..\Software\uCOS-II\Source/os_mbox.c ****     if (pevent->OSEventGrp != 0u) {                        /* See if any tasks waiting on mailbox  
 264              		.loc 1 200 0
 265 0052 FB68     		ldr	r3, [r7, #12]
 266 0054 9B7A     		ldrb	r3, [r3, #10]
 267 0056 002B     		cmp	r3, #0
 268 0058 04D0     		beq	.L17
 201:..\..\..\..\..\..\Software\uCOS-II\Source/os_mbox.c ****         tasks_waiting = OS_TRUE;                           /* Yes                                  
 269              		.loc 1 201 0
 270 005a 1F23     		movs	r3, #31
 271 005c FB18     		adds	r3, r7, r3
 272 005e 0122     		movs	r2, #1
 273 0060 1A70     		strb	r2, [r3]
 274 0062 03E0     		b	.L18
 275              	.L17:
 202:..\..\..\..\..\..\Software\uCOS-II\Source/os_mbox.c ****     } else {
 203:..\..\..\..\..\..\Software\uCOS-II\Source/os_mbox.c ****         tasks_waiting = OS_FALSE;                          /* No                                   
 276              		.loc 1 203 0
 277 0064 1F23     		movs	r3, #31
 278 0066 FB18     		adds	r3, r7, r3
 279 0068 0022     		movs	r2, #0
 280 006a 1A70     		strb	r2, [r3]
 281              	.L18:
 204:..\..\..\..\..\..\Software\uCOS-II\Source/os_mbox.c ****     }
 205:..\..\..\..\..\..\Software\uCOS-II\Source/os_mbox.c ****     switch (opt) {
 282              		.loc 1 205 0
 283 006c 0B23     		movs	r3, #11
 284 006e FB18     		adds	r3, r7, r3
 285 0070 1B78     		ldrb	r3, [r3]
 286 0072 002B     		cmp	r3, #0
 287 0074 02D0     		beq	.L20
 288 0076 012B     		cmp	r3, #1
 289 0078 2FD0     		beq	.L25
 290 007a 53E0     		b	.L28
 291              	.L20:
 206:..\..\..\..\..\..\Software\uCOS-II\Source/os_mbox.c ****         case OS_DEL_NO_PEND:                               /* Delete mailbox only if no task waitin
 207:..\..\..\..\..\..\Software\uCOS-II\Source/os_mbox.c ****              if (tasks_waiting == OS_FALSE) {
 292              		.loc 1 207 0
 293 007c 1F23     		movs	r3, #31
 294 007e FB18     		adds	r3, r7, r3
 295 0080 1B78     		ldrb	r3, [r3]
 296 0082 002B     		cmp	r3, #0
 297 0084 19D1     		bne	.L22
 208:..\..\..\..\..\..\Software\uCOS-II\Source/os_mbox.c **** #if OS_EVENT_NAME_EN > 0u
 209:..\..\..\..\..\..\Software\uCOS-II\Source/os_mbox.c ****                  pevent->OSEventName = (INT8U *)(void *)"?";
 298              		.loc 1 209 0
 299 0086 FB68     		ldr	r3, [r7, #12]
 300 0088 2F4A     		ldr	r2, .L29+4
 301 008a 5A61     		str	r2, [r3, #20]
 210:..\..\..\..\..\..\Software\uCOS-II\Source/os_mbox.c **** #endif
 211:..\..\..\..\..\..\Software\uCOS-II\Source/os_mbox.c ****                  pevent->OSEventType = OS_EVENT_TYPE_UNUSED;
 302              		.loc 1 211 0
ARM GAS  C:\Users\ADMINI~1\AppData\Local\Temp\ccsfG4Nc.s 			page 10


 303 008c FB68     		ldr	r3, [r7, #12]
 304 008e 0022     		movs	r2, #0
 305 0090 1A70     		strb	r2, [r3]
 212:..\..\..\..\..\..\Software\uCOS-II\Source/os_mbox.c ****                  pevent->OSEventPtr  = OSEventFreeList;    /* Return Event Control Block to free li
 306              		.loc 1 212 0
 307 0092 2E4B     		ldr	r3, .L29+8
 308 0094 1A68     		ldr	r2, [r3]
 309 0096 FB68     		ldr	r3, [r7, #12]
 310 0098 5A60     		str	r2, [r3, #4]
 213:..\..\..\..\..\..\Software\uCOS-II\Source/os_mbox.c ****                  pevent->OSEventCnt  = 0u;
 311              		.loc 1 213 0
 312 009a FB68     		ldr	r3, [r7, #12]
 313 009c 0022     		movs	r2, #0
 314 009e 1A81     		strh	r2, [r3, #8]
 214:..\..\..\..\..\..\Software\uCOS-II\Source/os_mbox.c ****                  OSEventFreeList     = pevent;             /* Get next free event control block    
 315              		.loc 1 214 0
 316 00a0 2A4B     		ldr	r3, .L29+8
 317 00a2 FA68     		ldr	r2, [r7, #12]
 318 00a4 1A60     		str	r2, [r3]
 215:..\..\..\..\..\..\Software\uCOS-II\Source/os_mbox.c ****                  OS_EXIT_CRITICAL();
 319              		.loc 1 215 0
 320 00a6 7B69     		ldr	r3, [r7, #20]
 321 00a8 1800     		movs	r0, r3
 322 00aa FFF7FEFF 		bl	OS_CPU_SR_Restore
 216:..\..\..\..\..\..\Software\uCOS-II\Source/os_mbox.c ****                  *perr               = OS_ERR_NONE;
 323              		.loc 1 216 0
 324 00ae 7B68     		ldr	r3, [r7, #4]
 325 00b0 0022     		movs	r2, #0
 326 00b2 1A70     		strb	r2, [r3]
 217:..\..\..\..\..\..\Software\uCOS-II\Source/os_mbox.c ****                  pevent_return       = (OS_EVENT *)0;      /* Mailbox has been deleted             
 327              		.loc 1 217 0
 328 00b4 0023     		movs	r3, #0
 329 00b6 BB61     		str	r3, [r7, #24]
 218:..\..\..\..\..\..\Software\uCOS-II\Source/os_mbox.c ****              } else {
 219:..\..\..\..\..\..\Software\uCOS-II\Source/os_mbox.c ****                  OS_EXIT_CRITICAL();
 220:..\..\..\..\..\..\Software\uCOS-II\Source/os_mbox.c ****                  *perr               = OS_ERR_TASK_WAITING;
 221:..\..\..\..\..\..\Software\uCOS-II\Source/os_mbox.c ****                  pevent_return       = pevent;
 222:..\..\..\..\..\..\Software\uCOS-II\Source/os_mbox.c ****              }
 223:..\..\..\..\..\..\Software\uCOS-II\Source/os_mbox.c ****              break;
 330              		.loc 1 223 0
 331 00b8 3EE0     		b	.L24
 332              	.L22:
 219:..\..\..\..\..\..\Software\uCOS-II\Source/os_mbox.c ****                  *perr               = OS_ERR_TASK_WAITING;
 333              		.loc 1 219 0
 334 00ba 7B69     		ldr	r3, [r7, #20]
 335 00bc 1800     		movs	r0, r3
 336 00be FFF7FEFF 		bl	OS_CPU_SR_Restore
 220:..\..\..\..\..\..\Software\uCOS-II\Source/os_mbox.c ****                  pevent_return       = pevent;
 337              		.loc 1 220 0
 338 00c2 7B68     		ldr	r3, [r7, #4]
 339 00c4 4922     		movs	r2, #73
 340 00c6 1A70     		strb	r2, [r3]
 221:..\..\..\..\..\..\Software\uCOS-II\Source/os_mbox.c ****              }
 341              		.loc 1 221 0
 342 00c8 FB68     		ldr	r3, [r7, #12]
 343 00ca BB61     		str	r3, [r7, #24]
 344              		.loc 1 223 0
ARM GAS  C:\Users\ADMINI~1\AppData\Local\Temp\ccsfG4Nc.s 			page 11


 345 00cc 34E0     		b	.L24
 346              	.L26:
 224:..\..\..\..\..\..\Software\uCOS-II\Source/os_mbox.c **** 
 225:..\..\..\..\..\..\Software\uCOS-II\Source/os_mbox.c ****         case OS_DEL_ALWAYS:                                /* Always delete the mailbox            
 226:..\..\..\..\..\..\Software\uCOS-II\Source/os_mbox.c ****              while (pevent->OSEventGrp != 0u) {            /* Ready ALL tasks waiting for mailbox  
 227:..\..\..\..\..\..\Software\uCOS-II\Source/os_mbox.c ****                  (void)OS_EventTaskRdy(pevent, (void *)0, OS_STAT_MBOX, OS_STAT_PEND_ABORT);
 347              		.loc 1 227 0
 348 00ce F868     		ldr	r0, [r7, #12]
 349 00d0 0223     		movs	r3, #2
 350 00d2 0222     		movs	r2, #2
 351 00d4 0021     		movs	r1, #0
 352 00d6 FFF7FEFF 		bl	OS_EventTaskRdy
 353              	.L25:
 226:..\..\..\..\..\..\Software\uCOS-II\Source/os_mbox.c ****                  (void)OS_EventTaskRdy(pevent, (void *)0, OS_STAT_MBOX, OS_STAT_PEND_ABORT);
 354              		.loc 1 226 0
 355 00da FB68     		ldr	r3, [r7, #12]
 356 00dc 9B7A     		ldrb	r3, [r3, #10]
 357 00de 002B     		cmp	r3, #0
 358 00e0 F5D1     		bne	.L26
 228:..\..\..\..\..\..\Software\uCOS-II\Source/os_mbox.c ****              }
 229:..\..\..\..\..\..\Software\uCOS-II\Source/os_mbox.c **** #if OS_EVENT_NAME_EN > 0u
 230:..\..\..\..\..\..\Software\uCOS-II\Source/os_mbox.c ****              pevent->OSEventName    = (INT8U *)(void *)"?";
 359              		.loc 1 230 0
 360 00e2 FB68     		ldr	r3, [r7, #12]
 361 00e4 184A     		ldr	r2, .L29+4
 362 00e6 5A61     		str	r2, [r3, #20]
 231:..\..\..\..\..\..\Software\uCOS-II\Source/os_mbox.c **** #endif
 232:..\..\..\..\..\..\Software\uCOS-II\Source/os_mbox.c ****              pevent->OSEventType    = OS_EVENT_TYPE_UNUSED;
 363              		.loc 1 232 0
 364 00e8 FB68     		ldr	r3, [r7, #12]
 365 00ea 0022     		movs	r2, #0
 366 00ec 1A70     		strb	r2, [r3]
 233:..\..\..\..\..\..\Software\uCOS-II\Source/os_mbox.c ****              pevent->OSEventPtr     = OSEventFreeList;     /* Return Event Control Block to free li
 367              		.loc 1 233 0
 368 00ee 174B     		ldr	r3, .L29+8
 369 00f0 1A68     		ldr	r2, [r3]
 370 00f2 FB68     		ldr	r3, [r7, #12]
 371 00f4 5A60     		str	r2, [r3, #4]
 234:..\..\..\..\..\..\Software\uCOS-II\Source/os_mbox.c ****              pevent->OSEventCnt     = 0u;
 372              		.loc 1 234 0
 373 00f6 FB68     		ldr	r3, [r7, #12]
 374 00f8 0022     		movs	r2, #0
 375 00fa 1A81     		strh	r2, [r3, #8]
 235:..\..\..\..\..\..\Software\uCOS-II\Source/os_mbox.c ****              OSEventFreeList        = pevent;              /* Get next free event control block    
 376              		.loc 1 235 0
 377 00fc 134B     		ldr	r3, .L29+8
 378 00fe FA68     		ldr	r2, [r7, #12]
 379 0100 1A60     		str	r2, [r3]
 236:..\..\..\..\..\..\Software\uCOS-II\Source/os_mbox.c ****              OS_EXIT_CRITICAL();
 380              		.loc 1 236 0
 381 0102 7B69     		ldr	r3, [r7, #20]
 382 0104 1800     		movs	r0, r3
 383 0106 FFF7FEFF 		bl	OS_CPU_SR_Restore
 237:..\..\..\..\..\..\Software\uCOS-II\Source/os_mbox.c ****              if (tasks_waiting == OS_TRUE) {               /* Reschedule only if task(s) were waiti
 384              		.loc 1 237 0
 385 010a 1F23     		movs	r3, #31
 386 010c FB18     		adds	r3, r7, r3
ARM GAS  C:\Users\ADMINI~1\AppData\Local\Temp\ccsfG4Nc.s 			page 12


 387 010e 1B78     		ldrb	r3, [r3]
 388 0110 012B     		cmp	r3, #1
 389 0112 01D1     		bne	.L27
 238:..\..\..\..\..\..\Software\uCOS-II\Source/os_mbox.c ****                  OS_Sched();                               /* Find highest priority task ready to r
 390              		.loc 1 238 0
 391 0114 FFF7FEFF 		bl	OS_Sched
 392              	.L27:
 239:..\..\..\..\..\..\Software\uCOS-II\Source/os_mbox.c ****              }
 240:..\..\..\..\..\..\Software\uCOS-II\Source/os_mbox.c ****              *perr         = OS_ERR_NONE;
 393              		.loc 1 240 0
 394 0118 7B68     		ldr	r3, [r7, #4]
 395 011a 0022     		movs	r2, #0
 396 011c 1A70     		strb	r2, [r3]
 241:..\..\..\..\..\..\Software\uCOS-II\Source/os_mbox.c ****              pevent_return = (OS_EVENT *)0;                /* Mailbox has been deleted             
 397              		.loc 1 241 0
 398 011e 0023     		movs	r3, #0
 399 0120 BB61     		str	r3, [r7, #24]
 242:..\..\..\..\..\..\Software\uCOS-II\Source/os_mbox.c ****              break;
 400              		.loc 1 242 0
 401 0122 09E0     		b	.L24
 402              	.L28:
 243:..\..\..\..\..\..\Software\uCOS-II\Source/os_mbox.c **** 
 244:..\..\..\..\..\..\Software\uCOS-II\Source/os_mbox.c ****         default:
 245:..\..\..\..\..\..\Software\uCOS-II\Source/os_mbox.c ****              OS_EXIT_CRITICAL();
 403              		.loc 1 245 0
 404 0124 7B69     		ldr	r3, [r7, #20]
 405 0126 1800     		movs	r0, r3
 406 0128 FFF7FEFF 		bl	OS_CPU_SR_Restore
 246:..\..\..\..\..\..\Software\uCOS-II\Source/os_mbox.c ****              *perr         = OS_ERR_INVALID_OPT;
 407              		.loc 1 246 0
 408 012c 7B68     		ldr	r3, [r7, #4]
 409 012e 0722     		movs	r2, #7
 410 0130 1A70     		strb	r2, [r3]
 247:..\..\..\..\..\..\Software\uCOS-II\Source/os_mbox.c ****              pevent_return = pevent;
 411              		.loc 1 247 0
 412 0132 FB68     		ldr	r3, [r7, #12]
 413 0134 BB61     		str	r3, [r7, #24]
 248:..\..\..\..\..\..\Software\uCOS-II\Source/os_mbox.c ****              break;
 414              		.loc 1 248 0
 415 0136 C046     		nop
 416              	.L24:
 249:..\..\..\..\..\..\Software\uCOS-II\Source/os_mbox.c ****     }
 250:..\..\..\..\..\..\Software\uCOS-II\Source/os_mbox.c ****     return (pevent_return);
 417              		.loc 1 250 0
 418 0138 BB69     		ldr	r3, [r7, #24]
 419              	.L14:
 251:..\..\..\..\..\..\Software\uCOS-II\Source/os_mbox.c **** }
 420              		.loc 1 251 0
 421 013a 1800     		movs	r0, r3
 422 013c BD46     		mov	sp, r7
 423 013e 08B0     		add	sp, sp, #32
 424              		@ sp needed
 425 0140 80BD     		pop	{r7, pc}
 426              	.L30:
 427 0142 C046     		.align	2
 428              	.L29:
 429 0144 00000000 		.word	OSIntNesting
ARM GAS  C:\Users\ADMINI~1\AppData\Local\Temp\ccsfG4Nc.s 			page 13


 430 0148 00000000 		.word	.LC2
 431 014c 00000000 		.word	OSEventFreeList
 432              		.cfi_endproc
 433              	.LFE3:
 434              		.size	OSMboxDel, .-OSMboxDel
 435              		.section	.text.OSMboxPend,"ax",%progbits
 436              		.align	2
 437              		.global	OSMboxPend
 438              		.code	16
 439              		.thumb_func
 440              		.type	OSMboxPend, %function
 441              	OSMboxPend:
 442              	.LFB4:
 252:..\..\..\..\..\..\Software\uCOS-II\Source/os_mbox.c **** #endif
 253:..\..\..\..\..\..\Software\uCOS-II\Source/os_mbox.c **** 
 254:..\..\..\..\..\..\Software\uCOS-II\Source/os_mbox.c **** /*$PAGE*/
 255:..\..\..\..\..\..\Software\uCOS-II\Source/os_mbox.c **** /*
 256:..\..\..\..\..\..\Software\uCOS-II\Source/os_mbox.c **** ***************************************************************************************************
 257:..\..\..\..\..\..\Software\uCOS-II\Source/os_mbox.c **** *                                    PEND ON MAILBOX FOR A MESSAGE
 258:..\..\..\..\..\..\Software\uCOS-II\Source/os_mbox.c **** *
 259:..\..\..\..\..\..\Software\uCOS-II\Source/os_mbox.c **** * Description: This function waits for a message to be sent to a mailbox
 260:..\..\..\..\..\..\Software\uCOS-II\Source/os_mbox.c **** *
 261:..\..\..\..\..\..\Software\uCOS-II\Source/os_mbox.c **** * Arguments  : pevent        is a pointer to the event control block associated with the desired ma
 262:..\..\..\..\..\..\Software\uCOS-II\Source/os_mbox.c **** *
 263:..\..\..\..\..\..\Software\uCOS-II\Source/os_mbox.c **** *              timeout       is an optional timeout period (in clock ticks).  If non-zero, your tas
 264:..\..\..\..\..\..\Software\uCOS-II\Source/os_mbox.c **** *                            wait for a message to arrive at the mailbox up to the amount of time
 265:..\..\..\..\..\..\Software\uCOS-II\Source/os_mbox.c **** *                            specified by this argument.  If you specify 0, however, your task will
 266:..\..\..\..\..\..\Software\uCOS-II\Source/os_mbox.c **** *                            forever at the specified mailbox or, until a message arrives.
 267:..\..\..\..\..\..\Software\uCOS-II\Source/os_mbox.c **** *
 268:..\..\..\..\..\..\Software\uCOS-II\Source/os_mbox.c **** *              perr          is a pointer to where an error message will be deposited.  Possible er
 269:..\..\..\..\..\..\Software\uCOS-II\Source/os_mbox.c **** *                            messages are:
 270:..\..\..\..\..\..\Software\uCOS-II\Source/os_mbox.c **** *
 271:..\..\..\..\..\..\Software\uCOS-II\Source/os_mbox.c **** *                            OS_ERR_NONE         The call was successful and your task received a
 272:..\..\..\..\..\..\Software\uCOS-II\Source/os_mbox.c **** *                                                message.
 273:..\..\..\..\..\..\Software\uCOS-II\Source/os_mbox.c **** *                            OS_ERR_TIMEOUT      A message was not received within the specified 't
 274:..\..\..\..\..\..\Software\uCOS-II\Source/os_mbox.c **** *                            OS_ERR_PEND_ABORT   The wait on the mailbox was aborted.
 275:..\..\..\..\..\..\Software\uCOS-II\Source/os_mbox.c **** *                            OS_ERR_EVENT_TYPE   Invalid event type
 276:..\..\..\..\..\..\Software\uCOS-II\Source/os_mbox.c **** *                            OS_ERR_PEND_ISR     If you called this function from an ISR and the re
 277:..\..\..\..\..\..\Software\uCOS-II\Source/os_mbox.c **** *                                                would lead to a suspension.
 278:..\..\..\..\..\..\Software\uCOS-II\Source/os_mbox.c **** *                            OS_ERR_PEVENT_NULL  If 'pevent' is a NULL pointer
 279:..\..\..\..\..\..\Software\uCOS-II\Source/os_mbox.c **** *                            OS_ERR_PEND_LOCKED  If you called this function when the scheduler is 
 280:..\..\..\..\..\..\Software\uCOS-II\Source/os_mbox.c **** *
 281:..\..\..\..\..\..\Software\uCOS-II\Source/os_mbox.c **** * Returns    : != (void *)0  is a pointer to the message received
 282:..\..\..\..\..\..\Software\uCOS-II\Source/os_mbox.c **** *              == (void *)0  if no message was received or,
 283:..\..\..\..\..\..\Software\uCOS-II\Source/os_mbox.c **** *                            if 'pevent' is a NULL pointer or,
 284:..\..\..\..\..\..\Software\uCOS-II\Source/os_mbox.c **** *                            if you didn't pass the proper pointer to the event control block.
 285:..\..\..\..\..\..\Software\uCOS-II\Source/os_mbox.c **** ***************************************************************************************************
 286:..\..\..\..\..\..\Software\uCOS-II\Source/os_mbox.c **** */
 287:..\..\..\..\..\..\Software\uCOS-II\Source/os_mbox.c **** /*$PAGE*/
 288:..\..\..\..\..\..\Software\uCOS-II\Source/os_mbox.c **** void  *OSMboxPend (OS_EVENT  *pevent,
 289:..\..\..\..\..\..\Software\uCOS-II\Source/os_mbox.c ****                    INT32U     timeout,
 290:..\..\..\..\..\..\Software\uCOS-II\Source/os_mbox.c ****                    INT8U     *perr)
 291:..\..\..\..\..\..\Software\uCOS-II\Source/os_mbox.c **** {
 443              		.loc 1 291 0
 444              		.cfi_startproc
 445              		@ args = 0, pretend = 0, frame = 24
 446              		@ frame_needed = 1, uses_anonymous_args = 0
ARM GAS  C:\Users\ADMINI~1\AppData\Local\Temp\ccsfG4Nc.s 			page 14


 447 0000 80B5     		push	{r7, lr}
 448              		.cfi_def_cfa_offset 8
 449              		.cfi_offset 7, -8
 450              		.cfi_offset 14, -4
 451 0002 86B0     		sub	sp, sp, #24
 452              		.cfi_def_cfa_offset 32
 453 0004 00AF     		add	r7, sp, #0
 454              		.cfi_def_cfa_register 7
 455 0006 F860     		str	r0, [r7, #12]
 456 0008 B960     		str	r1, [r7, #8]
 457 000a 7A60     		str	r2, [r7, #4]
 292:..\..\..\..\..\..\Software\uCOS-II\Source/os_mbox.c ****     void      *pmsg;
 293:..\..\..\..\..\..\Software\uCOS-II\Source/os_mbox.c **** #if OS_CRITICAL_METHOD == 3u                          /* Allocate storage for CPU status register  
 294:..\..\..\..\..\..\Software\uCOS-II\Source/os_mbox.c ****     OS_CPU_SR  cpu_sr = 0u;
 458              		.loc 1 294 0
 459 000c 0023     		movs	r3, #0
 460 000e 3B61     		str	r3, [r7, #16]
 295:..\..\..\..\..\..\Software\uCOS-II\Source/os_mbox.c **** #endif
 296:..\..\..\..\..\..\Software\uCOS-II\Source/os_mbox.c **** 
 297:..\..\..\..\..\..\Software\uCOS-II\Source/os_mbox.c **** 
 298:..\..\..\..\..\..\Software\uCOS-II\Source/os_mbox.c **** 
 299:..\..\..\..\..\..\Software\uCOS-II\Source/os_mbox.c **** #ifdef OS_SAFETY_CRITICAL
 300:..\..\..\..\..\..\Software\uCOS-II\Source/os_mbox.c ****     if (perr == (INT8U *)0) {
 301:..\..\..\..\..\..\Software\uCOS-II\Source/os_mbox.c ****         OS_SAFETY_CRITICAL_EXCEPTION();
 302:..\..\..\..\..\..\Software\uCOS-II\Source/os_mbox.c ****         return ((void *)0);
 303:..\..\..\..\..\..\Software\uCOS-II\Source/os_mbox.c ****     }
 304:..\..\..\..\..\..\Software\uCOS-II\Source/os_mbox.c **** #endif
 305:..\..\..\..\..\..\Software\uCOS-II\Source/os_mbox.c **** 
 306:..\..\..\..\..\..\Software\uCOS-II\Source/os_mbox.c **** #if OS_ARG_CHK_EN > 0u
 307:..\..\..\..\..\..\Software\uCOS-II\Source/os_mbox.c ****     if (pevent == (OS_EVENT *)0) {                    /* Validate 'pevent'                         
 461              		.loc 1 307 0
 462 0010 FB68     		ldr	r3, [r7, #12]
 463 0012 002B     		cmp	r3, #0
 464 0014 04D1     		bne	.L32
 308:..\..\..\..\..\..\Software\uCOS-II\Source/os_mbox.c ****         *perr = OS_ERR_PEVENT_NULL;
 465              		.loc 1 308 0
 466 0016 7B68     		ldr	r3, [r7, #4]
 467 0018 0422     		movs	r2, #4
 468 001a 1A70     		strb	r2, [r3]
 309:..\..\..\..\..\..\Software\uCOS-II\Source/os_mbox.c ****         return ((void *)0);
 469              		.loc 1 309 0
 470 001c 0023     		movs	r3, #0
 471 001e 91E0     		b	.L33
 472              	.L32:
 310:..\..\..\..\..\..\Software\uCOS-II\Source/os_mbox.c ****     }
 311:..\..\..\..\..\..\Software\uCOS-II\Source/os_mbox.c **** #endif
 312:..\..\..\..\..\..\Software\uCOS-II\Source/os_mbox.c ****     if (pevent->OSEventType != OS_EVENT_TYPE_MBOX) {  /* Validate event block type                 
 473              		.loc 1 312 0
 474 0020 FB68     		ldr	r3, [r7, #12]
 475 0022 1B78     		ldrb	r3, [r3]
 476 0024 012B     		cmp	r3, #1
 477 0026 04D0     		beq	.L34
 313:..\..\..\..\..\..\Software\uCOS-II\Source/os_mbox.c ****         *perr = OS_ERR_EVENT_TYPE;
 478              		.loc 1 313 0
 479 0028 7B68     		ldr	r3, [r7, #4]
 480 002a 0122     		movs	r2, #1
 481 002c 1A70     		strb	r2, [r3]
ARM GAS  C:\Users\ADMINI~1\AppData\Local\Temp\ccsfG4Nc.s 			page 15


 314:..\..\..\..\..\..\Software\uCOS-II\Source/os_mbox.c ****         return ((void *)0);
 482              		.loc 1 314 0
 483 002e 0023     		movs	r3, #0
 484 0030 88E0     		b	.L33
 485              	.L34:
 315:..\..\..\..\..\..\Software\uCOS-II\Source/os_mbox.c ****     }
 316:..\..\..\..\..\..\Software\uCOS-II\Source/os_mbox.c ****     if (OSIntNesting > 0u) {                          /* See if called from ISR ...                
 486              		.loc 1 316 0
 487 0032 464B     		ldr	r3, .L43
 488 0034 1B78     		ldrb	r3, [r3]
 489 0036 002B     		cmp	r3, #0
 490 0038 04D0     		beq	.L35
 317:..\..\..\..\..\..\Software\uCOS-II\Source/os_mbox.c ****         *perr = OS_ERR_PEND_ISR;                      /* ... can't PEND from an ISR                
 491              		.loc 1 317 0
 492 003a 7B68     		ldr	r3, [r7, #4]
 493 003c 0222     		movs	r2, #2
 494 003e 1A70     		strb	r2, [r3]
 318:..\..\..\..\..\..\Software\uCOS-II\Source/os_mbox.c ****         return ((void *)0);
 495              		.loc 1 318 0
 496 0040 0023     		movs	r3, #0
 497 0042 7FE0     		b	.L33
 498              	.L35:
 319:..\..\..\..\..\..\Software\uCOS-II\Source/os_mbox.c ****     }
 320:..\..\..\..\..\..\Software\uCOS-II\Source/os_mbox.c ****     if (OSLockNesting > 0u) {                         /* See if called with scheduler locked ...   
 499              		.loc 1 320 0
 500 0044 424B     		ldr	r3, .L43+4
 501 0046 1B78     		ldrb	r3, [r3]
 502 0048 002B     		cmp	r3, #0
 503 004a 04D0     		beq	.L36
 321:..\..\..\..\..\..\Software\uCOS-II\Source/os_mbox.c ****         *perr = OS_ERR_PEND_LOCKED;                   /* ... can't PEND when locked                
 504              		.loc 1 321 0
 505 004c 7B68     		ldr	r3, [r7, #4]
 506 004e 0D22     		movs	r2, #13
 507 0050 1A70     		strb	r2, [r3]
 322:..\..\..\..\..\..\Software\uCOS-II\Source/os_mbox.c ****         return ((void *)0);
 508              		.loc 1 322 0
 509 0052 0023     		movs	r3, #0
 510 0054 76E0     		b	.L33
 511              	.L36:
 323:..\..\..\..\..\..\Software\uCOS-II\Source/os_mbox.c ****     }
 324:..\..\..\..\..\..\Software\uCOS-II\Source/os_mbox.c ****     OS_ENTER_CRITICAL();
 512              		.loc 1 324 0
 513 0056 FFF7FEFF 		bl	OS_CPU_SR_Save
 514 005a 0300     		movs	r3, r0
 515 005c 3B61     		str	r3, [r7, #16]
 325:..\..\..\..\..\..\Software\uCOS-II\Source/os_mbox.c ****     pmsg = pevent->OSEventPtr;
 516              		.loc 1 325 0
 517 005e FB68     		ldr	r3, [r7, #12]
 518 0060 5B68     		ldr	r3, [r3, #4]
 519 0062 7B61     		str	r3, [r7, #20]
 326:..\..\..\..\..\..\Software\uCOS-II\Source/os_mbox.c ****     if (pmsg != (void *)0) {                          /* See if there is already a message         
 520              		.loc 1 326 0
 521 0064 7B69     		ldr	r3, [r7, #20]
 522 0066 002B     		cmp	r3, #0
 523 0068 0BD0     		beq	.L37
 327:..\..\..\..\..\..\Software\uCOS-II\Source/os_mbox.c ****         pevent->OSEventPtr = (void *)0;               /* Clear the mailbox                         
 524              		.loc 1 327 0
ARM GAS  C:\Users\ADMINI~1\AppData\Local\Temp\ccsfG4Nc.s 			page 16


 525 006a FB68     		ldr	r3, [r7, #12]
 526 006c 0022     		movs	r2, #0
 527 006e 5A60     		str	r2, [r3, #4]
 328:..\..\..\..\..\..\Software\uCOS-II\Source/os_mbox.c ****         OS_EXIT_CRITICAL();
 528              		.loc 1 328 0
 529 0070 3B69     		ldr	r3, [r7, #16]
 530 0072 1800     		movs	r0, r3
 531 0074 FFF7FEFF 		bl	OS_CPU_SR_Restore
 329:..\..\..\..\..\..\Software\uCOS-II\Source/os_mbox.c ****         *perr = OS_ERR_NONE;
 532              		.loc 1 329 0
 533 0078 7B68     		ldr	r3, [r7, #4]
 534 007a 0022     		movs	r2, #0
 535 007c 1A70     		strb	r2, [r3]
 330:..\..\..\..\..\..\Software\uCOS-II\Source/os_mbox.c ****         return (pmsg);                                /* Return the message received (or NULL)     
 536              		.loc 1 330 0
 537 007e 7B69     		ldr	r3, [r7, #20]
 538 0080 60E0     		b	.L33
 539              	.L37:
 331:..\..\..\..\..\..\Software\uCOS-II\Source/os_mbox.c ****     }
 332:..\..\..\..\..\..\Software\uCOS-II\Source/os_mbox.c ****     OSTCBCur->OSTCBStat     |= OS_STAT_MBOX;          /* Message not available, task will pend     
 540              		.loc 1 332 0
 541 0082 344B     		ldr	r3, .L43+8
 542 0084 1A68     		ldr	r2, [r3]
 543 0086 334B     		ldr	r3, .L43+8
 544 0088 1B68     		ldr	r3, [r3]
 545 008a 3421     		movs	r1, #52
 546 008c 5B5C     		ldrb	r3, [r3, r1]
 547 008e 0221     		movs	r1, #2
 548 0090 0B43     		orrs	r3, r1
 549 0092 D9B2     		uxtb	r1, r3
 550 0094 3423     		movs	r3, #52
 551 0096 D154     		strb	r1, [r2, r3]
 333:..\..\..\..\..\..\Software\uCOS-II\Source/os_mbox.c ****     OSTCBCur->OSTCBStatPend  = OS_STAT_PEND_OK;
 552              		.loc 1 333 0
 553 0098 2E4B     		ldr	r3, .L43+8
 554 009a 1B68     		ldr	r3, [r3]
 555 009c 3522     		movs	r2, #53
 556 009e 0021     		movs	r1, #0
 557 00a0 9954     		strb	r1, [r3, r2]
 334:..\..\..\..\..\..\Software\uCOS-II\Source/os_mbox.c ****     OSTCBCur->OSTCBDly       = timeout;               /* Load timeout in TCB                       
 558              		.loc 1 334 0
 559 00a2 2C4B     		ldr	r3, .L43+8
 560 00a4 1B68     		ldr	r3, [r3]
 561 00a6 BA68     		ldr	r2, [r7, #8]
 562 00a8 1A63     		str	r2, [r3, #48]
 335:..\..\..\..\..\..\Software\uCOS-II\Source/os_mbox.c ****     OS_EventTaskWait(pevent);                         /* Suspend task until event or timeout occurs
 563              		.loc 1 335 0
 564 00aa FB68     		ldr	r3, [r7, #12]
 565 00ac 1800     		movs	r0, r3
 566 00ae FFF7FEFF 		bl	OS_EventTaskWait
 336:..\..\..\..\..\..\Software\uCOS-II\Source/os_mbox.c ****     OS_EXIT_CRITICAL();
 567              		.loc 1 336 0
 568 00b2 3B69     		ldr	r3, [r7, #16]
 569 00b4 1800     		movs	r0, r3
 570 00b6 FFF7FEFF 		bl	OS_CPU_SR_Restore
 337:..\..\..\..\..\..\Software\uCOS-II\Source/os_mbox.c ****     OS_Sched();                                       /* Find next highest priority task ready to r
 571              		.loc 1 337 0
ARM GAS  C:\Users\ADMINI~1\AppData\Local\Temp\ccsfG4Nc.s 			page 17


 572 00ba FFF7FEFF 		bl	OS_Sched
 338:..\..\..\..\..\..\Software\uCOS-II\Source/os_mbox.c ****     OS_ENTER_CRITICAL();
 573              		.loc 1 338 0
 574 00be FFF7FEFF 		bl	OS_CPU_SR_Save
 575 00c2 0300     		movs	r3, r0
 576 00c4 3B61     		str	r3, [r7, #16]
 339:..\..\..\..\..\..\Software\uCOS-II\Source/os_mbox.c ****     switch (OSTCBCur->OSTCBStatPend) {                /* See if we timed-out or aborted            
 577              		.loc 1 339 0
 578 00c6 234B     		ldr	r3, .L43+8
 579 00c8 1B68     		ldr	r3, [r3]
 580 00ca 3522     		movs	r2, #53
 581 00cc 9B5C     		ldrb	r3, [r3, r2]
 582 00ce 002B     		cmp	r3, #0
 583 00d0 02D0     		beq	.L39
 584 00d2 022B     		cmp	r3, #2
 585 00d4 08D0     		beq	.L40
 586 00d6 0DE0     		b	.L42
 587              	.L39:
 340:..\..\..\..\..\..\Software\uCOS-II\Source/os_mbox.c ****         case OS_STAT_PEND_OK:
 341:..\..\..\..\..\..\Software\uCOS-II\Source/os_mbox.c ****              pmsg =  OSTCBCur->OSTCBMsg;
 588              		.loc 1 341 0
 589 00d8 1E4B     		ldr	r3, .L43+8
 590 00da 1B68     		ldr	r3, [r3]
 591 00dc 5B6A     		ldr	r3, [r3, #36]
 592 00de 7B61     		str	r3, [r7, #20]
 342:..\..\..\..\..\..\Software\uCOS-II\Source/os_mbox.c ****             *perr =  OS_ERR_NONE;
 593              		.loc 1 342 0
 594 00e0 7B68     		ldr	r3, [r7, #4]
 595 00e2 0022     		movs	r2, #0
 596 00e4 1A70     		strb	r2, [r3]
 343:..\..\..\..\..\..\Software\uCOS-II\Source/os_mbox.c ****              break;
 597              		.loc 1 343 0
 598 00e6 12E0     		b	.L41
 599              	.L40:
 344:..\..\..\..\..\..\Software\uCOS-II\Source/os_mbox.c **** 
 345:..\..\..\..\..\..\Software\uCOS-II\Source/os_mbox.c ****         case OS_STAT_PEND_ABORT:
 346:..\..\..\..\..\..\Software\uCOS-II\Source/os_mbox.c ****              pmsg = (void *)0;
 600              		.loc 1 346 0
 601 00e8 0023     		movs	r3, #0
 602 00ea 7B61     		str	r3, [r7, #20]
 347:..\..\..\..\..\..\Software\uCOS-II\Source/os_mbox.c ****             *perr =  OS_ERR_PEND_ABORT;               /* Indicate that we aborted                  
 603              		.loc 1 347 0
 604 00ec 7B68     		ldr	r3, [r7, #4]
 605 00ee 0E22     		movs	r2, #14
 606 00f0 1A70     		strb	r2, [r3]
 348:..\..\..\..\..\..\Software\uCOS-II\Source/os_mbox.c ****              break;
 607              		.loc 1 348 0
 608 00f2 0CE0     		b	.L41
 609              	.L42:
 349:..\..\..\..\..\..\Software\uCOS-II\Source/os_mbox.c **** 
 350:..\..\..\..\..\..\Software\uCOS-II\Source/os_mbox.c ****         case OS_STAT_PEND_TO:
 351:..\..\..\..\..\..\Software\uCOS-II\Source/os_mbox.c ****         default:
 352:..\..\..\..\..\..\Software\uCOS-II\Source/os_mbox.c ****              OS_EventTaskRemove(OSTCBCur, pevent);
 610              		.loc 1 352 0
 611 00f4 174B     		ldr	r3, .L43+8
 612 00f6 1B68     		ldr	r3, [r3]
 613 00f8 FA68     		ldr	r2, [r7, #12]
ARM GAS  C:\Users\ADMINI~1\AppData\Local\Temp\ccsfG4Nc.s 			page 18


 614 00fa 1100     		movs	r1, r2
 615 00fc 1800     		movs	r0, r3
 616 00fe FFF7FEFF 		bl	OS_EventTaskRemove
 353:..\..\..\..\..\..\Software\uCOS-II\Source/os_mbox.c ****              pmsg = (void *)0;
 617              		.loc 1 353 0
 618 0102 0023     		movs	r3, #0
 619 0104 7B61     		str	r3, [r7, #20]
 354:..\..\..\..\..\..\Software\uCOS-II\Source/os_mbox.c ****             *perr =  OS_ERR_TIMEOUT;                  /* Indicate that we didn't get event within T
 620              		.loc 1 354 0
 621 0106 7B68     		ldr	r3, [r7, #4]
 622 0108 0A22     		movs	r2, #10
 623 010a 1A70     		strb	r2, [r3]
 355:..\..\..\..\..\..\Software\uCOS-II\Source/os_mbox.c ****              break;
 624              		.loc 1 355 0
 625 010c C046     		nop
 626              	.L41:
 356:..\..\..\..\..\..\Software\uCOS-II\Source/os_mbox.c ****     }
 357:..\..\..\..\..\..\Software\uCOS-II\Source/os_mbox.c ****     OSTCBCur->OSTCBStat          =  OS_STAT_RDY;      /* Set   task  status to ready               
 627              		.loc 1 357 0
 628 010e 114B     		ldr	r3, .L43+8
 629 0110 1B68     		ldr	r3, [r3]
 630 0112 3422     		movs	r2, #52
 631 0114 0021     		movs	r1, #0
 632 0116 9954     		strb	r1, [r3, r2]
 358:..\..\..\..\..\..\Software\uCOS-II\Source/os_mbox.c ****     OSTCBCur->OSTCBStatPend      =  OS_STAT_PEND_OK;  /* Clear pend  status                        
 633              		.loc 1 358 0
 634 0118 0E4B     		ldr	r3, .L43+8
 635 011a 1B68     		ldr	r3, [r3]
 636 011c 3522     		movs	r2, #53
 637 011e 0021     		movs	r1, #0
 638 0120 9954     		strb	r1, [r3, r2]
 359:..\..\..\..\..\..\Software\uCOS-II\Source/os_mbox.c ****     OSTCBCur->OSTCBEventPtr      = (OS_EVENT  *)0;    /* Clear event pointers                      
 639              		.loc 1 359 0
 640 0122 0C4B     		ldr	r3, .L43+8
 641 0124 1B68     		ldr	r3, [r3]
 642 0126 0022     		movs	r2, #0
 643 0128 DA61     		str	r2, [r3, #28]
 360:..\..\..\..\..\..\Software\uCOS-II\Source/os_mbox.c **** #if (OS_EVENT_MULTI_EN > 0u)
 361:..\..\..\..\..\..\Software\uCOS-II\Source/os_mbox.c ****     OSTCBCur->OSTCBEventMultiPtr = (OS_EVENT **)0;
 644              		.loc 1 361 0
 645 012a 0A4B     		ldr	r3, .L43+8
 646 012c 1B68     		ldr	r3, [r3]
 647 012e 0022     		movs	r2, #0
 648 0130 1A62     		str	r2, [r3, #32]
 362:..\..\..\..\..\..\Software\uCOS-II\Source/os_mbox.c **** #endif
 363:..\..\..\..\..\..\Software\uCOS-II\Source/os_mbox.c ****     OSTCBCur->OSTCBMsg           = (void      *)0;    /* Clear  received message                   
 649              		.loc 1 363 0
 650 0132 084B     		ldr	r3, .L43+8
 651 0134 1B68     		ldr	r3, [r3]
 652 0136 0022     		movs	r2, #0
 653 0138 5A62     		str	r2, [r3, #36]
 364:..\..\..\..\..\..\Software\uCOS-II\Source/os_mbox.c ****     OS_EXIT_CRITICAL();
 654              		.loc 1 364 0
 655 013a 3B69     		ldr	r3, [r7, #16]
 656 013c 1800     		movs	r0, r3
 657 013e FFF7FEFF 		bl	OS_CPU_SR_Restore
 365:..\..\..\..\..\..\Software\uCOS-II\Source/os_mbox.c ****     return (pmsg);                                    /* Return received message                   
ARM GAS  C:\Users\ADMINI~1\AppData\Local\Temp\ccsfG4Nc.s 			page 19


 658              		.loc 1 365 0
 659 0142 7B69     		ldr	r3, [r7, #20]
 660              	.L33:
 366:..\..\..\..\..\..\Software\uCOS-II\Source/os_mbox.c **** }
 661              		.loc 1 366 0
 662 0144 1800     		movs	r0, r3
 663 0146 BD46     		mov	sp, r7
 664 0148 06B0     		add	sp, sp, #24
 665              		@ sp needed
 666 014a 80BD     		pop	{r7, pc}
 667              	.L44:
 668              		.align	2
 669              	.L43:
 670 014c 00000000 		.word	OSIntNesting
 671 0150 00000000 		.word	OSLockNesting
 672 0154 00000000 		.word	OSTCBCur
 673              		.cfi_endproc
 674              	.LFE4:
 675              		.size	OSMboxPend, .-OSMboxPend
 676              		.section	.text.OSMboxPendAbort,"ax",%progbits
 677              		.align	2
 678              		.global	OSMboxPendAbort
 679              		.code	16
 680              		.thumb_func
 681              		.type	OSMboxPendAbort, %function
 682              	OSMboxPendAbort:
 683              	.LFB5:
 367:..\..\..\..\..\..\Software\uCOS-II\Source/os_mbox.c **** /*$PAGE*/
 368:..\..\..\..\..\..\Software\uCOS-II\Source/os_mbox.c **** /*
 369:..\..\..\..\..\..\Software\uCOS-II\Source/os_mbox.c **** ***************************************************************************************************
 370:..\..\..\..\..\..\Software\uCOS-II\Source/os_mbox.c **** *                                     ABORT WAITING ON A MESSAGE MAILBOX
 371:..\..\..\..\..\..\Software\uCOS-II\Source/os_mbox.c **** *
 372:..\..\..\..\..\..\Software\uCOS-II\Source/os_mbox.c **** * Description: This function aborts & readies any tasks currently waiting on a mailbox.  This funct
 373:..\..\..\..\..\..\Software\uCOS-II\Source/os_mbox.c **** *              should be used to fault-abort the wait on the mailbox, rather than to normally signa
 374:..\..\..\..\..\..\Software\uCOS-II\Source/os_mbox.c **** *              the mailbox via OSMboxPost() or OSMboxPostOpt().
 375:..\..\..\..\..\..\Software\uCOS-II\Source/os_mbox.c **** *
 376:..\..\..\..\..\..\Software\uCOS-II\Source/os_mbox.c **** * Arguments  : pevent        is a pointer to the event control block associated with the desired ma
 377:..\..\..\..\..\..\Software\uCOS-II\Source/os_mbox.c **** *
 378:..\..\..\..\..\..\Software\uCOS-II\Source/os_mbox.c **** *              opt           determines the type of ABORT performed:
 379:..\..\..\..\..\..\Software\uCOS-II\Source/os_mbox.c **** *                            OS_PEND_OPT_NONE         ABORT wait for a single task (HPT) waiting on
 380:..\..\..\..\..\..\Software\uCOS-II\Source/os_mbox.c **** *                                                     mailbox
 381:..\..\..\..\..\..\Software\uCOS-II\Source/os_mbox.c **** *                            OS_PEND_OPT_BROADCAST    ABORT wait for ALL tasks that are  waiting on
 382:..\..\..\..\..\..\Software\uCOS-II\Source/os_mbox.c **** *                                                     mailbox
 383:..\..\..\..\..\..\Software\uCOS-II\Source/os_mbox.c **** *
 384:..\..\..\..\..\..\Software\uCOS-II\Source/os_mbox.c **** *              perr          is a pointer to where an error message will be deposited.  Possible er
 385:..\..\..\..\..\..\Software\uCOS-II\Source/os_mbox.c **** *                            messages are:
 386:..\..\..\..\..\..\Software\uCOS-II\Source/os_mbox.c **** *
 387:..\..\..\..\..\..\Software\uCOS-II\Source/os_mbox.c **** *                            OS_ERR_NONE         No tasks were     waiting on the mailbox.
 388:..\..\..\..\..\..\Software\uCOS-II\Source/os_mbox.c **** *                            OS_ERR_PEND_ABORT   At least one task waiting on the mailbox was readi
 389:..\..\..\..\..\..\Software\uCOS-II\Source/os_mbox.c **** *                                                and informed of the aborted wait; check return val
 390:..\..\..\..\..\..\Software\uCOS-II\Source/os_mbox.c **** *                                                for the number of tasks whose wait on the mailbox
 391:..\..\..\..\..\..\Software\uCOS-II\Source/os_mbox.c **** *                                                was aborted.
 392:..\..\..\..\..\..\Software\uCOS-II\Source/os_mbox.c **** *                            OS_ERR_EVENT_TYPE   If you didn't pass a pointer to a mailbox.
 393:..\..\..\..\..\..\Software\uCOS-II\Source/os_mbox.c **** *                            OS_ERR_PEVENT_NULL  If 'pevent' is a NULL pointer.
 394:..\..\..\..\..\..\Software\uCOS-II\Source/os_mbox.c **** *
 395:..\..\..\..\..\..\Software\uCOS-II\Source/os_mbox.c **** * Returns    : == 0          if no tasks were waiting on the mailbox, or upon error.
 396:..\..\..\..\..\..\Software\uCOS-II\Source/os_mbox.c **** *              >  0          if one or more tasks waiting on the mailbox are now readied and inform
ARM GAS  C:\Users\ADMINI~1\AppData\Local\Temp\ccsfG4Nc.s 			page 20


 397:..\..\..\..\..\..\Software\uCOS-II\Source/os_mbox.c **** ***************************************************************************************************
 398:..\..\..\..\..\..\Software\uCOS-II\Source/os_mbox.c **** */
 399:..\..\..\..\..\..\Software\uCOS-II\Source/os_mbox.c **** 
 400:..\..\..\..\..\..\Software\uCOS-II\Source/os_mbox.c **** #if OS_MBOX_PEND_ABORT_EN > 0u
 401:..\..\..\..\..\..\Software\uCOS-II\Source/os_mbox.c **** INT8U  OSMboxPendAbort (OS_EVENT  *pevent,
 402:..\..\..\..\..\..\Software\uCOS-II\Source/os_mbox.c ****                         INT8U      opt,
 403:..\..\..\..\..\..\Software\uCOS-II\Source/os_mbox.c ****                         INT8U     *perr)
 404:..\..\..\..\..\..\Software\uCOS-II\Source/os_mbox.c **** {
 684              		.loc 1 404 0
 685              		.cfi_startproc
 686              		@ args = 0, pretend = 0, frame = 24
 687              		@ frame_needed = 1, uses_anonymous_args = 0
 688 0000 80B5     		push	{r7, lr}
 689              		.cfi_def_cfa_offset 8
 690              		.cfi_offset 7, -8
 691              		.cfi_offset 14, -4
 692 0002 86B0     		sub	sp, sp, #24
 693              		.cfi_def_cfa_offset 32
 694 0004 00AF     		add	r7, sp, #0
 695              		.cfi_def_cfa_register 7
 696 0006 F860     		str	r0, [r7, #12]
 697 0008 7A60     		str	r2, [r7, #4]
 698 000a 0B23     		movs	r3, #11
 699 000c FB18     		adds	r3, r7, r3
 700 000e 0A1C     		adds	r2, r1, #0
 701 0010 1A70     		strb	r2, [r3]
 405:..\..\..\..\..\..\Software\uCOS-II\Source/os_mbox.c ****     INT8U      nbr_tasks;
 406:..\..\..\..\..\..\Software\uCOS-II\Source/os_mbox.c **** #if OS_CRITICAL_METHOD == 3u                               /* Allocate storage for CPU status regis
 407:..\..\..\..\..\..\Software\uCOS-II\Source/os_mbox.c ****     OS_CPU_SR  cpu_sr = 0u;
 702              		.loc 1 407 0
 703 0012 0023     		movs	r3, #0
 704 0014 3B61     		str	r3, [r7, #16]
 408:..\..\..\..\..\..\Software\uCOS-II\Source/os_mbox.c **** #endif
 409:..\..\..\..\..\..\Software\uCOS-II\Source/os_mbox.c **** 
 410:..\..\..\..\..\..\Software\uCOS-II\Source/os_mbox.c **** 
 411:..\..\..\..\..\..\Software\uCOS-II\Source/os_mbox.c **** 
 412:..\..\..\..\..\..\Software\uCOS-II\Source/os_mbox.c **** #ifdef OS_SAFETY_CRITICAL
 413:..\..\..\..\..\..\Software\uCOS-II\Source/os_mbox.c ****     if (perr == (INT8U *)0) {
 414:..\..\..\..\..\..\Software\uCOS-II\Source/os_mbox.c ****         OS_SAFETY_CRITICAL_EXCEPTION();
 415:..\..\..\..\..\..\Software\uCOS-II\Source/os_mbox.c ****         return (0u);
 416:..\..\..\..\..\..\Software\uCOS-II\Source/os_mbox.c ****     }
 417:..\..\..\..\..\..\Software\uCOS-II\Source/os_mbox.c **** #endif
 418:..\..\..\..\..\..\Software\uCOS-II\Source/os_mbox.c **** 
 419:..\..\..\..\..\..\Software\uCOS-II\Source/os_mbox.c **** #if OS_ARG_CHK_EN > 0u
 420:..\..\..\..\..\..\Software\uCOS-II\Source/os_mbox.c ****     if (pevent == (OS_EVENT *)0) {                         /* Validate 'pevent'                    
 705              		.loc 1 420 0
 706 0016 FB68     		ldr	r3, [r7, #12]
 707 0018 002B     		cmp	r3, #0
 708 001a 04D1     		bne	.L46
 421:..\..\..\..\..\..\Software\uCOS-II\Source/os_mbox.c ****         *perr = OS_ERR_PEVENT_NULL;
 709              		.loc 1 421 0
 710 001c 7B68     		ldr	r3, [r7, #4]
 711 001e 0422     		movs	r2, #4
 712 0020 1A70     		strb	r2, [r3]
 422:..\..\..\..\..\..\Software\uCOS-II\Source/os_mbox.c ****         return (0u);
 713              		.loc 1 422 0
 714 0022 0023     		movs	r3, #0
ARM GAS  C:\Users\ADMINI~1\AppData\Local\Temp\ccsfG4Nc.s 			page 21


 715 0024 4FE0     		b	.L47
 716              	.L46:
 423:..\..\..\..\..\..\Software\uCOS-II\Source/os_mbox.c ****     }
 424:..\..\..\..\..\..\Software\uCOS-II\Source/os_mbox.c **** #endif
 425:..\..\..\..\..\..\Software\uCOS-II\Source/os_mbox.c ****     if (pevent->OSEventType != OS_EVENT_TYPE_MBOX) {       /* Validate event block type            
 717              		.loc 1 425 0
 718 0026 FB68     		ldr	r3, [r7, #12]
 719 0028 1B78     		ldrb	r3, [r3]
 720 002a 012B     		cmp	r3, #1
 721 002c 04D0     		beq	.L48
 426:..\..\..\..\..\..\Software\uCOS-II\Source/os_mbox.c ****         *perr = OS_ERR_EVENT_TYPE;
 722              		.loc 1 426 0
 723 002e 7B68     		ldr	r3, [r7, #4]
 724 0030 0122     		movs	r2, #1
 725 0032 1A70     		strb	r2, [r3]
 427:..\..\..\..\..\..\Software\uCOS-II\Source/os_mbox.c ****         return (0u);
 726              		.loc 1 427 0
 727 0034 0023     		movs	r3, #0
 728 0036 46E0     		b	.L47
 729              	.L48:
 428:..\..\..\..\..\..\Software\uCOS-II\Source/os_mbox.c ****     }
 429:..\..\..\..\..\..\Software\uCOS-II\Source/os_mbox.c ****     OS_ENTER_CRITICAL();
 730              		.loc 1 429 0
 731 0038 FFF7FEFF 		bl	OS_CPU_SR_Save
 732 003c 0300     		movs	r3, r0
 733 003e 3B61     		str	r3, [r7, #16]
 430:..\..\..\..\..\..\Software\uCOS-II\Source/os_mbox.c ****     if (pevent->OSEventGrp != 0u) {                        /* See if any task waiting on mailbox?  
 734              		.loc 1 430 0
 735 0040 FB68     		ldr	r3, [r7, #12]
 736 0042 9B7A     		ldrb	r3, [r3, #10]
 737 0044 002B     		cmp	r3, #0
 738 0046 36D0     		beq	.L49
 431:..\..\..\..\..\..\Software\uCOS-II\Source/os_mbox.c ****         nbr_tasks = 0u;
 739              		.loc 1 431 0
 740 0048 1723     		movs	r3, #23
 741 004a FB18     		adds	r3, r7, r3
 742 004c 0022     		movs	r2, #0
 743 004e 1A70     		strb	r2, [r3]
 432:..\..\..\..\..\..\Software\uCOS-II\Source/os_mbox.c ****         switch (opt) {
 744              		.loc 1 432 0
 745 0050 0B23     		movs	r3, #11
 746 0052 FB18     		adds	r3, r7, r3
 747 0054 1B78     		ldrb	r3, [r3]
 748 0056 012B     		cmp	r3, #1
 749 0058 12D1     		bne	.L55
 433:..\..\..\..\..\..\Software\uCOS-II\Source/os_mbox.c ****             case OS_PEND_OPT_BROADCAST:                    /* Do we need to abort ALL waiting tasks
 434:..\..\..\..\..\..\Software\uCOS-II\Source/os_mbox.c ****                  while (pevent->OSEventGrp != 0u) {        /* Yes, ready ALL tasks waiting on mailb
 750              		.loc 1 434 0
 751 005a 0CE0     		b	.L52
 752              	.L53:
 435:..\..\..\..\..\..\Software\uCOS-II\Source/os_mbox.c ****                      (void)OS_EventTaskRdy(pevent, (void *)0, OS_STAT_MBOX, OS_STAT_PEND_ABORT);
 753              		.loc 1 435 0
 754 005c F868     		ldr	r0, [r7, #12]
 755 005e 0223     		movs	r3, #2
 756 0060 0222     		movs	r2, #2
 757 0062 0021     		movs	r1, #0
 758 0064 FFF7FEFF 		bl	OS_EventTaskRdy
ARM GAS  C:\Users\ADMINI~1\AppData\Local\Temp\ccsfG4Nc.s 			page 22


 436:..\..\..\..\..\..\Software\uCOS-II\Source/os_mbox.c ****                      nbr_tasks++;
 759              		.loc 1 436 0
 760 0068 1723     		movs	r3, #23
 761 006a FB18     		adds	r3, r7, r3
 762 006c 1A78     		ldrb	r2, [r3]
 763 006e 1723     		movs	r3, #23
 764 0070 FB18     		adds	r3, r7, r3
 765 0072 0132     		adds	r2, r2, #1
 766 0074 1A70     		strb	r2, [r3]
 767              	.L52:
 434:..\..\..\..\..\..\Software\uCOS-II\Source/os_mbox.c ****                      (void)OS_EventTaskRdy(pevent, (void *)0, OS_STAT_MBOX, OS_STAT_PEND_ABORT);
 768              		.loc 1 434 0
 769 0076 FB68     		ldr	r3, [r7, #12]
 770 0078 9B7A     		ldrb	r3, [r3, #10]
 771 007a 002B     		cmp	r3, #0
 772 007c EED1     		bne	.L53
 437:..\..\..\..\..\..\Software\uCOS-II\Source/os_mbox.c ****                  }
 438:..\..\..\..\..\..\Software\uCOS-II\Source/os_mbox.c ****                  break;
 773              		.loc 1 438 0
 774 007e 0DE0     		b	.L54
 775              	.L55:
 439:..\..\..\..\..\..\Software\uCOS-II\Source/os_mbox.c **** 
 440:..\..\..\..\..\..\Software\uCOS-II\Source/os_mbox.c ****             case OS_PEND_OPT_NONE:
 441:..\..\..\..\..\..\Software\uCOS-II\Source/os_mbox.c ****             default:                                       /* No,  ready HPT       waiting on mailb
 442:..\..\..\..\..\..\Software\uCOS-II\Source/os_mbox.c ****                  (void)OS_EventTaskRdy(pevent, (void *)0, OS_STAT_MBOX, OS_STAT_PEND_ABORT);
 776              		.loc 1 442 0
 777 0080 F868     		ldr	r0, [r7, #12]
 778 0082 0223     		movs	r3, #2
 779 0084 0222     		movs	r2, #2
 780 0086 0021     		movs	r1, #0
 781 0088 FFF7FEFF 		bl	OS_EventTaskRdy
 443:..\..\..\..\..\..\Software\uCOS-II\Source/os_mbox.c ****                  nbr_tasks++;
 782              		.loc 1 443 0
 783 008c 1723     		movs	r3, #23
 784 008e FB18     		adds	r3, r7, r3
 785 0090 1A78     		ldrb	r2, [r3]
 786 0092 1723     		movs	r3, #23
 787 0094 FB18     		adds	r3, r7, r3
 788 0096 0132     		adds	r2, r2, #1
 789 0098 1A70     		strb	r2, [r3]
 444:..\..\..\..\..\..\Software\uCOS-II\Source/os_mbox.c ****                  break;
 790              		.loc 1 444 0
 791 009a C046     		nop
 792              	.L54:
 445:..\..\..\..\..\..\Software\uCOS-II\Source/os_mbox.c ****         }
 446:..\..\..\..\..\..\Software\uCOS-II\Source/os_mbox.c ****         OS_EXIT_CRITICAL();
 793              		.loc 1 446 0
 794 009c 3B69     		ldr	r3, [r7, #16]
 795 009e 1800     		movs	r0, r3
 796 00a0 FFF7FEFF 		bl	OS_CPU_SR_Restore
 447:..\..\..\..\..\..\Software\uCOS-II\Source/os_mbox.c ****         OS_Sched();                                        /* Find HPT ready to run                
 797              		.loc 1 447 0
 798 00a4 FFF7FEFF 		bl	OS_Sched
 448:..\..\..\..\..\..\Software\uCOS-II\Source/os_mbox.c ****         *perr = OS_ERR_PEND_ABORT;
 799              		.loc 1 448 0
 800 00a8 7B68     		ldr	r3, [r7, #4]
 801 00aa 0E22     		movs	r2, #14
ARM GAS  C:\Users\ADMINI~1\AppData\Local\Temp\ccsfG4Nc.s 			page 23


 802 00ac 1A70     		strb	r2, [r3]
 449:..\..\..\..\..\..\Software\uCOS-II\Source/os_mbox.c ****         return (nbr_tasks);
 803              		.loc 1 449 0
 804 00ae 1723     		movs	r3, #23
 805 00b0 FB18     		adds	r3, r7, r3
 806 00b2 1B78     		ldrb	r3, [r3]
 807 00b4 07E0     		b	.L47
 808              	.L49:
 450:..\..\..\..\..\..\Software\uCOS-II\Source/os_mbox.c ****     }
 451:..\..\..\..\..\..\Software\uCOS-II\Source/os_mbox.c ****     OS_EXIT_CRITICAL();
 809              		.loc 1 451 0
 810 00b6 3B69     		ldr	r3, [r7, #16]
 811 00b8 1800     		movs	r0, r3
 812 00ba FFF7FEFF 		bl	OS_CPU_SR_Restore
 452:..\..\..\..\..\..\Software\uCOS-II\Source/os_mbox.c ****     *perr = OS_ERR_NONE;
 813              		.loc 1 452 0
 814 00be 7B68     		ldr	r3, [r7, #4]
 815 00c0 0022     		movs	r2, #0
 816 00c2 1A70     		strb	r2, [r3]
 453:..\..\..\..\..\..\Software\uCOS-II\Source/os_mbox.c ****     return (0u);                                           /* No tasks waiting on mailbox          
 817              		.loc 1 453 0
 818 00c4 0023     		movs	r3, #0
 819              	.L47:
 454:..\..\..\..\..\..\Software\uCOS-II\Source/os_mbox.c **** }
 820              		.loc 1 454 0
 821 00c6 1800     		movs	r0, r3
 822 00c8 BD46     		mov	sp, r7
 823 00ca 06B0     		add	sp, sp, #24
 824              		@ sp needed
 825 00cc 80BD     		pop	{r7, pc}
 826              		.cfi_endproc
 827              	.LFE5:
 828              		.size	OSMboxPendAbort, .-OSMboxPendAbort
 829 00ce C046     		.section	.text.OSMboxPost,"ax",%progbits
 830              		.align	2
 831              		.global	OSMboxPost
 832              		.code	16
 833              		.thumb_func
 834              		.type	OSMboxPost, %function
 835              	OSMboxPost:
 836              	.LFB6:
 455:..\..\..\..\..\..\Software\uCOS-II\Source/os_mbox.c **** #endif
 456:..\..\..\..\..\..\Software\uCOS-II\Source/os_mbox.c **** 
 457:..\..\..\..\..\..\Software\uCOS-II\Source/os_mbox.c **** /*$PAGE*/
 458:..\..\..\..\..\..\Software\uCOS-II\Source/os_mbox.c **** /*
 459:..\..\..\..\..\..\Software\uCOS-II\Source/os_mbox.c **** ***************************************************************************************************
 460:..\..\..\..\..\..\Software\uCOS-II\Source/os_mbox.c **** *                                      POST MESSAGE TO A MAILBOX
 461:..\..\..\..\..\..\Software\uCOS-II\Source/os_mbox.c **** *
 462:..\..\..\..\..\..\Software\uCOS-II\Source/os_mbox.c **** * Description: This function sends a message to a mailbox
 463:..\..\..\..\..\..\Software\uCOS-II\Source/os_mbox.c **** *
 464:..\..\..\..\..\..\Software\uCOS-II\Source/os_mbox.c **** * Arguments  : pevent        is a pointer to the event control block associated with the desired ma
 465:..\..\..\..\..\..\Software\uCOS-II\Source/os_mbox.c **** *
 466:..\..\..\..\..\..\Software\uCOS-II\Source/os_mbox.c **** *              pmsg          is a pointer to the message to send.  You MUST NOT send a NULL pointer
 467:..\..\..\..\..\..\Software\uCOS-II\Source/os_mbox.c **** *
 468:..\..\..\..\..\..\Software\uCOS-II\Source/os_mbox.c **** * Returns    : OS_ERR_NONE          The call was successful and the message was sent
 469:..\..\..\..\..\..\Software\uCOS-II\Source/os_mbox.c **** *              OS_ERR_MBOX_FULL     If the mailbox already contains a message.  You can can only se
 470:..\..\..\..\..\..\Software\uCOS-II\Source/os_mbox.c **** *                                   message at a time and thus, the message MUST be consumed before
ARM GAS  C:\Users\ADMINI~1\AppData\Local\Temp\ccsfG4Nc.s 			page 24


 471:..\..\..\..\..\..\Software\uCOS-II\Source/os_mbox.c **** *                                   are allowed to send another one.
 472:..\..\..\..\..\..\Software\uCOS-II\Source/os_mbox.c **** *              OS_ERR_EVENT_TYPE    If you are attempting to post to a non mailbox.
 473:..\..\..\..\..\..\Software\uCOS-II\Source/os_mbox.c **** *              OS_ERR_PEVENT_NULL   If 'pevent' is a NULL pointer
 474:..\..\..\..\..\..\Software\uCOS-II\Source/os_mbox.c **** *              OS_ERR_POST_NULL_PTR If you are attempting to post a NULL pointer
 475:..\..\..\..\..\..\Software\uCOS-II\Source/os_mbox.c **** *
 476:..\..\..\..\..\..\Software\uCOS-II\Source/os_mbox.c **** * Note(s)    : 1) HPT means Highest Priority Task
 477:..\..\..\..\..\..\Software\uCOS-II\Source/os_mbox.c **** ***************************************************************************************************
 478:..\..\..\..\..\..\Software\uCOS-II\Source/os_mbox.c **** */
 479:..\..\..\..\..\..\Software\uCOS-II\Source/os_mbox.c **** 
 480:..\..\..\..\..\..\Software\uCOS-II\Source/os_mbox.c **** #if OS_MBOX_POST_EN > 0u
 481:..\..\..\..\..\..\Software\uCOS-II\Source/os_mbox.c **** INT8U  OSMboxPost (OS_EVENT  *pevent,
 482:..\..\..\..\..\..\Software\uCOS-II\Source/os_mbox.c ****                    void      *pmsg)
 483:..\..\..\..\..\..\Software\uCOS-II\Source/os_mbox.c **** {
 837              		.loc 1 483 0
 838              		.cfi_startproc
 839              		@ args = 0, pretend = 0, frame = 16
 840              		@ frame_needed = 1, uses_anonymous_args = 0
 841 0000 80B5     		push	{r7, lr}
 842              		.cfi_def_cfa_offset 8
 843              		.cfi_offset 7, -8
 844              		.cfi_offset 14, -4
 845 0002 84B0     		sub	sp, sp, #16
 846              		.cfi_def_cfa_offset 24
 847 0004 00AF     		add	r7, sp, #0
 848              		.cfi_def_cfa_register 7
 849 0006 7860     		str	r0, [r7, #4]
 850 0008 3960     		str	r1, [r7]
 484:..\..\..\..\..\..\Software\uCOS-II\Source/os_mbox.c **** #if OS_CRITICAL_METHOD == 3u                          /* Allocate storage for CPU status register  
 485:..\..\..\..\..\..\Software\uCOS-II\Source/os_mbox.c ****     OS_CPU_SR  cpu_sr = 0u;
 851              		.loc 1 485 0
 852 000a 0023     		movs	r3, #0
 853 000c FB60     		str	r3, [r7, #12]
 486:..\..\..\..\..\..\Software\uCOS-II\Source/os_mbox.c **** #endif
 487:..\..\..\..\..\..\Software\uCOS-II\Source/os_mbox.c **** 
 488:..\..\..\..\..\..\Software\uCOS-II\Source/os_mbox.c **** 
 489:..\..\..\..\..\..\Software\uCOS-II\Source/os_mbox.c **** 
 490:..\..\..\..\..\..\Software\uCOS-II\Source/os_mbox.c **** #if OS_ARG_CHK_EN > 0u
 491:..\..\..\..\..\..\Software\uCOS-II\Source/os_mbox.c ****     if (pevent == (OS_EVENT *)0) {                    /* Validate 'pevent'                         
 854              		.loc 1 491 0
 855 000e 7B68     		ldr	r3, [r7, #4]
 856 0010 002B     		cmp	r3, #0
 857 0012 01D1     		bne	.L57
 492:..\..\..\..\..\..\Software\uCOS-II\Source/os_mbox.c ****         return (OS_ERR_PEVENT_NULL);
 858              		.loc 1 492 0
 859 0014 0423     		movs	r3, #4
 860 0016 32E0     		b	.L58
 861              	.L57:
 493:..\..\..\..\..\..\Software\uCOS-II\Source/os_mbox.c ****     }
 494:..\..\..\..\..\..\Software\uCOS-II\Source/os_mbox.c ****     if (pmsg == (void *)0) {                          /* Make sure we are not posting a NULL pointe
 862              		.loc 1 494 0
 863 0018 3B68     		ldr	r3, [r7]
 864 001a 002B     		cmp	r3, #0
 865 001c 01D1     		bne	.L59
 495:..\..\..\..\..\..\Software\uCOS-II\Source/os_mbox.c ****         return (OS_ERR_POST_NULL_PTR);
 866              		.loc 1 495 0
 867 001e 0323     		movs	r3, #3
 868 0020 2DE0     		b	.L58
ARM GAS  C:\Users\ADMINI~1\AppData\Local\Temp\ccsfG4Nc.s 			page 25


 869              	.L59:
 496:..\..\..\..\..\..\Software\uCOS-II\Source/os_mbox.c ****     }
 497:..\..\..\..\..\..\Software\uCOS-II\Source/os_mbox.c **** #endif
 498:..\..\..\..\..\..\Software\uCOS-II\Source/os_mbox.c ****     if (pevent->OSEventType != OS_EVENT_TYPE_MBOX) {  /* Validate event block type                 
 870              		.loc 1 498 0
 871 0022 7B68     		ldr	r3, [r7, #4]
 872 0024 1B78     		ldrb	r3, [r3]
 873 0026 012B     		cmp	r3, #1
 874 0028 01D0     		beq	.L60
 499:..\..\..\..\..\..\Software\uCOS-II\Source/os_mbox.c ****         return (OS_ERR_EVENT_TYPE);
 875              		.loc 1 499 0
 876 002a 0123     		movs	r3, #1
 877 002c 27E0     		b	.L58
 878              	.L60:
 500:..\..\..\..\..\..\Software\uCOS-II\Source/os_mbox.c ****     }
 501:..\..\..\..\..\..\Software\uCOS-II\Source/os_mbox.c ****     OS_ENTER_CRITICAL();
 879              		.loc 1 501 0
 880 002e FFF7FEFF 		bl	OS_CPU_SR_Save
 881 0032 0300     		movs	r3, r0
 882 0034 FB60     		str	r3, [r7, #12]
 502:..\..\..\..\..\..\Software\uCOS-II\Source/os_mbox.c ****     if (pevent->OSEventGrp != 0u) {                   /* See if any task pending on mailbox        
 883              		.loc 1 502 0
 884 0036 7B68     		ldr	r3, [r7, #4]
 885 0038 9B7A     		ldrb	r3, [r3, #10]
 886 003a 002B     		cmp	r3, #0
 887 003c 0DD0     		beq	.L61
 503:..\..\..\..\..\..\Software\uCOS-II\Source/os_mbox.c ****                                                       /* Ready HPT waiting on event                
 504:..\..\..\..\..\..\Software\uCOS-II\Source/os_mbox.c ****         (void)OS_EventTaskRdy(pevent, pmsg, OS_STAT_MBOX, OS_STAT_PEND_OK);
 888              		.loc 1 504 0
 889 003e 3968     		ldr	r1, [r7]
 890 0040 7868     		ldr	r0, [r7, #4]
 891 0042 0023     		movs	r3, #0
 892 0044 0222     		movs	r2, #2
 893 0046 FFF7FEFF 		bl	OS_EventTaskRdy
 505:..\..\..\..\..\..\Software\uCOS-II\Source/os_mbox.c ****         OS_EXIT_CRITICAL();
 894              		.loc 1 505 0
 895 004a FB68     		ldr	r3, [r7, #12]
 896 004c 1800     		movs	r0, r3
 897 004e FFF7FEFF 		bl	OS_CPU_SR_Restore
 506:..\..\..\..\..\..\Software\uCOS-II\Source/os_mbox.c ****         OS_Sched();                                   /* Find highest priority task ready to run   
 898              		.loc 1 506 0
 899 0052 FFF7FEFF 		bl	OS_Sched
 507:..\..\..\..\..\..\Software\uCOS-II\Source/os_mbox.c ****         return (OS_ERR_NONE);
 900              		.loc 1 507 0
 901 0056 0023     		movs	r3, #0
 902 0058 11E0     		b	.L58
 903              	.L61:
 508:..\..\..\..\..\..\Software\uCOS-II\Source/os_mbox.c ****     }
 509:..\..\..\..\..\..\Software\uCOS-II\Source/os_mbox.c ****     if (pevent->OSEventPtr != (void *)0) {            /* Make sure mailbox doesn't already have a m
 904              		.loc 1 509 0
 905 005a 7B68     		ldr	r3, [r7, #4]
 906 005c 5B68     		ldr	r3, [r3, #4]
 907 005e 002B     		cmp	r3, #0
 908 0060 05D0     		beq	.L62
 510:..\..\..\..\..\..\Software\uCOS-II\Source/os_mbox.c ****         OS_EXIT_CRITICAL();
 909              		.loc 1 510 0
 910 0062 FB68     		ldr	r3, [r7, #12]
ARM GAS  C:\Users\ADMINI~1\AppData\Local\Temp\ccsfG4Nc.s 			page 26


 911 0064 1800     		movs	r0, r3
 912 0066 FFF7FEFF 		bl	OS_CPU_SR_Restore
 511:..\..\..\..\..\..\Software\uCOS-II\Source/os_mbox.c ****         return (OS_ERR_MBOX_FULL);
 913              		.loc 1 511 0
 914 006a 1423     		movs	r3, #20
 915 006c 07E0     		b	.L58
 916              	.L62:
 512:..\..\..\..\..\..\Software\uCOS-II\Source/os_mbox.c ****     }
 513:..\..\..\..\..\..\Software\uCOS-II\Source/os_mbox.c ****     pevent->OSEventPtr = pmsg;                        /* Place message in mailbox                  
 917              		.loc 1 513 0
 918 006e 7B68     		ldr	r3, [r7, #4]
 919 0070 3A68     		ldr	r2, [r7]
 920 0072 5A60     		str	r2, [r3, #4]
 514:..\..\..\..\..\..\Software\uCOS-II\Source/os_mbox.c ****     OS_EXIT_CRITICAL();
 921              		.loc 1 514 0
 922 0074 FB68     		ldr	r3, [r7, #12]
 923 0076 1800     		movs	r0, r3
 924 0078 FFF7FEFF 		bl	OS_CPU_SR_Restore
 515:..\..\..\..\..\..\Software\uCOS-II\Source/os_mbox.c ****     return (OS_ERR_NONE);
 925              		.loc 1 515 0
 926 007c 0023     		movs	r3, #0
 927              	.L58:
 516:..\..\..\..\..\..\Software\uCOS-II\Source/os_mbox.c **** }
 928              		.loc 1 516 0
 929 007e 1800     		movs	r0, r3
 930 0080 BD46     		mov	sp, r7
 931 0082 04B0     		add	sp, sp, #16
 932              		@ sp needed
 933 0084 80BD     		pop	{r7, pc}
 934              		.cfi_endproc
 935              	.LFE6:
 936              		.size	OSMboxPost, .-OSMboxPost
 937 0086 C046     		.section	.text.OSMboxPostOpt,"ax",%progbits
 938              		.align	2
 939              		.global	OSMboxPostOpt
 940              		.code	16
 941              		.thumb_func
 942              		.type	OSMboxPostOpt, %function
 943              	OSMboxPostOpt:
 944              	.LFB7:
 517:..\..\..\..\..\..\Software\uCOS-II\Source/os_mbox.c **** #endif
 518:..\..\..\..\..\..\Software\uCOS-II\Source/os_mbox.c **** 
 519:..\..\..\..\..\..\Software\uCOS-II\Source/os_mbox.c **** /*$PAGE*/
 520:..\..\..\..\..\..\Software\uCOS-II\Source/os_mbox.c **** /*
 521:..\..\..\..\..\..\Software\uCOS-II\Source/os_mbox.c **** ***************************************************************************************************
 522:..\..\..\..\..\..\Software\uCOS-II\Source/os_mbox.c **** *                                      POST MESSAGE TO A MAILBOX
 523:..\..\..\..\..\..\Software\uCOS-II\Source/os_mbox.c **** *
 524:..\..\..\..\..\..\Software\uCOS-II\Source/os_mbox.c **** * Description: This function sends a message to a mailbox
 525:..\..\..\..\..\..\Software\uCOS-II\Source/os_mbox.c **** *
 526:..\..\..\..\..\..\Software\uCOS-II\Source/os_mbox.c **** * Arguments  : pevent        is a pointer to the event control block associated with the desired ma
 527:..\..\..\..\..\..\Software\uCOS-II\Source/os_mbox.c **** *
 528:..\..\..\..\..\..\Software\uCOS-II\Source/os_mbox.c **** *              pmsg          is a pointer to the message to send.  You MUST NOT send a NULL pointer
 529:..\..\..\..\..\..\Software\uCOS-II\Source/os_mbox.c **** *
 530:..\..\..\..\..\..\Software\uCOS-II\Source/os_mbox.c **** *              opt           determines the type of POST performed:
 531:..\..\..\..\..\..\Software\uCOS-II\Source/os_mbox.c **** *                            OS_POST_OPT_NONE         POST to a single waiting task
 532:..\..\..\..\..\..\Software\uCOS-II\Source/os_mbox.c **** *                                                     (Identical to OSMboxPost())
 533:..\..\..\..\..\..\Software\uCOS-II\Source/os_mbox.c **** *                            OS_POST_OPT_BROADCAST    POST to ALL tasks that are waiting on the mai
ARM GAS  C:\Users\ADMINI~1\AppData\Local\Temp\ccsfG4Nc.s 			page 27


 534:..\..\..\..\..\..\Software\uCOS-II\Source/os_mbox.c **** *
 535:..\..\..\..\..\..\Software\uCOS-II\Source/os_mbox.c **** *                            OS_POST_OPT_NO_SCHED     Indicates that the scheduler will NOT be invo
 536:..\..\..\..\..\..\Software\uCOS-II\Source/os_mbox.c **** *
 537:..\..\..\..\..\..\Software\uCOS-II\Source/os_mbox.c **** * Returns    : OS_ERR_NONE          The call was successful and the message was sent
 538:..\..\..\..\..\..\Software\uCOS-II\Source/os_mbox.c **** *              OS_ERR_MBOX_FULL     If the mailbox already contains a message.  You can can only se
 539:..\..\..\..\..\..\Software\uCOS-II\Source/os_mbox.c **** *                                   message at a time and thus, the message MUST be consumed before
 540:..\..\..\..\..\..\Software\uCOS-II\Source/os_mbox.c **** *                                   are allowed to send another one.
 541:..\..\..\..\..\..\Software\uCOS-II\Source/os_mbox.c **** *              OS_ERR_EVENT_TYPE    If you are attempting to post to a non mailbox.
 542:..\..\..\..\..\..\Software\uCOS-II\Source/os_mbox.c **** *              OS_ERR_PEVENT_NULL   If 'pevent' is a NULL pointer
 543:..\..\..\..\..\..\Software\uCOS-II\Source/os_mbox.c **** *              OS_ERR_POST_NULL_PTR If you are attempting to post a NULL pointer
 544:..\..\..\..\..\..\Software\uCOS-II\Source/os_mbox.c **** *
 545:..\..\..\..\..\..\Software\uCOS-II\Source/os_mbox.c **** * Note(s)    : 1) HPT means Highest Priority Task
 546:..\..\..\..\..\..\Software\uCOS-II\Source/os_mbox.c **** *
 547:..\..\..\..\..\..\Software\uCOS-II\Source/os_mbox.c **** * Warning    : Interrupts can be disabled for a long time if you do a 'broadcast'.  In fact, the
 548:..\..\..\..\..\..\Software\uCOS-II\Source/os_mbox.c **** *              interrupt disable time is proportional to the number of tasks waiting on the mailbox
 549:..\..\..\..\..\..\Software\uCOS-II\Source/os_mbox.c **** ***************************************************************************************************
 550:..\..\..\..\..\..\Software\uCOS-II\Source/os_mbox.c **** */
 551:..\..\..\..\..\..\Software\uCOS-II\Source/os_mbox.c **** 
 552:..\..\..\..\..\..\Software\uCOS-II\Source/os_mbox.c **** #if OS_MBOX_POST_OPT_EN > 0u
 553:..\..\..\..\..\..\Software\uCOS-II\Source/os_mbox.c **** INT8U  OSMboxPostOpt (OS_EVENT  *pevent,
 554:..\..\..\..\..\..\Software\uCOS-II\Source/os_mbox.c ****                       void      *pmsg,
 555:..\..\..\..\..\..\Software\uCOS-II\Source/os_mbox.c ****                       INT8U      opt)
 556:..\..\..\..\..\..\Software\uCOS-II\Source/os_mbox.c **** {
 945              		.loc 1 556 0
 946              		.cfi_startproc
 947              		@ args = 0, pretend = 0, frame = 24
 948              		@ frame_needed = 1, uses_anonymous_args = 0
 949 0000 80B5     		push	{r7, lr}
 950              		.cfi_def_cfa_offset 8
 951              		.cfi_offset 7, -8
 952              		.cfi_offset 14, -4
 953 0002 86B0     		sub	sp, sp, #24
 954              		.cfi_def_cfa_offset 32
 955 0004 00AF     		add	r7, sp, #0
 956              		.cfi_def_cfa_register 7
 957 0006 F860     		str	r0, [r7, #12]
 958 0008 B960     		str	r1, [r7, #8]
 959 000a FB1D     		adds	r3, r7, #7
 960 000c 1A70     		strb	r2, [r3]
 557:..\..\..\..\..\..\Software\uCOS-II\Source/os_mbox.c **** #if OS_CRITICAL_METHOD == 3u                          /* Allocate storage for CPU status register  
 558:..\..\..\..\..\..\Software\uCOS-II\Source/os_mbox.c ****     OS_CPU_SR  cpu_sr = 0u;
 961              		.loc 1 558 0
 962 000e 0023     		movs	r3, #0
 963 0010 7B61     		str	r3, [r7, #20]
 559:..\..\..\..\..\..\Software\uCOS-II\Source/os_mbox.c **** #endif
 560:..\..\..\..\..\..\Software\uCOS-II\Source/os_mbox.c **** 
 561:..\..\..\..\..\..\Software\uCOS-II\Source/os_mbox.c **** 
 562:..\..\..\..\..\..\Software\uCOS-II\Source/os_mbox.c **** 
 563:..\..\..\..\..\..\Software\uCOS-II\Source/os_mbox.c **** #if OS_ARG_CHK_EN > 0u
 564:..\..\..\..\..\..\Software\uCOS-II\Source/os_mbox.c ****     if (pevent == (OS_EVENT *)0) {                    /* Validate 'pevent'                         
 964              		.loc 1 564 0
 965 0012 FB68     		ldr	r3, [r7, #12]
 966 0014 002B     		cmp	r3, #0
 967 0016 01D1     		bne	.L64
 565:..\..\..\..\..\..\Software\uCOS-II\Source/os_mbox.c ****         return (OS_ERR_PEVENT_NULL);
 968              		.loc 1 565 0
 969 0018 0423     		movs	r3, #4
ARM GAS  C:\Users\ADMINI~1\AppData\Local\Temp\ccsfG4Nc.s 			page 28


 970 001a 48E0     		b	.L65
 971              	.L64:
 566:..\..\..\..\..\..\Software\uCOS-II\Source/os_mbox.c ****     }
 567:..\..\..\..\..\..\Software\uCOS-II\Source/os_mbox.c ****     if (pmsg == (void *)0) {                          /* Make sure we are not posting a NULL pointe
 972              		.loc 1 567 0
 973 001c BB68     		ldr	r3, [r7, #8]
 974 001e 002B     		cmp	r3, #0
 975 0020 01D1     		bne	.L66
 568:..\..\..\..\..\..\Software\uCOS-II\Source/os_mbox.c ****         return (OS_ERR_POST_NULL_PTR);
 976              		.loc 1 568 0
 977 0022 0323     		movs	r3, #3
 978 0024 43E0     		b	.L65
 979              	.L66:
 569:..\..\..\..\..\..\Software\uCOS-II\Source/os_mbox.c ****     }
 570:..\..\..\..\..\..\Software\uCOS-II\Source/os_mbox.c **** #endif
 571:..\..\..\..\..\..\Software\uCOS-II\Source/os_mbox.c ****     if (pevent->OSEventType != OS_EVENT_TYPE_MBOX) {  /* Validate event block type                 
 980              		.loc 1 571 0
 981 0026 FB68     		ldr	r3, [r7, #12]
 982 0028 1B78     		ldrb	r3, [r3]
 983 002a 012B     		cmp	r3, #1
 984 002c 01D0     		beq	.L67
 572:..\..\..\..\..\..\Software\uCOS-II\Source/os_mbox.c ****         return (OS_ERR_EVENT_TYPE);
 985              		.loc 1 572 0
 986 002e 0123     		movs	r3, #1
 987 0030 3DE0     		b	.L65
 988              	.L67:
 573:..\..\..\..\..\..\Software\uCOS-II\Source/os_mbox.c ****     }
 574:..\..\..\..\..\..\Software\uCOS-II\Source/os_mbox.c ****     OS_ENTER_CRITICAL();
 989              		.loc 1 574 0
 990 0032 FFF7FEFF 		bl	OS_CPU_SR_Save
 991 0036 0300     		movs	r3, r0
 992 0038 7B61     		str	r3, [r7, #20]
 575:..\..\..\..\..\..\Software\uCOS-II\Source/os_mbox.c ****     if (pevent->OSEventGrp != 0u) {                   /* See if any task pending on mailbox        
 993              		.loc 1 575 0
 994 003a FB68     		ldr	r3, [r7, #12]
 995 003c 9B7A     		ldrb	r3, [r3, #10]
 996 003e 002B     		cmp	r3, #0
 997 0040 23D0     		beq	.L68
 576:..\..\..\..\..\..\Software\uCOS-II\Source/os_mbox.c ****         if ((opt & OS_POST_OPT_BROADCAST) != 0x00u) { /* Do we need to post msg to ALL waiting task
 998              		.loc 1 576 0
 999 0042 FB1D     		adds	r3, r7, #7
 1000 0044 1B78     		ldrb	r3, [r3]
 1001 0046 0122     		movs	r2, #1
 1002 0048 1340     		ands	r3, r2
 1003 004a 0BD0     		beq	.L69
 577:..\..\..\..\..\..\Software\uCOS-II\Source/os_mbox.c ****             while (pevent->OSEventGrp != 0u) {        /* Yes, Post to ALL tasks waiting on mailbox 
 1004              		.loc 1 577 0
 1005 004c 05E0     		b	.L70
 1006              	.L71:
 578:..\..\..\..\..\..\Software\uCOS-II\Source/os_mbox.c ****                 (void)OS_EventTaskRdy(pevent, pmsg, OS_STAT_MBOX, OS_STAT_PEND_OK);
 1007              		.loc 1 578 0
 1008 004e B968     		ldr	r1, [r7, #8]
 1009 0050 F868     		ldr	r0, [r7, #12]
 1010 0052 0023     		movs	r3, #0
 1011 0054 0222     		movs	r2, #2
 1012 0056 FFF7FEFF 		bl	OS_EventTaskRdy
 1013              	.L70:
ARM GAS  C:\Users\ADMINI~1\AppData\Local\Temp\ccsfG4Nc.s 			page 29


 577:..\..\..\..\..\..\Software\uCOS-II\Source/os_mbox.c ****             while (pevent->OSEventGrp != 0u) {        /* Yes, Post to ALL tasks waiting on mailbox 
 1014              		.loc 1 577 0
 1015 005a FB68     		ldr	r3, [r7, #12]
 1016 005c 9B7A     		ldrb	r3, [r3, #10]
 1017 005e 002B     		cmp	r3, #0
 1018 0060 F5D1     		bne	.L71
 1019 0062 05E0     		b	.L72
 1020              	.L69:
 579:..\..\..\..\..\..\Software\uCOS-II\Source/os_mbox.c ****             }
 580:..\..\..\..\..\..\Software\uCOS-II\Source/os_mbox.c ****         } else {                                      /* No,  Post to HPT waiting on mbox          
 581:..\..\..\..\..\..\Software\uCOS-II\Source/os_mbox.c ****             (void)OS_EventTaskRdy(pevent, pmsg, OS_STAT_MBOX, OS_STAT_PEND_OK);
 1021              		.loc 1 581 0
 1022 0064 B968     		ldr	r1, [r7, #8]
 1023 0066 F868     		ldr	r0, [r7, #12]
 1024 0068 0023     		movs	r3, #0
 1025 006a 0222     		movs	r2, #2
 1026 006c FFF7FEFF 		bl	OS_EventTaskRdy
 1027              	.L72:
 582:..\..\..\..\..\..\Software\uCOS-II\Source/os_mbox.c ****         }
 583:..\..\..\..\..\..\Software\uCOS-II\Source/os_mbox.c ****         OS_EXIT_CRITICAL();
 1028              		.loc 1 583 0
 1029 0070 7B69     		ldr	r3, [r7, #20]
 1030 0072 1800     		movs	r0, r3
 1031 0074 FFF7FEFF 		bl	OS_CPU_SR_Restore
 584:..\..\..\..\..\..\Software\uCOS-II\Source/os_mbox.c ****         if ((opt & OS_POST_OPT_NO_SCHED) == 0u) {     /* See if scheduler needs to be invoked      
 1032              		.loc 1 584 0
 1033 0078 FB1D     		adds	r3, r7, #7
 1034 007a 1B78     		ldrb	r3, [r3]
 1035 007c 0422     		movs	r2, #4
 1036 007e 1340     		ands	r3, r2
 1037 0080 01D1     		bne	.L73
 585:..\..\..\..\..\..\Software\uCOS-II\Source/os_mbox.c ****             OS_Sched();                               /* Find HPT ready to run                     
 1038              		.loc 1 585 0
 1039 0082 FFF7FEFF 		bl	OS_Sched
 1040              	.L73:
 586:..\..\..\..\..\..\Software\uCOS-II\Source/os_mbox.c ****         }
 587:..\..\..\..\..\..\Software\uCOS-II\Source/os_mbox.c ****         return (OS_ERR_NONE);
 1041              		.loc 1 587 0
 1042 0086 0023     		movs	r3, #0
 1043 0088 11E0     		b	.L65
 1044              	.L68:
 588:..\..\..\..\..\..\Software\uCOS-II\Source/os_mbox.c ****     }
 589:..\..\..\..\..\..\Software\uCOS-II\Source/os_mbox.c ****     if (pevent->OSEventPtr != (void *)0) {            /* Make sure mailbox doesn't already have a m
 1045              		.loc 1 589 0
 1046 008a FB68     		ldr	r3, [r7, #12]
 1047 008c 5B68     		ldr	r3, [r3, #4]
 1048 008e 002B     		cmp	r3, #0
 1049 0090 05D0     		beq	.L74
 590:..\..\..\..\..\..\Software\uCOS-II\Source/os_mbox.c ****         OS_EXIT_CRITICAL();
 1050              		.loc 1 590 0
 1051 0092 7B69     		ldr	r3, [r7, #20]
 1052 0094 1800     		movs	r0, r3
 1053 0096 FFF7FEFF 		bl	OS_CPU_SR_Restore
 591:..\..\..\..\..\..\Software\uCOS-II\Source/os_mbox.c ****         return (OS_ERR_MBOX_FULL);
 1054              		.loc 1 591 0
 1055 009a 1423     		movs	r3, #20
 1056 009c 07E0     		b	.L65
ARM GAS  C:\Users\ADMINI~1\AppData\Local\Temp\ccsfG4Nc.s 			page 30


 1057              	.L74:
 592:..\..\..\..\..\..\Software\uCOS-II\Source/os_mbox.c ****     }
 593:..\..\..\..\..\..\Software\uCOS-II\Source/os_mbox.c ****     pevent->OSEventPtr = pmsg;                        /* Place message in mailbox                  
 1058              		.loc 1 593 0
 1059 009e FB68     		ldr	r3, [r7, #12]
 1060 00a0 BA68     		ldr	r2, [r7, #8]
 1061 00a2 5A60     		str	r2, [r3, #4]
 594:..\..\..\..\..\..\Software\uCOS-II\Source/os_mbox.c ****     OS_EXIT_CRITICAL();
 1062              		.loc 1 594 0
 1063 00a4 7B69     		ldr	r3, [r7, #20]
 1064 00a6 1800     		movs	r0, r3
 1065 00a8 FFF7FEFF 		bl	OS_CPU_SR_Restore
 595:..\..\..\..\..\..\Software\uCOS-II\Source/os_mbox.c ****     return (OS_ERR_NONE);
 1066              		.loc 1 595 0
 1067 00ac 0023     		movs	r3, #0
 1068              	.L65:
 596:..\..\..\..\..\..\Software\uCOS-II\Source/os_mbox.c **** }
 1069              		.loc 1 596 0
 1070 00ae 1800     		movs	r0, r3
 1071 00b0 BD46     		mov	sp, r7
 1072 00b2 06B0     		add	sp, sp, #24
 1073              		@ sp needed
 1074 00b4 80BD     		pop	{r7, pc}
 1075              		.cfi_endproc
 1076              	.LFE7:
 1077              		.size	OSMboxPostOpt, .-OSMboxPostOpt
 1078 00b6 C046     		.section	.text.OSMboxQuery,"ax",%progbits
 1079              		.align	2
 1080              		.global	OSMboxQuery
 1081              		.code	16
 1082              		.thumb_func
 1083              		.type	OSMboxQuery, %function
 1084              	OSMboxQuery:
 1085              	.LFB8:
 597:..\..\..\..\..\..\Software\uCOS-II\Source/os_mbox.c **** #endif
 598:..\..\..\..\..\..\Software\uCOS-II\Source/os_mbox.c **** 
 599:..\..\..\..\..\..\Software\uCOS-II\Source/os_mbox.c **** /*$PAGE*/
 600:..\..\..\..\..\..\Software\uCOS-II\Source/os_mbox.c **** /*
 601:..\..\..\..\..\..\Software\uCOS-II\Source/os_mbox.c **** ***************************************************************************************************
 602:..\..\..\..\..\..\Software\uCOS-II\Source/os_mbox.c **** *                                       QUERY A MESSAGE MAILBOX
 603:..\..\..\..\..\..\Software\uCOS-II\Source/os_mbox.c **** *
 604:..\..\..\..\..\..\Software\uCOS-II\Source/os_mbox.c **** * Description: This function obtains information about a message mailbox.
 605:..\..\..\..\..\..\Software\uCOS-II\Source/os_mbox.c **** *
 606:..\..\..\..\..\..\Software\uCOS-II\Source/os_mbox.c **** * Arguments  : pevent        is a pointer to the event control block associated with the desired ma
 607:..\..\..\..\..\..\Software\uCOS-II\Source/os_mbox.c **** *
 608:..\..\..\..\..\..\Software\uCOS-II\Source/os_mbox.c **** *              p_mbox_data   is a pointer to a structure that will contain information about the me
 609:..\..\..\..\..\..\Software\uCOS-II\Source/os_mbox.c **** *                            mailbox.
 610:..\..\..\..\..\..\Software\uCOS-II\Source/os_mbox.c **** *
 611:..\..\..\..\..\..\Software\uCOS-II\Source/os_mbox.c **** * Returns    : OS_ERR_NONE         The call was successful and the message was sent
 612:..\..\..\..\..\..\Software\uCOS-II\Source/os_mbox.c **** *              OS_ERR_EVENT_TYPE   If you are attempting to obtain data from a non mailbox.
 613:..\..\..\..\..\..\Software\uCOS-II\Source/os_mbox.c **** *              OS_ERR_PEVENT_NULL  If 'pevent'      is a NULL pointer
 614:..\..\..\..\..\..\Software\uCOS-II\Source/os_mbox.c **** *              OS_ERR_PDATA_NULL   If 'p_mbox_data' is a NULL pointer
 615:..\..\..\..\..\..\Software\uCOS-II\Source/os_mbox.c **** ***************************************************************************************************
 616:..\..\..\..\..\..\Software\uCOS-II\Source/os_mbox.c **** */
 617:..\..\..\..\..\..\Software\uCOS-II\Source/os_mbox.c **** 
 618:..\..\..\..\..\..\Software\uCOS-II\Source/os_mbox.c **** #if OS_MBOX_QUERY_EN > 0u
 619:..\..\..\..\..\..\Software\uCOS-II\Source/os_mbox.c **** INT8U  OSMboxQuery (OS_EVENT      *pevent,
ARM GAS  C:\Users\ADMINI~1\AppData\Local\Temp\ccsfG4Nc.s 			page 31


 620:..\..\..\..\..\..\Software\uCOS-II\Source/os_mbox.c ****                     OS_MBOX_DATA  *p_mbox_data)
 621:..\..\..\..\..\..\Software\uCOS-II\Source/os_mbox.c **** {
 1086              		.loc 1 621 0
 1087              		.cfi_startproc
 1088              		@ args = 0, pretend = 0, frame = 24
 1089              		@ frame_needed = 1, uses_anonymous_args = 0
 1090 0000 80B5     		push	{r7, lr}
 1091              		.cfi_def_cfa_offset 8
 1092              		.cfi_offset 7, -8
 1093              		.cfi_offset 14, -4
 1094 0002 86B0     		sub	sp, sp, #24
 1095              		.cfi_def_cfa_offset 32
 1096 0004 00AF     		add	r7, sp, #0
 1097              		.cfi_def_cfa_register 7
 1098 0006 7860     		str	r0, [r7, #4]
 1099 0008 3960     		str	r1, [r7]
 622:..\..\..\..\..\..\Software\uCOS-II\Source/os_mbox.c ****     INT8U       i;
 623:..\..\..\..\..\..\Software\uCOS-II\Source/os_mbox.c ****     OS_PRIO    *psrc;
 624:..\..\..\..\..\..\Software\uCOS-II\Source/os_mbox.c ****     OS_PRIO    *pdest;
 625:..\..\..\..\..\..\Software\uCOS-II\Source/os_mbox.c **** #if OS_CRITICAL_METHOD == 3u                               /* Allocate storage for CPU status regis
 626:..\..\..\..\..\..\Software\uCOS-II\Source/os_mbox.c ****     OS_CPU_SR   cpu_sr = 0u;
 1100              		.loc 1 626 0
 1101 000a 0023     		movs	r3, #0
 1102 000c BB60     		str	r3, [r7, #8]
 627:..\..\..\..\..\..\Software\uCOS-II\Source/os_mbox.c **** #endif
 628:..\..\..\..\..\..\Software\uCOS-II\Source/os_mbox.c **** 
 629:..\..\..\..\..\..\Software\uCOS-II\Source/os_mbox.c **** 
 630:..\..\..\..\..\..\Software\uCOS-II\Source/os_mbox.c **** 
 631:..\..\..\..\..\..\Software\uCOS-II\Source/os_mbox.c **** #if OS_ARG_CHK_EN > 0u
 632:..\..\..\..\..\..\Software\uCOS-II\Source/os_mbox.c ****     if (pevent == (OS_EVENT *)0) {                         /* Validate 'pevent'                    
 1103              		.loc 1 632 0
 1104 000e 7B68     		ldr	r3, [r7, #4]
 1105 0010 002B     		cmp	r3, #0
 1106 0012 01D1     		bne	.L76
 633:..\..\..\..\..\..\Software\uCOS-II\Source/os_mbox.c ****         return (OS_ERR_PEVENT_NULL);
 1107              		.loc 1 633 0
 1108 0014 0423     		movs	r3, #4
 1109 0016 3AE0     		b	.L77
 1110              	.L76:
 634:..\..\..\..\..\..\Software\uCOS-II\Source/os_mbox.c ****     }
 635:..\..\..\..\..\..\Software\uCOS-II\Source/os_mbox.c ****     if (p_mbox_data == (OS_MBOX_DATA *)0) {                /* Validate 'p_mbox_data'               
 1111              		.loc 1 635 0
 1112 0018 3B68     		ldr	r3, [r7]
 1113 001a 002B     		cmp	r3, #0
 1114 001c 01D1     		bne	.L78
 636:..\..\..\..\..\..\Software\uCOS-II\Source/os_mbox.c ****         return (OS_ERR_PDATA_NULL);
 1115              		.loc 1 636 0
 1116 001e 0923     		movs	r3, #9
 1117 0020 35E0     		b	.L77
 1118              	.L78:
 637:..\..\..\..\..\..\Software\uCOS-II\Source/os_mbox.c ****     }
 638:..\..\..\..\..\..\Software\uCOS-II\Source/os_mbox.c **** #endif
 639:..\..\..\..\..\..\Software\uCOS-II\Source/os_mbox.c ****     if (pevent->OSEventType != OS_EVENT_TYPE_MBOX) {       /* Validate event block type            
 1119              		.loc 1 639 0
 1120 0022 7B68     		ldr	r3, [r7, #4]
 1121 0024 1B78     		ldrb	r3, [r3]
 1122 0026 012B     		cmp	r3, #1
ARM GAS  C:\Users\ADMINI~1\AppData\Local\Temp\ccsfG4Nc.s 			page 32


 1123 0028 01D0     		beq	.L79
 640:..\..\..\..\..\..\Software\uCOS-II\Source/os_mbox.c ****         return (OS_ERR_EVENT_TYPE);
 1124              		.loc 1 640 0
 1125 002a 0123     		movs	r3, #1
 1126 002c 2FE0     		b	.L77
 1127              	.L79:
 641:..\..\..\..\..\..\Software\uCOS-II\Source/os_mbox.c ****     }
 642:..\..\..\..\..\..\Software\uCOS-II\Source/os_mbox.c ****     OS_ENTER_CRITICAL();
 1128              		.loc 1 642 0
 1129 002e FFF7FEFF 		bl	OS_CPU_SR_Save
 1130 0032 0300     		movs	r3, r0
 1131 0034 BB60     		str	r3, [r7, #8]
 643:..\..\..\..\..\..\Software\uCOS-II\Source/os_mbox.c ****     p_mbox_data->OSEventGrp = pevent->OSEventGrp;          /* Copy message mailbox wait list       
 1132              		.loc 1 643 0
 1133 0036 7B68     		ldr	r3, [r7, #4]
 1134 0038 9A7A     		ldrb	r2, [r3, #10]
 1135 003a 3B68     		ldr	r3, [r7]
 1136 003c 1A73     		strb	r2, [r3, #12]
 644:..\..\..\..\..\..\Software\uCOS-II\Source/os_mbox.c ****     psrc                    = &pevent->OSEventTbl[0];
 1137              		.loc 1 644 0
 1138 003e 7B68     		ldr	r3, [r7, #4]
 1139 0040 0B33     		adds	r3, r3, #11
 1140 0042 3B61     		str	r3, [r7, #16]
 645:..\..\..\..\..\..\Software\uCOS-II\Source/os_mbox.c ****     pdest                   = &p_mbox_data->OSEventTbl[0];
 1141              		.loc 1 645 0
 1142 0044 3B68     		ldr	r3, [r7]
 1143 0046 0433     		adds	r3, r3, #4
 1144 0048 FB60     		str	r3, [r7, #12]
 646:..\..\..\..\..\..\Software\uCOS-II\Source/os_mbox.c ****     for (i = 0u; i < OS_EVENT_TBL_SIZE; i++) {
 1145              		.loc 1 646 0
 1146 004a 1723     		movs	r3, #23
 1147 004c FB18     		adds	r3, r7, r3
 1148 004e 0022     		movs	r2, #0
 1149 0050 1A70     		strb	r2, [r3]
 1150 0052 0EE0     		b	.L80
 1151              	.L81:
 647:..\..\..\..\..\..\Software\uCOS-II\Source/os_mbox.c ****         *pdest++ = *psrc++;
 1152              		.loc 1 647 0 discriminator 3
 1153 0054 FB68     		ldr	r3, [r7, #12]
 1154 0056 5A1C     		adds	r2, r3, #1
 1155 0058 FA60     		str	r2, [r7, #12]
 1156 005a 3A69     		ldr	r2, [r7, #16]
 1157 005c 511C     		adds	r1, r2, #1
 1158 005e 3961     		str	r1, [r7, #16]
 1159 0060 1278     		ldrb	r2, [r2]
 1160 0062 1A70     		strb	r2, [r3]
 646:..\..\..\..\..\..\Software\uCOS-II\Source/os_mbox.c ****     for (i = 0u; i < OS_EVENT_TBL_SIZE; i++) {
 1161              		.loc 1 646 0 discriminator 3
 1162 0064 1723     		movs	r3, #23
 1163 0066 FB18     		adds	r3, r7, r3
 1164 0068 1A78     		ldrb	r2, [r3]
 1165 006a 1723     		movs	r3, #23
 1166 006c FB18     		adds	r3, r7, r3
 1167 006e 0132     		adds	r2, r2, #1
 1168 0070 1A70     		strb	r2, [r3]
 1169              	.L80:
 646:..\..\..\..\..\..\Software\uCOS-II\Source/os_mbox.c ****     for (i = 0u; i < OS_EVENT_TBL_SIZE; i++) {
ARM GAS  C:\Users\ADMINI~1\AppData\Local\Temp\ccsfG4Nc.s 			page 33


 1170              		.loc 1 646 0 is_stmt 0 discriminator 1
 1171 0072 1723     		movs	r3, #23
 1172 0074 FB18     		adds	r3, r7, r3
 1173 0076 1B78     		ldrb	r3, [r3]
 1174 0078 072B     		cmp	r3, #7
 1175 007a EBD9     		bls	.L81
 648:..\..\..\..\..\..\Software\uCOS-II\Source/os_mbox.c ****     }
 649:..\..\..\..\..\..\Software\uCOS-II\Source/os_mbox.c ****     p_mbox_data->OSMsg = pevent->OSEventPtr;               /* Get message from mailbox             
 1176              		.loc 1 649 0 is_stmt 1
 1177 007c 7B68     		ldr	r3, [r7, #4]
 1178 007e 5A68     		ldr	r2, [r3, #4]
 1179 0080 3B68     		ldr	r3, [r7]
 1180 0082 1A60     		str	r2, [r3]
 650:..\..\..\..\..\..\Software\uCOS-II\Source/os_mbox.c ****     OS_EXIT_CRITICAL();
 1181              		.loc 1 650 0
 1182 0084 BB68     		ldr	r3, [r7, #8]
 1183 0086 1800     		movs	r0, r3
 1184 0088 FFF7FEFF 		bl	OS_CPU_SR_Restore
 651:..\..\..\..\..\..\Software\uCOS-II\Source/os_mbox.c ****     return (OS_ERR_NONE);
 1185              		.loc 1 651 0
 1186 008c 0023     		movs	r3, #0
 1187              	.L77:
 652:..\..\..\..\..\..\Software\uCOS-II\Source/os_mbox.c **** }
 1188              		.loc 1 652 0
 1189 008e 1800     		movs	r0, r3
 1190 0090 BD46     		mov	sp, r7
 1191 0092 06B0     		add	sp, sp, #24
 1192              		@ sp needed
 1193 0094 80BD     		pop	{r7, pc}
 1194              		.cfi_endproc
 1195              	.LFE8:
 1196              		.size	OSMboxQuery, .-OSMboxQuery
 1197 0096 C046     		.text
 1198              	.Letext0:
 1199              		.file 2 "..\\..\\..\\..\\..\\..\\Software\\uCOS-II\\Ports\\ARM-Cortex-M0\\Generic\\GNU/os_cpu.h"
 1200              		.file 3 "..\\..\\..\\..\\..\\..\\Software\\uCOS-II\\Source/ucos_ii.h"