ARM GAS  C:\Users\ADMINI~1\AppData\Local\Temp\ccN77QmO.s 			page 1


   1              		.syntax unified
   2              		.cpu cortex-m0
   3              		.fpu softvfp
   4              		.eabi_attribute 20, 1
   5              		.eabi_attribute 21, 1
   6              		.eabi_attribute 23, 3
   7              		.eabi_attribute 24, 1
   8              		.eabi_attribute 25, 1
   9              		.eabi_attribute 26, 1
  10              		.eabi_attribute 30, 6
  11              		.eabi_attribute 34, 0
  12              		.eabi_attribute 18, 4
  13              		.thumb
  14              		.syntax unified
  15              		.file	"os_mutex.c"
  16              		.text
  17              	.Ltext0:
  18              		.cfi_sections	.debug_frame
  19              		.section	.text.OSMutexAccept,"ax",%progbits
  20              		.align	2
  21              		.global	OSMutexAccept
  22              		.code	16
  23              		.thumb_func
  24              		.type	OSMutexAccept, %function
  25              	OSMutexAccept:
  26              	.LFB1:
  27              		.file 1 "..\\..\\..\\..\\..\\..\\Software\\uCOS-II\\Source\\os_mutex.c"
   1:..\..\..\..\..\..\Software\uCOS-II\Source/os_mutex.c **** /*
   2:..\..\..\..\..\..\Software\uCOS-II\Source/os_mutex.c **** ***************************************************************************************************
   3:..\..\..\..\..\..\Software\uCOS-II\Source/os_mutex.c **** *                                                uC/OS-II
   4:..\..\..\..\..\..\Software\uCOS-II\Source/os_mutex.c **** *                                          The Real-Time Kernel
   5:..\..\..\..\..\..\Software\uCOS-II\Source/os_mutex.c **** *                                  MUTUAL EXCLUSION SEMAPHORE MANAGEMENT
   6:..\..\..\..\..\..\Software\uCOS-II\Source/os_mutex.c **** *
   7:..\..\..\..\..\..\Software\uCOS-II\Source/os_mutex.c **** *                              (c) Copyright 1992-2013, Micrium, Weston, FL
   8:..\..\..\..\..\..\Software\uCOS-II\Source/os_mutex.c **** *                                           All Rights Reserved
   9:..\..\..\..\..\..\Software\uCOS-II\Source/os_mutex.c **** *
  10:..\..\..\..\..\..\Software\uCOS-II\Source/os_mutex.c **** * File    : OS_MUTEX.C
  11:..\..\..\..\..\..\Software\uCOS-II\Source/os_mutex.c **** * By      : Jean J. Labrosse
  12:..\..\..\..\..\..\Software\uCOS-II\Source/os_mutex.c **** * Version : V2.92.11
  13:..\..\..\..\..\..\Software\uCOS-II\Source/os_mutex.c **** *
  14:..\..\..\..\..\..\Software\uCOS-II\Source/os_mutex.c **** * LICENSING TERMS:
  15:..\..\..\..\..\..\Software\uCOS-II\Source/os_mutex.c **** * ---------------
  16:..\..\..\..\..\..\Software\uCOS-II\Source/os_mutex.c **** *   uC/OS-II is provided in source form for FREE evaluation, for educational use or for peaceful re
  17:..\..\..\..\..\..\Software\uCOS-II\Source/os_mutex.c **** * If you plan on using  uC/OS-II  in a commercial product you need to contact Micrium to properly l
  18:..\..\..\..\..\..\Software\uCOS-II\Source/os_mutex.c **** * its use in your product. We provide ALL the source code for your convenience and to help you expe
  19:..\..\..\..\..\..\Software\uCOS-II\Source/os_mutex.c **** * uC/OS-II.   The fact that the  source is provided does  NOT  mean that you can use it without  pa
  20:..\..\..\..\..\..\Software\uCOS-II\Source/os_mutex.c **** * licensing fee.
  21:..\..\..\..\..\..\Software\uCOS-II\Source/os_mutex.c **** ***************************************************************************************************
  22:..\..\..\..\..\..\Software\uCOS-II\Source/os_mutex.c **** */
  23:..\..\..\..\..\..\Software\uCOS-II\Source/os_mutex.c **** 
  24:..\..\..\..\..\..\Software\uCOS-II\Source/os_mutex.c **** #define  MICRIUM_SOURCE
  25:..\..\..\..\..\..\Software\uCOS-II\Source/os_mutex.c **** 
  26:..\..\..\..\..\..\Software\uCOS-II\Source/os_mutex.c **** #ifndef  OS_MASTER_FILE
  27:..\..\..\..\..\..\Software\uCOS-II\Source/os_mutex.c **** #include <ucos_ii.h>
  28:..\..\..\..\..\..\Software\uCOS-II\Source/os_mutex.c **** #endif
  29:..\..\..\..\..\..\Software\uCOS-II\Source/os_mutex.c **** 
  30:..\..\..\..\..\..\Software\uCOS-II\Source/os_mutex.c **** 
ARM GAS  C:\Users\ADMINI~1\AppData\Local\Temp\ccN77QmO.s 			page 2


  31:..\..\..\..\..\..\Software\uCOS-II\Source/os_mutex.c **** #if OS_MUTEX_EN > 0u
  32:..\..\..\..\..\..\Software\uCOS-II\Source/os_mutex.c **** /*
  33:..\..\..\..\..\..\Software\uCOS-II\Source/os_mutex.c **** ***************************************************************************************************
  34:..\..\..\..\..\..\Software\uCOS-II\Source/os_mutex.c **** *                                           LOCAL CONSTANTS
  35:..\..\..\..\..\..\Software\uCOS-II\Source/os_mutex.c **** ***************************************************************************************************
  36:..\..\..\..\..\..\Software\uCOS-II\Source/os_mutex.c **** */
  37:..\..\..\..\..\..\Software\uCOS-II\Source/os_mutex.c **** 
  38:..\..\..\..\..\..\Software\uCOS-II\Source/os_mutex.c **** #define  OS_MUTEX_KEEP_LOWER_8   ((INT16U)0x00FFu)
  39:..\..\..\..\..\..\Software\uCOS-II\Source/os_mutex.c **** #define  OS_MUTEX_KEEP_UPPER_8   ((INT16U)0xFF00u)
  40:..\..\..\..\..\..\Software\uCOS-II\Source/os_mutex.c **** 
  41:..\..\..\..\..\..\Software\uCOS-II\Source/os_mutex.c **** #define  OS_MUTEX_AVAILABLE      ((INT16U)0x00FFu)
  42:..\..\..\..\..\..\Software\uCOS-II\Source/os_mutex.c **** 
  43:..\..\..\..\..\..\Software\uCOS-II\Source/os_mutex.c **** /*
  44:..\..\..\..\..\..\Software\uCOS-II\Source/os_mutex.c **** ***************************************************************************************************
  45:..\..\..\..\..\..\Software\uCOS-II\Source/os_mutex.c **** *                                           LOCAL CONSTANTS
  46:..\..\..\..\..\..\Software\uCOS-II\Source/os_mutex.c **** ***************************************************************************************************
  47:..\..\..\..\..\..\Software\uCOS-II\Source/os_mutex.c **** */
  48:..\..\..\..\..\..\Software\uCOS-II\Source/os_mutex.c **** 
  49:..\..\..\..\..\..\Software\uCOS-II\Source/os_mutex.c **** static  void  OSMutex_RdyAtPrio(OS_TCB *ptcb, INT8U prio);
  50:..\..\..\..\..\..\Software\uCOS-II\Source/os_mutex.c **** 
  51:..\..\..\..\..\..\Software\uCOS-II\Source/os_mutex.c **** /*$PAGE*/
  52:..\..\..\..\..\..\Software\uCOS-II\Source/os_mutex.c **** /*
  53:..\..\..\..\..\..\Software\uCOS-II\Source/os_mutex.c **** ***************************************************************************************************
  54:..\..\..\..\..\..\Software\uCOS-II\Source/os_mutex.c **** *                                  ACCEPT MUTUAL EXCLUSION SEMAPHORE
  55:..\..\..\..\..\..\Software\uCOS-II\Source/os_mutex.c **** *
  56:..\..\..\..\..\..\Software\uCOS-II\Source/os_mutex.c **** * Description: This  function checks the mutual exclusion semaphore to see if a resource is availab
  57:..\..\..\..\..\..\Software\uCOS-II\Source/os_mutex.c **** *              Unlike OSMutexPend(), OSMutexAccept() does not suspend the calling task if the resou
  58:..\..\..\..\..\..\Software\uCOS-II\Source/os_mutex.c **** *              not available or the event did not occur.
  59:..\..\..\..\..\..\Software\uCOS-II\Source/os_mutex.c **** *
  60:..\..\..\..\..\..\Software\uCOS-II\Source/os_mutex.c **** * Arguments  : pevent     is a pointer to the event control block
  61:..\..\..\..\..\..\Software\uCOS-II\Source/os_mutex.c **** *
  62:..\..\..\..\..\..\Software\uCOS-II\Source/os_mutex.c **** *              perr       is a pointer to an error code which will be returned to your application:
  63:..\..\..\..\..\..\Software\uCOS-II\Source/os_mutex.c **** *                            OS_ERR_NONE         if the call was successful.
  64:..\..\..\..\..\..\Software\uCOS-II\Source/os_mutex.c **** *                            OS_ERR_EVENT_TYPE   if 'pevent' is not a pointer to a mutex
  65:..\..\..\..\..\..\Software\uCOS-II\Source/os_mutex.c **** *                            OS_ERR_PEVENT_NULL  'pevent' is a NULL pointer
  66:..\..\..\..\..\..\Software\uCOS-II\Source/os_mutex.c **** *                            OS_ERR_PEND_ISR     if you called this function from an ISR
  67:..\..\..\..\..\..\Software\uCOS-II\Source/os_mutex.c **** *                            OS_ERR_PCP_LOWER    If the priority of the task that owns the Mutex is
  68:..\..\..\..\..\..\Software\uCOS-II\Source/os_mutex.c **** *                                                HIGHER (i.e. a lower number) than the PCP.  This e
  69:..\..\..\..\..\..\Software\uCOS-II\Source/os_mutex.c **** *                                                indicates that you did not set the PCP higher (low
  70:..\..\..\..\..\..\Software\uCOS-II\Source/os_mutex.c **** *                                                number) than ALL the tasks that compete for the Mu
  71:..\..\..\..\..\..\Software\uCOS-II\Source/os_mutex.c **** *                                                Unfortunately, this is something that could not be
  72:..\..\..\..\..\..\Software\uCOS-II\Source/os_mutex.c **** *                                                detected when the Mutex is created because we don'
  73:..\..\..\..\..\..\Software\uCOS-II\Source/os_mutex.c **** *                                                what tasks will be using the Mutex.
  74:..\..\..\..\..\..\Software\uCOS-II\Source/os_mutex.c **** *
  75:..\..\..\..\..\..\Software\uCOS-II\Source/os_mutex.c **** * Returns    : == OS_TRUE    if the resource is available, the mutual exclusion semaphore is acquir
  76:..\..\..\..\..\..\Software\uCOS-II\Source/os_mutex.c **** *              == OS_FALSE   a) if the resource is not available
  77:..\..\..\..\..\..\Software\uCOS-II\Source/os_mutex.c **** *                            b) you didn't pass a pointer to a mutual exclusion semaphore
  78:..\..\..\..\..\..\Software\uCOS-II\Source/os_mutex.c **** *                            c) you called this function from an ISR
  79:..\..\..\..\..\..\Software\uCOS-II\Source/os_mutex.c **** *
  80:..\..\..\..\..\..\Software\uCOS-II\Source/os_mutex.c **** * Warning(s) : This function CANNOT be called from an ISR because mutual exclusion semaphores are
  81:..\..\..\..\..\..\Software\uCOS-II\Source/os_mutex.c **** *              intended to be used by tasks only.
  82:..\..\..\..\..\..\Software\uCOS-II\Source/os_mutex.c **** ***************************************************************************************************
  83:..\..\..\..\..\..\Software\uCOS-II\Source/os_mutex.c **** */
  84:..\..\..\..\..\..\Software\uCOS-II\Source/os_mutex.c **** 
  85:..\..\..\..\..\..\Software\uCOS-II\Source/os_mutex.c **** #if OS_MUTEX_ACCEPT_EN > 0u
  86:..\..\..\..\..\..\Software\uCOS-II\Source/os_mutex.c **** BOOLEAN  OSMutexAccept (OS_EVENT  *pevent,
  87:..\..\..\..\..\..\Software\uCOS-II\Source/os_mutex.c ****                         INT8U     *perr)
ARM GAS  C:\Users\ADMINI~1\AppData\Local\Temp\ccN77QmO.s 			page 3


  88:..\..\..\..\..\..\Software\uCOS-II\Source/os_mutex.c **** {
  28              		.loc 1 88 0
  29              		.cfi_startproc
  30              		@ args = 0, pretend = 0, frame = 16
  31              		@ frame_needed = 1, uses_anonymous_args = 0
  32 0000 80B5     		push	{r7, lr}
  33              		.cfi_def_cfa_offset 8
  34              		.cfi_offset 7, -8
  35              		.cfi_offset 14, -4
  36 0002 84B0     		sub	sp, sp, #16
  37              		.cfi_def_cfa_offset 24
  38 0004 00AF     		add	r7, sp, #0
  39              		.cfi_def_cfa_register 7
  40 0006 7860     		str	r0, [r7, #4]
  41 0008 3960     		str	r1, [r7]
  89:..\..\..\..\..\..\Software\uCOS-II\Source/os_mutex.c ****     INT8U      pcp;                                    /* Priority Ceiling Priority (PCP)          
  90:..\..\..\..\..\..\Software\uCOS-II\Source/os_mutex.c **** #if OS_CRITICAL_METHOD == 3u                           /* Allocate storage for CPU status register 
  91:..\..\..\..\..\..\Software\uCOS-II\Source/os_mutex.c ****     OS_CPU_SR  cpu_sr = 0u;
  42              		.loc 1 91 0
  43 000a 0023     		movs	r3, #0
  44 000c FB60     		str	r3, [r7, #12]
  92:..\..\..\..\..\..\Software\uCOS-II\Source/os_mutex.c **** #endif
  93:..\..\..\..\..\..\Software\uCOS-II\Source/os_mutex.c **** 
  94:..\..\..\..\..\..\Software\uCOS-II\Source/os_mutex.c **** 
  95:..\..\..\..\..\..\Software\uCOS-II\Source/os_mutex.c **** 
  96:..\..\..\..\..\..\Software\uCOS-II\Source/os_mutex.c **** #ifdef OS_SAFETY_CRITICAL
  97:..\..\..\..\..\..\Software\uCOS-II\Source/os_mutex.c ****     if (perr == (INT8U *)0) {
  98:..\..\..\..\..\..\Software\uCOS-II\Source/os_mutex.c ****         OS_SAFETY_CRITICAL_EXCEPTION();
  99:..\..\..\..\..\..\Software\uCOS-II\Source/os_mutex.c ****         return (OS_FALSE);
 100:..\..\..\..\..\..\Software\uCOS-II\Source/os_mutex.c ****     }
 101:..\..\..\..\..\..\Software\uCOS-II\Source/os_mutex.c **** #endif
 102:..\..\..\..\..\..\Software\uCOS-II\Source/os_mutex.c **** 
 103:..\..\..\..\..\..\Software\uCOS-II\Source/os_mutex.c **** #if OS_ARG_CHK_EN > 0u
 104:..\..\..\..\..\..\Software\uCOS-II\Source/os_mutex.c ****     if (pevent == (OS_EVENT *)0) {                     /* Validate 'pevent'                        
  45              		.loc 1 104 0
  46 000e 7B68     		ldr	r3, [r7, #4]
  47 0010 002B     		cmp	r3, #0
  48 0012 04D1     		bne	.L2
 105:..\..\..\..\..\..\Software\uCOS-II\Source/os_mutex.c ****         *perr = OS_ERR_PEVENT_NULL;
  49              		.loc 1 105 0
  50 0014 3B68     		ldr	r3, [r7]
  51 0016 0422     		movs	r2, #4
  52 0018 1A70     		strb	r2, [r3]
 106:..\..\..\..\..\..\Software\uCOS-II\Source/os_mutex.c ****         return (OS_FALSE);
  53              		.loc 1 106 0
  54 001a 0023     		movs	r3, #0
  55 001c 60E0     		b	.L3
  56              	.L2:
 107:..\..\..\..\..\..\Software\uCOS-II\Source/os_mutex.c ****     }
 108:..\..\..\..\..\..\Software\uCOS-II\Source/os_mutex.c **** #endif
 109:..\..\..\..\..\..\Software\uCOS-II\Source/os_mutex.c ****     if (pevent->OSEventType != OS_EVENT_TYPE_MUTEX) {  /* Validate event block type                
  57              		.loc 1 109 0
  58 001e 7B68     		ldr	r3, [r7, #4]
  59 0020 1B78     		ldrb	r3, [r3]
  60 0022 042B     		cmp	r3, #4
  61 0024 04D0     		beq	.L4
 110:..\..\..\..\..\..\Software\uCOS-II\Source/os_mutex.c ****         *perr = OS_ERR_EVENT_TYPE;
ARM GAS  C:\Users\ADMINI~1\AppData\Local\Temp\ccN77QmO.s 			page 4


  62              		.loc 1 110 0
  63 0026 3B68     		ldr	r3, [r7]
  64 0028 0122     		movs	r2, #1
  65 002a 1A70     		strb	r2, [r3]
 111:..\..\..\..\..\..\Software\uCOS-II\Source/os_mutex.c ****         return (OS_FALSE);
  66              		.loc 1 111 0
  67 002c 0023     		movs	r3, #0
  68 002e 57E0     		b	.L3
  69              	.L4:
 112:..\..\..\..\..\..\Software\uCOS-II\Source/os_mutex.c ****     }
 113:..\..\..\..\..\..\Software\uCOS-II\Source/os_mutex.c ****     if (OSIntNesting > 0u) {                           /* Make sure it's not called from an ISR    
  70              		.loc 1 113 0
  71 0030 2D4B     		ldr	r3, .L9
  72 0032 1B78     		ldrb	r3, [r3]
  73 0034 002B     		cmp	r3, #0
  74 0036 04D0     		beq	.L5
 114:..\..\..\..\..\..\Software\uCOS-II\Source/os_mutex.c ****         *perr = OS_ERR_PEND_ISR;
  75              		.loc 1 114 0
  76 0038 3B68     		ldr	r3, [r7]
  77 003a 0222     		movs	r2, #2
  78 003c 1A70     		strb	r2, [r3]
 115:..\..\..\..\..\..\Software\uCOS-II\Source/os_mutex.c ****         return (OS_FALSE);
  79              		.loc 1 115 0
  80 003e 0023     		movs	r3, #0
  81 0040 4EE0     		b	.L3
  82              	.L5:
 116:..\..\..\..\..\..\Software\uCOS-II\Source/os_mutex.c ****     }
 117:..\..\..\..\..\..\Software\uCOS-II\Source/os_mutex.c ****     OS_ENTER_CRITICAL();                               /* Get value (0 or 1) of Mutex              
  83              		.loc 1 117 0
  84 0042 FFF7FEFF 		bl	OS_CPU_SR_Save
  85 0046 0300     		movs	r3, r0
  86 0048 FB60     		str	r3, [r7, #12]
 118:..\..\..\..\..\..\Software\uCOS-II\Source/os_mutex.c ****     pcp = (INT8U)(pevent->OSEventCnt >> 8u);           /* Get PCP from mutex                       
  87              		.loc 1 118 0
  88 004a 7B68     		ldr	r3, [r7, #4]
  89 004c 1B89     		ldrh	r3, [r3, #8]
  90 004e 1B0A     		lsrs	r3, r3, #8
  91 0050 9AB2     		uxth	r2, r3
  92 0052 0B23     		movs	r3, #11
  93 0054 FB18     		adds	r3, r7, r3
  94 0056 1A70     		strb	r2, [r3]
 119:..\..\..\..\..\..\Software\uCOS-II\Source/os_mutex.c ****     if ((pevent->OSEventCnt & OS_MUTEX_KEEP_LOWER_8) == OS_MUTEX_AVAILABLE) {
  95              		.loc 1 119 0
  96 0058 7B68     		ldr	r3, [r7, #4]
  97 005a 1B89     		ldrh	r3, [r3, #8]
  98 005c 1A00     		movs	r2, r3
  99 005e FF23     		movs	r3, #255
 100 0060 1340     		ands	r3, r2
 101 0062 FF2B     		cmp	r3, #255
 102 0064 34D1     		bne	.L6
 120:..\..\..\..\..\..\Software\uCOS-II\Source/os_mutex.c ****         pevent->OSEventCnt &= OS_MUTEX_KEEP_UPPER_8;   /*      Mask off LSByte (Acquire Mutex)     
 103              		.loc 1 120 0
 104 0066 7B68     		ldr	r3, [r7, #4]
 105 0068 1B89     		ldrh	r3, [r3, #8]
 106 006a FF22     		movs	r2, #255
 107 006c 9343     		bics	r3, r2
 108 006e 9AB2     		uxth	r2, r3
ARM GAS  C:\Users\ADMINI~1\AppData\Local\Temp\ccN77QmO.s 			page 5


 109 0070 7B68     		ldr	r3, [r7, #4]
 110 0072 1A81     		strh	r2, [r3, #8]
 121:..\..\..\..\..\..\Software\uCOS-II\Source/os_mutex.c ****         pevent->OSEventCnt |= OSTCBCur->OSTCBPrio;     /*      Save current task priority in LSByte
 111              		.loc 1 121 0
 112 0074 7B68     		ldr	r3, [r7, #4]
 113 0076 1A89     		ldrh	r2, [r3, #8]
 114 0078 1C4B     		ldr	r3, .L9+4
 115 007a 1B68     		ldr	r3, [r3]
 116 007c 3621     		movs	r1, #54
 117 007e 5B5C     		ldrb	r3, [r3, r1]
 118 0080 9BB2     		uxth	r3, r3
 119 0082 1343     		orrs	r3, r2
 120 0084 9AB2     		uxth	r2, r3
 121 0086 7B68     		ldr	r3, [r7, #4]
 122 0088 1A81     		strh	r2, [r3, #8]
 122:..\..\..\..\..\..\Software\uCOS-II\Source/os_mutex.c ****         pevent->OSEventPtr  = (void *)OSTCBCur;        /*      Link TCB of task owning Mutex       
 123              		.loc 1 122 0
 124 008a 184B     		ldr	r3, .L9+4
 125 008c 1A68     		ldr	r2, [r3]
 126 008e 7B68     		ldr	r3, [r7, #4]
 127 0090 5A60     		str	r2, [r3, #4]
 123:..\..\..\..\..\..\Software\uCOS-II\Source/os_mutex.c ****         if ((pcp != OS_PRIO_MUTEX_CEIL_DIS) &&
 128              		.loc 1 123 0
 129 0092 0B23     		movs	r3, #11
 130 0094 FB18     		adds	r3, r7, r3
 131 0096 1B78     		ldrb	r3, [r3]
 132 0098 FF2B     		cmp	r3, #255
 133 009a 10D0     		beq	.L7
 124:..\..\..\..\..\..\Software\uCOS-II\Source/os_mutex.c ****             (OSTCBCur->OSTCBPrio <= pcp)) {            /*      PCP 'must' have a SMALLER prio ...  
 134              		.loc 1 124 0 discriminator 1
 135 009c 134B     		ldr	r3, .L9+4
 136 009e 1B68     		ldr	r3, [r3]
 137 00a0 3622     		movs	r2, #54
 138 00a2 9B5C     		ldrb	r3, [r3, r2]
 123:..\..\..\..\..\..\Software\uCOS-II\Source/os_mutex.c ****         if ((pcp != OS_PRIO_MUTEX_CEIL_DIS) &&
 139              		.loc 1 123 0 discriminator 1
 140 00a4 0B22     		movs	r2, #11
 141 00a6 BA18     		adds	r2, r7, r2
 142 00a8 1278     		ldrb	r2, [r2]
 143 00aa 9A42     		cmp	r2, r3
 144 00ac 07D3     		bcc	.L7
 125:..\..\..\..\..\..\Software\uCOS-II\Source/os_mutex.c ****              OS_EXIT_CRITICAL();                       /*      ... than current task!              
 145              		.loc 1 125 0
 146 00ae FB68     		ldr	r3, [r7, #12]
 147 00b0 1800     		movs	r0, r3
 148 00b2 FFF7FEFF 		bl	OS_CPU_SR_Restore
 126:..\..\..\..\..\..\Software\uCOS-II\Source/os_mutex.c ****             *perr = OS_ERR_PCP_LOWER;
 149              		.loc 1 126 0
 150 00b6 3B68     		ldr	r3, [r7]
 151 00b8 7822     		movs	r2, #120
 152 00ba 1A70     		strb	r2, [r3]
 153 00bc 06E0     		b	.L8
 154              	.L7:
 127:..\..\..\..\..\..\Software\uCOS-II\Source/os_mutex.c ****         } else {
 128:..\..\..\..\..\..\Software\uCOS-II\Source/os_mutex.c ****              OS_EXIT_CRITICAL();
 155              		.loc 1 128 0
 156 00be FB68     		ldr	r3, [r7, #12]
ARM GAS  C:\Users\ADMINI~1\AppData\Local\Temp\ccN77QmO.s 			page 6


 157 00c0 1800     		movs	r0, r3
 158 00c2 FFF7FEFF 		bl	OS_CPU_SR_Restore
 129:..\..\..\..\..\..\Software\uCOS-II\Source/os_mutex.c ****             *perr = OS_ERR_NONE;
 159              		.loc 1 129 0
 160 00c6 3B68     		ldr	r3, [r7]
 161 00c8 0022     		movs	r2, #0
 162 00ca 1A70     		strb	r2, [r3]
 163              	.L8:
 130:..\..\..\..\..\..\Software\uCOS-II\Source/os_mutex.c ****         }
 131:..\..\..\..\..\..\Software\uCOS-II\Source/os_mutex.c ****         return (OS_TRUE);
 164              		.loc 1 131 0
 165 00cc 0123     		movs	r3, #1
 166 00ce 07E0     		b	.L3
 167              	.L6:
 132:..\..\..\..\..\..\Software\uCOS-II\Source/os_mutex.c ****     }
 133:..\..\..\..\..\..\Software\uCOS-II\Source/os_mutex.c ****     OS_EXIT_CRITICAL();
 168              		.loc 1 133 0
 169 00d0 FB68     		ldr	r3, [r7, #12]
 170 00d2 1800     		movs	r0, r3
 171 00d4 FFF7FEFF 		bl	OS_CPU_SR_Restore
 134:..\..\..\..\..\..\Software\uCOS-II\Source/os_mutex.c ****     *perr = OS_ERR_NONE;
 172              		.loc 1 134 0
 173 00d8 3B68     		ldr	r3, [r7]
 174 00da 0022     		movs	r2, #0
 175 00dc 1A70     		strb	r2, [r3]
 135:..\..\..\..\..\..\Software\uCOS-II\Source/os_mutex.c ****     return (OS_FALSE);
 176              		.loc 1 135 0
 177 00de 0023     		movs	r3, #0
 178              	.L3:
 136:..\..\..\..\..\..\Software\uCOS-II\Source/os_mutex.c **** }
 179              		.loc 1 136 0
 180 00e0 1800     		movs	r0, r3
 181 00e2 BD46     		mov	sp, r7
 182 00e4 04B0     		add	sp, sp, #16
 183              		@ sp needed
 184 00e6 80BD     		pop	{r7, pc}
 185              	.L10:
 186              		.align	2
 187              	.L9:
 188 00e8 00000000 		.word	OSIntNesting
 189 00ec 00000000 		.word	OSTCBCur
 190              		.cfi_endproc
 191              	.LFE1:
 192              		.size	OSMutexAccept, .-OSMutexAccept
 193              		.section	.rodata
 194              		.align	2
 195              	.LC5:
 196 0000 3F00     		.ascii	"?\000"
 197              		.section	.text.OSMutexCreate,"ax",%progbits
 198              		.align	2
 199              		.global	OSMutexCreate
 200              		.code	16
 201              		.thumb_func
 202              		.type	OSMutexCreate, %function
 203              	OSMutexCreate:
 204              	.LFB2:
 137:..\..\..\..\..\..\Software\uCOS-II\Source/os_mutex.c **** #endif
ARM GAS  C:\Users\ADMINI~1\AppData\Local\Temp\ccN77QmO.s 			page 7


 138:..\..\..\..\..\..\Software\uCOS-II\Source/os_mutex.c **** 
 139:..\..\..\..\..\..\Software\uCOS-II\Source/os_mutex.c **** /*$PAGE*/
 140:..\..\..\..\..\..\Software\uCOS-II\Source/os_mutex.c **** /*
 141:..\..\..\..\..\..\Software\uCOS-II\Source/os_mutex.c **** ***************************************************************************************************
 142:..\..\..\..\..\..\Software\uCOS-II\Source/os_mutex.c **** *                                 CREATE A MUTUAL EXCLUSION SEMAPHORE
 143:..\..\..\..\..\..\Software\uCOS-II\Source/os_mutex.c **** *
 144:..\..\..\..\..\..\Software\uCOS-II\Source/os_mutex.c **** * Description: This function creates a mutual exclusion semaphore.
 145:..\..\..\..\..\..\Software\uCOS-II\Source/os_mutex.c **** *
 146:..\..\..\..\..\..\Software\uCOS-II\Source/os_mutex.c **** * Arguments  : prio          is the priority to use when accessing the mutual exclusion semaphore. 
 147:..\..\..\..\..\..\Software\uCOS-II\Source/os_mutex.c **** *                            other words, when the semaphore is acquired and a higher priority task
 148:..\..\..\..\..\..\Software\uCOS-II\Source/os_mutex.c **** *                            attempts to obtain the semaphore then the priority of the task owning 
 149:..\..\..\..\..\..\Software\uCOS-II\Source/os_mutex.c **** *                            semaphore is raised to this priority.  It is assumed that you will spe
 150:..\..\..\..\..\..\Software\uCOS-II\Source/os_mutex.c **** *                            a priority that is LOWER in value than ANY of the tasks competing for 
 151:..\..\..\..\..\..\Software\uCOS-II\Source/os_mutex.c **** *                            mutex. If the priority is specified as OS_PRIO_MUTEX_CEIL_DIS, then th
 152:..\..\..\..\..\..\Software\uCOS-II\Source/os_mutex.c **** *                            priority ceiling promotion is disabled. This way, the tasks accessing 
 153:..\..\..\..\..\..\Software\uCOS-II\Source/os_mutex.c **** *                            semaphore do not have their priority promoted.
 154:..\..\..\..\..\..\Software\uCOS-II\Source/os_mutex.c **** *
 155:..\..\..\..\..\..\Software\uCOS-II\Source/os_mutex.c **** *              perr          is a pointer to an error code which will be returned to your applicati
 156:..\..\..\..\..\..\Software\uCOS-II\Source/os_mutex.c **** *                               OS_ERR_NONE         if the call was successful.
 157:..\..\..\..\..\..\Software\uCOS-II\Source/os_mutex.c **** *                               OS_ERR_CREATE_ISR   if you attempted to create a MUTEX from an ISR
 158:..\..\..\..\..\..\Software\uCOS-II\Source/os_mutex.c **** *                               OS_ERR_PRIO_EXIST   if a task at the priority ceiling priority
 159:..\..\..\..\..\..\Software\uCOS-II\Source/os_mutex.c **** *                                                   already exist.
 160:..\..\..\..\..\..\Software\uCOS-II\Source/os_mutex.c **** *                               OS_ERR_PEVENT_NULL  No more event control blocks available.
 161:..\..\..\..\..\..\Software\uCOS-II\Source/os_mutex.c **** *                               OS_ERR_PRIO_INVALID if the priority you specify is higher that the
 162:..\..\..\..\..\..\Software\uCOS-II\Source/os_mutex.c **** *                                                   maximum allowed (i.e. > OS_LOWEST_PRIO)
 163:..\..\..\..\..\..\Software\uCOS-II\Source/os_mutex.c **** *
 164:..\..\..\..\..\..\Software\uCOS-II\Source/os_mutex.c **** * Returns    : != (void *)0  is a pointer to the event control clock (OS_EVENT) associated with the
 165:..\..\..\..\..\..\Software\uCOS-II\Source/os_mutex.c **** *                            created mutex.
 166:..\..\..\..\..\..\Software\uCOS-II\Source/os_mutex.c **** *              == (void *)0  if an error is detected.
 167:..\..\..\..\..\..\Software\uCOS-II\Source/os_mutex.c **** *
 168:..\..\..\..\..\..\Software\uCOS-II\Source/os_mutex.c **** * Note(s)    : 1) The LEAST significant 8 bits of '.OSEventCnt' hold the priority number of the tas
 169:..\..\..\..\..\..\Software\uCOS-II\Source/os_mutex.c **** *                 owning the mutex or 0xFF if no task owns the mutex.
 170:..\..\..\..\..\..\Software\uCOS-II\Source/os_mutex.c **** *
 171:..\..\..\..\..\..\Software\uCOS-II\Source/os_mutex.c **** *              2) The MOST  significant 8 bits of '.OSEventCnt' hold the priority number used to
 172:..\..\..\..\..\..\Software\uCOS-II\Source/os_mutex.c **** *                 reduce priority inversion or 0xFF (OS_PRIO_MUTEX_CEIL_DIS) if priority ceiling
 173:..\..\..\..\..\..\Software\uCOS-II\Source/os_mutex.c **** *                 promotion is disabled.
 174:..\..\..\..\..\..\Software\uCOS-II\Source/os_mutex.c **** ***************************************************************************************************
 175:..\..\..\..\..\..\Software\uCOS-II\Source/os_mutex.c **** */
 176:..\..\..\..\..\..\Software\uCOS-II\Source/os_mutex.c **** 
 177:..\..\..\..\..\..\Software\uCOS-II\Source/os_mutex.c **** OS_EVENT  *OSMutexCreate (INT8U   prio,
 178:..\..\..\..\..\..\Software\uCOS-II\Source/os_mutex.c ****                           INT8U  *perr)
 179:..\..\..\..\..\..\Software\uCOS-II\Source/os_mutex.c **** {
 205              		.loc 1 179 0
 206              		.cfi_startproc
 207              		@ args = 0, pretend = 0, frame = 16
 208              		@ frame_needed = 1, uses_anonymous_args = 0
 209 0000 80B5     		push	{r7, lr}
 210              		.cfi_def_cfa_offset 8
 211              		.cfi_offset 7, -8
 212              		.cfi_offset 14, -4
 213 0002 84B0     		sub	sp, sp, #16
 214              		.cfi_def_cfa_offset 24
 215 0004 00AF     		add	r7, sp, #0
 216              		.cfi_def_cfa_register 7
 217 0006 0200     		movs	r2, r0
 218 0008 3960     		str	r1, [r7]
 219 000a FB1D     		adds	r3, r7, #7
ARM GAS  C:\Users\ADMINI~1\AppData\Local\Temp\ccN77QmO.s 			page 8


 220 000c 1A70     		strb	r2, [r3]
 180:..\..\..\..\..\..\Software\uCOS-II\Source/os_mutex.c ****     OS_EVENT  *pevent;
 181:..\..\..\..\..\..\Software\uCOS-II\Source/os_mutex.c **** #if OS_CRITICAL_METHOD == 3u                               /* Allocate storage for CPU status regis
 182:..\..\..\..\..\..\Software\uCOS-II\Source/os_mutex.c ****     OS_CPU_SR  cpu_sr = 0u;
 221              		.loc 1 182 0
 222 000e 0023     		movs	r3, #0
 223 0010 FB60     		str	r3, [r7, #12]
 183:..\..\..\..\..\..\Software\uCOS-II\Source/os_mutex.c **** #endif
 184:..\..\..\..\..\..\Software\uCOS-II\Source/os_mutex.c **** 
 185:..\..\..\..\..\..\Software\uCOS-II\Source/os_mutex.c **** 
 186:..\..\..\..\..\..\Software\uCOS-II\Source/os_mutex.c **** 
 187:..\..\..\..\..\..\Software\uCOS-II\Source/os_mutex.c **** #ifdef OS_SAFETY_CRITICAL
 188:..\..\..\..\..\..\Software\uCOS-II\Source/os_mutex.c ****     if (perr == (INT8U *)0) {
 189:..\..\..\..\..\..\Software\uCOS-II\Source/os_mutex.c ****         OS_SAFETY_CRITICAL_EXCEPTION();
 190:..\..\..\..\..\..\Software\uCOS-II\Source/os_mutex.c ****         return ((OS_EVENT *)0);
 191:..\..\..\..\..\..\Software\uCOS-II\Source/os_mutex.c ****     }
 192:..\..\..\..\..\..\Software\uCOS-II\Source/os_mutex.c **** #endif
 193:..\..\..\..\..\..\Software\uCOS-II\Source/os_mutex.c **** 
 194:..\..\..\..\..\..\Software\uCOS-II\Source/os_mutex.c **** #ifdef OS_SAFETY_CRITICAL_IEC61508
 195:..\..\..\..\..\..\Software\uCOS-II\Source/os_mutex.c ****     if (OSSafetyCriticalStartFlag == OS_TRUE) {
 196:..\..\..\..\..\..\Software\uCOS-II\Source/os_mutex.c ****         OS_SAFETY_CRITICAL_EXCEPTION();
 197:..\..\..\..\..\..\Software\uCOS-II\Source/os_mutex.c ****         return ((OS_EVENT *)0);
 198:..\..\..\..\..\..\Software\uCOS-II\Source/os_mutex.c ****     }
 199:..\..\..\..\..\..\Software\uCOS-II\Source/os_mutex.c **** #endif
 200:..\..\..\..\..\..\Software\uCOS-II\Source/os_mutex.c **** 
 201:..\..\..\..\..\..\Software\uCOS-II\Source/os_mutex.c **** #if OS_ARG_CHK_EN > 0u
 202:..\..\..\..\..\..\Software\uCOS-II\Source/os_mutex.c ****     if (prio != OS_PRIO_MUTEX_CEIL_DIS) {
 224              		.loc 1 202 0
 225 0012 FB1D     		adds	r3, r7, #7
 226 0014 1B78     		ldrb	r3, [r3]
 227 0016 FF2B     		cmp	r3, #255
 228 0018 08D0     		beq	.L12
 203:..\..\..\..\..\..\Software\uCOS-II\Source/os_mutex.c ****         if (prio >= OS_LOWEST_PRIO) {                      /* Validate PCP                         
 229              		.loc 1 203 0
 230 001a FB1D     		adds	r3, r7, #7
 231 001c 1B78     		ldrb	r3, [r3]
 232 001e 3E2B     		cmp	r3, #62
 233 0020 04D9     		bls	.L12
 204:..\..\..\..\..\..\Software\uCOS-II\Source/os_mutex.c ****            *perr = OS_ERR_PRIO_INVALID;
 234              		.loc 1 204 0
 235 0022 3B68     		ldr	r3, [r7]
 236 0024 2A22     		movs	r2, #42
 237 0026 1A70     		strb	r2, [r3]
 205:..\..\..\..\..\..\Software\uCOS-II\Source/os_mutex.c ****             return ((OS_EVENT *)0);
 238              		.loc 1 205 0
 239 0028 0023     		movs	r3, #0
 240 002a 63E0     		b	.L13
 241              	.L12:
 206:..\..\..\..\..\..\Software\uCOS-II\Source/os_mutex.c ****         }
 207:..\..\..\..\..\..\Software\uCOS-II\Source/os_mutex.c ****     }
 208:..\..\..\..\..\..\Software\uCOS-II\Source/os_mutex.c **** #endif
 209:..\..\..\..\..\..\Software\uCOS-II\Source/os_mutex.c ****     if (OSIntNesting > 0u) {                               /* See if called from ISR ...           
 242              		.loc 1 209 0
 243 002c 334B     		ldr	r3, .L19
 244 002e 1B78     		ldrb	r3, [r3]
 245 0030 002B     		cmp	r3, #0
 246 0032 04D0     		beq	.L14
ARM GAS  C:\Users\ADMINI~1\AppData\Local\Temp\ccN77QmO.s 			page 9


 210:..\..\..\..\..\..\Software\uCOS-II\Source/os_mutex.c ****         *perr = OS_ERR_CREATE_ISR;                         /* ... can't CREATE mutex from an ISR   
 247              		.loc 1 210 0
 248 0034 3B68     		ldr	r3, [r7]
 249 0036 1022     		movs	r2, #16
 250 0038 1A70     		strb	r2, [r3]
 211:..\..\..\..\..\..\Software\uCOS-II\Source/os_mutex.c ****         return ((OS_EVENT *)0);
 251              		.loc 1 211 0
 252 003a 0023     		movs	r3, #0
 253 003c 5AE0     		b	.L13
 254              	.L14:
 212:..\..\..\..\..\..\Software\uCOS-II\Source/os_mutex.c ****     }
 213:..\..\..\..\..\..\Software\uCOS-II\Source/os_mutex.c ****     OS_ENTER_CRITICAL();
 255              		.loc 1 213 0
 256 003e FFF7FEFF 		bl	OS_CPU_SR_Save
 257 0042 0300     		movs	r3, r0
 258 0044 FB60     		str	r3, [r7, #12]
 214:..\..\..\..\..\..\Software\uCOS-II\Source/os_mutex.c ****     if (prio != OS_PRIO_MUTEX_CEIL_DIS) {
 259              		.loc 1 214 0
 260 0046 FB1D     		adds	r3, r7, #7
 261 0048 1B78     		ldrb	r3, [r3]
 262 004a FF2B     		cmp	r3, #255
 263 004c 15D0     		beq	.L15
 215:..\..\..\..\..\..\Software\uCOS-II\Source/os_mutex.c ****         if (OSTCBPrioTbl[prio] != (OS_TCB *)0) {           /* Mutex priority must not already exist
 264              		.loc 1 215 0
 265 004e FB1D     		adds	r3, r7, #7
 266 0050 1A78     		ldrb	r2, [r3]
 267 0052 2B4B     		ldr	r3, .L19+4
 268 0054 9200     		lsls	r2, r2, #2
 269 0056 D358     		ldr	r3, [r2, r3]
 270 0058 002B     		cmp	r3, #0
 271 005a 08D0     		beq	.L16
 216:..\..\..\..\..\..\Software\uCOS-II\Source/os_mutex.c ****             OS_EXIT_CRITICAL();                            /* Task already exist at priority ...   
 272              		.loc 1 216 0
 273 005c FB68     		ldr	r3, [r7, #12]
 274 005e 1800     		movs	r0, r3
 275 0060 FFF7FEFF 		bl	OS_CPU_SR_Restore
 217:..\..\..\..\..\..\Software\uCOS-II\Source/os_mutex.c ****            *perr = OS_ERR_PRIO_EXIST;                      /* ... ceiling priority                 
 276              		.loc 1 217 0
 277 0064 3B68     		ldr	r3, [r7]
 278 0066 2822     		movs	r2, #40
 279 0068 1A70     		strb	r2, [r3]
 218:..\..\..\..\..\..\Software\uCOS-II\Source/os_mutex.c ****             return ((OS_EVENT *)0);
 280              		.loc 1 218 0
 281 006a 0023     		movs	r3, #0
 282 006c 42E0     		b	.L13
 283              	.L16:
 219:..\..\..\..\..\..\Software\uCOS-II\Source/os_mutex.c ****         }
 220:..\..\..\..\..\..\Software\uCOS-II\Source/os_mutex.c ****         OSTCBPrioTbl[prio] = OS_TCB_RESERVED;              /* Reserve the table entry              
 284              		.loc 1 220 0
 285 006e FB1D     		adds	r3, r7, #7
 286 0070 1A78     		ldrb	r2, [r3]
 287 0072 234B     		ldr	r3, .L19+4
 288 0074 9200     		lsls	r2, r2, #2
 289 0076 0121     		movs	r1, #1
 290 0078 D150     		str	r1, [r2, r3]
 291              	.L15:
 221:..\..\..\..\..\..\Software\uCOS-II\Source/os_mutex.c ****     }
ARM GAS  C:\Users\ADMINI~1\AppData\Local\Temp\ccN77QmO.s 			page 10


 222:..\..\..\..\..\..\Software\uCOS-II\Source/os_mutex.c **** 
 223:..\..\..\..\..\..\Software\uCOS-II\Source/os_mutex.c ****     pevent = OSEventFreeList;                              /* Get next free event control block    
 292              		.loc 1 223 0
 293 007a 224B     		ldr	r3, .L19+8
 294 007c 1B68     		ldr	r3, [r3]
 295 007e BB60     		str	r3, [r7, #8]
 224:..\..\..\..\..\..\Software\uCOS-II\Source/os_mutex.c ****     if (pevent == (OS_EVENT *)0) {                         /* See if an ECB was available          
 296              		.loc 1 224 0
 297 0080 BB68     		ldr	r3, [r7, #8]
 298 0082 002B     		cmp	r3, #0
 299 0084 12D1     		bne	.L17
 225:..\..\..\..\..\..\Software\uCOS-II\Source/os_mutex.c ****         if (prio != OS_PRIO_MUTEX_CEIL_DIS) {
 300              		.loc 1 225 0
 301 0086 FB1D     		adds	r3, r7, #7
 302 0088 1B78     		ldrb	r3, [r3]
 303 008a FF2B     		cmp	r3, #255
 304 008c 05D0     		beq	.L18
 226:..\..\..\..\..\..\Software\uCOS-II\Source/os_mutex.c ****             OSTCBPrioTbl[prio] = (OS_TCB *)0;              /* No, Release the table entry          
 305              		.loc 1 226 0
 306 008e FB1D     		adds	r3, r7, #7
 307 0090 1A78     		ldrb	r2, [r3]
 308 0092 1B4B     		ldr	r3, .L19+4
 309 0094 9200     		lsls	r2, r2, #2
 310 0096 0021     		movs	r1, #0
 311 0098 D150     		str	r1, [r2, r3]
 312              	.L18:
 227:..\..\..\..\..\..\Software\uCOS-II\Source/os_mutex.c ****         }
 228:..\..\..\..\..\..\Software\uCOS-II\Source/os_mutex.c ****         OS_EXIT_CRITICAL();
 313              		.loc 1 228 0
 314 009a FB68     		ldr	r3, [r7, #12]
 315 009c 1800     		movs	r0, r3
 316 009e FFF7FEFF 		bl	OS_CPU_SR_Restore
 229:..\..\..\..\..\..\Software\uCOS-II\Source/os_mutex.c ****        *perr = OS_ERR_PEVENT_NULL;                         /* No more event control blocks         
 317              		.loc 1 229 0
 318 00a2 3B68     		ldr	r3, [r7]
 319 00a4 0422     		movs	r2, #4
 320 00a6 1A70     		strb	r2, [r3]
 230:..\..\..\..\..\..\Software\uCOS-II\Source/os_mutex.c ****         return (pevent);
 321              		.loc 1 230 0
 322 00a8 BB68     		ldr	r3, [r7, #8]
 323 00aa 23E0     		b	.L13
 324              	.L17:
 231:..\..\..\..\..\..\Software\uCOS-II\Source/os_mutex.c ****     }
 232:..\..\..\..\..\..\Software\uCOS-II\Source/os_mutex.c ****     OSEventFreeList     = (OS_EVENT *)OSEventFreeList->OSEventPtr; /* Adjust the free list         
 325              		.loc 1 232 0
 326 00ac 154B     		ldr	r3, .L19+8
 327 00ae 1B68     		ldr	r3, [r3]
 328 00b0 5A68     		ldr	r2, [r3, #4]
 329 00b2 144B     		ldr	r3, .L19+8
 330 00b4 1A60     		str	r2, [r3]
 233:..\..\..\..\..\..\Software\uCOS-II\Source/os_mutex.c ****     OS_EXIT_CRITICAL();
 331              		.loc 1 233 0
 332 00b6 FB68     		ldr	r3, [r7, #12]
 333 00b8 1800     		movs	r0, r3
 334 00ba FFF7FEFF 		bl	OS_CPU_SR_Restore
 234:..\..\..\..\..\..\Software\uCOS-II\Source/os_mutex.c ****     pevent->OSEventType = OS_EVENT_TYPE_MUTEX;
 335              		.loc 1 234 0
ARM GAS  C:\Users\ADMINI~1\AppData\Local\Temp\ccN77QmO.s 			page 11


 336 00be BB68     		ldr	r3, [r7, #8]
 337 00c0 0422     		movs	r2, #4
 338 00c2 1A70     		strb	r2, [r3]
 235:..\..\..\..\..\..\Software\uCOS-II\Source/os_mutex.c ****     pevent->OSEventCnt  = (INT16U)((INT16U)prio << 8u) | OS_MUTEX_AVAILABLE; /* Resource is avail. 
 339              		.loc 1 235 0
 340 00c4 FB1D     		adds	r3, r7, #7
 341 00c6 1B78     		ldrb	r3, [r3]
 342 00c8 9BB2     		uxth	r3, r3
 343 00ca 1B02     		lsls	r3, r3, #8
 344 00cc 9BB2     		uxth	r3, r3
 345 00ce FF22     		movs	r2, #255
 346 00d0 1343     		orrs	r3, r2
 347 00d2 9AB2     		uxth	r2, r3
 348 00d4 BB68     		ldr	r3, [r7, #8]
 349 00d6 1A81     		strh	r2, [r3, #8]
 236:..\..\..\..\..\..\Software\uCOS-II\Source/os_mutex.c ****     pevent->OSEventPtr  = (void *)0;                       /* No task owning the mutex             
 350              		.loc 1 236 0
 351 00d8 BB68     		ldr	r3, [r7, #8]
 352 00da 0022     		movs	r2, #0
 353 00dc 5A60     		str	r2, [r3, #4]
 237:..\..\..\..\..\..\Software\uCOS-II\Source/os_mutex.c **** #if OS_EVENT_NAME_EN > 0u
 238:..\..\..\..\..\..\Software\uCOS-II\Source/os_mutex.c ****     pevent->OSEventName = (INT8U *)(void *)"?";
 354              		.loc 1 238 0
 355 00de BB68     		ldr	r3, [r7, #8]
 356 00e0 094A     		ldr	r2, .L19+12
 357 00e2 5A61     		str	r2, [r3, #20]
 239:..\..\..\..\..\..\Software\uCOS-II\Source/os_mutex.c **** #endif
 240:..\..\..\..\..\..\Software\uCOS-II\Source/os_mutex.c ****     OS_EventWaitListInit(pevent);
 358              		.loc 1 240 0
 359 00e4 BB68     		ldr	r3, [r7, #8]
 360 00e6 1800     		movs	r0, r3
 361 00e8 FFF7FEFF 		bl	OS_EventWaitListInit
 241:..\..\..\..\..\..\Software\uCOS-II\Source/os_mutex.c ****    *perr = OS_ERR_NONE;
 362              		.loc 1 241 0
 363 00ec 3B68     		ldr	r3, [r7]
 364 00ee 0022     		movs	r2, #0
 365 00f0 1A70     		strb	r2, [r3]
 242:..\..\..\..\..\..\Software\uCOS-II\Source/os_mutex.c ****     return (pevent);
 366              		.loc 1 242 0
 367 00f2 BB68     		ldr	r3, [r7, #8]
 368              	.L13:
 243:..\..\..\..\..\..\Software\uCOS-II\Source/os_mutex.c **** }
 369              		.loc 1 243 0
 370 00f4 1800     		movs	r0, r3
 371 00f6 BD46     		mov	sp, r7
 372 00f8 04B0     		add	sp, sp, #16
 373              		@ sp needed
 374 00fa 80BD     		pop	{r7, pc}
 375              	.L20:
 376              		.align	2
 377              	.L19:
 378 00fc 00000000 		.word	OSIntNesting
 379 0100 00000000 		.word	OSTCBPrioTbl
 380 0104 00000000 		.word	OSEventFreeList
 381 0108 00000000 		.word	.LC5
 382              		.cfi_endproc
 383              	.LFE2:
ARM GAS  C:\Users\ADMINI~1\AppData\Local\Temp\ccN77QmO.s 			page 12


 384              		.size	OSMutexCreate, .-OSMutexCreate
 385              		.section	.text.OSMutexDel,"ax",%progbits
 386              		.align	2
 387              		.global	OSMutexDel
 388              		.code	16
 389              		.thumb_func
 390              		.type	OSMutexDel, %function
 391              	OSMutexDel:
 392              	.LFB3:
 244:..\..\..\..\..\..\Software\uCOS-II\Source/os_mutex.c **** 
 245:..\..\..\..\..\..\Software\uCOS-II\Source/os_mutex.c **** /*$PAGE*/
 246:..\..\..\..\..\..\Software\uCOS-II\Source/os_mutex.c **** /*
 247:..\..\..\..\..\..\Software\uCOS-II\Source/os_mutex.c **** ***************************************************************************************************
 248:..\..\..\..\..\..\Software\uCOS-II\Source/os_mutex.c **** *                                           DELETE A MUTEX
 249:..\..\..\..\..\..\Software\uCOS-II\Source/os_mutex.c **** *
 250:..\..\..\..\..\..\Software\uCOS-II\Source/os_mutex.c **** * Description: This function deletes a mutual exclusion semaphore and readies all tasks pending on 
 251:..\..\..\..\..\..\Software\uCOS-II\Source/os_mutex.c **** *
 252:..\..\..\..\..\..\Software\uCOS-II\Source/os_mutex.c **** * Arguments  : pevent        is a pointer to the event control block associated with the desired mu
 253:..\..\..\..\..\..\Software\uCOS-II\Source/os_mutex.c **** *
 254:..\..\..\..\..\..\Software\uCOS-II\Source/os_mutex.c **** *              opt           determines delete options as follows:
 255:..\..\..\..\..\..\Software\uCOS-II\Source/os_mutex.c **** *                            opt == OS_DEL_NO_PEND   Delete mutex ONLY if no task pending
 256:..\..\..\..\..\..\Software\uCOS-II\Source/os_mutex.c **** *                            opt == OS_DEL_ALWAYS    Deletes the mutex even if tasks are waiting.
 257:..\..\..\..\..\..\Software\uCOS-II\Source/os_mutex.c **** *                                                    In this case, all the tasks pending will be re
 258:..\..\..\..\..\..\Software\uCOS-II\Source/os_mutex.c **** *
 259:..\..\..\..\..\..\Software\uCOS-II\Source/os_mutex.c **** *              perr          is a pointer to an error code that can contain one of the following va
 260:..\..\..\..\..\..\Software\uCOS-II\Source/os_mutex.c **** *                            OS_ERR_NONE             The call was successful and the mutex was dele
 261:..\..\..\..\..\..\Software\uCOS-II\Source/os_mutex.c **** *                            OS_ERR_DEL_ISR          If you attempted to delete the MUTEX from an I
 262:..\..\..\..\..\..\Software\uCOS-II\Source/os_mutex.c **** *                            OS_ERR_INVALID_OPT      An invalid option was specified
 263:..\..\..\..\..\..\Software\uCOS-II\Source/os_mutex.c **** *                            OS_ERR_TASK_WAITING     One or more tasks were waiting on the mutex
 264:..\..\..\..\..\..\Software\uCOS-II\Source/os_mutex.c **** *                            OS_ERR_EVENT_TYPE       If you didn't pass a pointer to a mutex
 265:..\..\..\..\..\..\Software\uCOS-II\Source/os_mutex.c **** *                            OS_ERR_PEVENT_NULL      If 'pevent' is a NULL pointer.
 266:..\..\..\..\..\..\Software\uCOS-II\Source/os_mutex.c **** *
 267:..\..\..\..\..\..\Software\uCOS-II\Source/os_mutex.c **** * Returns    : pevent        upon error
 268:..\..\..\..\..\..\Software\uCOS-II\Source/os_mutex.c **** *              (OS_EVENT *)0 if the mutex was successfully deleted.
 269:..\..\..\..\..\..\Software\uCOS-II\Source/os_mutex.c **** *
 270:..\..\..\..\..\..\Software\uCOS-II\Source/os_mutex.c **** * Note(s)    : 1) This function must be used with care.  Tasks that would normally expect the prese
 271:..\..\..\..\..\..\Software\uCOS-II\Source/os_mutex.c **** *                 the mutex MUST check the return code of OSMutexPend().
 272:..\..\..\..\..\..\Software\uCOS-II\Source/os_mutex.c **** *
 273:..\..\..\..\..\..\Software\uCOS-II\Source/os_mutex.c **** *              2) This call can potentially disable interrupts for a long time.  The interrupt disa
 274:..\..\..\..\..\..\Software\uCOS-II\Source/os_mutex.c **** *                 time is directly proportional to the number of tasks waiting on the mutex.
 275:..\..\..\..\..\..\Software\uCOS-II\Source/os_mutex.c **** *
 276:..\..\..\..\..\..\Software\uCOS-II\Source/os_mutex.c **** *              3) Because ALL tasks pending on the mutex will be readied, you MUST be careful becau
 277:..\..\..\..\..\..\Software\uCOS-II\Source/os_mutex.c **** *                 resource(s) will no longer be guarded by the mutex.
 278:..\..\..\..\..\..\Software\uCOS-II\Source/os_mutex.c **** *
 279:..\..\..\..\..\..\Software\uCOS-II\Source/os_mutex.c **** *              4) IMPORTANT: In the 'OS_DEL_ALWAYS' case, we assume that the owner of the Mutex (if
 280:..\..\..\..\..\..\Software\uCOS-II\Source/os_mutex.c **** *                            is one) is ready-to-run and is thus NOT pending on another kernel obje
 281:..\..\..\..\..\..\Software\uCOS-II\Source/os_mutex.c **** *                            has delayed itself.  In other words, if a task owns the mutex being de
 282:..\..\..\..\..\..\Software\uCOS-II\Source/os_mutex.c **** *                            that task will be made ready-to-run at its original priority.
 283:..\..\..\..\..\..\Software\uCOS-II\Source/os_mutex.c **** ***************************************************************************************************
 284:..\..\..\..\..\..\Software\uCOS-II\Source/os_mutex.c **** */
 285:..\..\..\..\..\..\Software\uCOS-II\Source/os_mutex.c **** 
 286:..\..\..\..\..\..\Software\uCOS-II\Source/os_mutex.c **** #if OS_MUTEX_DEL_EN > 0u
 287:..\..\..\..\..\..\Software\uCOS-II\Source/os_mutex.c **** OS_EVENT  *OSMutexDel (OS_EVENT  *pevent,
 288:..\..\..\..\..\..\Software\uCOS-II\Source/os_mutex.c ****                        INT8U      opt,
 289:..\..\..\..\..\..\Software\uCOS-II\Source/os_mutex.c ****                        INT8U     *perr)
 290:..\..\..\..\..\..\Software\uCOS-II\Source/os_mutex.c **** {
 393              		.loc 1 290 0
ARM GAS  C:\Users\ADMINI~1\AppData\Local\Temp\ccN77QmO.s 			page 13


 394              		.cfi_startproc
 395              		@ args = 0, pretend = 0, frame = 40
 396              		@ frame_needed = 1, uses_anonymous_args = 0
 397 0000 80B5     		push	{r7, lr}
 398              		.cfi_def_cfa_offset 8
 399              		.cfi_offset 7, -8
 400              		.cfi_offset 14, -4
 401 0002 8AB0     		sub	sp, sp, #40
 402              		.cfi_def_cfa_offset 48
 403 0004 00AF     		add	r7, sp, #0
 404              		.cfi_def_cfa_register 7
 405 0006 F860     		str	r0, [r7, #12]
 406 0008 7A60     		str	r2, [r7, #4]
 407 000a 0B23     		movs	r3, #11
 408 000c FB18     		adds	r3, r7, r3
 409 000e 0A1C     		adds	r2, r1, #0
 410 0010 1A70     		strb	r2, [r3]
 291:..\..\..\..\..\..\Software\uCOS-II\Source/os_mutex.c ****     BOOLEAN    tasks_waiting;
 292:..\..\..\..\..\..\Software\uCOS-II\Source/os_mutex.c ****     OS_EVENT  *pevent_return;
 293:..\..\..\..\..\..\Software\uCOS-II\Source/os_mutex.c ****     INT8U      pcp;                                        /* Priority ceiling priority            
 294:..\..\..\..\..\..\Software\uCOS-II\Source/os_mutex.c ****     INT8U      prio;
 295:..\..\..\..\..\..\Software\uCOS-II\Source/os_mutex.c ****     OS_TCB    *ptcb;
 296:..\..\..\..\..\..\Software\uCOS-II\Source/os_mutex.c **** #if OS_CRITICAL_METHOD == 3u                               /* Allocate storage for CPU status regis
 297:..\..\..\..\..\..\Software\uCOS-II\Source/os_mutex.c ****     OS_CPU_SR  cpu_sr = 0u;
 411              		.loc 1 297 0
 412 0012 0023     		movs	r3, #0
 413 0014 FB61     		str	r3, [r7, #28]
 298:..\..\..\..\..\..\Software\uCOS-II\Source/os_mutex.c **** #endif
 299:..\..\..\..\..\..\Software\uCOS-II\Source/os_mutex.c **** 
 300:..\..\..\..\..\..\Software\uCOS-II\Source/os_mutex.c **** 
 301:..\..\..\..\..\..\Software\uCOS-II\Source/os_mutex.c **** 
 302:..\..\..\..\..\..\Software\uCOS-II\Source/os_mutex.c **** #ifdef OS_SAFETY_CRITICAL
 303:..\..\..\..\..\..\Software\uCOS-II\Source/os_mutex.c ****     if (perr == (INT8U *)0) {
 304:..\..\..\..\..\..\Software\uCOS-II\Source/os_mutex.c ****         OS_SAFETY_CRITICAL_EXCEPTION();
 305:..\..\..\..\..\..\Software\uCOS-II\Source/os_mutex.c ****         return ((OS_EVENT *)0);
 306:..\..\..\..\..\..\Software\uCOS-II\Source/os_mutex.c ****     }
 307:..\..\..\..\..\..\Software\uCOS-II\Source/os_mutex.c **** #endif
 308:..\..\..\..\..\..\Software\uCOS-II\Source/os_mutex.c **** 
 309:..\..\..\..\..\..\Software\uCOS-II\Source/os_mutex.c **** #if OS_ARG_CHK_EN > 0u
 310:..\..\..\..\..\..\Software\uCOS-II\Source/os_mutex.c ****     if (pevent == (OS_EVENT *)0) {                         /* Validate 'pevent'                    
 414              		.loc 1 310 0
 415 0016 FB68     		ldr	r3, [r7, #12]
 416 0018 002B     		cmp	r3, #0
 417 001a 04D1     		bne	.L22
 311:..\..\..\..\..\..\Software\uCOS-II\Source/os_mutex.c ****         *perr = OS_ERR_PEVENT_NULL;
 418              		.loc 1 311 0
 419 001c 7B68     		ldr	r3, [r7, #4]
 420 001e 0422     		movs	r2, #4
 421 0020 1A70     		strb	r2, [r3]
 312:..\..\..\..\..\..\Software\uCOS-II\Source/os_mutex.c ****         return (pevent);
 422              		.loc 1 312 0
 423 0022 FB68     		ldr	r3, [r7, #12]
 424 0024 D7E0     		b	.L23
 425              	.L22:
 313:..\..\..\..\..\..\Software\uCOS-II\Source/os_mutex.c ****     }
 314:..\..\..\..\..\..\Software\uCOS-II\Source/os_mutex.c **** #endif
 315:..\..\..\..\..\..\Software\uCOS-II\Source/os_mutex.c ****     if (pevent->OSEventType != OS_EVENT_TYPE_MUTEX) {      /* Validate event block type            
ARM GAS  C:\Users\ADMINI~1\AppData\Local\Temp\ccN77QmO.s 			page 14


 426              		.loc 1 315 0
 427 0026 FB68     		ldr	r3, [r7, #12]
 428 0028 1B78     		ldrb	r3, [r3]
 429 002a 042B     		cmp	r3, #4
 430 002c 04D0     		beq	.L24
 316:..\..\..\..\..\..\Software\uCOS-II\Source/os_mutex.c ****         *perr = OS_ERR_EVENT_TYPE;
 431              		.loc 1 316 0
 432 002e 7B68     		ldr	r3, [r7, #4]
 433 0030 0122     		movs	r2, #1
 434 0032 1A70     		strb	r2, [r3]
 317:..\..\..\..\..\..\Software\uCOS-II\Source/os_mutex.c ****         return (pevent);
 435              		.loc 1 317 0
 436 0034 FB68     		ldr	r3, [r7, #12]
 437 0036 CEE0     		b	.L23
 438              	.L24:
 318:..\..\..\..\..\..\Software\uCOS-II\Source/os_mutex.c ****     }
 319:..\..\..\..\..\..\Software\uCOS-II\Source/os_mutex.c ****     if (OSIntNesting > 0u) {                               /* See if called from ISR ...           
 439              		.loc 1 319 0
 440 0038 694B     		ldr	r3, .L41
 441 003a 1B78     		ldrb	r3, [r3]
 442 003c 002B     		cmp	r3, #0
 443 003e 04D0     		beq	.L25
 320:..\..\..\..\..\..\Software\uCOS-II\Source/os_mutex.c ****         *perr = OS_ERR_DEL_ISR;                             /* ... can't DELETE from an ISR        
 444              		.loc 1 320 0
 445 0040 7B68     		ldr	r3, [r7, #4]
 446 0042 0F22     		movs	r2, #15
 447 0044 1A70     		strb	r2, [r3]
 321:..\..\..\..\..\..\Software\uCOS-II\Source/os_mutex.c ****         return (pevent);
 448              		.loc 1 321 0
 449 0046 FB68     		ldr	r3, [r7, #12]
 450 0048 C5E0     		b	.L23
 451              	.L25:
 322:..\..\..\..\..\..\Software\uCOS-II\Source/os_mutex.c ****     }
 323:..\..\..\..\..\..\Software\uCOS-II\Source/os_mutex.c ****     OS_ENTER_CRITICAL();
 452              		.loc 1 323 0
 453 004a FFF7FEFF 		bl	OS_CPU_SR_Save
 454 004e 0300     		movs	r3, r0
 455 0050 FB61     		str	r3, [r7, #28]
 324:..\..\..\..\..\..\Software\uCOS-II\Source/os_mutex.c ****     if (pevent->OSEventGrp != 0u) {                        /* See if any tasks waiting on mutex    
 456              		.loc 1 324 0
 457 0052 FB68     		ldr	r3, [r7, #12]
 458 0054 9B7A     		ldrb	r3, [r3, #10]
 459 0056 002B     		cmp	r3, #0
 460 0058 04D0     		beq	.L26
 325:..\..\..\..\..\..\Software\uCOS-II\Source/os_mutex.c ****         tasks_waiting = OS_TRUE;                           /* Yes                                  
 461              		.loc 1 325 0
 462 005a 2723     		movs	r3, #39
 463 005c FB18     		adds	r3, r7, r3
 464 005e 0122     		movs	r2, #1
 465 0060 1A70     		strb	r2, [r3]
 466 0062 03E0     		b	.L27
 467              	.L26:
 326:..\..\..\..\..\..\Software\uCOS-II\Source/os_mutex.c ****     } else {
 327:..\..\..\..\..\..\Software\uCOS-II\Source/os_mutex.c ****         tasks_waiting = OS_FALSE;                          /* No                                   
 468              		.loc 1 327 0
 469 0064 2723     		movs	r3, #39
 470 0066 FB18     		adds	r3, r7, r3
ARM GAS  C:\Users\ADMINI~1\AppData\Local\Temp\ccN77QmO.s 			page 15


 471 0068 0022     		movs	r2, #0
 472 006a 1A70     		strb	r2, [r3]
 473              	.L27:
 328:..\..\..\..\..\..\Software\uCOS-II\Source/os_mutex.c ****     }
 329:..\..\..\..\..\..\Software\uCOS-II\Source/os_mutex.c ****     switch (opt) {
 474              		.loc 1 329 0
 475 006c 0B23     		movs	r3, #11
 476 006e FB18     		adds	r3, r7, r3
 477 0070 1B78     		ldrb	r3, [r3]
 478 0072 002B     		cmp	r3, #0
 479 0074 02D0     		beq	.L29
 480 0076 012B     		cmp	r3, #1
 481 0078 3CD0     		beq	.L30
 482 007a A1E0     		b	.L40
 483              	.L29:
 330:..\..\..\..\..\..\Software\uCOS-II\Source/os_mutex.c ****         case OS_DEL_NO_PEND:                               /* DELETE MUTEX ONLY IF NO TASK WAITING 
 331:..\..\..\..\..\..\Software\uCOS-II\Source/os_mutex.c ****              if (tasks_waiting == OS_FALSE) {
 484              		.loc 1 331 0
 485 007c 2723     		movs	r3, #39
 486 007e FB18     		adds	r3, r7, r3
 487 0080 1B78     		ldrb	r3, [r3]
 488 0082 002B     		cmp	r3, #0
 489 0084 2CD1     		bne	.L31
 332:..\..\..\..\..\..\Software\uCOS-II\Source/os_mutex.c **** #if OS_EVENT_NAME_EN > 0u
 333:..\..\..\..\..\..\Software\uCOS-II\Source/os_mutex.c ****                  pevent->OSEventName   = (INT8U *)(void *)"?";
 490              		.loc 1 333 0
 491 0086 FB68     		ldr	r3, [r7, #12]
 492 0088 564A     		ldr	r2, .L41+4
 493 008a 5A61     		str	r2, [r3, #20]
 334:..\..\..\..\..\..\Software\uCOS-II\Source/os_mutex.c **** #endif
 335:..\..\..\..\..\..\Software\uCOS-II\Source/os_mutex.c ****                  pcp                   = (INT8U)(pevent->OSEventCnt >> 8u);
 494              		.loc 1 335 0
 495 008c FB68     		ldr	r3, [r7, #12]
 496 008e 1B89     		ldrh	r3, [r3, #8]
 497 0090 1B0A     		lsrs	r3, r3, #8
 498 0092 9AB2     		uxth	r2, r3
 499 0094 1B23     		movs	r3, #27
 500 0096 FB18     		adds	r3, r7, r3
 501 0098 1A70     		strb	r2, [r3]
 336:..\..\..\..\..\..\Software\uCOS-II\Source/os_mutex.c ****                  if (pcp != OS_PRIO_MUTEX_CEIL_DIS) {
 502              		.loc 1 336 0
 503 009a 1B23     		movs	r3, #27
 504 009c FB18     		adds	r3, r7, r3
 505 009e 1B78     		ldrb	r3, [r3]
 506 00a0 FF2B     		cmp	r3, #255
 507 00a2 06D0     		beq	.L32
 337:..\..\..\..\..\..\Software\uCOS-II\Source/os_mutex.c ****                      OSTCBPrioTbl[pcp] = (OS_TCB *)0;      /* Free up the PCP                      
 508              		.loc 1 337 0
 509 00a4 1B23     		movs	r3, #27
 510 00a6 FB18     		adds	r3, r7, r3
 511 00a8 1A78     		ldrb	r2, [r3]
 512 00aa 4F4B     		ldr	r3, .L41+8
 513 00ac 9200     		lsls	r2, r2, #2
 514 00ae 0021     		movs	r1, #0
 515 00b0 D150     		str	r1, [r2, r3]
 516              	.L32:
 338:..\..\..\..\..\..\Software\uCOS-II\Source/os_mutex.c ****                  }
ARM GAS  C:\Users\ADMINI~1\AppData\Local\Temp\ccN77QmO.s 			page 16


 339:..\..\..\..\..\..\Software\uCOS-II\Source/os_mutex.c ****                  pevent->OSEventType   = OS_EVENT_TYPE_UNUSED;
 517              		.loc 1 339 0
 518 00b2 FB68     		ldr	r3, [r7, #12]
 519 00b4 0022     		movs	r2, #0
 520 00b6 1A70     		strb	r2, [r3]
 340:..\..\..\..\..\..\Software\uCOS-II\Source/os_mutex.c ****                  pevent->OSEventPtr    = OSEventFreeList;  /* Return Event Control Block to free li
 521              		.loc 1 340 0
 522 00b8 4C4B     		ldr	r3, .L41+12
 523 00ba 1A68     		ldr	r2, [r3]
 524 00bc FB68     		ldr	r3, [r7, #12]
 525 00be 5A60     		str	r2, [r3, #4]
 341:..\..\..\..\..\..\Software\uCOS-II\Source/os_mutex.c ****                  pevent->OSEventCnt    = 0u;
 526              		.loc 1 341 0
 527 00c0 FB68     		ldr	r3, [r7, #12]
 528 00c2 0022     		movs	r2, #0
 529 00c4 1A81     		strh	r2, [r3, #8]
 342:..\..\..\..\..\..\Software\uCOS-II\Source/os_mutex.c ****                  OSEventFreeList       = pevent;
 530              		.loc 1 342 0
 531 00c6 494B     		ldr	r3, .L41+12
 532 00c8 FA68     		ldr	r2, [r7, #12]
 533 00ca 1A60     		str	r2, [r3]
 343:..\..\..\..\..\..\Software\uCOS-II\Source/os_mutex.c ****                  OS_EXIT_CRITICAL();
 534              		.loc 1 343 0
 535 00cc FB69     		ldr	r3, [r7, #28]
 536 00ce 1800     		movs	r0, r3
 537 00d0 FFF7FEFF 		bl	OS_CPU_SR_Restore
 344:..\..\..\..\..\..\Software\uCOS-II\Source/os_mutex.c ****                  *perr                 = OS_ERR_NONE;
 538              		.loc 1 344 0
 539 00d4 7B68     		ldr	r3, [r7, #4]
 540 00d6 0022     		movs	r2, #0
 541 00d8 1A70     		strb	r2, [r3]
 345:..\..\..\..\..\..\Software\uCOS-II\Source/os_mutex.c ****                  pevent_return         = (OS_EVENT *)0;    /* Mutex has been deleted               
 542              		.loc 1 345 0
 543 00da 0023     		movs	r3, #0
 544 00dc 3B62     		str	r3, [r7, #32]
 346:..\..\..\..\..\..\Software\uCOS-II\Source/os_mutex.c ****              } else {
 347:..\..\..\..\..\..\Software\uCOS-II\Source/os_mutex.c ****                  OS_EXIT_CRITICAL();
 348:..\..\..\..\..\..\Software\uCOS-II\Source/os_mutex.c ****                  *perr                 = OS_ERR_TASK_WAITING;
 349:..\..\..\..\..\..\Software\uCOS-II\Source/os_mutex.c ****                  pevent_return         = pevent;
 350:..\..\..\..\..\..\Software\uCOS-II\Source/os_mutex.c ****              }
 351:..\..\..\..\..\..\Software\uCOS-II\Source/os_mutex.c ****              break;
 545              		.loc 1 351 0
 546 00de 79E0     		b	.L34
 547              	.L31:
 347:..\..\..\..\..\..\Software\uCOS-II\Source/os_mutex.c ****                  *perr                 = OS_ERR_TASK_WAITING;
 548              		.loc 1 347 0
 549 00e0 FB69     		ldr	r3, [r7, #28]
 550 00e2 1800     		movs	r0, r3
 551 00e4 FFF7FEFF 		bl	OS_CPU_SR_Restore
 348:..\..\..\..\..\..\Software\uCOS-II\Source/os_mutex.c ****                  pevent_return         = pevent;
 552              		.loc 1 348 0
 553 00e8 7B68     		ldr	r3, [r7, #4]
 554 00ea 4922     		movs	r2, #73
 555 00ec 1A70     		strb	r2, [r3]
 349:..\..\..\..\..\..\Software\uCOS-II\Source/os_mutex.c ****              }
 556              		.loc 1 349 0
 557 00ee FB68     		ldr	r3, [r7, #12]
ARM GAS  C:\Users\ADMINI~1\AppData\Local\Temp\ccN77QmO.s 			page 17


 558 00f0 3B62     		str	r3, [r7, #32]
 559              		.loc 1 351 0
 560 00f2 6FE0     		b	.L34
 561              	.L30:
 352:..\..\..\..\..\..\Software\uCOS-II\Source/os_mutex.c **** 
 353:..\..\..\..\..\..\Software\uCOS-II\Source/os_mutex.c ****         case OS_DEL_ALWAYS:                                /* ALWAYS DELETE THE MUTEX -------------
 354:..\..\..\..\..\..\Software\uCOS-II\Source/os_mutex.c ****              pcp  = (INT8U)(pevent->OSEventCnt >> 8u);                       /* Get PCP of mutex   
 562              		.loc 1 354 0
 563 00f4 FB68     		ldr	r3, [r7, #12]
 564 00f6 1B89     		ldrh	r3, [r3, #8]
 565 00f8 1B0A     		lsrs	r3, r3, #8
 566 00fa 9AB2     		uxth	r2, r3
 567 00fc 1B23     		movs	r3, #27
 568 00fe FB18     		adds	r3, r7, r3
 569 0100 1A70     		strb	r2, [r3]
 355:..\..\..\..\..\..\Software\uCOS-II\Source/os_mutex.c ****              if (pcp != OS_PRIO_MUTEX_CEIL_DIS) {
 570              		.loc 1 355 0
 571 0102 1B23     		movs	r3, #27
 572 0104 FB18     		adds	r3, r7, r3
 573 0106 1B78     		ldrb	r3, [r3]
 574 0108 FF2B     		cmp	r3, #255
 575 010a 21D0     		beq	.L36
 356:..\..\..\..\..\..\Software\uCOS-II\Source/os_mutex.c ****                  prio = (INT8U)(pevent->OSEventCnt & OS_MUTEX_KEEP_LOWER_8); /* Get owner's orig pr
 576              		.loc 1 356 0
 577 010c FB68     		ldr	r3, [r7, #12]
 578 010e 1A89     		ldrh	r2, [r3, #8]
 579 0110 1A23     		movs	r3, #26
 580 0112 FB18     		adds	r3, r7, r3
 581 0114 1A70     		strb	r2, [r3]
 357:..\..\..\..\..\..\Software\uCOS-II\Source/os_mutex.c ****                  ptcb = (OS_TCB *)pevent->OSEventPtr;
 582              		.loc 1 357 0
 583 0116 FB68     		ldr	r3, [r7, #12]
 584 0118 5B68     		ldr	r3, [r3, #4]
 585 011a 7B61     		str	r3, [r7, #20]
 358:..\..\..\..\..\..\Software\uCOS-II\Source/os_mutex.c ****                  if (ptcb != (OS_TCB *)0) {                /* See if any task owns the mutex       
 586              		.loc 1 358 0
 587 011c 7B69     		ldr	r3, [r7, #20]
 588 011e 002B     		cmp	r3, #0
 589 0120 16D0     		beq	.L36
 359:..\..\..\..\..\..\Software\uCOS-II\Source/os_mutex.c ****                      if (ptcb->OSTCBPrio == pcp) {         /* See if original prio was changed     
 590              		.loc 1 359 0
 591 0122 7B69     		ldr	r3, [r7, #20]
 592 0124 3622     		movs	r2, #54
 593 0126 9B5C     		ldrb	r3, [r3, r2]
 594 0128 1B22     		movs	r2, #27
 595 012a BA18     		adds	r2, r7, r2
 596 012c 1278     		ldrb	r2, [r2]
 597 012e 9A42     		cmp	r2, r3
 598 0130 0ED1     		bne	.L36
 360:..\..\..\..\..\..\Software\uCOS-II\Source/os_mutex.c ****                          OSMutex_RdyAtPrio(ptcb, prio);    /* Yes, Restore the task's original prio
 599              		.loc 1 360 0
 600 0132 1A23     		movs	r3, #26
 601 0134 FB18     		adds	r3, r7, r3
 602 0136 1A78     		ldrb	r2, [r3]
 603 0138 7B69     		ldr	r3, [r7, #20]
 604 013a 1100     		movs	r1, r2
 605 013c 1800     		movs	r0, r3
ARM GAS  C:\Users\ADMINI~1\AppData\Local\Temp\ccN77QmO.s 			page 18


 606 013e FFF7FEFF 		bl	OSMutex_RdyAtPrio
 361:..\..\..\..\..\..\Software\uCOS-II\Source/os_mutex.c ****                      }
 362:..\..\..\..\..\..\Software\uCOS-II\Source/os_mutex.c ****                  }
 363:..\..\..\..\..\..\Software\uCOS-II\Source/os_mutex.c ****              }
 364:..\..\..\..\..\..\Software\uCOS-II\Source/os_mutex.c ****              while (pevent->OSEventGrp != 0u) {            /* Ready ALL tasks waiting for mutex    
 607              		.loc 1 364 0
 608 0142 05E0     		b	.L36
 609              	.L37:
 365:..\..\..\..\..\..\Software\uCOS-II\Source/os_mutex.c ****                  (void)OS_EventTaskRdy(pevent, (void *)0, OS_STAT_MUTEX, OS_STAT_PEND_ABORT);
 610              		.loc 1 365 0
 611 0144 F868     		ldr	r0, [r7, #12]
 612 0146 0223     		movs	r3, #2
 613 0148 1022     		movs	r2, #16
 614 014a 0021     		movs	r1, #0
 615 014c FFF7FEFF 		bl	OS_EventTaskRdy
 616              	.L36:
 364:..\..\..\..\..\..\Software\uCOS-II\Source/os_mutex.c ****                  (void)OS_EventTaskRdy(pevent, (void *)0, OS_STAT_MUTEX, OS_STAT_PEND_ABORT);
 617              		.loc 1 364 0
 618 0150 FB68     		ldr	r3, [r7, #12]
 619 0152 9B7A     		ldrb	r3, [r3, #10]
 620 0154 002B     		cmp	r3, #0
 621 0156 F5D1     		bne	.L37
 366:..\..\..\..\..\..\Software\uCOS-II\Source/os_mutex.c ****              }
 367:..\..\..\..\..\..\Software\uCOS-II\Source/os_mutex.c **** #if OS_EVENT_NAME_EN > 0u
 368:..\..\..\..\..\..\Software\uCOS-II\Source/os_mutex.c ****              pevent->OSEventName   = (INT8U *)(void *)"?";
 622              		.loc 1 368 0
 623 0158 FB68     		ldr	r3, [r7, #12]
 624 015a 224A     		ldr	r2, .L41+4
 625 015c 5A61     		str	r2, [r3, #20]
 369:..\..\..\..\..\..\Software\uCOS-II\Source/os_mutex.c **** #endif
 370:..\..\..\..\..\..\Software\uCOS-II\Source/os_mutex.c ****              pcp                   = (INT8U)(pevent->OSEventCnt >> 8u);
 626              		.loc 1 370 0
 627 015e FB68     		ldr	r3, [r7, #12]
 628 0160 1B89     		ldrh	r3, [r3, #8]
 629 0162 1B0A     		lsrs	r3, r3, #8
 630 0164 9AB2     		uxth	r2, r3
 631 0166 1B23     		movs	r3, #27
 632 0168 FB18     		adds	r3, r7, r3
 633 016a 1A70     		strb	r2, [r3]
 371:..\..\..\..\..\..\Software\uCOS-II\Source/os_mutex.c ****              if (pcp != OS_PRIO_MUTEX_CEIL_DIS) {
 634              		.loc 1 371 0
 635 016c 1B23     		movs	r3, #27
 636 016e FB18     		adds	r3, r7, r3
 637 0170 1B78     		ldrb	r3, [r3]
 638 0172 FF2B     		cmp	r3, #255
 639 0174 06D0     		beq	.L38
 372:..\..\..\..\..\..\Software\uCOS-II\Source/os_mutex.c ****                  OSTCBPrioTbl[pcp] = (OS_TCB *)0;          /* Free up the PCP                      
 640              		.loc 1 372 0
 641 0176 1B23     		movs	r3, #27
 642 0178 FB18     		adds	r3, r7, r3
 643 017a 1A78     		ldrb	r2, [r3]
 644 017c 1A4B     		ldr	r3, .L41+8
 645 017e 9200     		lsls	r2, r2, #2
 646 0180 0021     		movs	r1, #0
 647 0182 D150     		str	r1, [r2, r3]
 648              	.L38:
 373:..\..\..\..\..\..\Software\uCOS-II\Source/os_mutex.c ****              }
ARM GAS  C:\Users\ADMINI~1\AppData\Local\Temp\ccN77QmO.s 			page 19


 374:..\..\..\..\..\..\Software\uCOS-II\Source/os_mutex.c ****              pevent->OSEventType   = OS_EVENT_TYPE_UNUSED;
 649              		.loc 1 374 0
 650 0184 FB68     		ldr	r3, [r7, #12]
 651 0186 0022     		movs	r2, #0
 652 0188 1A70     		strb	r2, [r3]
 375:..\..\..\..\..\..\Software\uCOS-II\Source/os_mutex.c ****              pevent->OSEventPtr    = OSEventFreeList;      /* Return Event Control Block to free li
 653              		.loc 1 375 0
 654 018a 184B     		ldr	r3, .L41+12
 655 018c 1A68     		ldr	r2, [r3]
 656 018e FB68     		ldr	r3, [r7, #12]
 657 0190 5A60     		str	r2, [r3, #4]
 376:..\..\..\..\..\..\Software\uCOS-II\Source/os_mutex.c ****              pevent->OSEventCnt    = 0u;
 658              		.loc 1 376 0
 659 0192 FB68     		ldr	r3, [r7, #12]
 660 0194 0022     		movs	r2, #0
 661 0196 1A81     		strh	r2, [r3, #8]
 377:..\..\..\..\..\..\Software\uCOS-II\Source/os_mutex.c ****              OSEventFreeList       = pevent;               /* Get next free event control block    
 662              		.loc 1 377 0
 663 0198 144B     		ldr	r3, .L41+12
 664 019a FA68     		ldr	r2, [r7, #12]
 665 019c 1A60     		str	r2, [r3]
 378:..\..\..\..\..\..\Software\uCOS-II\Source/os_mutex.c ****              OS_EXIT_CRITICAL();
 666              		.loc 1 378 0
 667 019e FB69     		ldr	r3, [r7, #28]
 668 01a0 1800     		movs	r0, r3
 669 01a2 FFF7FEFF 		bl	OS_CPU_SR_Restore
 379:..\..\..\..\..\..\Software\uCOS-II\Source/os_mutex.c ****              if (tasks_waiting == OS_TRUE) {               /* Reschedule only if task(s) were waiti
 670              		.loc 1 379 0
 671 01a6 2723     		movs	r3, #39
 672 01a8 FB18     		adds	r3, r7, r3
 673 01aa 1B78     		ldrb	r3, [r3]
 674 01ac 012B     		cmp	r3, #1
 675 01ae 01D1     		bne	.L39
 380:..\..\..\..\..\..\Software\uCOS-II\Source/os_mutex.c ****                  OS_Sched();                               /* Find highest priority task ready to r
 676              		.loc 1 380 0
 677 01b0 FFF7FEFF 		bl	OS_Sched
 678              	.L39:
 381:..\..\..\..\..\..\Software\uCOS-II\Source/os_mutex.c ****              }
 382:..\..\..\..\..\..\Software\uCOS-II\Source/os_mutex.c ****              *perr         = OS_ERR_NONE;
 679              		.loc 1 382 0
 680 01b4 7B68     		ldr	r3, [r7, #4]
 681 01b6 0022     		movs	r2, #0
 682 01b8 1A70     		strb	r2, [r3]
 383:..\..\..\..\..\..\Software\uCOS-II\Source/os_mutex.c ****              pevent_return = (OS_EVENT *)0;                /* Mutex has been deleted               
 683              		.loc 1 383 0
 684 01ba 0023     		movs	r3, #0
 685 01bc 3B62     		str	r3, [r7, #32]
 384:..\..\..\..\..\..\Software\uCOS-II\Source/os_mutex.c ****              break;
 686              		.loc 1 384 0
 687 01be 09E0     		b	.L34
 688              	.L40:
 385:..\..\..\..\..\..\Software\uCOS-II\Source/os_mutex.c **** 
 386:..\..\..\..\..\..\Software\uCOS-II\Source/os_mutex.c ****         default:
 387:..\..\..\..\..\..\Software\uCOS-II\Source/os_mutex.c ****              OS_EXIT_CRITICAL();
 689              		.loc 1 387 0
 690 01c0 FB69     		ldr	r3, [r7, #28]
 691 01c2 1800     		movs	r0, r3
ARM GAS  C:\Users\ADMINI~1\AppData\Local\Temp\ccN77QmO.s 			page 20


 692 01c4 FFF7FEFF 		bl	OS_CPU_SR_Restore
 388:..\..\..\..\..\..\Software\uCOS-II\Source/os_mutex.c ****              *perr         = OS_ERR_INVALID_OPT;
 693              		.loc 1 388 0
 694 01c8 7B68     		ldr	r3, [r7, #4]
 695 01ca 0722     		movs	r2, #7
 696 01cc 1A70     		strb	r2, [r3]
 389:..\..\..\..\..\..\Software\uCOS-II\Source/os_mutex.c ****              pevent_return = pevent;
 697              		.loc 1 389 0
 698 01ce FB68     		ldr	r3, [r7, #12]
 699 01d0 3B62     		str	r3, [r7, #32]
 390:..\..\..\..\..\..\Software\uCOS-II\Source/os_mutex.c ****              break;
 700              		.loc 1 390 0
 701 01d2 C046     		nop
 702              	.L34:
 391:..\..\..\..\..\..\Software\uCOS-II\Source/os_mutex.c ****     }
 392:..\..\..\..\..\..\Software\uCOS-II\Source/os_mutex.c ****     return (pevent_return);
 703              		.loc 1 392 0
 704 01d4 3B6A     		ldr	r3, [r7, #32]
 705              	.L23:
 393:..\..\..\..\..\..\Software\uCOS-II\Source/os_mutex.c **** }
 706              		.loc 1 393 0
 707 01d6 1800     		movs	r0, r3
 708 01d8 BD46     		mov	sp, r7
 709 01da 0AB0     		add	sp, sp, #40
 710              		@ sp needed
 711 01dc 80BD     		pop	{r7, pc}
 712              	.L42:
 713 01de C046     		.align	2
 714              	.L41:
 715 01e0 00000000 		.word	OSIntNesting
 716 01e4 00000000 		.word	.LC5
 717 01e8 00000000 		.word	OSTCBPrioTbl
 718 01ec 00000000 		.word	OSEventFreeList
 719              		.cfi_endproc
 720              	.LFE3:
 721              		.size	OSMutexDel, .-OSMutexDel
 722              		.section	.text.OSMutexPend,"ax",%progbits
 723              		.align	2
 724              		.global	OSMutexPend
 725              		.code	16
 726              		.thumb_func
 727              		.type	OSMutexPend, %function
 728              	OSMutexPend:
 729              	.LFB4:
 394:..\..\..\..\..\..\Software\uCOS-II\Source/os_mutex.c **** #endif
 395:..\..\..\..\..\..\Software\uCOS-II\Source/os_mutex.c **** 
 396:..\..\..\..\..\..\Software\uCOS-II\Source/os_mutex.c **** /*$PAGE*/
 397:..\..\..\..\..\..\Software\uCOS-II\Source/os_mutex.c **** /*
 398:..\..\..\..\..\..\Software\uCOS-II\Source/os_mutex.c **** ***************************************************************************************************
 399:..\..\..\..\..\..\Software\uCOS-II\Source/os_mutex.c **** *                                 PEND ON MUTUAL EXCLUSION SEMAPHORE
 400:..\..\..\..\..\..\Software\uCOS-II\Source/os_mutex.c **** *
 401:..\..\..\..\..\..\Software\uCOS-II\Source/os_mutex.c **** * Description: This function waits for a mutual exclusion semaphore.
 402:..\..\..\..\..\..\Software\uCOS-II\Source/os_mutex.c **** *
 403:..\..\..\..\..\..\Software\uCOS-II\Source/os_mutex.c **** * Arguments  : pevent        is a pointer to the event control block associated with the desired
 404:..\..\..\..\..\..\Software\uCOS-II\Source/os_mutex.c **** *                            mutex.
 405:..\..\..\..\..\..\Software\uCOS-II\Source/os_mutex.c **** *
 406:..\..\..\..\..\..\Software\uCOS-II\Source/os_mutex.c **** *              timeout       is an optional timeout period (in clock ticks).  If non-zero, your tas
ARM GAS  C:\Users\ADMINI~1\AppData\Local\Temp\ccN77QmO.s 			page 21


 407:..\..\..\..\..\..\Software\uCOS-II\Source/os_mutex.c **** *                            wait for the resource up to the amount of time specified by this argum
 408:..\..\..\..\..\..\Software\uCOS-II\Source/os_mutex.c **** *                            If you specify 0, however, your task will wait forever at the specifie
 409:..\..\..\..\..\..\Software\uCOS-II\Source/os_mutex.c **** *                            mutex or, until the resource becomes available.
 410:..\..\..\..\..\..\Software\uCOS-II\Source/os_mutex.c **** *
 411:..\..\..\..\..\..\Software\uCOS-II\Source/os_mutex.c **** *              perr          is a pointer to where an error message will be deposited.  Possible er
 412:..\..\..\..\..\..\Software\uCOS-II\Source/os_mutex.c **** *                            messages are:
 413:..\..\..\..\..\..\Software\uCOS-II\Source/os_mutex.c **** *                               OS_ERR_NONE        The call was successful and your task owns the m
 414:..\..\..\..\..\..\Software\uCOS-II\Source/os_mutex.c **** *                               OS_ERR_TIMEOUT     The mutex was not available within the specified
 415:..\..\..\..\..\..\Software\uCOS-II\Source/os_mutex.c **** *                               OS_ERR_PEND_ABORT  The wait on the mutex was aborted.
 416:..\..\..\..\..\..\Software\uCOS-II\Source/os_mutex.c **** *                               OS_ERR_EVENT_TYPE  If you didn't pass a pointer to a mutex
 417:..\..\..\..\..\..\Software\uCOS-II\Source/os_mutex.c **** *                               OS_ERR_PEVENT_NULL 'pevent' is a NULL pointer
 418:..\..\..\..\..\..\Software\uCOS-II\Source/os_mutex.c **** *                               OS_ERR_PEND_ISR    If you called this function from an ISR and the 
 419:..\..\..\..\..\..\Software\uCOS-II\Source/os_mutex.c **** *                                                  would lead to a suspension.
 420:..\..\..\..\..\..\Software\uCOS-II\Source/os_mutex.c **** *                               OS_ERR_PCP_LOWER   If the priority of the task that owns the Mutex 
 421:..\..\..\..\..\..\Software\uCOS-II\Source/os_mutex.c **** *                                                  HIGHER (i.e. a lower number) than the PCP.  This
 422:..\..\..\..\..\..\Software\uCOS-II\Source/os_mutex.c **** *                                                  indicates that you did not set the PCP higher (l
 423:..\..\..\..\..\..\Software\uCOS-II\Source/os_mutex.c **** *                                                  number) than ALL the tasks that compete for the 
 424:..\..\..\..\..\..\Software\uCOS-II\Source/os_mutex.c **** *                                                  Unfortunately, this is something that could not 
 425:..\..\..\..\..\..\Software\uCOS-II\Source/os_mutex.c **** *                                                  detected when the Mutex is created because we do
 426:..\..\..\..\..\..\Software\uCOS-II\Source/os_mutex.c **** *                                                  what tasks will be using the Mutex.
 427:..\..\..\..\..\..\Software\uCOS-II\Source/os_mutex.c **** *                               OS_ERR_PEND_LOCKED If you called this function when the scheduler i
 428:..\..\..\..\..\..\Software\uCOS-II\Source/os_mutex.c **** *
 429:..\..\..\..\..\..\Software\uCOS-II\Source/os_mutex.c **** * Returns    : none
 430:..\..\..\..\..\..\Software\uCOS-II\Source/os_mutex.c **** *
 431:..\..\..\..\..\..\Software\uCOS-II\Source/os_mutex.c **** * Note(s)    : 1) The task that owns the Mutex MUST NOT pend on any other event while it owns the m
 432:..\..\..\..\..\..\Software\uCOS-II\Source/os_mutex.c **** *
 433:..\..\..\..\..\..\Software\uCOS-II\Source/os_mutex.c **** *              2) You MUST NOT change the priority of the task that owns the mutex
 434:..\..\..\..\..\..\Software\uCOS-II\Source/os_mutex.c **** ***************************************************************************************************
 435:..\..\..\..\..\..\Software\uCOS-II\Source/os_mutex.c **** */
 436:..\..\..\..\..\..\Software\uCOS-II\Source/os_mutex.c **** 
 437:..\..\..\..\..\..\Software\uCOS-II\Source/os_mutex.c **** void  OSMutexPend (OS_EVENT  *pevent,
 438:..\..\..\..\..\..\Software\uCOS-II\Source/os_mutex.c ****                    INT32U     timeout,
 439:..\..\..\..\..\..\Software\uCOS-II\Source/os_mutex.c ****                    INT8U     *perr)
 440:..\..\..\..\..\..\Software\uCOS-II\Source/os_mutex.c **** {
 730              		.loc 1 440 0
 731              		.cfi_startproc
 732              		@ args = 0, pretend = 0, frame = 40
 733              		@ frame_needed = 1, uses_anonymous_args = 0
 734 0000 80B5     		push	{r7, lr}
 735              		.cfi_def_cfa_offset 8
 736              		.cfi_offset 7, -8
 737              		.cfi_offset 14, -4
 738 0002 8AB0     		sub	sp, sp, #40
 739              		.cfi_def_cfa_offset 48
 740 0004 00AF     		add	r7, sp, #0
 741              		.cfi_def_cfa_register 7
 742 0006 F860     		str	r0, [r7, #12]
 743 0008 B960     		str	r1, [r7, #8]
 744 000a 7A60     		str	r2, [r7, #4]
 441:..\..\..\..\..\..\Software\uCOS-II\Source/os_mutex.c ****     INT8U      pcp;                                        /* Priority Ceiling Priority (PCP)      
 442:..\..\..\..\..\..\Software\uCOS-II\Source/os_mutex.c ****     INT8U      mprio;                                      /* Mutex owner priority                 
 443:..\..\..\..\..\..\Software\uCOS-II\Source/os_mutex.c ****     BOOLEAN    rdy;                                        /* Flag indicating task was ready       
 444:..\..\..\..\..\..\Software\uCOS-II\Source/os_mutex.c ****     OS_TCB    *ptcb;
 445:..\..\..\..\..\..\Software\uCOS-II\Source/os_mutex.c ****     OS_EVENT  *pevent2;
 446:..\..\..\..\..\..\Software\uCOS-II\Source/os_mutex.c ****     INT8U      y;
 447:..\..\..\..\..\..\Software\uCOS-II\Source/os_mutex.c **** #if OS_CRITICAL_METHOD == 3u                               /* Allocate storage for CPU status regis
 448:..\..\..\..\..\..\Software\uCOS-II\Source/os_mutex.c ****     OS_CPU_SR  cpu_sr = 0u;
ARM GAS  C:\Users\ADMINI~1\AppData\Local\Temp\ccN77QmO.s 			page 22


 745              		.loc 1 448 0
 746 000c 0023     		movs	r3, #0
 747 000e 3B62     		str	r3, [r7, #32]
 449:..\..\..\..\..\..\Software\uCOS-II\Source/os_mutex.c **** #endif
 450:..\..\..\..\..\..\Software\uCOS-II\Source/os_mutex.c **** 
 451:..\..\..\..\..\..\Software\uCOS-II\Source/os_mutex.c **** 
 452:..\..\..\..\..\..\Software\uCOS-II\Source/os_mutex.c **** 
 453:..\..\..\..\..\..\Software\uCOS-II\Source/os_mutex.c **** #ifdef OS_SAFETY_CRITICAL
 454:..\..\..\..\..\..\Software\uCOS-II\Source/os_mutex.c ****     if (perr == (INT8U *)0) {
 455:..\..\..\..\..\..\Software\uCOS-II\Source/os_mutex.c ****         OS_SAFETY_CRITICAL_EXCEPTION();
 456:..\..\..\..\..\..\Software\uCOS-II\Source/os_mutex.c ****         return;
 457:..\..\..\..\..\..\Software\uCOS-II\Source/os_mutex.c ****     }
 458:..\..\..\..\..\..\Software\uCOS-II\Source/os_mutex.c **** #endif
 459:..\..\..\..\..\..\Software\uCOS-II\Source/os_mutex.c **** 
 460:..\..\..\..\..\..\Software\uCOS-II\Source/os_mutex.c **** #if OS_ARG_CHK_EN > 0u
 461:..\..\..\..\..\..\Software\uCOS-II\Source/os_mutex.c ****     if (pevent == (OS_EVENT *)0) {                         /* Validate 'pevent'                    
 748              		.loc 1 461 0
 749 0010 FB68     		ldr	r3, [r7, #12]
 750 0012 002B     		cmp	r3, #0
 751 0014 03D1     		bne	.L44
 462:..\..\..\..\..\..\Software\uCOS-II\Source/os_mutex.c ****         *perr = OS_ERR_PEVENT_NULL;
 752              		.loc 1 462 0
 753 0016 7B68     		ldr	r3, [r7, #4]
 754 0018 0422     		movs	r2, #4
 755 001a 1A70     		strb	r2, [r3]
 463:..\..\..\..\..\..\Software\uCOS-II\Source/os_mutex.c ****         return;
 756              		.loc 1 463 0
 757 001c B5E1     		b	.L43
 758              	.L44:
 464:..\..\..\..\..\..\Software\uCOS-II\Source/os_mutex.c ****     }
 465:..\..\..\..\..\..\Software\uCOS-II\Source/os_mutex.c **** #endif
 466:..\..\..\..\..\..\Software\uCOS-II\Source/os_mutex.c ****     if (pevent->OSEventType != OS_EVENT_TYPE_MUTEX) {      /* Validate event block type            
 759              		.loc 1 466 0
 760 001e FB68     		ldr	r3, [r7, #12]
 761 0020 1B78     		ldrb	r3, [r3]
 762 0022 042B     		cmp	r3, #4
 763 0024 03D0     		beq	.L46
 467:..\..\..\..\..\..\Software\uCOS-II\Source/os_mutex.c ****         *perr = OS_ERR_EVENT_TYPE;
 764              		.loc 1 467 0
 765 0026 7B68     		ldr	r3, [r7, #4]
 766 0028 0122     		movs	r2, #1
 767 002a 1A70     		strb	r2, [r3]
 468:..\..\..\..\..\..\Software\uCOS-II\Source/os_mutex.c ****         return;
 768              		.loc 1 468 0
 769 002c ADE1     		b	.L43
 770              	.L46:
 469:..\..\..\..\..\..\Software\uCOS-II\Source/os_mutex.c ****     }
 470:..\..\..\..\..\..\Software\uCOS-II\Source/os_mutex.c ****     if (OSIntNesting > 0u) {                               /* See if called from ISR ...           
 771              		.loc 1 470 0
 772 002e D84B     		ldr	r3, .L64
 773 0030 1B78     		ldrb	r3, [r3]
 774 0032 002B     		cmp	r3, #0
 775 0034 03D0     		beq	.L47
 471:..\..\..\..\..\..\Software\uCOS-II\Source/os_mutex.c ****         *perr = OS_ERR_PEND_ISR;                           /* ... can't PEND from an ISR           
 776              		.loc 1 471 0
 777 0036 7B68     		ldr	r3, [r7, #4]
 778 0038 0222     		movs	r2, #2
ARM GAS  C:\Users\ADMINI~1\AppData\Local\Temp\ccN77QmO.s 			page 23


 779 003a 1A70     		strb	r2, [r3]
 472:..\..\..\..\..\..\Software\uCOS-II\Source/os_mutex.c ****         return;
 780              		.loc 1 472 0
 781 003c A5E1     		b	.L43
 782              	.L47:
 473:..\..\..\..\..\..\Software\uCOS-II\Source/os_mutex.c ****     }
 474:..\..\..\..\..\..\Software\uCOS-II\Source/os_mutex.c ****     if (OSLockNesting > 0u) {                              /* See if called with scheduler locked .
 783              		.loc 1 474 0
 784 003e D54B     		ldr	r3, .L64+4
 785 0040 1B78     		ldrb	r3, [r3]
 786 0042 002B     		cmp	r3, #0
 787 0044 03D0     		beq	.L48
 475:..\..\..\..\..\..\Software\uCOS-II\Source/os_mutex.c ****         *perr = OS_ERR_PEND_LOCKED;                        /* ... can't PEND when locked           
 788              		.loc 1 475 0
 789 0046 7B68     		ldr	r3, [r7, #4]
 790 0048 0D22     		movs	r2, #13
 791 004a 1A70     		strb	r2, [r3]
 476:..\..\..\..\..\..\Software\uCOS-II\Source/os_mutex.c ****         return;
 792              		.loc 1 476 0
 793 004c 9DE1     		b	.L43
 794              	.L48:
 477:..\..\..\..\..\..\Software\uCOS-II\Source/os_mutex.c ****     }
 478:..\..\..\..\..\..\Software\uCOS-II\Source/os_mutex.c **** /*$PAGE*/
 479:..\..\..\..\..\..\Software\uCOS-II\Source/os_mutex.c ****     OS_ENTER_CRITICAL();
 795              		.loc 1 479 0
 796 004e FFF7FEFF 		bl	OS_CPU_SR_Save
 797 0052 0300     		movs	r3, r0
 798 0054 3B62     		str	r3, [r7, #32]
 480:..\..\..\..\..\..\Software\uCOS-II\Source/os_mutex.c ****     pcp = (INT8U)(pevent->OSEventCnt >> 8u);               /* Get PCP from mutex                   
 799              		.loc 1 480 0
 800 0056 FB68     		ldr	r3, [r7, #12]
 801 0058 1B89     		ldrh	r3, [r3, #8]
 802 005a 1B0A     		lsrs	r3, r3, #8
 803 005c 9AB2     		uxth	r2, r3
 804 005e 1F23     		movs	r3, #31
 805 0060 FB18     		adds	r3, r7, r3
 806 0062 1A70     		strb	r2, [r3]
 481:..\..\..\..\..\..\Software\uCOS-II\Source/os_mutex.c ****                                                            /* Is Mutex available?                  
 482:..\..\..\..\..\..\Software\uCOS-II\Source/os_mutex.c ****     if ((INT8U)(pevent->OSEventCnt & OS_MUTEX_KEEP_LOWER_8) == OS_MUTEX_AVAILABLE) {
 807              		.loc 1 482 0
 808 0064 FB68     		ldr	r3, [r7, #12]
 809 0066 1B89     		ldrh	r3, [r3, #8]
 810 0068 DBB2     		uxtb	r3, r3
 811 006a FF2B     		cmp	r3, #255
 812 006c 33D1     		bne	.L49
 483:..\..\..\..\..\..\Software\uCOS-II\Source/os_mutex.c ****         pevent->OSEventCnt &= OS_MUTEX_KEEP_UPPER_8;       /* Yes, Acquire the resource            
 813              		.loc 1 483 0
 814 006e FB68     		ldr	r3, [r7, #12]
 815 0070 1B89     		ldrh	r3, [r3, #8]
 816 0072 FF22     		movs	r2, #255
 817 0074 9343     		bics	r3, r2
 818 0076 9AB2     		uxth	r2, r3
 819 0078 FB68     		ldr	r3, [r7, #12]
 820 007a 1A81     		strh	r2, [r3, #8]
 484:..\..\..\..\..\..\Software\uCOS-II\Source/os_mutex.c ****         pevent->OSEventCnt |= OSTCBCur->OSTCBPrio;         /*      Save priority of owning task    
 821              		.loc 1 484 0
 822 007c FB68     		ldr	r3, [r7, #12]
ARM GAS  C:\Users\ADMINI~1\AppData\Local\Temp\ccN77QmO.s 			page 24


 823 007e 1A89     		ldrh	r2, [r3, #8]
 824 0080 C54B     		ldr	r3, .L64+8
 825 0082 1B68     		ldr	r3, [r3]
 826 0084 3621     		movs	r1, #54
 827 0086 5B5C     		ldrb	r3, [r3, r1]
 828 0088 9BB2     		uxth	r3, r3
 829 008a 1343     		orrs	r3, r2
 830 008c 9AB2     		uxth	r2, r3
 831 008e FB68     		ldr	r3, [r7, #12]
 832 0090 1A81     		strh	r2, [r3, #8]
 485:..\..\..\..\..\..\Software\uCOS-II\Source/os_mutex.c ****         pevent->OSEventPtr  = (void *)OSTCBCur;            /*      Point to owning task's OS_TCB   
 833              		.loc 1 485 0
 834 0092 C14B     		ldr	r3, .L64+8
 835 0094 1A68     		ldr	r2, [r3]
 836 0096 FB68     		ldr	r3, [r7, #12]
 837 0098 5A60     		str	r2, [r3, #4]
 486:..\..\..\..\..\..\Software\uCOS-II\Source/os_mutex.c ****         if ((pcp != OS_PRIO_MUTEX_CEIL_DIS) &&
 838              		.loc 1 486 0
 839 009a 1F23     		movs	r3, #31
 840 009c FB18     		adds	r3, r7, r3
 841 009e 1B78     		ldrb	r3, [r3]
 842 00a0 FF2B     		cmp	r3, #255
 843 00a2 10D0     		beq	.L50
 487:..\..\..\..\..\..\Software\uCOS-II\Source/os_mutex.c ****             (OSTCBCur->OSTCBPrio <= pcp)) {                /*      PCP 'must' have a SMALLER prio .
 844              		.loc 1 487 0 discriminator 1
 845 00a4 BC4B     		ldr	r3, .L64+8
 846 00a6 1B68     		ldr	r3, [r3]
 847 00a8 3622     		movs	r2, #54
 848 00aa 9B5C     		ldrb	r3, [r3, r2]
 486:..\..\..\..\..\..\Software\uCOS-II\Source/os_mutex.c ****         if ((pcp != OS_PRIO_MUTEX_CEIL_DIS) &&
 849              		.loc 1 486 0 discriminator 1
 850 00ac 1F22     		movs	r2, #31
 851 00ae BA18     		adds	r2, r7, r2
 852 00b0 1278     		ldrb	r2, [r2]
 853 00b2 9A42     		cmp	r2, r3
 854 00b4 07D3     		bcc	.L50
 488:..\..\..\..\..\..\Software\uCOS-II\Source/os_mutex.c ****              OS_EXIT_CRITICAL();                           /*      ... than current task!          
 855              		.loc 1 488 0
 856 00b6 3B6A     		ldr	r3, [r7, #32]
 857 00b8 1800     		movs	r0, r3
 858 00ba FFF7FEFF 		bl	OS_CPU_SR_Restore
 489:..\..\..\..\..\..\Software\uCOS-II\Source/os_mutex.c ****             *perr = OS_ERR_PCP_LOWER;
 859              		.loc 1 489 0
 860 00be 7B68     		ldr	r3, [r7, #4]
 861 00c0 7822     		movs	r2, #120
 862 00c2 1A70     		strb	r2, [r3]
 490:..\..\..\..\..\..\Software\uCOS-II\Source/os_mutex.c ****         } else {
 491:..\..\..\..\..\..\Software\uCOS-II\Source/os_mutex.c ****              OS_EXIT_CRITICAL();
 492:..\..\..\..\..\..\Software\uCOS-II\Source/os_mutex.c ****             *perr = OS_ERR_NONE;
 493:..\..\..\..\..\..\Software\uCOS-II\Source/os_mutex.c ****         }
 494:..\..\..\..\..\..\Software\uCOS-II\Source/os_mutex.c ****         return;
 863              		.loc 1 494 0
 864 00c4 61E1     		b	.L43
 865              	.L50:
 491:..\..\..\..\..\..\Software\uCOS-II\Source/os_mutex.c ****             *perr = OS_ERR_NONE;
 866              		.loc 1 491 0
 867 00c6 3B6A     		ldr	r3, [r7, #32]
ARM GAS  C:\Users\ADMINI~1\AppData\Local\Temp\ccN77QmO.s 			page 25


 868 00c8 1800     		movs	r0, r3
 869 00ca FFF7FEFF 		bl	OS_CPU_SR_Restore
 492:..\..\..\..\..\..\Software\uCOS-II\Source/os_mutex.c ****         }
 870              		.loc 1 492 0
 871 00ce 7B68     		ldr	r3, [r7, #4]
 872 00d0 0022     		movs	r2, #0
 873 00d2 1A70     		strb	r2, [r3]
 874              		.loc 1 494 0
 875 00d4 59E1     		b	.L43
 876              	.L49:
 495:..\..\..\..\..\..\Software\uCOS-II\Source/os_mutex.c ****     }
 496:..\..\..\..\..\..\Software\uCOS-II\Source/os_mutex.c ****     if (pcp != OS_PRIO_MUTEX_CEIL_DIS) {
 877              		.loc 1 496 0
 878 00d6 1F23     		movs	r3, #31
 879 00d8 FB18     		adds	r3, r7, r3
 880 00da 1B78     		ldrb	r3, [r3]
 881 00dc FF2B     		cmp	r3, #255
 882 00de 00D1     		bne	.LCB750
 883 00e0 FFE0     		b	.L52	@long jump
 884              	.LCB750:
 497:..\..\..\..\..\..\Software\uCOS-II\Source/os_mutex.c ****         mprio = (INT8U)(pevent->OSEventCnt & OS_MUTEX_KEEP_LOWER_8); /*  Get priority of mutex owne
 885              		.loc 1 497 0
 886 00e2 FB68     		ldr	r3, [r7, #12]
 887 00e4 1A89     		ldrh	r2, [r3, #8]
 888 00e6 1E23     		movs	r3, #30
 889 00e8 FB18     		adds	r3, r7, r3
 890 00ea 1A70     		strb	r2, [r3]
 498:..\..\..\..\..\..\Software\uCOS-II\Source/os_mutex.c ****         ptcb  = (OS_TCB *)(pevent->OSEventPtr);                   /*     Point to TCB of mutex owne
 891              		.loc 1 498 0
 892 00ec FB68     		ldr	r3, [r7, #12]
 893 00ee 5B68     		ldr	r3, [r3, #4]
 894 00f0 BB61     		str	r3, [r7, #24]
 499:..\..\..\..\..\..\Software\uCOS-II\Source/os_mutex.c ****         if (ptcb->OSTCBPrio > pcp) {                              /*     Need to promote prio of ow
 895              		.loc 1 499 0
 896 00f2 BB69     		ldr	r3, [r7, #24]
 897 00f4 3622     		movs	r2, #54
 898 00f6 9B5C     		ldrb	r3, [r3, r2]
 899 00f8 1F22     		movs	r2, #31
 900 00fa BA18     		adds	r2, r7, r2
 901 00fc 1278     		ldrb	r2, [r2]
 902 00fe 9A42     		cmp	r2, r3
 903 0100 00D3     		bcc	.LCB766
 904 0102 EEE0     		b	.L52	@long jump
 905              	.LCB766:
 500:..\..\..\..\..\..\Software\uCOS-II\Source/os_mutex.c ****             if (mprio > OSTCBCur->OSTCBPrio) {
 906              		.loc 1 500 0
 907 0104 A44B     		ldr	r3, .L64+8
 908 0106 1B68     		ldr	r3, [r3]
 909 0108 3622     		movs	r2, #54
 910 010a 9B5C     		ldrb	r3, [r3, r2]
 911 010c 1E22     		movs	r2, #30
 912 010e BA18     		adds	r2, r7, r2
 913 0110 1278     		ldrb	r2, [r2]
 914 0112 9A42     		cmp	r2, r3
 915 0114 00D8     		bhi	.LCB775
 916 0116 E4E0     		b	.L52	@long jump
 917              	.LCB775:
ARM GAS  C:\Users\ADMINI~1\AppData\Local\Temp\ccN77QmO.s 			page 26


 501:..\..\..\..\..\..\Software\uCOS-II\Source/os_mutex.c ****                 y = ptcb->OSTCBY;
 918              		.loc 1 501 0
 919 0118 1723     		movs	r3, #23
 920 011a FB18     		adds	r3, r7, r3
 921 011c BA69     		ldr	r2, [r7, #24]
 922 011e 3821     		movs	r1, #56
 923 0120 525C     		ldrb	r2, [r2, r1]
 924 0122 1A70     		strb	r2, [r3]
 502:..\..\..\..\..\..\Software\uCOS-II\Source/os_mutex.c ****                 if ((OSRdyTbl[y] & ptcb->OSTCBBitX) != 0u) {      /*     See if mutex owner is read
 925              		.loc 1 502 0
 926 0124 1723     		movs	r3, #23
 927 0126 FB18     		adds	r3, r7, r3
 928 0128 1B78     		ldrb	r3, [r3]
 929 012a 9C4A     		ldr	r2, .L64+12
 930 012c D35C     		ldrb	r3, [r2, r3]
 931 012e BA69     		ldr	r2, [r7, #24]
 932 0130 3921     		movs	r1, #57
 933 0132 525C     		ldrb	r2, [r2, r1]
 934 0134 1340     		ands	r3, r2
 935 0136 DBB2     		uxtb	r3, r3
 936 0138 002B     		cmp	r3, #0
 937 013a 27D0     		beq	.L53
 503:..\..\..\..\..\..\Software\uCOS-II\Source/os_mutex.c ****                     OSRdyTbl[y] &= (OS_PRIO)~ptcb->OSTCBBitX;     /*     Yes, Remove owner from Rdy
 938              		.loc 1 503 0
 939 013c 1723     		movs	r3, #23
 940 013e FB18     		adds	r3, r7, r3
 941 0140 1B78     		ldrb	r3, [r3]
 942 0142 1722     		movs	r2, #23
 943 0144 BA18     		adds	r2, r7, r2
 944 0146 1278     		ldrb	r2, [r2]
 945 0148 9449     		ldr	r1, .L64+12
 946 014a 8A5C     		ldrb	r2, [r1, r2]
 947 014c B969     		ldr	r1, [r7, #24]
 948 014e 3920     		movs	r0, #57
 949 0150 095C     		ldrb	r1, [r1, r0]
 950 0152 C943     		mvns	r1, r1
 951 0154 C9B2     		uxtb	r1, r1
 952 0156 0A40     		ands	r2, r1
 953 0158 D1B2     		uxtb	r1, r2
 954 015a 904A     		ldr	r2, .L64+12
 955 015c D154     		strb	r1, [r2, r3]
 504:..\..\..\..\..\..\Software\uCOS-II\Source/os_mutex.c ****                     if (OSRdyTbl[y] == 0u) {                      /*          ... list at current p
 956              		.loc 1 504 0
 957 015e 1723     		movs	r3, #23
 958 0160 FB18     		adds	r3, r7, r3
 959 0162 1B78     		ldrb	r3, [r3]
 960 0164 8D4A     		ldr	r2, .L64+12
 961 0166 D35C     		ldrb	r3, [r2, r3]
 962 0168 002B     		cmp	r3, #0
 963 016a 0AD1     		bne	.L54
 505:..\..\..\..\..\..\Software\uCOS-II\Source/os_mutex.c ****                         OSRdyGrp &= (OS_PRIO)~ptcb->OSTCBBitY;
 964              		.loc 1 505 0
 965 016c BB69     		ldr	r3, [r7, #24]
 966 016e 3A22     		movs	r2, #58
 967 0170 9B5C     		ldrb	r3, [r3, r2]
 968 0172 DB43     		mvns	r3, r3
 969 0174 DBB2     		uxtb	r3, r3
ARM GAS  C:\Users\ADMINI~1\AppData\Local\Temp\ccN77QmO.s 			page 27


 970 0176 8A4A     		ldr	r2, .L64+16
 971 0178 1278     		ldrb	r2, [r2]
 972 017a 1340     		ands	r3, r2
 973 017c DAB2     		uxtb	r2, r3
 974 017e 884B     		ldr	r3, .L64+16
 975 0180 1A70     		strb	r2, [r3]
 976              	.L54:
 506:..\..\..\..\..\..\Software\uCOS-II\Source/os_mutex.c ****                     }
 507:..\..\..\..\..\..\Software\uCOS-II\Source/os_mutex.c ****                     rdy = OS_TRUE;
 977              		.loc 1 507 0
 978 0182 2723     		movs	r3, #39
 979 0184 FB18     		adds	r3, r7, r3
 980 0186 0122     		movs	r2, #1
 981 0188 1A70     		strb	r2, [r3]
 982 018a 36E0     		b	.L55
 983              	.L53:
 508:..\..\..\..\..\..\Software\uCOS-II\Source/os_mutex.c ****                 } else {
 509:..\..\..\..\..\..\Software\uCOS-II\Source/os_mutex.c ****                     pevent2 = ptcb->OSTCBEventPtr;
 984              		.loc 1 509 0
 985 018c BB69     		ldr	r3, [r7, #24]
 986 018e DB69     		ldr	r3, [r3, #28]
 987 0190 3B61     		str	r3, [r7, #16]
 510:..\..\..\..\..\..\Software\uCOS-II\Source/os_mutex.c ****                     if (pevent2 != (OS_EVENT *)0) {               /* Remove from event wait list   
 988              		.loc 1 510 0
 989 0192 3B69     		ldr	r3, [r7, #16]
 990 0194 002B     		cmp	r3, #0
 991 0196 2CD0     		beq	.L56
 511:..\..\..\..\..\..\Software\uCOS-II\Source/os_mutex.c ****                         y = ptcb->OSTCBY;
 992              		.loc 1 511 0
 993 0198 1723     		movs	r3, #23
 994 019a FB18     		adds	r3, r7, r3
 995 019c BA69     		ldr	r2, [r7, #24]
 996 019e 3821     		movs	r1, #56
 997 01a0 525C     		ldrb	r2, [r2, r1]
 998 01a2 1A70     		strb	r2, [r3]
 512:..\..\..\..\..\..\Software\uCOS-II\Source/os_mutex.c ****                         pevent2->OSEventTbl[y] &= (OS_PRIO)~ptcb->OSTCBBitX;
 999              		.loc 1 512 0
 1000 01a4 1723     		movs	r3, #23
 1001 01a6 FB18     		adds	r3, r7, r3
 1002 01a8 1B78     		ldrb	r3, [r3]
 1003 01aa 1722     		movs	r2, #23
 1004 01ac BA18     		adds	r2, r7, r2
 1005 01ae 1278     		ldrb	r2, [r2]
 1006 01b0 3969     		ldr	r1, [r7, #16]
 1007 01b2 8A18     		adds	r2, r1, r2
 1008 01b4 D27A     		ldrb	r2, [r2, #11]
 1009 01b6 B969     		ldr	r1, [r7, #24]
 1010 01b8 3920     		movs	r0, #57
 1011 01ba 095C     		ldrb	r1, [r1, r0]
 1012 01bc C943     		mvns	r1, r1
 1013 01be C9B2     		uxtb	r1, r1
 1014 01c0 0A40     		ands	r2, r1
 1015 01c2 D1B2     		uxtb	r1, r2
 1016 01c4 3A69     		ldr	r2, [r7, #16]
 1017 01c6 D318     		adds	r3, r2, r3
 1018 01c8 0A1C     		adds	r2, r1, #0
 1019 01ca DA72     		strb	r2, [r3, #11]
ARM GAS  C:\Users\ADMINI~1\AppData\Local\Temp\ccN77QmO.s 			page 28


 513:..\..\..\..\..\..\Software\uCOS-II\Source/os_mutex.c ****                         if (pevent2->OSEventTbl[y] == 0u) {
 1020              		.loc 1 513 0
 1021 01cc 1723     		movs	r3, #23
 1022 01ce FB18     		adds	r3, r7, r3
 1023 01d0 1B78     		ldrb	r3, [r3]
 1024 01d2 3A69     		ldr	r2, [r7, #16]
 1025 01d4 D318     		adds	r3, r2, r3
 1026 01d6 DB7A     		ldrb	r3, [r3, #11]
 1027 01d8 002B     		cmp	r3, #0
 1028 01da 0AD1     		bne	.L56
 514:..\..\..\..\..\..\Software\uCOS-II\Source/os_mutex.c ****                             pevent2->OSEventGrp &= (OS_PRIO)~ptcb->OSTCBBitY;
 1029              		.loc 1 514 0
 1030 01dc 3B69     		ldr	r3, [r7, #16]
 1031 01de 9B7A     		ldrb	r3, [r3, #10]
 1032 01e0 BA69     		ldr	r2, [r7, #24]
 1033 01e2 3A21     		movs	r1, #58
 1034 01e4 525C     		ldrb	r2, [r2, r1]
 1035 01e6 D243     		mvns	r2, r2
 1036 01e8 D2B2     		uxtb	r2, r2
 1037 01ea 1340     		ands	r3, r2
 1038 01ec DAB2     		uxtb	r2, r3
 1039 01ee 3B69     		ldr	r3, [r7, #16]
 1040 01f0 9A72     		strb	r2, [r3, #10]
 1041              	.L56:
 515:..\..\..\..\..\..\Software\uCOS-II\Source/os_mutex.c ****                         }
 516:..\..\..\..\..\..\Software\uCOS-II\Source/os_mutex.c ****                     }
 517:..\..\..\..\..\..\Software\uCOS-II\Source/os_mutex.c ****                     rdy = OS_FALSE;                        /* No                                   
 1042              		.loc 1 517 0
 1043 01f2 2723     		movs	r3, #39
 1044 01f4 FB18     		adds	r3, r7, r3
 1045 01f6 0022     		movs	r2, #0
 1046 01f8 1A70     		strb	r2, [r3]
 1047              	.L55:
 518:..\..\..\..\..\..\Software\uCOS-II\Source/os_mutex.c ****                 }
 519:..\..\..\..\..\..\Software\uCOS-II\Source/os_mutex.c ****                 ptcb->OSTCBPrio = pcp;                     /* Change owner task prio to PCP        
 1048              		.loc 1 519 0
 1049 01fa BB69     		ldr	r3, [r7, #24]
 1050 01fc 1F22     		movs	r2, #31
 1051 01fe BA18     		adds	r2, r7, r2
 1052 0200 3621     		movs	r1, #54
 1053 0202 1278     		ldrb	r2, [r2]
 1054 0204 5A54     		strb	r2, [r3, r1]
 520:..\..\..\..\..\..\Software\uCOS-II\Source/os_mutex.c **** #if OS_LOWEST_PRIO <= 63u
 521:..\..\..\..\..\..\Software\uCOS-II\Source/os_mutex.c ****                 ptcb->OSTCBY    = (INT8U)( ptcb->OSTCBPrio >> 3u);
 1055              		.loc 1 521 0
 1056 0206 BB69     		ldr	r3, [r7, #24]
 1057 0208 3622     		movs	r2, #54
 1058 020a 9B5C     		ldrb	r3, [r3, r2]
 1059 020c DB08     		lsrs	r3, r3, #3
 1060 020e D9B2     		uxtb	r1, r3
 1061 0210 BB69     		ldr	r3, [r7, #24]
 1062 0212 3822     		movs	r2, #56
 1063 0214 9954     		strb	r1, [r3, r2]
 522:..\..\..\..\..\..\Software\uCOS-II\Source/os_mutex.c ****                 ptcb->OSTCBX    = (INT8U)( ptcb->OSTCBPrio & 0x07u);
 1064              		.loc 1 522 0
 1065 0216 BB69     		ldr	r3, [r7, #24]
 1066 0218 3622     		movs	r2, #54
ARM GAS  C:\Users\ADMINI~1\AppData\Local\Temp\ccN77QmO.s 			page 29


 1067 021a 9B5C     		ldrb	r3, [r3, r2]
 1068 021c 0722     		movs	r2, #7
 1069 021e 1340     		ands	r3, r2
 1070 0220 D9B2     		uxtb	r1, r3
 1071 0222 BB69     		ldr	r3, [r7, #24]
 1072 0224 3722     		movs	r2, #55
 1073 0226 9954     		strb	r1, [r3, r2]
 523:..\..\..\..\..\..\Software\uCOS-II\Source/os_mutex.c **** #else
 524:..\..\..\..\..\..\Software\uCOS-II\Source/os_mutex.c ****                 ptcb->OSTCBY    = (INT8U)((INT8U)(ptcb->OSTCBPrio >> 4u) & 0xFFu);
 525:..\..\..\..\..\..\Software\uCOS-II\Source/os_mutex.c ****                 ptcb->OSTCBX    = (INT8U)( ptcb->OSTCBPrio & 0x0Fu);
 526:..\..\..\..\..\..\Software\uCOS-II\Source/os_mutex.c **** #endif
 527:..\..\..\..\..\..\Software\uCOS-II\Source/os_mutex.c ****                 ptcb->OSTCBBitY = (OS_PRIO)(1uL << ptcb->OSTCBY);
 1074              		.loc 1 527 0
 1075 0228 BB69     		ldr	r3, [r7, #24]
 1076 022a 3822     		movs	r2, #56
 1077 022c 9B5C     		ldrb	r3, [r3, r2]
 1078 022e 1A00     		movs	r2, r3
 1079 0230 0123     		movs	r3, #1
 1080 0232 9340     		lsls	r3, r3, r2
 1081 0234 D9B2     		uxtb	r1, r3
 1082 0236 BB69     		ldr	r3, [r7, #24]
 1083 0238 3A22     		movs	r2, #58
 1084 023a 9954     		strb	r1, [r3, r2]
 528:..\..\..\..\..\..\Software\uCOS-II\Source/os_mutex.c ****                 ptcb->OSTCBBitX = (OS_PRIO)(1uL << ptcb->OSTCBX);
 1085              		.loc 1 528 0
 1086 023c BB69     		ldr	r3, [r7, #24]
 1087 023e 3722     		movs	r2, #55
 1088 0240 9B5C     		ldrb	r3, [r3, r2]
 1089 0242 1A00     		movs	r2, r3
 1090 0244 0123     		movs	r3, #1
 1091 0246 9340     		lsls	r3, r3, r2
 1092 0248 D9B2     		uxtb	r1, r3
 1093 024a BB69     		ldr	r3, [r7, #24]
 1094 024c 3922     		movs	r2, #57
 1095 024e 9954     		strb	r1, [r3, r2]
 529:..\..\..\..\..\..\Software\uCOS-II\Source/os_mutex.c **** 
 530:..\..\..\..\..\..\Software\uCOS-II\Source/os_mutex.c ****                 if (rdy == OS_TRUE) {                      /* If task was ready at owner's priority
 1096              		.loc 1 530 0
 1097 0250 2723     		movs	r3, #39
 1098 0252 FB18     		adds	r3, r7, r3
 1099 0254 1B78     		ldrb	r3, [r3]
 1100 0256 012B     		cmp	r3, #1
 1101 0258 1AD1     		bne	.L57
 531:..\..\..\..\..\..\Software\uCOS-II\Source/os_mutex.c ****                     OSRdyGrp               |= ptcb->OSTCBBitY; /* ... make it ready at new priority
 1102              		.loc 1 531 0
 1103 025a BB69     		ldr	r3, [r7, #24]
 1104 025c 3A22     		movs	r2, #58
 1105 025e 9A5C     		ldrb	r2, [r3, r2]
 1106 0260 4F4B     		ldr	r3, .L64+16
 1107 0262 1B78     		ldrb	r3, [r3]
 1108 0264 1343     		orrs	r3, r2
 1109 0266 DAB2     		uxtb	r2, r3
 1110 0268 4D4B     		ldr	r3, .L64+16
 1111 026a 1A70     		strb	r2, [r3]
 532:..\..\..\..\..\..\Software\uCOS-II\Source/os_mutex.c ****                     OSRdyTbl[ptcb->OSTCBY] |= ptcb->OSTCBBitX;
 1112              		.loc 1 532 0
 1113 026c BB69     		ldr	r3, [r7, #24]
ARM GAS  C:\Users\ADMINI~1\AppData\Local\Temp\ccN77QmO.s 			page 30


 1114 026e 3822     		movs	r2, #56
 1115 0270 9B5C     		ldrb	r3, [r3, r2]
 1116 0272 1800     		movs	r0, r3
 1117 0274 BB69     		ldr	r3, [r7, #24]
 1118 0276 3822     		movs	r2, #56
 1119 0278 9B5C     		ldrb	r3, [r3, r2]
 1120 027a 1A00     		movs	r2, r3
 1121 027c 474B     		ldr	r3, .L64+12
 1122 027e 9A5C     		ldrb	r2, [r3, r2]
 1123 0280 BB69     		ldr	r3, [r7, #24]
 1124 0282 3921     		movs	r1, #57
 1125 0284 5B5C     		ldrb	r3, [r3, r1]
 1126 0286 1343     		orrs	r3, r2
 1127 0288 DAB2     		uxtb	r2, r3
 1128 028a 444B     		ldr	r3, .L64+12
 1129 028c 1A54     		strb	r2, [r3, r0]
 1130 028e 21E0     		b	.L58
 1131              	.L57:
 533:..\..\..\..\..\..\Software\uCOS-II\Source/os_mutex.c ****                 } else {
 534:..\..\..\..\..\..\Software\uCOS-II\Source/os_mutex.c ****                     pevent2 = ptcb->OSTCBEventPtr;
 1132              		.loc 1 534 0
 1133 0290 BB69     		ldr	r3, [r7, #24]
 1134 0292 DB69     		ldr	r3, [r3, #28]
 1135 0294 3B61     		str	r3, [r7, #16]
 535:..\..\..\..\..\..\Software\uCOS-II\Source/os_mutex.c ****                     if (pevent2 != (OS_EVENT *)0) {        /* Add to event wait list               
 1136              		.loc 1 535 0
 1137 0296 3B69     		ldr	r3, [r7, #16]
 1138 0298 002B     		cmp	r3, #0
 1139 029a 1BD0     		beq	.L58
 536:..\..\..\..\..\..\Software\uCOS-II\Source/os_mutex.c ****                         pevent2->OSEventGrp               |= ptcb->OSTCBBitY;
 1140              		.loc 1 536 0
 1141 029c 3B69     		ldr	r3, [r7, #16]
 1142 029e 9A7A     		ldrb	r2, [r3, #10]
 1143 02a0 BB69     		ldr	r3, [r7, #24]
 1144 02a2 3A21     		movs	r1, #58
 1145 02a4 5B5C     		ldrb	r3, [r3, r1]
 1146 02a6 1343     		orrs	r3, r2
 1147 02a8 DAB2     		uxtb	r2, r3
 1148 02aa 3B69     		ldr	r3, [r7, #16]
 1149 02ac 9A72     		strb	r2, [r3, #10]
 537:..\..\..\..\..\..\Software\uCOS-II\Source/os_mutex.c ****                         pevent2->OSEventTbl[ptcb->OSTCBY] |= ptcb->OSTCBBitX;
 1150              		.loc 1 537 0
 1151 02ae BB69     		ldr	r3, [r7, #24]
 1152 02b0 3822     		movs	r2, #56
 1153 02b2 9B5C     		ldrb	r3, [r3, r2]
 1154 02b4 1800     		movs	r0, r3
 1155 02b6 BB69     		ldr	r3, [r7, #24]
 1156 02b8 3822     		movs	r2, #56
 1157 02ba 9B5C     		ldrb	r3, [r3, r2]
 1158 02bc 1A00     		movs	r2, r3
 1159 02be 3B69     		ldr	r3, [r7, #16]
 1160 02c0 9B18     		adds	r3, r3, r2
 1161 02c2 DA7A     		ldrb	r2, [r3, #11]
 1162 02c4 BB69     		ldr	r3, [r7, #24]
 1163 02c6 3921     		movs	r1, #57
 1164 02c8 5B5C     		ldrb	r3, [r3, r1]
 1165 02ca 1343     		orrs	r3, r2
ARM GAS  C:\Users\ADMINI~1\AppData\Local\Temp\ccN77QmO.s 			page 31


 1166 02cc DAB2     		uxtb	r2, r3
 1167 02ce 3B69     		ldr	r3, [r7, #16]
 1168 02d0 1B18     		adds	r3, r3, r0
 1169 02d2 DA72     		strb	r2, [r3, #11]
 1170              	.L58:
 538:..\..\..\..\..\..\Software\uCOS-II\Source/os_mutex.c ****                     }
 539:..\..\..\..\..\..\Software\uCOS-II\Source/os_mutex.c ****                 }
 540:..\..\..\..\..\..\Software\uCOS-II\Source/os_mutex.c ****                 OSTCBPrioTbl[pcp] = ptcb;
 1171              		.loc 1 540 0
 1172 02d4 1F23     		movs	r3, #31
 1173 02d6 FB18     		adds	r3, r7, r3
 1174 02d8 1A78     		ldrb	r2, [r3]
 1175 02da 324B     		ldr	r3, .L64+20
 1176 02dc 9200     		lsls	r2, r2, #2
 1177 02de B969     		ldr	r1, [r7, #24]
 1178 02e0 D150     		str	r1, [r2, r3]
 1179              	.L52:
 541:..\..\..\..\..\..\Software\uCOS-II\Source/os_mutex.c ****             }
 542:..\..\..\..\..\..\Software\uCOS-II\Source/os_mutex.c ****         }
 543:..\..\..\..\..\..\Software\uCOS-II\Source/os_mutex.c ****     }
 544:..\..\..\..\..\..\Software\uCOS-II\Source/os_mutex.c ****     OSTCBCur->OSTCBStat     |= OS_STAT_MUTEX;         /* Mutex not available, pend current task    
 1180              		.loc 1 544 0
 1181 02e2 2D4B     		ldr	r3, .L64+8
 1182 02e4 1A68     		ldr	r2, [r3]
 1183 02e6 2C4B     		ldr	r3, .L64+8
 1184 02e8 1B68     		ldr	r3, [r3]
 1185 02ea 3421     		movs	r1, #52
 1186 02ec 5B5C     		ldrb	r3, [r3, r1]
 1187 02ee 1021     		movs	r1, #16
 1188 02f0 0B43     		orrs	r3, r1
 1189 02f2 D9B2     		uxtb	r1, r3
 1190 02f4 3423     		movs	r3, #52
 1191 02f6 D154     		strb	r1, [r2, r3]
 545:..\..\..\..\..\..\Software\uCOS-II\Source/os_mutex.c ****     OSTCBCur->OSTCBStatPend  = OS_STAT_PEND_OK;
 1192              		.loc 1 545 0
 1193 02f8 274B     		ldr	r3, .L64+8
 1194 02fa 1B68     		ldr	r3, [r3]
 1195 02fc 3522     		movs	r2, #53
 1196 02fe 0021     		movs	r1, #0
 1197 0300 9954     		strb	r1, [r3, r2]
 546:..\..\..\..\..\..\Software\uCOS-II\Source/os_mutex.c ****     OSTCBCur->OSTCBDly       = timeout;               /* Store timeout in current task's TCB       
 1198              		.loc 1 546 0
 1199 0302 254B     		ldr	r3, .L64+8
 1200 0304 1B68     		ldr	r3, [r3]
 1201 0306 BA68     		ldr	r2, [r7, #8]
 1202 0308 1A63     		str	r2, [r3, #48]
 547:..\..\..\..\..\..\Software\uCOS-II\Source/os_mutex.c ****     OS_EventTaskWait(pevent);                         /* Suspend task until event or timeout occurs
 1203              		.loc 1 547 0
 1204 030a FB68     		ldr	r3, [r7, #12]
 1205 030c 1800     		movs	r0, r3
 1206 030e FFF7FEFF 		bl	OS_EventTaskWait
 548:..\..\..\..\..\..\Software\uCOS-II\Source/os_mutex.c ****     OS_EXIT_CRITICAL();
 1207              		.loc 1 548 0
 1208 0312 3B6A     		ldr	r3, [r7, #32]
 1209 0314 1800     		movs	r0, r3
 1210 0316 FFF7FEFF 		bl	OS_CPU_SR_Restore
 549:..\..\..\..\..\..\Software\uCOS-II\Source/os_mutex.c ****     OS_Sched();                                       /* Find next highest priority task ready     
ARM GAS  C:\Users\ADMINI~1\AppData\Local\Temp\ccN77QmO.s 			page 32


 1211              		.loc 1 549 0
 1212 031a FFF7FEFF 		bl	OS_Sched
 550:..\..\..\..\..\..\Software\uCOS-II\Source/os_mutex.c ****     OS_ENTER_CRITICAL();
 1213              		.loc 1 550 0
 1214 031e FFF7FEFF 		bl	OS_CPU_SR_Save
 1215 0322 0300     		movs	r3, r0
 1216 0324 3B62     		str	r3, [r7, #32]
 551:..\..\..\..\..\..\Software\uCOS-II\Source/os_mutex.c ****     switch (OSTCBCur->OSTCBStatPend) {                /* See if we timed-out or aborted            
 1217              		.loc 1 551 0
 1218 0326 1C4B     		ldr	r3, .L64+8
 1219 0328 1B68     		ldr	r3, [r3]
 1220 032a 3522     		movs	r2, #53
 1221 032c 9B5C     		ldrb	r3, [r3, r2]
 1222 032e 002B     		cmp	r3, #0
 1223 0330 02D0     		beq	.L60
 1224 0332 022B     		cmp	r3, #2
 1225 0334 04D0     		beq	.L61
 1226 0336 07E0     		b	.L63
 1227              	.L60:
 552:..\..\..\..\..\..\Software\uCOS-II\Source/os_mutex.c ****         case OS_STAT_PEND_OK:
 553:..\..\..\..\..\..\Software\uCOS-II\Source/os_mutex.c ****              *perr = OS_ERR_NONE;
 1228              		.loc 1 553 0
 1229 0338 7B68     		ldr	r3, [r7, #4]
 1230 033a 0022     		movs	r2, #0
 1231 033c 1A70     		strb	r2, [r3]
 554:..\..\..\..\..\..\Software\uCOS-II\Source/os_mutex.c ****              break;
 1232              		.loc 1 554 0
 1233 033e 0EE0     		b	.L62
 1234              	.L61:
 555:..\..\..\..\..\..\Software\uCOS-II\Source/os_mutex.c **** 
 556:..\..\..\..\..\..\Software\uCOS-II\Source/os_mutex.c ****         case OS_STAT_PEND_ABORT:
 557:..\..\..\..\..\..\Software\uCOS-II\Source/os_mutex.c ****              *perr = OS_ERR_PEND_ABORT;               /* Indicate that we aborted getting mutex    
 1235              		.loc 1 557 0
 1236 0340 7B68     		ldr	r3, [r7, #4]
 1237 0342 0E22     		movs	r2, #14
 1238 0344 1A70     		strb	r2, [r3]
 558:..\..\..\..\..\..\Software\uCOS-II\Source/os_mutex.c ****              break;
 1239              		.loc 1 558 0
 1240 0346 0AE0     		b	.L62
 1241              	.L63:
 559:..\..\..\..\..\..\Software\uCOS-II\Source/os_mutex.c **** 
 560:..\..\..\..\..\..\Software\uCOS-II\Source/os_mutex.c ****         case OS_STAT_PEND_TO:
 561:..\..\..\..\..\..\Software\uCOS-II\Source/os_mutex.c ****         default:
 562:..\..\..\..\..\..\Software\uCOS-II\Source/os_mutex.c ****              OS_EventTaskRemove(OSTCBCur, pevent);
 1242              		.loc 1 562 0
 1243 0348 134B     		ldr	r3, .L64+8
 1244 034a 1B68     		ldr	r3, [r3]
 1245 034c FA68     		ldr	r2, [r7, #12]
 1246 034e 1100     		movs	r1, r2
 1247 0350 1800     		movs	r0, r3
 1248 0352 FFF7FEFF 		bl	OS_EventTaskRemove
 563:..\..\..\..\..\..\Software\uCOS-II\Source/os_mutex.c ****              *perr = OS_ERR_TIMEOUT;                  /* Indicate that we didn't get mutex within T
 1249              		.loc 1 563 0
 1250 0356 7B68     		ldr	r3, [r7, #4]
 1251 0358 0A22     		movs	r2, #10
 1252 035a 1A70     		strb	r2, [r3]
 564:..\..\..\..\..\..\Software\uCOS-II\Source/os_mutex.c ****              break;
ARM GAS  C:\Users\ADMINI~1\AppData\Local\Temp\ccN77QmO.s 			page 33


 1253              		.loc 1 564 0
 1254 035c C046     		nop
 1255              	.L62:
 565:..\..\..\..\..\..\Software\uCOS-II\Source/os_mutex.c ****     }
 566:..\..\..\..\..\..\Software\uCOS-II\Source/os_mutex.c ****     OSTCBCur->OSTCBStat          =  OS_STAT_RDY;      /* Set   task  status to ready               
 1256              		.loc 1 566 0
 1257 035e 0E4B     		ldr	r3, .L64+8
 1258 0360 1B68     		ldr	r3, [r3]
 1259 0362 3422     		movs	r2, #52
 1260 0364 0021     		movs	r1, #0
 1261 0366 9954     		strb	r1, [r3, r2]
 567:..\..\..\..\..\..\Software\uCOS-II\Source/os_mutex.c ****     OSTCBCur->OSTCBStatPend      =  OS_STAT_PEND_OK;  /* Clear pend  status                        
 1262              		.loc 1 567 0
 1263 0368 0B4B     		ldr	r3, .L64+8
 1264 036a 1B68     		ldr	r3, [r3]
 1265 036c 3522     		movs	r2, #53
 1266 036e 0021     		movs	r1, #0
 1267 0370 9954     		strb	r1, [r3, r2]
 568:..\..\..\..\..\..\Software\uCOS-II\Source/os_mutex.c ****     OSTCBCur->OSTCBEventPtr      = (OS_EVENT  *)0;    /* Clear event pointers                      
 1268              		.loc 1 568 0
 1269 0372 094B     		ldr	r3, .L64+8
 1270 0374 1B68     		ldr	r3, [r3]
 1271 0376 0022     		movs	r2, #0
 1272 0378 DA61     		str	r2, [r3, #28]
 569:..\..\..\..\..\..\Software\uCOS-II\Source/os_mutex.c **** #if (OS_EVENT_MULTI_EN > 0u)
 570:..\..\..\..\..\..\Software\uCOS-II\Source/os_mutex.c ****     OSTCBCur->OSTCBEventMultiPtr = (OS_EVENT **)0;
 1273              		.loc 1 570 0
 1274 037a 074B     		ldr	r3, .L64+8
 1275 037c 1B68     		ldr	r3, [r3]
 1276 037e 0022     		movs	r2, #0
 1277 0380 1A62     		str	r2, [r3, #32]
 571:..\..\..\..\..\..\Software\uCOS-II\Source/os_mutex.c **** #endif
 572:..\..\..\..\..\..\Software\uCOS-II\Source/os_mutex.c ****     OS_EXIT_CRITICAL();
 1278              		.loc 1 572 0
 1279 0382 3B6A     		ldr	r3, [r7, #32]
 1280 0384 1800     		movs	r0, r3
 1281 0386 FFF7FEFF 		bl	OS_CPU_SR_Restore
 1282              	.L43:
 573:..\..\..\..\..\..\Software\uCOS-II\Source/os_mutex.c **** }
 1283              		.loc 1 573 0
 1284 038a BD46     		mov	sp, r7
 1285 038c 0AB0     		add	sp, sp, #40
 1286              		@ sp needed
 1287 038e 80BD     		pop	{r7, pc}
 1288              	.L65:
 1289              		.align	2
 1290              	.L64:
 1291 0390 00000000 		.word	OSIntNesting
 1292 0394 00000000 		.word	OSLockNesting
 1293 0398 00000000 		.word	OSTCBCur
 1294 039c 00000000 		.word	OSRdyTbl
 1295 03a0 00000000 		.word	OSRdyGrp
 1296 03a4 00000000 		.word	OSTCBPrioTbl
 1297              		.cfi_endproc
 1298              	.LFE4:
 1299              		.size	OSMutexPend, .-OSMutexPend
 1300              		.section	.text.OSMutexPost,"ax",%progbits
ARM GAS  C:\Users\ADMINI~1\AppData\Local\Temp\ccN77QmO.s 			page 34


 1301              		.align	2
 1302              		.global	OSMutexPost
 1303              		.code	16
 1304              		.thumb_func
 1305              		.type	OSMutexPost, %function
 1306              	OSMutexPost:
 1307              	.LFB5:
 574:..\..\..\..\..\..\Software\uCOS-II\Source/os_mutex.c **** /*$PAGE*/
 575:..\..\..\..\..\..\Software\uCOS-II\Source/os_mutex.c **** /*
 576:..\..\..\..\..\..\Software\uCOS-II\Source/os_mutex.c **** ***************************************************************************************************
 577:..\..\..\..\..\..\Software\uCOS-II\Source/os_mutex.c **** *                                POST TO A MUTUAL EXCLUSION SEMAPHORE
 578:..\..\..\..\..\..\Software\uCOS-II\Source/os_mutex.c **** *
 579:..\..\..\..\..\..\Software\uCOS-II\Source/os_mutex.c **** * Description: This function signals a mutual exclusion semaphore
 580:..\..\..\..\..\..\Software\uCOS-II\Source/os_mutex.c **** *
 581:..\..\..\..\..\..\Software\uCOS-II\Source/os_mutex.c **** * Arguments  : pevent              is a pointer to the event control block associated with the desi
 582:..\..\..\..\..\..\Software\uCOS-II\Source/os_mutex.c **** *                                  mutex.
 583:..\..\..\..\..\..\Software\uCOS-II\Source/os_mutex.c **** *
 584:..\..\..\..\..\..\Software\uCOS-II\Source/os_mutex.c **** * Returns    : OS_ERR_NONE             The call was successful and the mutex was signaled.
 585:..\..\..\..\..\..\Software\uCOS-II\Source/os_mutex.c **** *              OS_ERR_EVENT_TYPE       If you didn't pass a pointer to a mutex
 586:..\..\..\..\..\..\Software\uCOS-II\Source/os_mutex.c **** *              OS_ERR_PEVENT_NULL      'pevent' is a NULL pointer
 587:..\..\..\..\..\..\Software\uCOS-II\Source/os_mutex.c **** *              OS_ERR_POST_ISR         Attempted to post from an ISR (not valid for MUTEXes)
 588:..\..\..\..\..\..\Software\uCOS-II\Source/os_mutex.c **** *              OS_ERR_NOT_MUTEX_OWNER  The task that did the post is NOT the owner of the MUTEX.
 589:..\..\..\..\..\..\Software\uCOS-II\Source/os_mutex.c **** *              OS_ERR_PCP_LOWER        If the priority of the new task that owns the Mutex is
 590:..\..\..\..\..\..\Software\uCOS-II\Source/os_mutex.c **** *                                      HIGHER (i.e. a lower number) than the PCP.  This error
 591:..\..\..\..\..\..\Software\uCOS-II\Source/os_mutex.c **** *                                      indicates that you did not set the PCP higher (lower
 592:..\..\..\..\..\..\Software\uCOS-II\Source/os_mutex.c **** *                                      number) than ALL the tasks that compete for the Mutex.
 593:..\..\..\..\..\..\Software\uCOS-II\Source/os_mutex.c **** *                                      Unfortunately, this is something that could not be
 594:..\..\..\..\..\..\Software\uCOS-II\Source/os_mutex.c **** *                                      detected when the Mutex is created because we don't know
 595:..\..\..\..\..\..\Software\uCOS-II\Source/os_mutex.c **** *                                      what tasks will be using the Mutex.
 596:..\..\..\..\..\..\Software\uCOS-II\Source/os_mutex.c **** ***************************************************************************************************
 597:..\..\..\..\..\..\Software\uCOS-II\Source/os_mutex.c **** */
 598:..\..\..\..\..\..\Software\uCOS-II\Source/os_mutex.c **** 
 599:..\..\..\..\..\..\Software\uCOS-II\Source/os_mutex.c **** INT8U  OSMutexPost (OS_EVENT *pevent)
 600:..\..\..\..\..\..\Software\uCOS-II\Source/os_mutex.c **** {
 1308              		.loc 1 600 0
 1309              		.cfi_startproc
 1310              		@ args = 0, pretend = 0, frame = 16
 1311              		@ frame_needed = 1, uses_anonymous_args = 0
 1312 0000 90B5     		push	{r4, r7, lr}
 1313              		.cfi_def_cfa_offset 12
 1314              		.cfi_offset 4, -12
 1315              		.cfi_offset 7, -8
 1316              		.cfi_offset 14, -4
 1317 0002 85B0     		sub	sp, sp, #20
 1318              		.cfi_def_cfa_offset 32
 1319 0004 00AF     		add	r7, sp, #0
 1320              		.cfi_def_cfa_register 7
 1321 0006 7860     		str	r0, [r7, #4]
 601:..\..\..\..\..\..\Software\uCOS-II\Source/os_mutex.c ****     INT8U      pcp;                                   /* Priority ceiling priority                 
 602:..\..\..\..\..\..\Software\uCOS-II\Source/os_mutex.c ****     INT8U      prio;
 603:..\..\..\..\..\..\Software\uCOS-II\Source/os_mutex.c **** #if OS_CRITICAL_METHOD == 3u                          /* Allocate storage for CPU status register  
 604:..\..\..\..\..\..\Software\uCOS-II\Source/os_mutex.c ****     OS_CPU_SR  cpu_sr = 0u;
 1322              		.loc 1 604 0
 1323 0008 0023     		movs	r3, #0
 1324 000a FB60     		str	r3, [r7, #12]
 605:..\..\..\..\..\..\Software\uCOS-II\Source/os_mutex.c **** #endif
 606:..\..\..\..\..\..\Software\uCOS-II\Source/os_mutex.c **** 
ARM GAS  C:\Users\ADMINI~1\AppData\Local\Temp\ccN77QmO.s 			page 35


 607:..\..\..\..\..\..\Software\uCOS-II\Source/os_mutex.c **** 
 608:..\..\..\..\..\..\Software\uCOS-II\Source/os_mutex.c **** 
 609:..\..\..\..\..\..\Software\uCOS-II\Source/os_mutex.c ****     if (OSIntNesting > 0u) {                          /* See if called from ISR ...                
 1325              		.loc 1 609 0
 1326 000c 504B     		ldr	r3, .L76
 1327 000e 1B78     		ldrb	r3, [r3]
 1328 0010 002B     		cmp	r3, #0
 1329 0012 01D0     		beq	.L67
 610:..\..\..\..\..\..\Software\uCOS-II\Source/os_mutex.c ****         return (OS_ERR_POST_ISR);                     /* ... can't POST mutex from an ISR          
 1330              		.loc 1 610 0
 1331 0014 0523     		movs	r3, #5
 1332 0016 97E0     		b	.L68
 1333              	.L67:
 611:..\..\..\..\..\..\Software\uCOS-II\Source/os_mutex.c ****     }
 612:..\..\..\..\..\..\Software\uCOS-II\Source/os_mutex.c **** #if OS_ARG_CHK_EN > 0u
 613:..\..\..\..\..\..\Software\uCOS-II\Source/os_mutex.c ****     if (pevent == (OS_EVENT *)0) {                    /* Validate 'pevent'                         
 1334              		.loc 1 613 0
 1335 0018 7B68     		ldr	r3, [r7, #4]
 1336 001a 002B     		cmp	r3, #0
 1337 001c 01D1     		bne	.L69
 614:..\..\..\..\..\..\Software\uCOS-II\Source/os_mutex.c ****         return (OS_ERR_PEVENT_NULL);
 1338              		.loc 1 614 0
 1339 001e 0423     		movs	r3, #4
 1340 0020 92E0     		b	.L68
 1341              	.L69:
 615:..\..\..\..\..\..\Software\uCOS-II\Source/os_mutex.c ****     }
 616:..\..\..\..\..\..\Software\uCOS-II\Source/os_mutex.c **** #endif
 617:..\..\..\..\..\..\Software\uCOS-II\Source/os_mutex.c ****     if (pevent->OSEventType != OS_EVENT_TYPE_MUTEX) { /* Validate event block type                 
 1342              		.loc 1 617 0
 1343 0022 7B68     		ldr	r3, [r7, #4]
 1344 0024 1B78     		ldrb	r3, [r3]
 1345 0026 042B     		cmp	r3, #4
 1346 0028 01D0     		beq	.L70
 618:..\..\..\..\..\..\Software\uCOS-II\Source/os_mutex.c ****         return (OS_ERR_EVENT_TYPE);
 1347              		.loc 1 618 0
 1348 002a 0123     		movs	r3, #1
 1349 002c 8CE0     		b	.L68
 1350              	.L70:
 619:..\..\..\..\..\..\Software\uCOS-II\Source/os_mutex.c ****     }
 620:..\..\..\..\..\..\Software\uCOS-II\Source/os_mutex.c ****     OS_ENTER_CRITICAL();
 1351              		.loc 1 620 0
 1352 002e FFF7FEFF 		bl	OS_CPU_SR_Save
 1353 0032 0300     		movs	r3, r0
 1354 0034 FB60     		str	r3, [r7, #12]
 621:..\..\..\..\..\..\Software\uCOS-II\Source/os_mutex.c ****     pcp  = (INT8U)(pevent->OSEventCnt >> 8u);         /* Get priority ceiling priority of mutex    
 1355              		.loc 1 621 0
 1356 0036 7B68     		ldr	r3, [r7, #4]
 1357 0038 1B89     		ldrh	r3, [r3, #8]
 1358 003a 1B0A     		lsrs	r3, r3, #8
 1359 003c 9AB2     		uxth	r2, r3
 1360 003e 0B23     		movs	r3, #11
 1361 0040 FB18     		adds	r3, r7, r3
 1362 0042 1A70     		strb	r2, [r3]
 622:..\..\..\..\..\..\Software\uCOS-II\Source/os_mutex.c ****     prio = (INT8U)(pevent->OSEventCnt & OS_MUTEX_KEEP_LOWER_8);  /* Get owner's original priority  
 1363              		.loc 1 622 0
 1364 0044 7B68     		ldr	r3, [r7, #4]
 1365 0046 1A89     		ldrh	r2, [r3, #8]
ARM GAS  C:\Users\ADMINI~1\AppData\Local\Temp\ccN77QmO.s 			page 36


 1366 0048 0A23     		movs	r3, #10
 1367 004a FB18     		adds	r3, r7, r3
 1368 004c 1A70     		strb	r2, [r3]
 623:..\..\..\..\..\..\Software\uCOS-II\Source/os_mutex.c ****     if (OSTCBCur != (OS_TCB *)pevent->OSEventPtr) {   /* See if posting task owns the MUTEX        
 1369              		.loc 1 623 0
 1370 004e 7B68     		ldr	r3, [r7, #4]
 1371 0050 5A68     		ldr	r2, [r3, #4]
 1372 0052 404B     		ldr	r3, .L76+4
 1373 0054 1B68     		ldr	r3, [r3]
 1374 0056 9A42     		cmp	r2, r3
 1375 0058 05D0     		beq	.L71
 624:..\..\..\..\..\..\Software\uCOS-II\Source/os_mutex.c ****         OS_EXIT_CRITICAL();
 1376              		.loc 1 624 0
 1377 005a FB68     		ldr	r3, [r7, #12]
 1378 005c 1800     		movs	r0, r3
 1379 005e FFF7FEFF 		bl	OS_CPU_SR_Restore
 625:..\..\..\..\..\..\Software\uCOS-II\Source/os_mutex.c ****         return (OS_ERR_NOT_MUTEX_OWNER);
 1380              		.loc 1 625 0
 1381 0062 6423     		movs	r3, #100
 1382 0064 70E0     		b	.L68
 1383              	.L71:
 626:..\..\..\..\..\..\Software\uCOS-II\Source/os_mutex.c ****     }
 627:..\..\..\..\..\..\Software\uCOS-II\Source/os_mutex.c ****     if (pcp != OS_PRIO_MUTEX_CEIL_DIS) {
 1384              		.loc 1 627 0
 1385 0066 0B23     		movs	r3, #11
 1386 0068 FB18     		adds	r3, r7, r3
 1387 006a 1B78     		ldrb	r3, [r3]
 1388 006c FF2B     		cmp	r3, #255
 1389 006e 18D0     		beq	.L72
 628:..\..\..\..\..\..\Software\uCOS-II\Source/os_mutex.c ****         if (OSTCBCur->OSTCBPrio == pcp) {             /* Did we have to raise current task's priori
 1390              		.loc 1 628 0
 1391 0070 384B     		ldr	r3, .L76+4
 1392 0072 1B68     		ldr	r3, [r3]
 1393 0074 3622     		movs	r2, #54
 1394 0076 9B5C     		ldrb	r3, [r3, r2]
 1395 0078 0B22     		movs	r2, #11
 1396 007a BA18     		adds	r2, r7, r2
 1397 007c 1278     		ldrb	r2, [r2]
 1398 007e 9A42     		cmp	r2, r3
 1399 0080 08D1     		bne	.L73
 629:..\..\..\..\..\..\Software\uCOS-II\Source/os_mutex.c ****             OSMutex_RdyAtPrio(OSTCBCur, prio);        /* Restore the task's original priority      
 1400              		.loc 1 629 0
 1401 0082 344B     		ldr	r3, .L76+4
 1402 0084 1A68     		ldr	r2, [r3]
 1403 0086 0A23     		movs	r3, #10
 1404 0088 FB18     		adds	r3, r7, r3
 1405 008a 1B78     		ldrb	r3, [r3]
 1406 008c 1900     		movs	r1, r3
 1407 008e 1000     		movs	r0, r2
 1408 0090 FFF7FEFF 		bl	OSMutex_RdyAtPrio
 1409              	.L73:
 630:..\..\..\..\..\..\Software\uCOS-II\Source/os_mutex.c ****         }
 631:..\..\..\..\..\..\Software\uCOS-II\Source/os_mutex.c ****         OSTCBPrioTbl[pcp] = OS_TCB_RESERVED;          /* Reserve table entry                       
 1410              		.loc 1 631 0
 1411 0094 0B23     		movs	r3, #11
 1412 0096 FB18     		adds	r3, r7, r3
 1413 0098 1A78     		ldrb	r2, [r3]
ARM GAS  C:\Users\ADMINI~1\AppData\Local\Temp\ccN77QmO.s 			page 37


 1414 009a 2F4B     		ldr	r3, .L76+8
 1415 009c 9200     		lsls	r2, r2, #2
 1416 009e 0121     		movs	r1, #1
 1417 00a0 D150     		str	r1, [r2, r3]
 1418              	.L72:
 632:..\..\..\..\..\..\Software\uCOS-II\Source/os_mutex.c ****     }
 633:..\..\..\..\..\..\Software\uCOS-II\Source/os_mutex.c ****     if (pevent->OSEventGrp != 0u) {                   /* Any task waiting for the mutex?           
 1419              		.loc 1 633 0
 1420 00a2 7B68     		ldr	r3, [r7, #4]
 1421 00a4 9B7A     		ldrb	r3, [r3, #10]
 1422 00a6 002B     		cmp	r3, #0
 1423 00a8 3FD0     		beq	.L74
 634:..\..\..\..\..\..\Software\uCOS-II\Source/os_mutex.c ****                                                       /* Yes, Make HPT waiting for mutex ready     
 635:..\..\..\..\..\..\Software\uCOS-II\Source/os_mutex.c ****         prio                = OS_EventTaskRdy(pevent, (void *)0, OS_STAT_MUTEX, OS_STAT_PEND_OK);
 1424              		.loc 1 635 0
 1425 00aa 0A23     		movs	r3, #10
 1426 00ac FC18     		adds	r4, r7, r3
 1427 00ae 7868     		ldr	r0, [r7, #4]
 1428 00b0 0023     		movs	r3, #0
 1429 00b2 1022     		movs	r2, #16
 1430 00b4 0021     		movs	r1, #0
 1431 00b6 FFF7FEFF 		bl	OS_EventTaskRdy
 1432 00ba 0300     		movs	r3, r0
 1433 00bc 2370     		strb	r3, [r4]
 636:..\..\..\..\..\..\Software\uCOS-II\Source/os_mutex.c ****         pevent->OSEventCnt &= OS_MUTEX_KEEP_UPPER_8;  /*      Save priority of mutex's new owner   
 1434              		.loc 1 636 0
 1435 00be 7B68     		ldr	r3, [r7, #4]
 1436 00c0 1B89     		ldrh	r3, [r3, #8]
 1437 00c2 FF22     		movs	r2, #255
 1438 00c4 9343     		bics	r3, r2
 1439 00c6 9AB2     		uxth	r2, r3
 1440 00c8 7B68     		ldr	r3, [r7, #4]
 1441 00ca 1A81     		strh	r2, [r3, #8]
 637:..\..\..\..\..\..\Software\uCOS-II\Source/os_mutex.c ****         pevent->OSEventCnt |= prio;
 1442              		.loc 1 637 0
 1443 00cc 7B68     		ldr	r3, [r7, #4]
 1444 00ce 1A89     		ldrh	r2, [r3, #8]
 1445 00d0 0A23     		movs	r3, #10
 1446 00d2 FB18     		adds	r3, r7, r3
 1447 00d4 1B78     		ldrb	r3, [r3]
 1448 00d6 9BB2     		uxth	r3, r3
 1449 00d8 1343     		orrs	r3, r2
 1450 00da 9AB2     		uxth	r2, r3
 1451 00dc 7B68     		ldr	r3, [r7, #4]
 1452 00de 1A81     		strh	r2, [r3, #8]
 638:..\..\..\..\..\..\Software\uCOS-II\Source/os_mutex.c ****         pevent->OSEventPtr  = OSTCBPrioTbl[prio];     /*      Link to new mutex owner's OS_TCB     
 1453              		.loc 1 638 0
 1454 00e0 0A23     		movs	r3, #10
 1455 00e2 FB18     		adds	r3, r7, r3
 1456 00e4 1A78     		ldrb	r2, [r3]
 1457 00e6 1C4B     		ldr	r3, .L76+8
 1458 00e8 9200     		lsls	r2, r2, #2
 1459 00ea D258     		ldr	r2, [r2, r3]
 1460 00ec 7B68     		ldr	r3, [r7, #4]
 1461 00ee 5A60     		str	r2, [r3, #4]
 639:..\..\..\..\..\..\Software\uCOS-II\Source/os_mutex.c ****         if ((pcp  != OS_PRIO_MUTEX_CEIL_DIS) &&
 1462              		.loc 1 639 0
ARM GAS  C:\Users\ADMINI~1\AppData\Local\Temp\ccN77QmO.s 			page 38


 1463 00f0 0B23     		movs	r3, #11
 1464 00f2 FB18     		adds	r3, r7, r3
 1465 00f4 1B78     		ldrb	r3, [r3]
 1466 00f6 FF2B     		cmp	r3, #255
 1467 00f8 0FD0     		beq	.L75
 1468              		.loc 1 639 0 is_stmt 0 discriminator 1
 1469 00fa 0A23     		movs	r3, #10
 1470 00fc FA18     		adds	r2, r7, r3
 1471 00fe 0B23     		movs	r3, #11
 1472 0100 FB18     		adds	r3, r7, r3
 1473 0102 1278     		ldrb	r2, [r2]
 1474 0104 1B78     		ldrb	r3, [r3]
 1475 0106 9A42     		cmp	r2, r3
 1476 0108 07D8     		bhi	.L75
 640:..\..\..\..\..\..\Software\uCOS-II\Source/os_mutex.c ****             (prio <= pcp)) {                          /*      PCP 'must' have a SMALLER prio ...   
 641:..\..\..\..\..\..\Software\uCOS-II\Source/os_mutex.c ****             OS_EXIT_CRITICAL();                       /*      ... than current task!               
 1477              		.loc 1 641 0 is_stmt 1
 1478 010a FB68     		ldr	r3, [r7, #12]
 1479 010c 1800     		movs	r0, r3
 1480 010e FFF7FEFF 		bl	OS_CPU_SR_Restore
 642:..\..\..\..\..\..\Software\uCOS-II\Source/os_mutex.c ****             OS_Sched();                               /*      Find highest priority task ready to r
 1481              		.loc 1 642 0
 1482 0112 FFF7FEFF 		bl	OS_Sched
 643:..\..\..\..\..\..\Software\uCOS-II\Source/os_mutex.c ****             return (OS_ERR_PCP_LOWER);
 1483              		.loc 1 643 0
 1484 0116 7823     		movs	r3, #120
 1485 0118 16E0     		b	.L68
 1486              	.L75:
 644:..\..\..\..\..\..\Software\uCOS-II\Source/os_mutex.c ****         } else {
 645:..\..\..\..\..\..\Software\uCOS-II\Source/os_mutex.c ****             OS_EXIT_CRITICAL();
 1487              		.loc 1 645 0
 1488 011a FB68     		ldr	r3, [r7, #12]
 1489 011c 1800     		movs	r0, r3
 1490 011e FFF7FEFF 		bl	OS_CPU_SR_Restore
 646:..\..\..\..\..\..\Software\uCOS-II\Source/os_mutex.c ****             OS_Sched();                               /*      Find highest priority task ready to r
 1491              		.loc 1 646 0
 1492 0122 FFF7FEFF 		bl	OS_Sched
 647:..\..\..\..\..\..\Software\uCOS-II\Source/os_mutex.c ****             return (OS_ERR_NONE);
 1493              		.loc 1 647 0
 1494 0126 0023     		movs	r3, #0
 1495 0128 0EE0     		b	.L68
 1496              	.L74:
 648:..\..\..\..\..\..\Software\uCOS-II\Source/os_mutex.c ****         }
 649:..\..\..\..\..\..\Software\uCOS-II\Source/os_mutex.c ****     }
 650:..\..\..\..\..\..\Software\uCOS-II\Source/os_mutex.c ****     pevent->OSEventCnt |= OS_MUTEX_AVAILABLE;         /* No,  Mutex is now available               
 1497              		.loc 1 650 0
 1498 012a 7B68     		ldr	r3, [r7, #4]
 1499 012c 1B89     		ldrh	r3, [r3, #8]
 1500 012e FF22     		movs	r2, #255
 1501 0130 1343     		orrs	r3, r2
 1502 0132 9AB2     		uxth	r2, r3
 1503 0134 7B68     		ldr	r3, [r7, #4]
 1504 0136 1A81     		strh	r2, [r3, #8]
 651:..\..\..\..\..\..\Software\uCOS-II\Source/os_mutex.c ****     pevent->OSEventPtr  = (void *)0;
 1505              		.loc 1 651 0
 1506 0138 7B68     		ldr	r3, [r7, #4]
 1507 013a 0022     		movs	r2, #0
ARM GAS  C:\Users\ADMINI~1\AppData\Local\Temp\ccN77QmO.s 			page 39


 1508 013c 5A60     		str	r2, [r3, #4]
 652:..\..\..\..\..\..\Software\uCOS-II\Source/os_mutex.c ****     OS_EXIT_CRITICAL();
 1509              		.loc 1 652 0
 1510 013e FB68     		ldr	r3, [r7, #12]
 1511 0140 1800     		movs	r0, r3
 1512 0142 FFF7FEFF 		bl	OS_CPU_SR_Restore
 653:..\..\..\..\..\..\Software\uCOS-II\Source/os_mutex.c ****     return (OS_ERR_NONE);
 1513              		.loc 1 653 0
 1514 0146 0023     		movs	r3, #0
 1515              	.L68:
 654:..\..\..\..\..\..\Software\uCOS-II\Source/os_mutex.c **** }
 1516              		.loc 1 654 0
 1517 0148 1800     		movs	r0, r3
 1518 014a BD46     		mov	sp, r7
 1519 014c 05B0     		add	sp, sp, #20
 1520              		@ sp needed
 1521 014e 90BD     		pop	{r4, r7, pc}
 1522              	.L77:
 1523              		.align	2
 1524              	.L76:
 1525 0150 00000000 		.word	OSIntNesting
 1526 0154 00000000 		.word	OSTCBCur
 1527 0158 00000000 		.word	OSTCBPrioTbl
 1528              		.cfi_endproc
 1529              	.LFE5:
 1530              		.size	OSMutexPost, .-OSMutexPost
 1531              		.section	.text.OSMutexQuery,"ax",%progbits
 1532              		.align	2
 1533              		.global	OSMutexQuery
 1534              		.code	16
 1535              		.thumb_func
 1536              		.type	OSMutexQuery, %function
 1537              	OSMutexQuery:
 1538              	.LFB6:
 655:..\..\..\..\..\..\Software\uCOS-II\Source/os_mutex.c **** /*$PAGE*/
 656:..\..\..\..\..\..\Software\uCOS-II\Source/os_mutex.c **** /*
 657:..\..\..\..\..\..\Software\uCOS-II\Source/os_mutex.c **** ***************************************************************************************************
 658:..\..\..\..\..\..\Software\uCOS-II\Source/os_mutex.c **** *                                 QUERY A MUTUAL EXCLUSION SEMAPHORE
 659:..\..\..\..\..\..\Software\uCOS-II\Source/os_mutex.c **** *
 660:..\..\..\..\..\..\Software\uCOS-II\Source/os_mutex.c **** * Description: This function obtains information about a mutex
 661:..\..\..\..\..\..\Software\uCOS-II\Source/os_mutex.c **** *
 662:..\..\..\..\..\..\Software\uCOS-II\Source/os_mutex.c **** * Arguments  : pevent          is a pointer to the event control block associated with the desired 
 663:..\..\..\..\..\..\Software\uCOS-II\Source/os_mutex.c **** *
 664:..\..\..\..\..\..\Software\uCOS-II\Source/os_mutex.c **** *              p_mutex_data    is a pointer to a structure that will contain information about the 
 665:..\..\..\..\..\..\Software\uCOS-II\Source/os_mutex.c **** *
 666:..\..\..\..\..\..\Software\uCOS-II\Source/os_mutex.c **** * Returns    : OS_ERR_NONE          The call was successful and the message was sent
 667:..\..\..\..\..\..\Software\uCOS-II\Source/os_mutex.c **** *              OS_ERR_QUERY_ISR     If you called this function from an ISR
 668:..\..\..\..\..\..\Software\uCOS-II\Source/os_mutex.c **** *              OS_ERR_PEVENT_NULL   If 'pevent'       is a NULL pointer
 669:..\..\..\..\..\..\Software\uCOS-II\Source/os_mutex.c **** *              OS_ERR_PDATA_NULL    If 'p_mutex_data' is a NULL pointer
 670:..\..\..\..\..\..\Software\uCOS-II\Source/os_mutex.c **** *              OS_ERR_EVENT_TYPE    If you are attempting to obtain data from a non mutex.
 671:..\..\..\..\..\..\Software\uCOS-II\Source/os_mutex.c **** ***************************************************************************************************
 672:..\..\..\..\..\..\Software\uCOS-II\Source/os_mutex.c **** */
 673:..\..\..\..\..\..\Software\uCOS-II\Source/os_mutex.c **** 
 674:..\..\..\..\..\..\Software\uCOS-II\Source/os_mutex.c **** #if OS_MUTEX_QUERY_EN > 0u
 675:..\..\..\..\..\..\Software\uCOS-II\Source/os_mutex.c **** INT8U  OSMutexQuery (OS_EVENT       *pevent,
 676:..\..\..\..\..\..\Software\uCOS-II\Source/os_mutex.c ****                      OS_MUTEX_DATA  *p_mutex_data)
 677:..\..\..\..\..\..\Software\uCOS-II\Source/os_mutex.c **** {
ARM GAS  C:\Users\ADMINI~1\AppData\Local\Temp\ccN77QmO.s 			page 40


 1539              		.loc 1 677 0
 1540              		.cfi_startproc
 1541              		@ args = 0, pretend = 0, frame = 24
 1542              		@ frame_needed = 1, uses_anonymous_args = 0
 1543 0000 80B5     		push	{r7, lr}
 1544              		.cfi_def_cfa_offset 8
 1545              		.cfi_offset 7, -8
 1546              		.cfi_offset 14, -4
 1547 0002 86B0     		sub	sp, sp, #24
 1548              		.cfi_def_cfa_offset 32
 1549 0004 00AF     		add	r7, sp, #0
 1550              		.cfi_def_cfa_register 7
 1551 0006 7860     		str	r0, [r7, #4]
 1552 0008 3960     		str	r1, [r7]
 678:..\..\..\..\..\..\Software\uCOS-II\Source/os_mutex.c ****     INT8U       i;
 679:..\..\..\..\..\..\Software\uCOS-II\Source/os_mutex.c ****     OS_PRIO    *psrc;
 680:..\..\..\..\..\..\Software\uCOS-II\Source/os_mutex.c ****     OS_PRIO    *pdest;
 681:..\..\..\..\..\..\Software\uCOS-II\Source/os_mutex.c **** #if OS_CRITICAL_METHOD == 3u                     /* Allocate storage for CPU status register       
 682:..\..\..\..\..\..\Software\uCOS-II\Source/os_mutex.c ****     OS_CPU_SR   cpu_sr = 0u;
 1553              		.loc 1 682 0
 1554 000a 0023     		movs	r3, #0
 1555 000c BB60     		str	r3, [r7, #8]
 683:..\..\..\..\..\..\Software\uCOS-II\Source/os_mutex.c **** #endif
 684:..\..\..\..\..\..\Software\uCOS-II\Source/os_mutex.c **** 
 685:..\..\..\..\..\..\Software\uCOS-II\Source/os_mutex.c **** 
 686:..\..\..\..\..\..\Software\uCOS-II\Source/os_mutex.c **** 
 687:..\..\..\..\..\..\Software\uCOS-II\Source/os_mutex.c ****     if (OSIntNesting > 0u) {                               /* See if called from ISR ...           
 1556              		.loc 1 687 0
 1557 000e 2E4B     		ldr	r3, .L88
 1558 0010 1B78     		ldrb	r3, [r3]
 1559 0012 002B     		cmp	r3, #0
 1560 0014 01D0     		beq	.L79
 688:..\..\..\..\..\..\Software\uCOS-II\Source/os_mutex.c ****         return (OS_ERR_QUERY_ISR);                         /* ... can't QUERY mutex from an ISR    
 1561              		.loc 1 688 0
 1562 0016 0623     		movs	r3, #6
 1563 0018 51E0     		b	.L80
 1564              	.L79:
 689:..\..\..\..\..\..\Software\uCOS-II\Source/os_mutex.c ****     }
 690:..\..\..\..\..\..\Software\uCOS-II\Source/os_mutex.c **** #if OS_ARG_CHK_EN > 0u
 691:..\..\..\..\..\..\Software\uCOS-II\Source/os_mutex.c ****     if (pevent == (OS_EVENT *)0) {                         /* Validate 'pevent'                    
 1565              		.loc 1 691 0
 1566 001a 7B68     		ldr	r3, [r7, #4]
 1567 001c 002B     		cmp	r3, #0
 1568 001e 01D1     		bne	.L81
 692:..\..\..\..\..\..\Software\uCOS-II\Source/os_mutex.c ****         return (OS_ERR_PEVENT_NULL);
 1569              		.loc 1 692 0
 1570 0020 0423     		movs	r3, #4
 1571 0022 4CE0     		b	.L80
 1572              	.L81:
 693:..\..\..\..\..\..\Software\uCOS-II\Source/os_mutex.c ****     }
 694:..\..\..\..\..\..\Software\uCOS-II\Source/os_mutex.c ****     if (p_mutex_data == (OS_MUTEX_DATA *)0) {              /* Validate 'p_mutex_data'              
 1573              		.loc 1 694 0
 1574 0024 3B68     		ldr	r3, [r7]
 1575 0026 002B     		cmp	r3, #0
 1576 0028 01D1     		bne	.L82
 695:..\..\..\..\..\..\Software\uCOS-II\Source/os_mutex.c ****         return (OS_ERR_PDATA_NULL);
 1577              		.loc 1 695 0
ARM GAS  C:\Users\ADMINI~1\AppData\Local\Temp\ccN77QmO.s 			page 41


 1578 002a 0923     		movs	r3, #9
 1579 002c 47E0     		b	.L80
 1580              	.L82:
 696:..\..\..\..\..\..\Software\uCOS-II\Source/os_mutex.c ****     }
 697:..\..\..\..\..\..\Software\uCOS-II\Source/os_mutex.c **** #endif
 698:..\..\..\..\..\..\Software\uCOS-II\Source/os_mutex.c ****     if (pevent->OSEventType != OS_EVENT_TYPE_MUTEX) {      /* Validate event block type            
 1581              		.loc 1 698 0
 1582 002e 7B68     		ldr	r3, [r7, #4]
 1583 0030 1B78     		ldrb	r3, [r3]
 1584 0032 042B     		cmp	r3, #4
 1585 0034 01D0     		beq	.L83
 699:..\..\..\..\..\..\Software\uCOS-II\Source/os_mutex.c ****         return (OS_ERR_EVENT_TYPE);
 1586              		.loc 1 699 0
 1587 0036 0123     		movs	r3, #1
 1588 0038 41E0     		b	.L80
 1589              	.L83:
 700:..\..\..\..\..\..\Software\uCOS-II\Source/os_mutex.c ****     }
 701:..\..\..\..\..\..\Software\uCOS-II\Source/os_mutex.c ****     OS_ENTER_CRITICAL();
 1590              		.loc 1 701 0
 1591 003a FFF7FEFF 		bl	OS_CPU_SR_Save
 1592 003e 0300     		movs	r3, r0
 1593 0040 BB60     		str	r3, [r7, #8]
 702:..\..\..\..\..\..\Software\uCOS-II\Source/os_mutex.c ****     p_mutex_data->OSMutexPCP  = (INT8U)(pevent->OSEventCnt >> 8u);
 1594              		.loc 1 702 0
 1595 0042 7B68     		ldr	r3, [r7, #4]
 1596 0044 1B89     		ldrh	r3, [r3, #8]
 1597 0046 1B0A     		lsrs	r3, r3, #8
 1598 0048 9BB2     		uxth	r3, r3
 1599 004a DAB2     		uxtb	r2, r3
 1600 004c 3B68     		ldr	r3, [r7]
 1601 004e DA72     		strb	r2, [r3, #11]
 703:..\..\..\..\..\..\Software\uCOS-II\Source/os_mutex.c ****     p_mutex_data->OSOwnerPrio = (INT8U)(pevent->OSEventCnt & OS_MUTEX_KEEP_LOWER_8);
 1602              		.loc 1 703 0
 1603 0050 7B68     		ldr	r3, [r7, #4]
 1604 0052 1B89     		ldrh	r3, [r3, #8]
 1605 0054 DAB2     		uxtb	r2, r3
 1606 0056 3B68     		ldr	r3, [r7]
 1607 0058 9A72     		strb	r2, [r3, #10]
 704:..\..\..\..\..\..\Software\uCOS-II\Source/os_mutex.c ****     if (p_mutex_data->OSOwnerPrio == 0xFFu) {
 1608              		.loc 1 704 0
 1609 005a 3B68     		ldr	r3, [r7]
 1610 005c 9B7A     		ldrb	r3, [r3, #10]
 1611 005e FF2B     		cmp	r3, #255
 1612 0060 03D1     		bne	.L84
 705:..\..\..\..\..\..\Software\uCOS-II\Source/os_mutex.c ****         p_mutex_data->OSValue = OS_TRUE;
 1613              		.loc 1 705 0
 1614 0062 3B68     		ldr	r3, [r7]
 1615 0064 0122     		movs	r2, #1
 1616 0066 5A72     		strb	r2, [r3, #9]
 1617 0068 02E0     		b	.L85
 1618              	.L84:
 706:..\..\..\..\..\..\Software\uCOS-II\Source/os_mutex.c ****     } else {
 707:..\..\..\..\..\..\Software\uCOS-II\Source/os_mutex.c ****         p_mutex_data->OSValue = OS_FALSE;
 1619              		.loc 1 707 0
 1620 006a 3B68     		ldr	r3, [r7]
 1621 006c 0022     		movs	r2, #0
 1622 006e 5A72     		strb	r2, [r3, #9]
ARM GAS  C:\Users\ADMINI~1\AppData\Local\Temp\ccN77QmO.s 			page 42


 1623              	.L85:
 708:..\..\..\..\..\..\Software\uCOS-II\Source/os_mutex.c ****     }
 709:..\..\..\..\..\..\Software\uCOS-II\Source/os_mutex.c ****     p_mutex_data->OSEventGrp  = pevent->OSEventGrp;        /* Copy wait list                       
 1624              		.loc 1 709 0
 1625 0070 7B68     		ldr	r3, [r7, #4]
 1626 0072 9A7A     		ldrb	r2, [r3, #10]
 1627 0074 3B68     		ldr	r3, [r7]
 1628 0076 1A72     		strb	r2, [r3, #8]
 710:..\..\..\..\..\..\Software\uCOS-II\Source/os_mutex.c ****     psrc                      = &pevent->OSEventTbl[0];
 1629              		.loc 1 710 0
 1630 0078 7B68     		ldr	r3, [r7, #4]
 1631 007a 0B33     		adds	r3, r3, #11
 1632 007c 3B61     		str	r3, [r7, #16]
 711:..\..\..\..\..\..\Software\uCOS-II\Source/os_mutex.c ****     pdest                     = &p_mutex_data->OSEventTbl[0];
 1633              		.loc 1 711 0
 1634 007e 3B68     		ldr	r3, [r7]
 1635 0080 FB60     		str	r3, [r7, #12]
 712:..\..\..\..\..\..\Software\uCOS-II\Source/os_mutex.c ****     for (i = 0u; i < OS_EVENT_TBL_SIZE; i++) {
 1636              		.loc 1 712 0
 1637 0082 1723     		movs	r3, #23
 1638 0084 FB18     		adds	r3, r7, r3
 1639 0086 0022     		movs	r2, #0
 1640 0088 1A70     		strb	r2, [r3]
 1641 008a 0EE0     		b	.L86
 1642              	.L87:
 713:..\..\..\..\..\..\Software\uCOS-II\Source/os_mutex.c ****         *pdest++ = *psrc++;
 1643              		.loc 1 713 0 discriminator 3
 1644 008c FB68     		ldr	r3, [r7, #12]
 1645 008e 5A1C     		adds	r2, r3, #1
 1646 0090 FA60     		str	r2, [r7, #12]
 1647 0092 3A69     		ldr	r2, [r7, #16]
 1648 0094 511C     		adds	r1, r2, #1
 1649 0096 3961     		str	r1, [r7, #16]
 1650 0098 1278     		ldrb	r2, [r2]
 1651 009a 1A70     		strb	r2, [r3]
 712:..\..\..\..\..\..\Software\uCOS-II\Source/os_mutex.c ****     for (i = 0u; i < OS_EVENT_TBL_SIZE; i++) {
 1652              		.loc 1 712 0 discriminator 3
 1653 009c 1723     		movs	r3, #23
 1654 009e FB18     		adds	r3, r7, r3
 1655 00a0 1A78     		ldrb	r2, [r3]
 1656 00a2 1723     		movs	r3, #23
 1657 00a4 FB18     		adds	r3, r7, r3
 1658 00a6 0132     		adds	r2, r2, #1
 1659 00a8 1A70     		strb	r2, [r3]
 1660              	.L86:
 712:..\..\..\..\..\..\Software\uCOS-II\Source/os_mutex.c ****     for (i = 0u; i < OS_EVENT_TBL_SIZE; i++) {
 1661              		.loc 1 712 0 is_stmt 0 discriminator 1
 1662 00aa 1723     		movs	r3, #23
 1663 00ac FB18     		adds	r3, r7, r3
 1664 00ae 1B78     		ldrb	r3, [r3]
 1665 00b0 072B     		cmp	r3, #7
 1666 00b2 EBD9     		bls	.L87
 714:..\..\..\..\..\..\Software\uCOS-II\Source/os_mutex.c ****     }
 715:..\..\..\..\..\..\Software\uCOS-II\Source/os_mutex.c ****     OS_EXIT_CRITICAL();
 1667              		.loc 1 715 0 is_stmt 1
 1668 00b4 BB68     		ldr	r3, [r7, #8]
 1669 00b6 1800     		movs	r0, r3
ARM GAS  C:\Users\ADMINI~1\AppData\Local\Temp\ccN77QmO.s 			page 43


 1670 00b8 FFF7FEFF 		bl	OS_CPU_SR_Restore
 716:..\..\..\..\..\..\Software\uCOS-II\Source/os_mutex.c ****     return (OS_ERR_NONE);
 1671              		.loc 1 716 0
 1672 00bc 0023     		movs	r3, #0
 1673              	.L80:
 717:..\..\..\..\..\..\Software\uCOS-II\Source/os_mutex.c **** }
 1674              		.loc 1 717 0
 1675 00be 1800     		movs	r0, r3
 1676 00c0 BD46     		mov	sp, r7
 1677 00c2 06B0     		add	sp, sp, #24
 1678              		@ sp needed
 1679 00c4 80BD     		pop	{r7, pc}
 1680              	.L89:
 1681 00c6 C046     		.align	2
 1682              	.L88:
 1683 00c8 00000000 		.word	OSIntNesting
 1684              		.cfi_endproc
 1685              	.LFE6:
 1686              		.size	OSMutexQuery, .-OSMutexQuery
 1687              		.section	.text.OSMutex_RdyAtPrio,"ax",%progbits
 1688              		.align	2
 1689              		.code	16
 1690              		.thumb_func
 1691              		.type	OSMutex_RdyAtPrio, %function
 1692              	OSMutex_RdyAtPrio:
 1693              	.LFB7:
 718:..\..\..\..\..\..\Software\uCOS-II\Source/os_mutex.c **** #endif                                                     /* OS_MUTEX_QUERY_EN                    
 719:..\..\..\..\..\..\Software\uCOS-II\Source/os_mutex.c **** 
 720:..\..\..\..\..\..\Software\uCOS-II\Source/os_mutex.c **** /*$PAGE*/
 721:..\..\..\..\..\..\Software\uCOS-II\Source/os_mutex.c **** /*
 722:..\..\..\..\..\..\Software\uCOS-II\Source/os_mutex.c **** ***************************************************************************************************
 723:..\..\..\..\..\..\Software\uCOS-II\Source/os_mutex.c **** *                            RESTORE A TASK BACK TO ITS ORIGINAL PRIORITY
 724:..\..\..\..\..\..\Software\uCOS-II\Source/os_mutex.c **** *
 725:..\..\..\..\..\..\Software\uCOS-II\Source/os_mutex.c **** * Description: This function makes a task ready at the specified priority
 726:..\..\..\..\..\..\Software\uCOS-II\Source/os_mutex.c **** *
 727:..\..\..\..\..\..\Software\uCOS-II\Source/os_mutex.c **** * Arguments  : ptcb            is a pointer to OS_TCB of the task to make ready
 728:..\..\..\..\..\..\Software\uCOS-II\Source/os_mutex.c **** *
 729:..\..\..\..\..\..\Software\uCOS-II\Source/os_mutex.c **** *              prio            is the desired priority
 730:..\..\..\..\..\..\Software\uCOS-II\Source/os_mutex.c **** *
 731:..\..\..\..\..\..\Software\uCOS-II\Source/os_mutex.c **** * Returns    : none
 732:..\..\..\..\..\..\Software\uCOS-II\Source/os_mutex.c **** ***************************************************************************************************
 733:..\..\..\..\..\..\Software\uCOS-II\Source/os_mutex.c **** */
 734:..\..\..\..\..\..\Software\uCOS-II\Source/os_mutex.c **** 
 735:..\..\..\..\..\..\Software\uCOS-II\Source/os_mutex.c **** static  void  OSMutex_RdyAtPrio (OS_TCB  *ptcb,
 736:..\..\..\..\..\..\Software\uCOS-II\Source/os_mutex.c ****                                  INT8U    prio)
 737:..\..\..\..\..\..\Software\uCOS-II\Source/os_mutex.c **** {
 1694              		.loc 1 737 0
 1695              		.cfi_startproc
 1696              		@ args = 0, pretend = 0, frame = 16
 1697              		@ frame_needed = 1, uses_anonymous_args = 0
 1698 0000 80B5     		push	{r7, lr}
 1699              		.cfi_def_cfa_offset 8
 1700              		.cfi_offset 7, -8
 1701              		.cfi_offset 14, -4
 1702 0002 84B0     		sub	sp, sp, #16
 1703              		.cfi_def_cfa_offset 24
 1704 0004 00AF     		add	r7, sp, #0
ARM GAS  C:\Users\ADMINI~1\AppData\Local\Temp\ccN77QmO.s 			page 44


 1705              		.cfi_def_cfa_register 7
 1706 0006 7860     		str	r0, [r7, #4]
 1707 0008 0A00     		movs	r2, r1
 1708 000a FB1C     		adds	r3, r7, #3
 1709 000c 1A70     		strb	r2, [r3]
 738:..\..\..\..\..\..\Software\uCOS-II\Source/os_mutex.c ****     INT8U  y;
 739:..\..\..\..\..\..\Software\uCOS-II\Source/os_mutex.c **** 
 740:..\..\..\..\..\..\Software\uCOS-II\Source/os_mutex.c **** 
 741:..\..\..\..\..\..\Software\uCOS-II\Source/os_mutex.c ****     y            =  ptcb->OSTCBY;                          /* Remove owner from ready list at 'pcp'
 1710              		.loc 1 741 0
 1711 000e 0F23     		movs	r3, #15
 1712 0010 FB18     		adds	r3, r7, r3
 1713 0012 7A68     		ldr	r2, [r7, #4]
 1714 0014 3821     		movs	r1, #56
 1715 0016 525C     		ldrb	r2, [r2, r1]
 1716 0018 1A70     		strb	r2, [r3]
 742:..\..\..\..\..\..\Software\uCOS-II\Source/os_mutex.c ****     OSRdyTbl[y] &= (OS_PRIO)~ptcb->OSTCBBitX;
 1717              		.loc 1 742 0
 1718 001a 0F23     		movs	r3, #15
 1719 001c FB18     		adds	r3, r7, r3
 1720 001e 1B78     		ldrb	r3, [r3]
 1721 0020 0F22     		movs	r2, #15
 1722 0022 BA18     		adds	r2, r7, r2
 1723 0024 1278     		ldrb	r2, [r2]
 1724 0026 3849     		ldr	r1, .L92
 1725 0028 8A5C     		ldrb	r2, [r1, r2]
 1726 002a 7968     		ldr	r1, [r7, #4]
 1727 002c 3920     		movs	r0, #57
 1728 002e 095C     		ldrb	r1, [r1, r0]
 1729 0030 C943     		mvns	r1, r1
 1730 0032 C9B2     		uxtb	r1, r1
 1731 0034 0A40     		ands	r2, r1
 1732 0036 D1B2     		uxtb	r1, r2
 1733 0038 334A     		ldr	r2, .L92
 1734 003a D154     		strb	r1, [r2, r3]
 743:..\..\..\..\..\..\Software\uCOS-II\Source/os_mutex.c ****     if (OSRdyTbl[y] == 0u) {
 1735              		.loc 1 743 0
 1736 003c 0F23     		movs	r3, #15
 1737 003e FB18     		adds	r3, r7, r3
 1738 0040 1B78     		ldrb	r3, [r3]
 1739 0042 314A     		ldr	r2, .L92
 1740 0044 D35C     		ldrb	r3, [r2, r3]
 1741 0046 002B     		cmp	r3, #0
 1742 0048 0AD1     		bne	.L91
 744:..\..\..\..\..\..\Software\uCOS-II\Source/os_mutex.c ****         OSRdyGrp &= (OS_PRIO)~ptcb->OSTCBBitY;
 1743              		.loc 1 744 0
 1744 004a 7B68     		ldr	r3, [r7, #4]
 1745 004c 3A22     		movs	r2, #58
 1746 004e 9B5C     		ldrb	r3, [r3, r2]
 1747 0050 DB43     		mvns	r3, r3
 1748 0052 DBB2     		uxtb	r3, r3
 1749 0054 2D4A     		ldr	r2, .L92+4
 1750 0056 1278     		ldrb	r2, [r2]
 1751 0058 1340     		ands	r3, r2
 1752 005a DAB2     		uxtb	r2, r3
 1753 005c 2B4B     		ldr	r3, .L92+4
 1754 005e 1A70     		strb	r2, [r3]
ARM GAS  C:\Users\ADMINI~1\AppData\Local\Temp\ccN77QmO.s 			page 45


 1755              	.L91:
 745:..\..\..\..\..\..\Software\uCOS-II\Source/os_mutex.c ****     }
 746:..\..\..\..\..\..\Software\uCOS-II\Source/os_mutex.c ****     ptcb->OSTCBPrio         = prio;
 1756              		.loc 1 746 0
 1757 0060 7B68     		ldr	r3, [r7, #4]
 1758 0062 FA1C     		adds	r2, r7, #3
 1759 0064 3621     		movs	r1, #54
 1760 0066 1278     		ldrb	r2, [r2]
 1761 0068 5A54     		strb	r2, [r3, r1]
 747:..\..\..\..\..\..\Software\uCOS-II\Source/os_mutex.c ****     OSPrioCur               = prio;                        /* The current task is now at this prior
 1762              		.loc 1 747 0
 1763 006a 294B     		ldr	r3, .L92+8
 1764 006c FA1C     		adds	r2, r7, #3
 1765 006e 1278     		ldrb	r2, [r2]
 1766 0070 1A70     		strb	r2, [r3]
 748:..\..\..\..\..\..\Software\uCOS-II\Source/os_mutex.c **** #if OS_LOWEST_PRIO <= 63u
 749:..\..\..\..\..\..\Software\uCOS-II\Source/os_mutex.c ****     ptcb->OSTCBY            = (INT8U)((INT8U)(prio >> 3u) & 0x07u);
 1767              		.loc 1 749 0
 1768 0072 FB1C     		adds	r3, r7, #3
 1769 0074 1B78     		ldrb	r3, [r3]
 1770 0076 DB08     		lsrs	r3, r3, #3
 1771 0078 DBB2     		uxtb	r3, r3
 1772 007a 0722     		movs	r2, #7
 1773 007c 1340     		ands	r3, r2
 1774 007e D9B2     		uxtb	r1, r3
 1775 0080 7B68     		ldr	r3, [r7, #4]
 1776 0082 3822     		movs	r2, #56
 1777 0084 9954     		strb	r1, [r3, r2]
 750:..\..\..\..\..\..\Software\uCOS-II\Source/os_mutex.c ****     ptcb->OSTCBX            = (INT8U)(prio & 0x07u);
 1778              		.loc 1 750 0
 1779 0086 FB1C     		adds	r3, r7, #3
 1780 0088 1B78     		ldrb	r3, [r3]
 1781 008a 0722     		movs	r2, #7
 1782 008c 1340     		ands	r3, r2
 1783 008e D9B2     		uxtb	r1, r3
 1784 0090 7B68     		ldr	r3, [r7, #4]
 1785 0092 3722     		movs	r2, #55
 1786 0094 9954     		strb	r1, [r3, r2]
 751:..\..\..\..\..\..\Software\uCOS-II\Source/os_mutex.c **** #else
 752:..\..\..\..\..\..\Software\uCOS-II\Source/os_mutex.c ****     ptcb->OSTCBY            = (INT8U)((INT8U)(prio >> 4u) & 0x0Fu);
 753:..\..\..\..\..\..\Software\uCOS-II\Source/os_mutex.c ****     ptcb->OSTCBX            = (INT8U) (prio & 0x0Fu);
 754:..\..\..\..\..\..\Software\uCOS-II\Source/os_mutex.c **** #endif
 755:..\..\..\..\..\..\Software\uCOS-II\Source/os_mutex.c ****     ptcb->OSTCBBitY         = (OS_PRIO)(1uL << ptcb->OSTCBY);
 1787              		.loc 1 755 0
 1788 0096 7B68     		ldr	r3, [r7, #4]
 1789 0098 3822     		movs	r2, #56
 1790 009a 9B5C     		ldrb	r3, [r3, r2]
 1791 009c 1A00     		movs	r2, r3
 1792 009e 0123     		movs	r3, #1
 1793 00a0 9340     		lsls	r3, r3, r2
 1794 00a2 D9B2     		uxtb	r1, r3
 1795 00a4 7B68     		ldr	r3, [r7, #4]
 1796 00a6 3A22     		movs	r2, #58
 1797 00a8 9954     		strb	r1, [r3, r2]
 756:..\..\..\..\..\..\Software\uCOS-II\Source/os_mutex.c ****     ptcb->OSTCBBitX         = (OS_PRIO)(1uL << ptcb->OSTCBX);
 1798              		.loc 1 756 0
 1799 00aa 7B68     		ldr	r3, [r7, #4]
ARM GAS  C:\Users\ADMINI~1\AppData\Local\Temp\ccN77QmO.s 			page 46


 1800 00ac 3722     		movs	r2, #55
 1801 00ae 9B5C     		ldrb	r3, [r3, r2]
 1802 00b0 1A00     		movs	r2, r3
 1803 00b2 0123     		movs	r3, #1
 1804 00b4 9340     		lsls	r3, r3, r2
 1805 00b6 D9B2     		uxtb	r1, r3
 1806 00b8 7B68     		ldr	r3, [r7, #4]
 1807 00ba 3922     		movs	r2, #57
 1808 00bc 9954     		strb	r1, [r3, r2]
 757:..\..\..\..\..\..\Software\uCOS-II\Source/os_mutex.c ****     OSRdyGrp               |= ptcb->OSTCBBitY;             /* Make task ready at original priority 
 1809              		.loc 1 757 0
 1810 00be 7B68     		ldr	r3, [r7, #4]
 1811 00c0 3A22     		movs	r2, #58
 1812 00c2 9A5C     		ldrb	r2, [r3, r2]
 1813 00c4 114B     		ldr	r3, .L92+4
 1814 00c6 1B78     		ldrb	r3, [r3]
 1815 00c8 1343     		orrs	r3, r2
 1816 00ca DAB2     		uxtb	r2, r3
 1817 00cc 0F4B     		ldr	r3, .L92+4
 1818 00ce 1A70     		strb	r2, [r3]
 758:..\..\..\..\..\..\Software\uCOS-II\Source/os_mutex.c ****     OSRdyTbl[ptcb->OSTCBY] |= ptcb->OSTCBBitX;
 1819              		.loc 1 758 0
 1820 00d0 7B68     		ldr	r3, [r7, #4]
 1821 00d2 3822     		movs	r2, #56
 1822 00d4 9B5C     		ldrb	r3, [r3, r2]
 1823 00d6 1800     		movs	r0, r3
 1824 00d8 7B68     		ldr	r3, [r7, #4]
 1825 00da 3822     		movs	r2, #56
 1826 00dc 9B5C     		ldrb	r3, [r3, r2]
 1827 00de 1A00     		movs	r2, r3
 1828 00e0 094B     		ldr	r3, .L92
 1829 00e2 9A5C     		ldrb	r2, [r3, r2]
 1830 00e4 7B68     		ldr	r3, [r7, #4]
 1831 00e6 3921     		movs	r1, #57
 1832 00e8 5B5C     		ldrb	r3, [r3, r1]
 1833 00ea 1343     		orrs	r3, r2
 1834 00ec DAB2     		uxtb	r2, r3
 1835 00ee 064B     		ldr	r3, .L92
 1836 00f0 1A54     		strb	r2, [r3, r0]
 759:..\..\..\..\..\..\Software\uCOS-II\Source/os_mutex.c ****     OSTCBPrioTbl[prio]      = ptcb;
 1837              		.loc 1 759 0
 1838 00f2 FB1C     		adds	r3, r7, #3
 1839 00f4 1A78     		ldrb	r2, [r3]
 1840 00f6 074B     		ldr	r3, .L92+12
 1841 00f8 9200     		lsls	r2, r2, #2
 1842 00fa 7968     		ldr	r1, [r7, #4]
 1843 00fc D150     		str	r1, [r2, r3]
 760:..\..\..\..\..\..\Software\uCOS-II\Source/os_mutex.c **** }
 1844              		.loc 1 760 0
 1845 00fe C046     		nop
 1846 0100 BD46     		mov	sp, r7
 1847 0102 04B0     		add	sp, sp, #16
 1848              		@ sp needed
 1849 0104 80BD     		pop	{r7, pc}
 1850              	.L93:
 1851 0106 C046     		.align	2
 1852              	.L92:
ARM GAS  C:\Users\ADMINI~1\AppData\Local\Temp\ccN77QmO.s 			page 47


 1853 0108 00000000 		.word	OSRdyTbl
 1854 010c 00000000 		.word	OSRdyGrp
 1855 0110 00000000 		.word	OSPrioCur
 1856 0114 00000000 		.word	OSTCBPrioTbl
 1857              		.cfi_endproc
 1858              	.LFE7:
 1859              		.size	OSMutex_RdyAtPrio, .-OSMutex_RdyAtPrio
 1860              		.text
 1861              	.Letext0:
 1862              		.file 2 "..\\..\\..\\..\\..\\..\\Software\\uCOS-II\\Ports\\ARM-Cortex-M0\\Generic\\GNU/os_cpu.h"
 1863              		.file 3 "..\\..\\..\\..\\..\\..\\Software\\uCOS-II\\Source/ucos_ii.h"
 1864              		.section	.debug_info,"",%progbits
 1865              	.Ldebug_info0:
 1866 0000 68070000 		.4byte	0x768
 1867 0004 0400     		.2byte	0x4
 1868 0006 00000000 		.4byte	.Ldebug_abbrev0
 1869 000a 04       		.byte	0x4
 1870 000b 01       		.uleb128 0x1
 1871 000c ED010000 		.4byte	.LASF100
 1872 0010 0C       		.byte	0xc
 1873 0011 E3020000 		.4byte	.LASF101
 1874 0015 6F040000 		.4byte	.LASF102
 1875 0019 00000000 		.4byte	.Ldebug_ranges0+0
 1876 001d 00000000 		.4byte	0
 1877 0021 00000000 		.4byte	.Ldebug_line0
 1878 0025 02       		.uleb128 0x2
 1879 0026 01       		.byte	0x1
 1880 0027 06       		.byte	0x6
 1881 0028 5C010000 		.4byte	.LASF0
 1882 002c 02       		.uleb128 0x2
 1883 002d 01       		.byte	0x1
 1884 002e 08       		.byte	0x8
 1885 002f BD010000 		.4byte	.LASF1
 1886 0033 02       		.uleb128 0x2
 1887 0034 02       		.byte	0x2
 1888 0035 05       		.byte	0x5
 1889 0036 7D000000 		.4byte	.LASF2
 1890 003a 02       		.uleb128 0x2
 1891 003b 02       		.byte	0x2
 1892 003c 07       		.byte	0x7
 1893 003d 25040000 		.4byte	.LASF3
 1894 0041 02       		.uleb128 0x2
 1895 0042 04       		.byte	0x4
 1896 0043 05       		.byte	0x5
 1897 0044 9C010000 		.4byte	.LASF4
 1898 0048 02       		.uleb128 0x2
 1899 0049 04       		.byte	0x4
 1900 004a 07       		.byte	0x7
 1901 004b 5D040000 		.4byte	.LASF5
 1902 004f 02       		.uleb128 0x2
 1903 0050 08       		.byte	0x8
 1904 0051 05       		.byte	0x5
 1905 0052 85010000 		.4byte	.LASF6
 1906 0056 02       		.uleb128 0x2
 1907 0057 08       		.byte	0x8
 1908 0058 07       		.byte	0x7
 1909 0059 3F030000 		.4byte	.LASF7
ARM GAS  C:\Users\ADMINI~1\AppData\Local\Temp\ccN77QmO.s 			page 48


 1910 005d 03       		.uleb128 0x3
 1911 005e 04       		.byte	0x4
 1912 005f 05       		.byte	0x5
 1913 0060 696E7400 		.ascii	"int\000"
 1914 0064 02       		.uleb128 0x2
 1915 0065 04       		.byte	0x4
 1916 0066 07       		.byte	0x7
 1917 0067 56030000 		.4byte	.LASF8
 1918 006b 02       		.uleb128 0x2
 1919 006c 08       		.byte	0x8
 1920 006d 04       		.byte	0x4
 1921 006e A6020000 		.4byte	.LASF9
 1922 0072 04       		.uleb128 0x4
 1923 0073 04       		.byte	0x4
 1924 0074 02       		.uleb128 0x2
 1925 0075 04       		.byte	0x4
 1926 0076 07       		.byte	0x7
 1927 0077 93000000 		.4byte	.LASF10
 1928 007b 02       		.uleb128 0x2
 1929 007c 01       		.byte	0x1
 1930 007d 08       		.byte	0x8
 1931 007e CF030000 		.4byte	.LASF11
 1932 0082 05       		.uleb128 0x5
 1933 0083 37050000 		.4byte	.LASF12
 1934 0087 02       		.byte	0x2
 1935 0088 72       		.byte	0x72
 1936 0089 2C000000 		.4byte	0x2c
 1937 008d 05       		.uleb128 0x5
 1938 008e E7010000 		.4byte	.LASF13
 1939 0092 02       		.byte	0x2
 1940 0093 73       		.byte	0x73
 1941 0094 2C000000 		.4byte	0x2c
 1942 0098 05       		.uleb128 0x5
 1943 0099 2C030000 		.4byte	.LASF14
 1944 009d 02       		.byte	0x2
 1945 009e 75       		.byte	0x75
 1946 009f 3A000000 		.4byte	0x3a
 1947 00a3 05       		.uleb128 0x5
 1948 00a4 36010000 		.4byte	.LASF15
 1949 00a8 02       		.byte	0x2
 1950 00a9 77       		.byte	0x77
 1951 00aa 64000000 		.4byte	0x64
 1952 00ae 02       		.uleb128 0x2
 1953 00af 04       		.byte	0x4
 1954 00b0 04       		.byte	0x4
 1955 00b1 68010000 		.4byte	.LASF16
 1956 00b5 02       		.uleb128 0x2
 1957 00b6 08       		.byte	0x8
 1958 00b7 04       		.byte	0x4
 1959 00b8 03010000 		.4byte	.LASF17
 1960 00bc 05       		.uleb128 0x5
 1961 00bd A6000000 		.4byte	.LASF18
 1962 00c1 02       		.byte	0x2
 1963 00c2 7C       		.byte	0x7c
 1964 00c3 64000000 		.4byte	0x64
 1965 00c7 05       		.uleb128 0x5
 1966 00c8 AD000000 		.4byte	.LASF19
ARM GAS  C:\Users\ADMINI~1\AppData\Local\Temp\ccN77QmO.s 			page 49


 1967 00cc 02       		.byte	0x2
 1968 00cd 7D       		.byte	0x7d
 1969 00ce 64000000 		.4byte	0x64
 1970 00d2 06       		.uleb128 0x6
 1971 00d3 E3030000 		.4byte	.LASF20
 1972 00d7 03       		.byte	0x3
 1973 00d8 7201     		.2byte	0x172
 1974 00da 8D000000 		.4byte	0x8d
 1975 00de 07       		.uleb128 0x7
 1976 00df DF000000 		.4byte	.LASF29
 1977 00e3 18       		.byte	0x18
 1978 00e4 03       		.byte	0x3
 1979 00e5 7801     		.2byte	0x178
 1980 00e7 3A010000 		.4byte	0x13a
 1981 00eb 08       		.uleb128 0x8
 1982 00ec F7030000 		.4byte	.LASF21
 1983 00f0 03       		.byte	0x3
 1984 00f1 7901     		.2byte	0x179
 1985 00f3 8D000000 		.4byte	0x8d
 1986 00f7 00       		.byte	0
 1987 00f8 08       		.uleb128 0x8
 1988 00f9 51010000 		.4byte	.LASF22
 1989 00fd 03       		.byte	0x3
 1990 00fe 7A01     		.2byte	0x17a
 1991 0100 72000000 		.4byte	0x72
 1992 0104 04       		.byte	0x4
 1993 0105 08       		.uleb128 0x8
 1994 0106 0A010000 		.4byte	.LASF23
 1995 010a 03       		.byte	0x3
 1996 010b 7B01     		.2byte	0x17b
 1997 010d 98000000 		.4byte	0x98
 1998 0111 08       		.byte	0x8
 1999 0112 08       		.uleb128 0x8
 2000 0113 D7040000 		.4byte	.LASF24
 2001 0117 03       		.byte	0x3
 2002 0118 7C01     		.2byte	0x17c
 2003 011a D2000000 		.4byte	0xd2
 2004 011e 0A       		.byte	0xa
 2005 011f 08       		.uleb128 0x8
 2006 0120 91050000 		.4byte	.LASF25
 2007 0124 03       		.byte	0x3
 2008 0125 7D01     		.2byte	0x17d
 2009 0127 3A010000 		.4byte	0x13a
 2010 012b 0B       		.byte	0xb
 2011 012c 08       		.uleb128 0x8
 2012 012d 87000000 		.4byte	.LASF26
 2013 0131 03       		.byte	0x3
 2014 0132 8001     		.2byte	0x180
 2015 0134 4A010000 		.4byte	0x14a
 2016 0138 14       		.byte	0x14
 2017 0139 00       		.byte	0
 2018 013a 09       		.uleb128 0x9
 2019 013b D2000000 		.4byte	0xd2
 2020 013f 4A010000 		.4byte	0x14a
 2021 0143 0A       		.uleb128 0xa
 2022 0144 74000000 		.4byte	0x74
 2023 0148 07       		.byte	0x7
ARM GAS  C:\Users\ADMINI~1\AppData\Local\Temp\ccN77QmO.s 			page 50


 2024 0149 00       		.byte	0
 2025 014a 0B       		.uleb128 0xb
 2026 014b 04       		.byte	0x4
 2027 014c 8D000000 		.4byte	0x8d
 2028 0150 06       		.uleb128 0x6
 2029 0151 93010000 		.4byte	.LASF27
 2030 0155 03       		.byte	0x3
 2031 0156 8201     		.2byte	0x182
 2032 0158 DE000000 		.4byte	0xde
 2033 015c 06       		.uleb128 0x6
 2034 015d 08000000 		.4byte	.LASF28
 2035 0161 03       		.byte	0x3
 2036 0162 9301     		.2byte	0x193
 2037 0164 98000000 		.4byte	0x98
 2038 0168 07       		.uleb128 0x7
 2039 0169 B7000000 		.4byte	.LASF30
 2040 016d 14       		.byte	0x14
 2041 016e 03       		.byte	0x3
 2042 016f A601     		.2byte	0x1a6
 2043 0171 C4010000 		.4byte	0x1c4
 2044 0175 08       		.uleb128 0x8
 2045 0176 D4030000 		.4byte	.LASF31
 2046 017a 03       		.byte	0x3
 2047 017b A701     		.2byte	0x1a7
 2048 017d 72000000 		.4byte	0x72
 2049 0181 00       		.byte	0
 2050 0182 08       		.uleb128 0x8
 2051 0183 AE030000 		.4byte	.LASF32
 2052 0187 03       		.byte	0x3
 2053 0188 A801     		.2byte	0x1a8
 2054 018a 72000000 		.4byte	0x72
 2055 018e 04       		.byte	0x4
 2056 018f 08       		.uleb128 0x8
 2057 0190 F0040000 		.4byte	.LASF33
 2058 0194 03       		.byte	0x3
 2059 0195 A901     		.2byte	0x1a9
 2060 0197 72000000 		.4byte	0x72
 2061 019b 08       		.byte	0x8
 2062 019c 08       		.uleb128 0x8
 2063 019d 45000000 		.4byte	.LASF34
 2064 01a1 03       		.byte	0x3
 2065 01a2 AA01     		.2byte	0x1aa
 2066 01a4 72000000 		.4byte	0x72
 2067 01a8 0C       		.byte	0xc
 2068 01a9 08       		.uleb128 0x8
 2069 01aa C0020000 		.4byte	.LASF35
 2070 01ae 03       		.byte	0x3
 2071 01af AB01     		.2byte	0x1ab
 2072 01b1 5C010000 		.4byte	0x15c
 2073 01b5 10       		.byte	0x10
 2074 01b6 08       		.uleb128 0x8
 2075 01b7 D0020000 		.4byte	.LASF36
 2076 01bb 03       		.byte	0x3
 2077 01bc AC01     		.2byte	0x1ac
 2078 01be 8D000000 		.4byte	0x8d
 2079 01c2 12       		.byte	0x12
 2080 01c3 00       		.byte	0
ARM GAS  C:\Users\ADMINI~1\AppData\Local\Temp\ccN77QmO.s 			page 51


 2081 01c4 06       		.uleb128 0x6
 2082 01c5 2A050000 		.4byte	.LASF37
 2083 01c9 03       		.byte	0x3
 2084 01ca B101     		.2byte	0x1b1
 2085 01cc 68010000 		.4byte	0x168
 2086 01d0 07       		.uleb128 0x7
 2087 01d1 A0030000 		.4byte	.LASF38
 2088 01d5 0C       		.byte	0xc
 2089 01d6 03       		.byte	0x3
 2090 01d7 E801     		.2byte	0x1e8
 2091 01d9 1F020000 		.4byte	0x21f
 2092 01dd 08       		.uleb128 0x8
 2093 01de 91050000 		.4byte	.LASF25
 2094 01e2 03       		.byte	0x3
 2095 01e3 E901     		.2byte	0x1e9
 2096 01e5 3A010000 		.4byte	0x13a
 2097 01e9 00       		.byte	0
 2098 01ea 08       		.uleb128 0x8
 2099 01eb D7040000 		.4byte	.LASF24
 2100 01ef 03       		.byte	0x3
 2101 01f0 EA01     		.2byte	0x1ea
 2102 01f2 D2000000 		.4byte	0xd2
 2103 01f6 08       		.byte	0x8
 2104 01f7 08       		.uleb128 0x8
 2105 01f8 00000000 		.4byte	.LASF39
 2106 01fc 03       		.byte	0x3
 2107 01fd EB01     		.2byte	0x1eb
 2108 01ff 82000000 		.4byte	0x82
 2109 0203 09       		.byte	0x9
 2110 0204 08       		.uleb128 0x8
 2111 0205 63000000 		.4byte	.LASF40
 2112 0209 03       		.byte	0x3
 2113 020a EC01     		.2byte	0x1ec
 2114 020c 8D000000 		.4byte	0x8d
 2115 0210 0A       		.byte	0xa
 2116 0211 08       		.uleb128 0x8
 2117 0212 2D000000 		.4byte	.LASF41
 2118 0216 03       		.byte	0x3
 2119 0217 ED01     		.2byte	0x1ed
 2120 0219 8D000000 		.4byte	0x8d
 2121 021d 0B       		.byte	0xb
 2122 021e 00       		.byte	0
 2123 021f 06       		.uleb128 0x6
 2124 0220 F5000000 		.4byte	.LASF42
 2125 0224 03       		.byte	0x3
 2126 0225 EE01     		.2byte	0x1ee
 2127 0227 D0010000 		.4byte	0x1d0
 2128 022b 07       		.uleb128 0x7
 2129 022c E0010000 		.4byte	.LASF43
 2130 0230 58       		.byte	0x58
 2131 0231 03       		.byte	0x3
 2132 0232 2E02     		.2byte	0x22e
 2133 0234 B2030000 		.4byte	0x3b2
 2134 0238 08       		.uleb128 0x8
 2135 0239 15010000 		.4byte	.LASF44
 2136 023d 03       		.byte	0x3
 2137 023e 2F02     		.2byte	0x22f
ARM GAS  C:\Users\ADMINI~1\AppData\Local\Temp\ccN77QmO.s 			page 52


 2138 0240 B2030000 		.4byte	0x3b2
 2139 0244 00       		.byte	0
 2140 0245 08       		.uleb128 0x8
 2141 0246 33030000 		.4byte	.LASF45
 2142 024a 03       		.byte	0x3
 2143 024b 3202     		.2byte	0x232
 2144 024d 72000000 		.4byte	0x72
 2145 0251 04       		.byte	0x4
 2146 0252 08       		.uleb128 0x8
 2147 0253 41040000 		.4byte	.LASF46
 2148 0257 03       		.byte	0x3
 2149 0258 3302     		.2byte	0x233
 2150 025a B2030000 		.4byte	0x3b2
 2151 025e 08       		.byte	0x8
 2152 025f 08       		.uleb128 0x8
 2153 0260 CB010000 		.4byte	.LASF47
 2154 0264 03       		.byte	0x3
 2155 0265 3402     		.2byte	0x234
 2156 0267 A3000000 		.4byte	0xa3
 2157 026b 0C       		.byte	0xc
 2158 026c 08       		.uleb128 0x8
 2159 026d 38040000 		.4byte	.LASF48
 2160 0271 03       		.byte	0x3
 2161 0272 3502     		.2byte	0x235
 2162 0274 98000000 		.4byte	0x98
 2163 0278 10       		.byte	0x10
 2164 0279 08       		.uleb128 0x8
 2165 027a B5010000 		.4byte	.LASF49
 2166 027e 03       		.byte	0x3
 2167 027f 3602     		.2byte	0x236
 2168 0281 98000000 		.4byte	0x98
 2169 0285 12       		.byte	0x12
 2170 0286 08       		.uleb128 0x8
 2171 0287 47010000 		.4byte	.LASF50
 2172 028b 03       		.byte	0x3
 2173 028c 3902     		.2byte	0x239
 2174 028e B8030000 		.4byte	0x3b8
 2175 0292 14       		.byte	0x14
 2176 0293 08       		.uleb128 0x8
 2177 0294 FE040000 		.4byte	.LASF51
 2178 0298 03       		.byte	0x3
 2179 0299 3A02     		.2byte	0x23a
 2180 029b B8030000 		.4byte	0x3b8
 2181 029f 18       		.byte	0x18
 2182 02a0 08       		.uleb128 0x8
 2183 02a1 69030000 		.4byte	.LASF52
 2184 02a5 03       		.byte	0x3
 2185 02a6 4302     		.2byte	0x243
 2186 02a8 BE030000 		.4byte	0x3be
 2187 02ac 1C       		.byte	0x1c
 2188 02ad 08       		.uleb128 0x8
 2189 02ae 77030000 		.4byte	.LASF53
 2190 02b2 03       		.byte	0x3
 2191 02b3 4702     		.2byte	0x247
 2192 02b5 C4030000 		.4byte	0x3c4
 2193 02b9 20       		.byte	0x20
 2194 02ba 08       		.uleb128 0x8
ARM GAS  C:\Users\ADMINI~1\AppData\Local\Temp\ccN77QmO.s 			page 53


 2195 02bb 6F000000 		.4byte	.LASF54
 2196 02bf 03       		.byte	0x3
 2197 02c0 4B02     		.2byte	0x24b
 2198 02c2 72000000 		.4byte	0x72
 2199 02c6 24       		.byte	0x24
 2200 02c7 08       		.uleb128 0x8
 2201 02c8 6E010000 		.4byte	.LASF55
 2202 02cc 03       		.byte	0x3
 2203 02cd 5002     		.2byte	0x250
 2204 02cf CA030000 		.4byte	0x3ca
 2205 02d3 28       		.byte	0x28
 2206 02d4 08       		.uleb128 0x8
 2207 02d5 C9040000 		.4byte	.LASF56
 2208 02d9 03       		.byte	0x3
 2209 02da 5202     		.2byte	0x252
 2210 02dc 5C010000 		.4byte	0x15c
 2211 02e0 2C       		.byte	0x2c
 2212 02e1 08       		.uleb128 0x8
 2213 02e2 7C010000 		.4byte	.LASF57
 2214 02e6 03       		.byte	0x3
 2215 02e7 5502     		.2byte	0x255
 2216 02e9 A3000000 		.4byte	0xa3
 2217 02ed 30       		.byte	0x30
 2218 02ee 08       		.uleb128 0x8
 2219 02ef 51050000 		.4byte	.LASF58
 2220 02f3 03       		.byte	0x3
 2221 02f4 5602     		.2byte	0x256
 2222 02f6 8D000000 		.4byte	0x8d
 2223 02fa 34       		.byte	0x34
 2224 02fb 08       		.uleb128 0x8
 2225 02fc D1000000 		.4byte	.LASF59
 2226 0300 03       		.byte	0x3
 2227 0301 5702     		.2byte	0x257
 2228 0303 8D000000 		.4byte	0x8d
 2229 0307 35       		.byte	0x35
 2230 0308 08       		.uleb128 0x8
 2231 0309 3D010000 		.4byte	.LASF60
 2232 030d 03       		.byte	0x3
 2233 030e 5802     		.2byte	0x258
 2234 0310 8D000000 		.4byte	0x8d
 2235 0314 36       		.byte	0x36
 2236 0315 08       		.uleb128 0x8
 2237 0316 A5010000 		.4byte	.LASF61
 2238 031a 03       		.byte	0x3
 2239 031b 5A02     		.2byte	0x25a
 2240 031d 8D000000 		.4byte	0x8d
 2241 0321 37       		.byte	0x37
 2242 0322 08       		.uleb128 0x8
 2243 0323 11050000 		.4byte	.LASF62
 2244 0327 03       		.byte	0x3
 2245 0328 5B02     		.2byte	0x25b
 2246 032a 8D000000 		.4byte	0x8d
 2247 032e 38       		.byte	0x38
 2248 032f 08       		.uleb128 0x8
 2249 0330 18030000 		.4byte	.LASF63
 2250 0334 03       		.byte	0x3
 2251 0335 5C02     		.2byte	0x25c
ARM GAS  C:\Users\ADMINI~1\AppData\Local\Temp\ccN77QmO.s 			page 54


 2252 0337 D2000000 		.4byte	0xd2
 2253 033b 39       		.byte	0x39
 2254 033c 08       		.uleb128 0x8
 2255 033d 22030000 		.4byte	.LASF64
 2256 0341 03       		.byte	0x3
 2257 0342 5D02     		.2byte	0x25d
 2258 0344 D2000000 		.4byte	0xd2
 2259 0348 3A       		.byte	0x3a
 2260 0349 08       		.uleb128 0x8
 2261 034a 57000000 		.4byte	.LASF65
 2262 034e 03       		.byte	0x3
 2263 034f 6002     		.2byte	0x260
 2264 0351 8D000000 		.4byte	0x8d
 2265 0355 3B       		.byte	0x3b
 2266 0356 08       		.uleb128 0x8
 2267 0357 B2020000 		.4byte	.LASF66
 2268 035b 03       		.byte	0x3
 2269 035c 6402     		.2byte	0x264
 2270 035e A3000000 		.4byte	0xa3
 2271 0362 3C       		.byte	0x3c
 2272 0363 08       		.uleb128 0x8
 2273 0364 16040000 		.4byte	.LASF67
 2274 0368 03       		.byte	0x3
 2275 0369 6502     		.2byte	0x265
 2276 036b A3000000 		.4byte	0xa3
 2277 036f 40       		.byte	0x40
 2278 0370 08       		.uleb128 0x8
 2279 0371 7B020000 		.4byte	.LASF68
 2280 0375 03       		.byte	0x3
 2281 0376 6602     		.2byte	0x266
 2282 0378 A3000000 		.4byte	0xa3
 2283 037c 44       		.byte	0x44
 2284 037d 08       		.uleb128 0x8
 2285 037e 38000000 		.4byte	.LASF69
 2286 0382 03       		.byte	0x3
 2287 0383 6702     		.2byte	0x267
 2288 0385 B2030000 		.4byte	0x3b2
 2289 0389 48       		.byte	0x48
 2290 038a 08       		.uleb128 0x8
 2291 038b C4000000 		.4byte	.LASF70
 2292 038f 03       		.byte	0x3
 2293 0390 6802     		.2byte	0x268
 2294 0392 A3000000 		.4byte	0xa3
 2295 0396 4C       		.byte	0x4c
 2296 0397 08       		.uleb128 0x8
 2297 0398 76050000 		.4byte	.LASF71
 2298 039c 03       		.byte	0x3
 2299 039d 6C02     		.2byte	0x26c
 2300 039f 4A010000 		.4byte	0x14a
 2301 03a3 50       		.byte	0x50
 2302 03a4 08       		.uleb128 0x8
 2303 03a5 EB030000 		.4byte	.LASF72
 2304 03a9 03       		.byte	0x3
 2305 03aa 7002     		.2byte	0x270
 2306 03ac D0030000 		.4byte	0x3d0
 2307 03b0 54       		.byte	0x54
 2308 03b1 00       		.byte	0
ARM GAS  C:\Users\ADMINI~1\AppData\Local\Temp\ccN77QmO.s 			page 55


 2309 03b2 0B       		.uleb128 0xb
 2310 03b3 04       		.byte	0x4
 2311 03b4 BC000000 		.4byte	0xbc
 2312 03b8 0B       		.uleb128 0xb
 2313 03b9 04       		.byte	0x4
 2314 03ba 2B020000 		.4byte	0x22b
 2315 03be 0B       		.uleb128 0xb
 2316 03bf 04       		.byte	0x4
 2317 03c0 50010000 		.4byte	0x150
 2318 03c4 0B       		.uleb128 0xb
 2319 03c5 04       		.byte	0x4
 2320 03c6 BE030000 		.4byte	0x3be
 2321 03ca 0B       		.uleb128 0xb
 2322 03cb 04       		.byte	0x4
 2323 03cc C4010000 		.4byte	0x1c4
 2324 03d0 09       		.uleb128 0x9
 2325 03d1 A3000000 		.4byte	0xa3
 2326 03d5 E0030000 		.4byte	0x3e0
 2327 03d9 0A       		.uleb128 0xa
 2328 03da 74000000 		.4byte	0x74
 2329 03de 00       		.byte	0
 2330 03df 00       		.byte	0
 2331 03e0 06       		.uleb128 0x6
 2332 03e1 C8030000 		.4byte	.LASF73
 2333 03e5 03       		.byte	0x3
 2334 03e6 7202     		.2byte	0x272
 2335 03e8 2B020000 		.4byte	0x22b
 2336 03ec 0C       		.uleb128 0xc
 2337 03ed 11000000 		.4byte	.LASF77
 2338 03f1 01       		.byte	0x1
 2339 03f2 56       		.byte	0x56
 2340 03f3 82000000 		.4byte	0x82
 2341 03f7 00000000 		.4byte	.LFB1
 2342 03fb F0000000 		.4byte	.LFE1-.LFB1
 2343 03ff 01       		.uleb128 0x1
 2344 0400 9C       		.byte	0x9c
 2345 0401 3E040000 		.4byte	0x43e
 2346 0405 0D       		.uleb128 0xd
 2347 0406 03040000 		.4byte	.LASF74
 2348 040a 01       		.byte	0x1
 2349 040b 56       		.byte	0x56
 2350 040c BE030000 		.4byte	0x3be
 2351 0410 02       		.uleb128 0x2
 2352 0411 91       		.byte	0x91
 2353 0412 6C       		.sleb128 -20
 2354 0413 0D       		.uleb128 0xd
 2355 0414 45050000 		.4byte	.LASF75
 2356 0418 01       		.byte	0x1
 2357 0419 57       		.byte	0x57
 2358 041a 4A010000 		.4byte	0x14a
 2359 041e 02       		.uleb128 0x2
 2360 041f 91       		.byte	0x91
 2361 0420 68       		.sleb128 -24
 2362 0421 0E       		.uleb128 0xe
 2363 0422 70637000 		.ascii	"pcp\000"
 2364 0426 01       		.byte	0x1
 2365 0427 59       		.byte	0x59
ARM GAS  C:\Users\ADMINI~1\AppData\Local\Temp\ccN77QmO.s 			page 56


 2366 0428 8D000000 		.4byte	0x8d
 2367 042c 02       		.uleb128 0x2
 2368 042d 91       		.byte	0x91
 2369 042e 73       		.sleb128 -13
 2370 042f 0F       		.uleb128 0xf
 2371 0430 4A050000 		.4byte	.LASF76
 2372 0434 01       		.byte	0x1
 2373 0435 5B       		.byte	0x5b
 2374 0436 C7000000 		.4byte	0xc7
 2375 043a 02       		.uleb128 0x2
 2376 043b 91       		.byte	0x91
 2377 043c 74       		.sleb128 -12
 2378 043d 00       		.byte	0
 2379 043e 0C       		.uleb128 0xc
 2380 043f 8C020000 		.4byte	.LASF78
 2381 0443 01       		.byte	0x1
 2382 0444 B1       		.byte	0xb1
 2383 0445 BE030000 		.4byte	0x3be
 2384 0449 00000000 		.4byte	.LFB2
 2385 044d 0C010000 		.4byte	.LFE2-.LFB2
 2386 0451 01       		.uleb128 0x1
 2387 0452 9C       		.byte	0x9c
 2388 0453 90040000 		.4byte	0x490
 2389 0457 0D       		.uleb128 0xd
 2390 0458 84050000 		.4byte	.LASF79
 2391 045c 01       		.byte	0x1
 2392 045d B1       		.byte	0xb1
 2393 045e 8D000000 		.4byte	0x8d
 2394 0462 02       		.uleb128 0x2
 2395 0463 91       		.byte	0x91
 2396 0464 6F       		.sleb128 -17
 2397 0465 0D       		.uleb128 0xd
 2398 0466 45050000 		.4byte	.LASF75
 2399 046a 01       		.byte	0x1
 2400 046b B2       		.byte	0xb2
 2401 046c 4A010000 		.4byte	0x14a
 2402 0470 02       		.uleb128 0x2
 2403 0471 91       		.byte	0x91
 2404 0472 68       		.sleb128 -24
 2405 0473 0F       		.uleb128 0xf
 2406 0474 03040000 		.4byte	.LASF74
 2407 0478 01       		.byte	0x1
 2408 0479 B4       		.byte	0xb4
 2409 047a BE030000 		.4byte	0x3be
 2410 047e 02       		.uleb128 0x2
 2411 047f 91       		.byte	0x91
 2412 0480 70       		.sleb128 -16
 2413 0481 0F       		.uleb128 0xf
 2414 0482 4A050000 		.4byte	.LASF76
 2415 0486 01       		.byte	0x1
 2416 0487 B6       		.byte	0xb6
 2417 0488 C7000000 		.4byte	0xc7
 2418 048c 02       		.uleb128 0x2
 2419 048d 91       		.byte	0x91
 2420 048e 74       		.sleb128 -12
 2421 048f 00       		.byte	0
 2422 0490 10       		.uleb128 0x10
ARM GAS  C:\Users\ADMINI~1\AppData\Local\Temp\ccN77QmO.s 			page 57


 2423 0491 BD030000 		.4byte	.LASF80
 2424 0495 01       		.byte	0x1
 2425 0496 1F01     		.2byte	0x11f
 2426 0498 BE030000 		.4byte	0x3be
 2427 049c 00000000 		.4byte	.LFB3
 2428 04a0 F0010000 		.4byte	.LFE3-.LFB3
 2429 04a4 01       		.uleb128 0x1
 2430 04a5 9C       		.byte	0x9c
 2431 04a6 32050000 		.4byte	0x532
 2432 04aa 11       		.uleb128 0x11
 2433 04ab 03040000 		.4byte	.LASF74
 2434 04af 01       		.byte	0x1
 2435 04b0 1F01     		.2byte	0x11f
 2436 04b2 BE030000 		.4byte	0x3be
 2437 04b6 02       		.uleb128 0x2
 2438 04b7 91       		.byte	0x91
 2439 04b8 5C       		.sleb128 -36
 2440 04b9 12       		.uleb128 0x12
 2441 04ba 6F707400 		.ascii	"opt\000"
 2442 04be 01       		.byte	0x1
 2443 04bf 2001     		.2byte	0x120
 2444 04c1 8D000000 		.4byte	0x8d
 2445 04c5 02       		.uleb128 0x2
 2446 04c6 91       		.byte	0x91
 2447 04c7 5B       		.sleb128 -37
 2448 04c8 11       		.uleb128 0x11
 2449 04c9 45050000 		.4byte	.LASF75
 2450 04cd 01       		.byte	0x1
 2451 04ce 2101     		.2byte	0x121
 2452 04d0 4A010000 		.4byte	0x14a
 2453 04d4 02       		.uleb128 0x2
 2454 04d5 91       		.byte	0x91
 2455 04d6 54       		.sleb128 -44
 2456 04d7 13       		.uleb128 0x13
 2457 04d8 68050000 		.4byte	.LASF81
 2458 04dc 01       		.byte	0x1
 2459 04dd 2301     		.2byte	0x123
 2460 04df 82000000 		.4byte	0x82
 2461 04e3 02       		.uleb128 0x2
 2462 04e4 91       		.byte	0x91
 2463 04e5 77       		.sleb128 -9
 2464 04e6 13       		.uleb128 0x13
 2465 04e7 1F000000 		.4byte	.LASF82
 2466 04eb 01       		.byte	0x1
 2467 04ec 2401     		.2byte	0x124
 2468 04ee BE030000 		.4byte	0x3be
 2469 04f2 02       		.uleb128 0x2
 2470 04f3 91       		.byte	0x91
 2471 04f4 70       		.sleb128 -16
 2472 04f5 14       		.uleb128 0x14
 2473 04f6 70637000 		.ascii	"pcp\000"
 2474 04fa 01       		.byte	0x1
 2475 04fb 2501     		.2byte	0x125
 2476 04fd 8D000000 		.4byte	0x8d
 2477 0501 02       		.uleb128 0x2
 2478 0502 91       		.byte	0x91
 2479 0503 6B       		.sleb128 -21
ARM GAS  C:\Users\ADMINI~1\AppData\Local\Temp\ccN77QmO.s 			page 58


 2480 0504 13       		.uleb128 0x13
 2481 0505 84050000 		.4byte	.LASF79
 2482 0509 01       		.byte	0x1
 2483 050a 2601     		.2byte	0x126
 2484 050c 8D000000 		.4byte	0x8d
 2485 0510 02       		.uleb128 0x2
 2486 0511 91       		.byte	0x91
 2487 0512 6A       		.sleb128 -22
 2488 0513 13       		.uleb128 0x13
 2489 0514 78000000 		.4byte	.LASF83
 2490 0518 01       		.byte	0x1
 2491 0519 2701     		.2byte	0x127
 2492 051b 32050000 		.4byte	0x532
 2493 051f 02       		.uleb128 0x2
 2494 0520 91       		.byte	0x91
 2495 0521 64       		.sleb128 -28
 2496 0522 13       		.uleb128 0x13
 2497 0523 4A050000 		.4byte	.LASF76
 2498 0527 01       		.byte	0x1
 2499 0528 2901     		.2byte	0x129
 2500 052a C7000000 		.4byte	0xc7
 2501 052e 02       		.uleb128 0x2
 2502 052f 91       		.byte	0x91
 2503 0530 6C       		.sleb128 -20
 2504 0531 00       		.byte	0
 2505 0532 0B       		.uleb128 0xb
 2506 0533 04       		.byte	0x4
 2507 0534 E0030000 		.4byte	0x3e0
 2508 0538 15       		.uleb128 0x15
 2509 0539 9A020000 		.4byte	.LASF103
 2510 053d 01       		.byte	0x1
 2511 053e B501     		.2byte	0x1b5
 2512 0540 00000000 		.4byte	.LFB4
 2513 0544 A8030000 		.4byte	.LFE4-.LFB4
 2514 0548 01       		.uleb128 0x1
 2515 0549 9C       		.byte	0x9c
 2516 054a E3050000 		.4byte	0x5e3
 2517 054e 11       		.uleb128 0x11
 2518 054f 03040000 		.4byte	.LASF74
 2519 0553 01       		.byte	0x1
 2520 0554 B501     		.2byte	0x1b5
 2521 0556 BE030000 		.4byte	0x3be
 2522 055a 02       		.uleb128 0x2
 2523 055b 91       		.byte	0x91
 2524 055c 5C       		.sleb128 -36
 2525 055d 11       		.uleb128 0x11
 2526 055e 89050000 		.4byte	.LASF84
 2527 0562 01       		.byte	0x1
 2528 0563 B601     		.2byte	0x1b6
 2529 0565 A3000000 		.4byte	0xa3
 2530 0569 02       		.uleb128 0x2
 2531 056a 91       		.byte	0x91
 2532 056b 58       		.sleb128 -40
 2533 056c 11       		.uleb128 0x11
 2534 056d 45050000 		.4byte	.LASF75
 2535 0571 01       		.byte	0x1
 2536 0572 B701     		.2byte	0x1b7
ARM GAS  C:\Users\ADMINI~1\AppData\Local\Temp\ccN77QmO.s 			page 59


 2537 0574 4A010000 		.4byte	0x14a
 2538 0578 02       		.uleb128 0x2
 2539 0579 91       		.byte	0x91
 2540 057a 54       		.sleb128 -44
 2541 057b 14       		.uleb128 0x14
 2542 057c 70637000 		.ascii	"pcp\000"
 2543 0580 01       		.byte	0x1
 2544 0581 B901     		.2byte	0x1b9
 2545 0583 8D000000 		.4byte	0x8d
 2546 0587 02       		.uleb128 0x2
 2547 0588 91       		.byte	0x91
 2548 0589 6F       		.sleb128 -17
 2549 058a 13       		.uleb128 0x13
 2550 058b 63030000 		.4byte	.LASF85
 2551 058f 01       		.byte	0x1
 2552 0590 BA01     		.2byte	0x1ba
 2553 0592 8D000000 		.4byte	0x8d
 2554 0596 02       		.uleb128 0x2
 2555 0597 91       		.byte	0x91
 2556 0598 6E       		.sleb128 -18
 2557 0599 14       		.uleb128 0x14
 2558 059a 72647900 		.ascii	"rdy\000"
 2559 059e 01       		.byte	0x1
 2560 059f BB01     		.2byte	0x1bb
 2561 05a1 82000000 		.4byte	0x82
 2562 05a5 02       		.uleb128 0x2
 2563 05a6 91       		.byte	0x91
 2564 05a7 77       		.sleb128 -9
 2565 05a8 13       		.uleb128 0x13
 2566 05a9 78000000 		.4byte	.LASF83
 2567 05ad 01       		.byte	0x1
 2568 05ae BC01     		.2byte	0x1bc
 2569 05b0 32050000 		.4byte	0x532
 2570 05b4 02       		.uleb128 0x2
 2571 05b5 91       		.byte	0x91
 2572 05b6 68       		.sleb128 -24
 2573 05b7 13       		.uleb128 0x13
 2574 05b8 D8010000 		.4byte	.LASF86
 2575 05bc 01       		.byte	0x1
 2576 05bd BD01     		.2byte	0x1bd
 2577 05bf BE030000 		.4byte	0x3be
 2578 05c3 02       		.uleb128 0x2
 2579 05c4 91       		.byte	0x91
 2580 05c5 60       		.sleb128 -32
 2581 05c6 14       		.uleb128 0x14
 2582 05c7 7900     		.ascii	"y\000"
 2583 05c9 01       		.byte	0x1
 2584 05ca BE01     		.2byte	0x1be
 2585 05cc 8D000000 		.4byte	0x8d
 2586 05d0 02       		.uleb128 0x2
 2587 05d1 91       		.byte	0x91
 2588 05d2 67       		.sleb128 -25
 2589 05d3 13       		.uleb128 0x13
 2590 05d4 4A050000 		.4byte	.LASF76
 2591 05d8 01       		.byte	0x1
 2592 05d9 C001     		.2byte	0x1c0
 2593 05db C7000000 		.4byte	0xc7
ARM GAS  C:\Users\ADMINI~1\AppData\Local\Temp\ccN77QmO.s 			page 60


 2594 05df 02       		.uleb128 0x2
 2595 05e0 91       		.byte	0x91
 2596 05e1 70       		.sleb128 -16
 2597 05e2 00       		.byte	0
 2598 05e3 10       		.uleb128 0x10
 2599 05e4 0A040000 		.4byte	.LASF87
 2600 05e8 01       		.byte	0x1
 2601 05e9 5702     		.2byte	0x257
 2602 05eb 8D000000 		.4byte	0x8d
 2603 05ef 00000000 		.4byte	.LFB5
 2604 05f3 5C010000 		.4byte	.LFE5-.LFB5
 2605 05f7 01       		.uleb128 0x1
 2606 05f8 9C       		.byte	0x9c
 2607 05f9 3A060000 		.4byte	0x63a
 2608 05fd 11       		.uleb128 0x11
 2609 05fe 03040000 		.4byte	.LASF74
 2610 0602 01       		.byte	0x1
 2611 0603 5702     		.2byte	0x257
 2612 0605 BE030000 		.4byte	0x3be
 2613 0609 02       		.uleb128 0x2
 2614 060a 91       		.byte	0x91
 2615 060b 64       		.sleb128 -28
 2616 060c 14       		.uleb128 0x14
 2617 060d 70637000 		.ascii	"pcp\000"
 2618 0611 01       		.byte	0x1
 2619 0612 5902     		.2byte	0x259
 2620 0614 8D000000 		.4byte	0x8d
 2621 0618 02       		.uleb128 0x2
 2622 0619 91       		.byte	0x91
 2623 061a 6B       		.sleb128 -21
 2624 061b 13       		.uleb128 0x13
 2625 061c 84050000 		.4byte	.LASF79
 2626 0620 01       		.byte	0x1
 2627 0621 5A02     		.2byte	0x25a
 2628 0623 8D000000 		.4byte	0x8d
 2629 0627 02       		.uleb128 0x2
 2630 0628 91       		.byte	0x91
 2631 0629 6A       		.sleb128 -22
 2632 062a 13       		.uleb128 0x13
 2633 062b 4A050000 		.4byte	.LASF76
 2634 062f 01       		.byte	0x1
 2635 0630 5C02     		.2byte	0x25c
 2636 0632 C7000000 		.4byte	0xc7
 2637 0636 02       		.uleb128 0x2
 2638 0637 91       		.byte	0x91
 2639 0638 6C       		.sleb128 -20
 2640 0639 00       		.byte	0
 2641 063a 10       		.uleb128 0x10
 2642 063b 5B050000 		.4byte	.LASF88
 2643 063f 01       		.byte	0x1
 2644 0640 A302     		.2byte	0x2a3
 2645 0642 8D000000 		.4byte	0x8d
 2646 0646 00000000 		.4byte	.LFB6
 2647 064a CC000000 		.4byte	.LFE6-.LFB6
 2648 064e 01       		.uleb128 0x1
 2649 064f 9C       		.byte	0x9c
 2650 0650 AD060000 		.4byte	0x6ad
ARM GAS  C:\Users\ADMINI~1\AppData\Local\Temp\ccN77QmO.s 			page 61


 2651 0654 11       		.uleb128 0x11
 2652 0655 03040000 		.4byte	.LASF74
 2653 0659 01       		.byte	0x1
 2654 065a A302     		.2byte	0x2a3
 2655 065c BE030000 		.4byte	0x3be
 2656 0660 02       		.uleb128 0x2
 2657 0661 91       		.byte	0x91
 2658 0662 64       		.sleb128 -28
 2659 0663 11       		.uleb128 0x11
 2660 0664 50040000 		.4byte	.LASF89
 2661 0668 01       		.byte	0x1
 2662 0669 A402     		.2byte	0x2a4
 2663 066b AD060000 		.4byte	0x6ad
 2664 066f 02       		.uleb128 0x2
 2665 0670 91       		.byte	0x91
 2666 0671 60       		.sleb128 -32
 2667 0672 14       		.uleb128 0x14
 2668 0673 6900     		.ascii	"i\000"
 2669 0675 01       		.byte	0x1
 2670 0676 A602     		.2byte	0x2a6
 2671 0678 8D000000 		.4byte	0x8d
 2672 067c 02       		.uleb128 0x2
 2673 067d 91       		.byte	0x91
 2674 067e 77       		.sleb128 -9
 2675 067f 13       		.uleb128 0x13
 2676 0680 21010000 		.4byte	.LASF90
 2677 0684 01       		.byte	0x1
 2678 0685 A702     		.2byte	0x2a7
 2679 0687 B3060000 		.4byte	0x6b3
 2680 068b 02       		.uleb128 0x2
 2681 068c 91       		.byte	0x91
 2682 068d 70       		.sleb128 -16
 2683 068e 13       		.uleb128 0x13
 2684 068f 3F050000 		.4byte	.LASF91
 2685 0693 01       		.byte	0x1
 2686 0694 A802     		.2byte	0x2a8
 2687 0696 B3060000 		.4byte	0x6b3
 2688 069a 02       		.uleb128 0x2
 2689 069b 91       		.byte	0x91
 2690 069c 6C       		.sleb128 -20
 2691 069d 13       		.uleb128 0x13
 2692 069e 4A050000 		.4byte	.LASF76
 2693 06a2 01       		.byte	0x1
 2694 06a3 AA02     		.2byte	0x2aa
 2695 06a5 C7000000 		.4byte	0xc7
 2696 06a9 02       		.uleb128 0x2
 2697 06aa 91       		.byte	0x91
 2698 06ab 68       		.sleb128 -24
 2699 06ac 00       		.byte	0
 2700 06ad 0B       		.uleb128 0xb
 2701 06ae 04       		.byte	0x4
 2702 06af 1F020000 		.4byte	0x21f
 2703 06b3 0B       		.uleb128 0xb
 2704 06b4 04       		.byte	0x4
 2705 06b5 D2000000 		.4byte	0xd2
 2706 06b9 16       		.uleb128 0x16
 2707 06ba 18050000 		.4byte	.LASF104
ARM GAS  C:\Users\ADMINI~1\AppData\Local\Temp\ccN77QmO.s 			page 62


 2708 06be 01       		.byte	0x1
 2709 06bf DF02     		.2byte	0x2df
 2710 06c1 00000000 		.4byte	.LFB7
 2711 06c5 18010000 		.4byte	.LFE7-.LFB7
 2712 06c9 01       		.uleb128 0x1
 2713 06ca 9C       		.byte	0x9c
 2714 06cb FB060000 		.4byte	0x6fb
 2715 06cf 11       		.uleb128 0x11
 2716 06d0 78000000 		.4byte	.LASF83
 2717 06d4 01       		.byte	0x1
 2718 06d5 DF02     		.2byte	0x2df
 2719 06d7 32050000 		.4byte	0x532
 2720 06db 02       		.uleb128 0x2
 2721 06dc 91       		.byte	0x91
 2722 06dd 6C       		.sleb128 -20
 2723 06de 11       		.uleb128 0x11
 2724 06df 84050000 		.4byte	.LASF79
 2725 06e3 01       		.byte	0x1
 2726 06e4 E002     		.2byte	0x2e0
 2727 06e6 8D000000 		.4byte	0x8d
 2728 06ea 02       		.uleb128 0x2
 2729 06eb 91       		.byte	0x91
 2730 06ec 6B       		.sleb128 -21
 2731 06ed 14       		.uleb128 0x14
 2732 06ee 7900     		.ascii	"y\000"
 2733 06f0 01       		.byte	0x1
 2734 06f1 E202     		.2byte	0x2e2
 2735 06f3 8D000000 		.4byte	0x8d
 2736 06f7 02       		.uleb128 0x2
 2737 06f8 91       		.byte	0x91
 2738 06f9 77       		.sleb128 -9
 2739 06fa 00       		.byte	0
 2740 06fb 17       		.uleb128 0x17
 2741 06fc 26010000 		.4byte	.LASF92
 2742 0700 03       		.byte	0x3
 2743 0701 B302     		.2byte	0x2b3
 2744 0703 BE030000 		.4byte	0x3be
 2745 0707 17       		.uleb128 0x17
 2746 0708 E8000000 		.4byte	.LASF93
 2747 070c 03       		.byte	0x3
 2748 070d C402     		.2byte	0x2c4
 2749 070f 8D000000 		.4byte	0x8d
 2750 0713 17       		.uleb128 0x17
 2751 0714 E2040000 		.4byte	.LASF94
 2752 0718 03       		.byte	0x3
 2753 0719 C602     		.2byte	0x2c6
 2754 071b 8D000000 		.4byte	0x8d
 2755 071f 17       		.uleb128 0x17
 2756 0720 9C000000 		.4byte	.LASF95
 2757 0724 03       		.byte	0x3
 2758 0725 C802     		.2byte	0x2c8
 2759 0727 8D000000 		.4byte	0x8d
 2760 072b 17       		.uleb128 0x17
 2761 072c AC010000 		.4byte	.LASF96
 2762 0730 03       		.byte	0x3
 2763 0731 CB02     		.2byte	0x2cb
 2764 0733 D2000000 		.4byte	0xd2
ARM GAS  C:\Users\ADMINI~1\AppData\Local\Temp\ccN77QmO.s 			page 63


 2765 0737 17       		.uleb128 0x17
 2766 0738 8A030000 		.4byte	.LASF97
 2767 073c 03       		.byte	0x3
 2768 073d CC02     		.2byte	0x2cc
 2769 073f 3A010000 		.4byte	0x13a
 2770 0743 17       		.uleb128 0x17
 2771 0744 08050000 		.4byte	.LASF98
 2772 0748 03       		.byte	0x3
 2773 0749 DB02     		.2byte	0x2db
 2774 074b 32050000 		.4byte	0x532
 2775 074f 09       		.uleb128 0x9
 2776 0750 32050000 		.4byte	0x532
 2777 0754 5F070000 		.4byte	0x75f
 2778 0758 0A       		.uleb128 0xa
 2779 0759 74000000 		.4byte	0x74
 2780 075d 3F       		.byte	0x3f
 2781 075e 00       		.byte	0
 2782 075f 17       		.uleb128 0x17
 2783 0760 93030000 		.4byte	.LASF99
 2784 0764 03       		.byte	0x3
 2785 0765 DF02     		.2byte	0x2df
 2786 0767 4F070000 		.4byte	0x74f
 2787 076b 00       		.byte	0
 2788              		.section	.debug_abbrev,"",%progbits
 2789              	.Ldebug_abbrev0:
 2790 0000 01       		.uleb128 0x1
 2791 0001 11       		.uleb128 0x11
 2792 0002 01       		.byte	0x1
 2793 0003 25       		.uleb128 0x25
 2794 0004 0E       		.uleb128 0xe
 2795 0005 13       		.uleb128 0x13
 2796 0006 0B       		.uleb128 0xb
 2797 0007 03       		.uleb128 0x3
 2798 0008 0E       		.uleb128 0xe
 2799 0009 1B       		.uleb128 0x1b
 2800 000a 0E       		.uleb128 0xe
 2801 000b 55       		.uleb128 0x55
 2802 000c 17       		.uleb128 0x17
 2803 000d 11       		.uleb128 0x11
 2804 000e 01       		.uleb128 0x1
 2805 000f 10       		.uleb128 0x10
 2806 0010 17       		.uleb128 0x17
 2807 0011 00       		.byte	0
 2808 0012 00       		.byte	0
 2809 0013 02       		.uleb128 0x2
 2810 0014 24       		.uleb128 0x24
 2811 0015 00       		.byte	0
 2812 0016 0B       		.uleb128 0xb
 2813 0017 0B       		.uleb128 0xb
 2814 0018 3E       		.uleb128 0x3e
 2815 0019 0B       		.uleb128 0xb
 2816 001a 03       		.uleb128 0x3
 2817 001b 0E       		.uleb128 0xe
 2818 001c 00       		.byte	0
 2819 001d 00       		.byte	0
 2820 001e 03       		.uleb128 0x3
 2821 001f 24       		.uleb128 0x24
ARM GAS  C:\Users\ADMINI~1\AppData\Local\Temp\ccN77QmO.s 			page 64


 2822 0020 00       		.byte	0
 2823 0021 0B       		.uleb128 0xb
 2824 0022 0B       		.uleb128 0xb
 2825 0023 3E       		.uleb128 0x3e
 2826 0024 0B       		.uleb128 0xb
 2827 0025 03       		.uleb128 0x3
 2828 0026 08       		.uleb128 0x8
 2829 0027 00       		.byte	0
 2830 0028 00       		.byte	0
 2831 0029 04       		.uleb128 0x4
 2832 002a 0F       		.uleb128 0xf
 2833 002b 00       		.byte	0
 2834 002c 0B       		.uleb128 0xb
 2835 002d 0B       		.uleb128 0xb
 2836 002e 00       		.byte	0
 2837 002f 00       		.byte	0
 2838 0030 05       		.uleb128 0x5
 2839 0031 16       		.uleb128 0x16
 2840 0032 00       		.byte	0
 2841 0033 03       		.uleb128 0x3
 2842 0034 0E       		.uleb128 0xe
 2843 0035 3A       		.uleb128 0x3a
 2844 0036 0B       		.uleb128 0xb
 2845 0037 3B       		.uleb128 0x3b
 2846 0038 0B       		.uleb128 0xb
 2847 0039 49       		.uleb128 0x49
 2848 003a 13       		.uleb128 0x13
 2849 003b 00       		.byte	0
 2850 003c 00       		.byte	0
 2851 003d 06       		.uleb128 0x6
 2852 003e 16       		.uleb128 0x16
 2853 003f 00       		.byte	0
 2854 0040 03       		.uleb128 0x3
 2855 0041 0E       		.uleb128 0xe
 2856 0042 3A       		.uleb128 0x3a
 2857 0043 0B       		.uleb128 0xb
 2858 0044 3B       		.uleb128 0x3b
 2859 0045 05       		.uleb128 0x5
 2860 0046 49       		.uleb128 0x49
 2861 0047 13       		.uleb128 0x13
 2862 0048 00       		.byte	0
 2863 0049 00       		.byte	0
 2864 004a 07       		.uleb128 0x7
 2865 004b 13       		.uleb128 0x13
 2866 004c 01       		.byte	0x1
 2867 004d 03       		.uleb128 0x3
 2868 004e 0E       		.uleb128 0xe
 2869 004f 0B       		.uleb128 0xb
 2870 0050 0B       		.uleb128 0xb
 2871 0051 3A       		.uleb128 0x3a
 2872 0052 0B       		.uleb128 0xb
 2873 0053 3B       		.uleb128 0x3b
 2874 0054 05       		.uleb128 0x5
 2875 0055 01       		.uleb128 0x1
 2876 0056 13       		.uleb128 0x13
 2877 0057 00       		.byte	0
 2878 0058 00       		.byte	0
ARM GAS  C:\Users\ADMINI~1\AppData\Local\Temp\ccN77QmO.s 			page 65


 2879 0059 08       		.uleb128 0x8
 2880 005a 0D       		.uleb128 0xd
 2881 005b 00       		.byte	0
 2882 005c 03       		.uleb128 0x3
 2883 005d 0E       		.uleb128 0xe
 2884 005e 3A       		.uleb128 0x3a
 2885 005f 0B       		.uleb128 0xb
 2886 0060 3B       		.uleb128 0x3b
 2887 0061 05       		.uleb128 0x5
 2888 0062 49       		.uleb128 0x49
 2889 0063 13       		.uleb128 0x13
 2890 0064 38       		.uleb128 0x38
 2891 0065 0B       		.uleb128 0xb
 2892 0066 00       		.byte	0
 2893 0067 00       		.byte	0
 2894 0068 09       		.uleb128 0x9
 2895 0069 01       		.uleb128 0x1
 2896 006a 01       		.byte	0x1
 2897 006b 49       		.uleb128 0x49
 2898 006c 13       		.uleb128 0x13
 2899 006d 01       		.uleb128 0x1
 2900 006e 13       		.uleb128 0x13
 2901 006f 00       		.byte	0
 2902 0070 00       		.byte	0
 2903 0071 0A       		.uleb128 0xa
 2904 0072 21       		.uleb128 0x21
 2905 0073 00       		.byte	0
 2906 0074 49       		.uleb128 0x49
 2907 0075 13       		.uleb128 0x13
 2908 0076 2F       		.uleb128 0x2f
 2909 0077 0B       		.uleb128 0xb
 2910 0078 00       		.byte	0
 2911 0079 00       		.byte	0
 2912 007a 0B       		.uleb128 0xb
 2913 007b 0F       		.uleb128 0xf
 2914 007c 00       		.byte	0
 2915 007d 0B       		.uleb128 0xb
 2916 007e 0B       		.uleb128 0xb
 2917 007f 49       		.uleb128 0x49
 2918 0080 13       		.uleb128 0x13
 2919 0081 00       		.byte	0
 2920 0082 00       		.byte	0
 2921 0083 0C       		.uleb128 0xc
 2922 0084 2E       		.uleb128 0x2e
 2923 0085 01       		.byte	0x1
 2924 0086 3F       		.uleb128 0x3f
 2925 0087 19       		.uleb128 0x19
 2926 0088 03       		.uleb128 0x3
 2927 0089 0E       		.uleb128 0xe
 2928 008a 3A       		.uleb128 0x3a
 2929 008b 0B       		.uleb128 0xb
 2930 008c 3B       		.uleb128 0x3b
 2931 008d 0B       		.uleb128 0xb
 2932 008e 27       		.uleb128 0x27
 2933 008f 19       		.uleb128 0x19
 2934 0090 49       		.uleb128 0x49
 2935 0091 13       		.uleb128 0x13
ARM GAS  C:\Users\ADMINI~1\AppData\Local\Temp\ccN77QmO.s 			page 66


 2936 0092 11       		.uleb128 0x11
 2937 0093 01       		.uleb128 0x1
 2938 0094 12       		.uleb128 0x12
 2939 0095 06       		.uleb128 0x6
 2940 0096 40       		.uleb128 0x40
 2941 0097 18       		.uleb128 0x18
 2942 0098 9642     		.uleb128 0x2116
 2943 009a 19       		.uleb128 0x19
 2944 009b 01       		.uleb128 0x1
 2945 009c 13       		.uleb128 0x13
 2946 009d 00       		.byte	0
 2947 009e 00       		.byte	0
 2948 009f 0D       		.uleb128 0xd
 2949 00a0 05       		.uleb128 0x5
 2950 00a1 00       		.byte	0
 2951 00a2 03       		.uleb128 0x3
 2952 00a3 0E       		.uleb128 0xe
 2953 00a4 3A       		.uleb128 0x3a
 2954 00a5 0B       		.uleb128 0xb
 2955 00a6 3B       		.uleb128 0x3b
 2956 00a7 0B       		.uleb128 0xb
 2957 00a8 49       		.uleb128 0x49
 2958 00a9 13       		.uleb128 0x13
 2959 00aa 02       		.uleb128 0x2
 2960 00ab 18       		.uleb128 0x18
 2961 00ac 00       		.byte	0
 2962 00ad 00       		.byte	0
 2963 00ae 0E       		.uleb128 0xe
 2964 00af 34       		.uleb128 0x34
 2965 00b0 00       		.byte	0
 2966 00b1 03       		.uleb128 0x3
 2967 00b2 08       		.uleb128 0x8
 2968 00b3 3A       		.uleb128 0x3a
 2969 00b4 0B       		.uleb128 0xb
 2970 00b5 3B       		.uleb128 0x3b
 2971 00b6 0B       		.uleb128 0xb
 2972 00b7 49       		.uleb128 0x49
 2973 00b8 13       		.uleb128 0x13
 2974 00b9 02       		.uleb128 0x2
 2975 00ba 18       		.uleb128 0x18
 2976 00bb 00       		.byte	0
 2977 00bc 00       		.byte	0
 2978 00bd 0F       		.uleb128 0xf
 2979 00be 34       		.uleb128 0x34
 2980 00bf 00       		.byte	0
 2981 00c0 03       		.uleb128 0x3
 2982 00c1 0E       		.uleb128 0xe
 2983 00c2 3A       		.uleb128 0x3a
 2984 00c3 0B       		.uleb128 0xb
 2985 00c4 3B       		.uleb128 0x3b
 2986 00c5 0B       		.uleb128 0xb
 2987 00c6 49       		.uleb128 0x49
 2988 00c7 13       		.uleb128 0x13
 2989 00c8 02       		.uleb128 0x2
 2990 00c9 18       		.uleb128 0x18
 2991 00ca 00       		.byte	0
 2992 00cb 00       		.byte	0
ARM GAS  C:\Users\ADMINI~1\AppData\Local\Temp\ccN77QmO.s 			page 67


 2993 00cc 10       		.uleb128 0x10
 2994 00cd 2E       		.uleb128 0x2e
 2995 00ce 01       		.byte	0x1
 2996 00cf 3F       		.uleb128 0x3f
 2997 00d0 19       		.uleb128 0x19
 2998 00d1 03       		.uleb128 0x3
 2999 00d2 0E       		.uleb128 0xe
 3000 00d3 3A       		.uleb128 0x3a
 3001 00d4 0B       		.uleb128 0xb
 3002 00d5 3B       		.uleb128 0x3b
 3003 00d6 05       		.uleb128 0x5
 3004 00d7 27       		.uleb128 0x27
 3005 00d8 19       		.uleb128 0x19
 3006 00d9 49       		.uleb128 0x49
 3007 00da 13       		.uleb128 0x13
 3008 00db 11       		.uleb128 0x11
 3009 00dc 01       		.uleb128 0x1
 3010 00dd 12       		.uleb128 0x12
 3011 00de 06       		.uleb128 0x6
 3012 00df 40       		.uleb128 0x40
 3013 00e0 18       		.uleb128 0x18
 3014 00e1 9642     		.uleb128 0x2116
 3015 00e3 19       		.uleb128 0x19
 3016 00e4 01       		.uleb128 0x1
 3017 00e5 13       		.uleb128 0x13
 3018 00e6 00       		.byte	0
 3019 00e7 00       		.byte	0
 3020 00e8 11       		.uleb128 0x11
 3021 00e9 05       		.uleb128 0x5
 3022 00ea 00       		.byte	0
 3023 00eb 03       		.uleb128 0x3
 3024 00ec 0E       		.uleb128 0xe
 3025 00ed 3A       		.uleb128 0x3a
 3026 00ee 0B       		.uleb128 0xb
 3027 00ef 3B       		.uleb128 0x3b
 3028 00f0 05       		.uleb128 0x5
 3029 00f1 49       		.uleb128 0x49
 3030 00f2 13       		.uleb128 0x13
 3031 00f3 02       		.uleb128 0x2
 3032 00f4 18       		.uleb128 0x18
 3033 00f5 00       		.byte	0
 3034 00f6 00       		.byte	0
 3035 00f7 12       		.uleb128 0x12
 3036 00f8 05       		.uleb128 0x5
 3037 00f9 00       		.byte	0
 3038 00fa 03       		.uleb128 0x3
 3039 00fb 08       		.uleb128 0x8
 3040 00fc 3A       		.uleb128 0x3a
 3041 00fd 0B       		.uleb128 0xb
 3042 00fe 3B       		.uleb128 0x3b
 3043 00ff 05       		.uleb128 0x5
 3044 0100 49       		.uleb128 0x49
 3045 0101 13       		.uleb128 0x13
 3046 0102 02       		.uleb128 0x2
 3047 0103 18       		.uleb128 0x18
 3048 0104 00       		.byte	0
 3049 0105 00       		.byte	0
ARM GAS  C:\Users\ADMINI~1\AppData\Local\Temp\ccN77QmO.s 			page 68


 3050 0106 13       		.uleb128 0x13
 3051 0107 34       		.uleb128 0x34
 3052 0108 00       		.byte	0
 3053 0109 03       		.uleb128 0x3
 3054 010a 0E       		.uleb128 0xe
 3055 010b 3A       		.uleb128 0x3a
 3056 010c 0B       		.uleb128 0xb
 3057 010d 3B       		.uleb128 0x3b
 3058 010e 05       		.uleb128 0x5
 3059 010f 49       		.uleb128 0x49
 3060 0110 13       		.uleb128 0x13
 3061 0111 02       		.uleb128 0x2
 3062 0112 18       		.uleb128 0x18
 3063 0113 00       		.byte	0
 3064 0114 00       		.byte	0
 3065 0115 14       		.uleb128 0x14
 3066 0116 34       		.uleb128 0x34
 3067 0117 00       		.byte	0
 3068 0118 03       		.uleb128 0x3
 3069 0119 08       		.uleb128 0x8
 3070 011a 3A       		.uleb128 0x3a
 3071 011b 0B       		.uleb128 0xb
 3072 011c 3B       		.uleb128 0x3b
 3073 011d 05       		.uleb128 0x5
 3074 011e 49       		.uleb128 0x49
 3075 011f 13       		.uleb128 0x13
 3076 0120 02       		.uleb128 0x2
 3077 0121 18       		.uleb128 0x18
 3078 0122 00       		.byte	0
 3079 0123 00       		.byte	0
 3080 0124 15       		.uleb128 0x15
 3081 0125 2E       		.uleb128 0x2e
 3082 0126 01       		.byte	0x1
 3083 0127 3F       		.uleb128 0x3f
 3084 0128 19       		.uleb128 0x19
 3085 0129 03       		.uleb128 0x3
 3086 012a 0E       		.uleb128 0xe
 3087 012b 3A       		.uleb128 0x3a
 3088 012c 0B       		.uleb128 0xb
 3089 012d 3B       		.uleb128 0x3b
 3090 012e 05       		.uleb128 0x5
 3091 012f 27       		.uleb128 0x27
 3092 0130 19       		.uleb128 0x19
 3093 0131 11       		.uleb128 0x11
 3094 0132 01       		.uleb128 0x1
 3095 0133 12       		.uleb128 0x12
 3096 0134 06       		.uleb128 0x6
 3097 0135 40       		.uleb128 0x40
 3098 0136 18       		.uleb128 0x18
 3099 0137 9642     		.uleb128 0x2116
 3100 0139 19       		.uleb128 0x19
 3101 013a 01       		.uleb128 0x1
 3102 013b 13       		.uleb128 0x13
 3103 013c 00       		.byte	0
 3104 013d 00       		.byte	0
 3105 013e 16       		.uleb128 0x16
 3106 013f 2E       		.uleb128 0x2e
ARM GAS  C:\Users\ADMINI~1\AppData\Local\Temp\ccN77QmO.s 			page 69


 3107 0140 01       		.byte	0x1
 3108 0141 03       		.uleb128 0x3
 3109 0142 0E       		.uleb128 0xe
 3110 0143 3A       		.uleb128 0x3a
 3111 0144 0B       		.uleb128 0xb
 3112 0145 3B       		.uleb128 0x3b
 3113 0146 05       		.uleb128 0x5
 3114 0147 27       		.uleb128 0x27
 3115 0148 19       		.uleb128 0x19
 3116 0149 11       		.uleb128 0x11
 3117 014a 01       		.uleb128 0x1
 3118 014b 12       		.uleb128 0x12
 3119 014c 06       		.uleb128 0x6
 3120 014d 40       		.uleb128 0x40
 3121 014e 18       		.uleb128 0x18
 3122 014f 9742     		.uleb128 0x2117
 3123 0151 19       		.uleb128 0x19
 3124 0152 01       		.uleb128 0x1
 3125 0153 13       		.uleb128 0x13
 3126 0154 00       		.byte	0
 3127 0155 00       		.byte	0
 3128 0156 17       		.uleb128 0x17
 3129 0157 34       		.uleb128 0x34
 3130 0158 00       		.byte	0
 3131 0159 03       		.uleb128 0x3
 3132 015a 0E       		.uleb128 0xe
 3133 015b 3A       		.uleb128 0x3a
 3134 015c 0B       		.uleb128 0xb
 3135 015d 3B       		.uleb128 0x3b
 3136 015e 05       		.uleb128 0x5
 3137 015f 49       		.uleb128 0x49
 3138 0160 13       		.uleb128 0x13
 3139 0161 3F       		.uleb128 0x3f
 3140 0162 19       		.uleb128 0x19
 3141 0163 3C       		.uleb128 0x3c
 3142 0164 19       		.uleb128 0x19
 3143 0165 00       		.byte	0
 3144 0166 00       		.byte	0
 3145 0167 00       		.byte	0
 3146              		.section	.debug_aranges,"",%progbits
 3147 0000 4C000000 		.4byte	0x4c
 3148 0004 0200     		.2byte	0x2
 3149 0006 00000000 		.4byte	.Ldebug_info0
 3150 000a 04       		.byte	0x4
 3151 000b 00       		.byte	0
 3152 000c 0000     		.2byte	0
 3153 000e 0000     		.2byte	0
 3154 0010 00000000 		.4byte	.LFB1
 3155 0014 F0000000 		.4byte	.LFE1-.LFB1
 3156 0018 00000000 		.4byte	.LFB2
 3157 001c 0C010000 		.4byte	.LFE2-.LFB2
 3158 0020 00000000 		.4byte	.LFB3
 3159 0024 F0010000 		.4byte	.LFE3-.LFB3
 3160 0028 00000000 		.4byte	.LFB4
 3161 002c A8030000 		.4byte	.LFE4-.LFB4
 3162 0030 00000000 		.4byte	.LFB5
 3163 0034 5C010000 		.4byte	.LFE5-.LFB5
ARM GAS  C:\Users\ADMINI~1\AppData\Local\Temp\ccN77QmO.s 			page 70


 3164 0038 00000000 		.4byte	.LFB6
 3165 003c CC000000 		.4byte	.LFE6-.LFB6
 3166 0040 00000000 		.4byte	.LFB7
 3167 0044 18010000 		.4byte	.LFE7-.LFB7
 3168 0048 00000000 		.4byte	0
 3169 004c 00000000 		.4byte	0
 3170              		.section	.debug_ranges,"",%progbits
 3171              	.Ldebug_ranges0:
 3172 0000 00000000 		.4byte	.LFB1
 3173 0004 F0000000 		.4byte	.LFE1
 3174 0008 00000000 		.4byte	.LFB2
 3175 000c 0C010000 		.4byte	.LFE2
 3176 0010 00000000 		.4byte	.LFB3
 3177 0014 F0010000 		.4byte	.LFE3
 3178 0018 00000000 		.4byte	.LFB4
 3179 001c A8030000 		.4byte	.LFE4
 3180 0020 00000000 		.4byte	.LFB5
 3181 0024 5C010000 		.4byte	.LFE5
 3182 0028 00000000 		.4byte	.LFB6
 3183 002c CC000000 		.4byte	.LFE6
 3184 0030 00000000 		.4byte	.LFB7
 3185 0034 18010000 		.4byte	.LFE7
 3186 0038 00000000 		.4byte	0
 3187 003c 00000000 		.4byte	0
 3188              		.section	.debug_line,"",%progbits
 3189              	.Ldebug_line0:
 3190 0000 63020000 		.section	.debug_str,"MS",%progbits,1
 3190      0200A700 
 3190      00000201 
 3190      FB0E0D00 
 3190      01010101 
 3191              	.LASF39:
 3192 0000 4F535661 		.ascii	"OSValue\000"
 3192      6C756500 
 3193              	.LASF28:
 3194 0008 4F535F46 		.ascii	"OS_FLAGS\000"
 3194      4C414753 
 3194      00
 3195              	.LASF77:
 3196 0011 4F534D75 		.ascii	"OSMutexAccept\000"
 3196      74657841 
 3196      63636570 
 3196      7400
 3197              	.LASF82:
 3198 001f 70657665 		.ascii	"pevent_return\000"
 3198      6E745F72 
 3198      65747572 
 3198      6E00
 3199              	.LASF41:
 3200 002d 4F534D75 		.ascii	"OSMutexPCP\000"
 3200      74657850 
 3200      435000
 3201              	.LASF69:
 3202 0038 4F535443 		.ascii	"OSTCBStkBase\000"
 3202      4253746B 
 3202      42617365 
 3202      00
ARM GAS  C:\Users\ADMINI~1\AppData\Local\Temp\ccN77QmO.s 			page 71


 3203              	.LASF34:
 3204 0045 4F53466C 		.ascii	"OSFlagNodeFlagGrp\000"
 3204      61674E6F 
 3204      6465466C 
 3204      61674772 
 3204      7000
 3205              	.LASF65:
 3206 0057 4F535443 		.ascii	"OSTCBDelReq\000"
 3206      4244656C 
 3206      52657100 
 3207              	.LASF40:
 3208 0063 4F534F77 		.ascii	"OSOwnerPrio\000"
 3208      6E657250 
 3208      72696F00 
 3209              	.LASF54:
 3210 006f 4F535443 		.ascii	"OSTCBMsg\000"
 3210      424D7367 
 3210      00
 3211              	.LASF83:
 3212 0078 70746362 		.ascii	"ptcb\000"
 3212      00
 3213              	.LASF2:
 3214 007d 73686F72 		.ascii	"short int\000"
 3214      7420696E 
 3214      7400
 3215              	.LASF26:
 3216 0087 4F534576 		.ascii	"OSEventName\000"
 3216      656E744E 
 3216      616D6500 
 3217              	.LASF10:
 3218 0093 73697A65 		.ascii	"sizetype\000"
 3218      74797065 
 3218      00
 3219              	.LASF95:
 3220 009c 4F535072 		.ascii	"OSPrioCur\000"
 3220      696F4375 
 3220      7200
 3221              	.LASF18:
 3222 00a6 4F535F53 		.ascii	"OS_STK\000"
 3222      544B00
 3223              	.LASF19:
 3224 00ad 4F535F43 		.ascii	"OS_CPU_SR\000"
 3224      50555F53 
 3224      5200
 3225              	.LASF30:
 3226 00b7 6F735F66 		.ascii	"os_flag_node\000"
 3226      6C61675F 
 3226      6E6F6465 
 3226      00
 3227              	.LASF70:
 3228 00c4 4F535443 		.ascii	"OSTCBStkUsed\000"
 3228      4253746B 
 3228      55736564 
 3228      00
 3229              	.LASF59:
 3230 00d1 4F535443 		.ascii	"OSTCBStatPend\000"
 3230      42537461 
ARM GAS  C:\Users\ADMINI~1\AppData\Local\Temp\ccN77QmO.s 			page 72


 3230      7450656E 
 3230      6400
 3231              	.LASF29:
 3232 00df 6F735F65 		.ascii	"os_event\000"
 3232      76656E74 
 3232      00
 3233              	.LASF93:
 3234 00e8 4F53496E 		.ascii	"OSIntNesting\000"
 3234      744E6573 
 3234      74696E67 
 3234      00
 3235              	.LASF42:
 3236 00f5 4F535F4D 		.ascii	"OS_MUTEX_DATA\000"
 3236      55544558 
 3236      5F444154 
 3236      4100
 3237              	.LASF17:
 3238 0103 646F7562 		.ascii	"double\000"
 3238      6C6500
 3239              	.LASF23:
 3240 010a 4F534576 		.ascii	"OSEventCnt\000"
 3240      656E7443 
 3240      6E7400
 3241              	.LASF44:
 3242 0115 4F535443 		.ascii	"OSTCBStkPtr\000"
 3242      4253746B 
 3242      50747200 
 3243              	.LASF90:
 3244 0121 70737263 		.ascii	"psrc\000"
 3244      00
 3245              	.LASF92:
 3246 0126 4F534576 		.ascii	"OSEventFreeList\000"
 3246      656E7446 
 3246      7265654C 
 3246      69737400 
 3247              	.LASF15:
 3248 0136 494E5433 		.ascii	"INT32U\000"
 3248      325500
 3249              	.LASF60:
 3250 013d 4F535443 		.ascii	"OSTCBPrio\000"
 3250      42507269 
 3250      6F00
 3251              	.LASF50:
 3252 0147 4F535443 		.ascii	"OSTCBNext\000"
 3252      424E6578 
 3252      7400
 3253              	.LASF22:
 3254 0151 4F534576 		.ascii	"OSEventPtr\000"
 3254      656E7450 
 3254      747200
 3255              	.LASF0:
 3256 015c 7369676E 		.ascii	"signed char\000"
 3256      65642063 
 3256      68617200 
 3257              	.LASF16:
 3258 0168 666C6F61 		.ascii	"float\000"
 3258      7400
ARM GAS  C:\Users\ADMINI~1\AppData\Local\Temp\ccN77QmO.s 			page 73


 3259              	.LASF55:
 3260 016e 4F535443 		.ascii	"OSTCBFlagNode\000"
 3260      42466C61 
 3260      674E6F64 
 3260      6500
 3261              	.LASF57:
 3262 017c 4F535443 		.ascii	"OSTCBDly\000"
 3262      42446C79 
 3262      00
 3263              	.LASF6:
 3264 0185 6C6F6E67 		.ascii	"long long int\000"
 3264      206C6F6E 
 3264      6720696E 
 3264      7400
 3265              	.LASF27:
 3266 0193 4F535F45 		.ascii	"OS_EVENT\000"
 3266      56454E54 
 3266      00
 3267              	.LASF4:
 3268 019c 6C6F6E67 		.ascii	"long int\000"
 3268      20696E74 
 3268      00
 3269              	.LASF61:
 3270 01a5 4F535443 		.ascii	"OSTCBX\000"
 3270      425800
 3271              	.LASF96:
 3272 01ac 4F535264 		.ascii	"OSRdyGrp\000"
 3272      79477270 
 3272      00
 3273              	.LASF49:
 3274 01b5 4F535443 		.ascii	"OSTCBId\000"
 3274      42496400 
 3275              	.LASF1:
 3276 01bd 756E7369 		.ascii	"unsigned char\000"
 3276      676E6564 
 3276      20636861 
 3276      7200
 3277              	.LASF47:
 3278 01cb 4F535443 		.ascii	"OSTCBStkSize\000"
 3278      4253746B 
 3278      53697A65 
 3278      00
 3279              	.LASF86:
 3280 01d8 70657665 		.ascii	"pevent2\000"
 3280      6E743200 
 3281              	.LASF43:
 3282 01e0 6F735F74 		.ascii	"os_tcb\000"
 3282      636200
 3283              	.LASF13:
 3284 01e7 494E5438 		.ascii	"INT8U\000"
 3284      5500
 3285              	.LASF100:
 3286 01ed 474E5520 		.ascii	"GNU C11 5.4.1 20160609 (release) [ARM/embedded-5-br"
 3286      43313120 
 3286      352E342E 
 3286      31203230 
 3286      31363036 
ARM GAS  C:\Users\ADMINI~1\AppData\Local\Temp\ccN77QmO.s 			page 74


 3287 0220 616E6368 		.ascii	"anch revision 237715] -mcpu=cortex-m0 -mthumb -g -O"
 3287      20726576 
 3287      6973696F 
 3287      6E203233 
 3287      37373135 
 3288 0253 30202D66 		.ascii	"0 -ffunction-sections -ffat-lto-objects\000"
 3288      66756E63 
 3288      74696F6E 
 3288      2D736563 
 3288      74696F6E 
 3289              	.LASF68:
 3290 027b 4F535443 		.ascii	"OSTCBCyclesStart\000"
 3290      42437963 
 3290      6C657353 
 3290      74617274 
 3290      00
 3291              	.LASF78:
 3292 028c 4F534D75 		.ascii	"OSMutexCreate\000"
 3292      74657843 
 3292      72656174 
 3292      6500
 3293              	.LASF103:
 3294 029a 4F534D75 		.ascii	"OSMutexPend\000"
 3294      74657850 
 3294      656E6400 
 3295              	.LASF9:
 3296 02a6 6C6F6E67 		.ascii	"long double\000"
 3296      20646F75 
 3296      626C6500 
 3297              	.LASF66:
 3298 02b2 4F535443 		.ascii	"OSTCBCtxSwCtr\000"
 3298      42437478 
 3298      53774374 
 3298      7200
 3299              	.LASF35:
 3300 02c0 4F53466C 		.ascii	"OSFlagNodeFlags\000"
 3300      61674E6F 
 3300      6465466C 
 3300      61677300 
 3301              	.LASF36:
 3302 02d0 4F53466C 		.ascii	"OSFlagNodeWaitType\000"
 3302      61674E6F 
 3302      64655761 
 3302      69745479 
 3302      706500
 3303              	.LASF101:
 3304 02e3 2E2E5C2E 		.ascii	"..\\..\\..\\..\\..\\..\\Software\\uCOS-II\\Source\\"
 3304      2E5C2E2E 
 3304      5C2E2E5C 
 3304      2E2E5C2E 
 3304      2E5C536F 
 3305 030d 6F735F6D 		.ascii	"os_mutex.c\000"
 3305      75746578 
 3305      2E6300
 3306              	.LASF63:
 3307 0318 4F535443 		.ascii	"OSTCBBitX\000"
 3307      42426974 
ARM GAS  C:\Users\ADMINI~1\AppData\Local\Temp\ccN77QmO.s 			page 75


 3307      5800
 3308              	.LASF64:
 3309 0322 4F535443 		.ascii	"OSTCBBitY\000"
 3309      42426974 
 3309      5900
 3310              	.LASF14:
 3311 032c 494E5431 		.ascii	"INT16U\000"
 3311      365500
 3312              	.LASF45:
 3313 0333 4F535443 		.ascii	"OSTCBExtPtr\000"
 3313      42457874 
 3313      50747200 
 3314              	.LASF7:
 3315 033f 6C6F6E67 		.ascii	"long long unsigned int\000"
 3315      206C6F6E 
 3315      6720756E 
 3315      7369676E 
 3315      65642069 
 3316              	.LASF8:
 3317 0356 756E7369 		.ascii	"unsigned int\000"
 3317      676E6564 
 3317      20696E74 
 3317      00
 3318              	.LASF85:
 3319 0363 6D707269 		.ascii	"mprio\000"
 3319      6F00
 3320              	.LASF52:
 3321 0369 4F535443 		.ascii	"OSTCBEventPtr\000"
 3321      42457665 
 3321      6E745074 
 3321      7200
 3322              	.LASF53:
 3323 0377 4F535443 		.ascii	"OSTCBEventMultiPtr\000"
 3323      42457665 
 3323      6E744D75 
 3323      6C746950 
 3323      747200
 3324              	.LASF97:
 3325 038a 4F535264 		.ascii	"OSRdyTbl\000"
 3325      7954626C 
 3325      00
 3326              	.LASF99:
 3327 0393 4F535443 		.ascii	"OSTCBPrioTbl\000"
 3327      42507269 
 3327      6F54626C 
 3327      00
 3328              	.LASF38:
 3329 03a0 6F735F6D 		.ascii	"os_mutex_data\000"
 3329      75746578 
 3329      5F646174 
 3329      6100
 3330              	.LASF32:
 3331 03ae 4F53466C 		.ascii	"OSFlagNodePrev\000"
 3331      61674E6F 
 3331      64655072 
 3331      657600
 3332              	.LASF80:
ARM GAS  C:\Users\ADMINI~1\AppData\Local\Temp\ccN77QmO.s 			page 76


 3333 03bd 4F534D75 		.ascii	"OSMutexDel\000"
 3333      74657844 
 3333      656C00
 3334              	.LASF73:
 3335 03c8 4F535F54 		.ascii	"OS_TCB\000"
 3335      434200
 3336              	.LASF11:
 3337 03cf 63686172 		.ascii	"char\000"
 3337      00
 3338              	.LASF31:
 3339 03d4 4F53466C 		.ascii	"OSFlagNodeNext\000"
 3339      61674E6F 
 3339      64654E65 
 3339      787400
 3340              	.LASF20:
 3341 03e3 4F535F50 		.ascii	"OS_PRIO\000"
 3341      52494F00 
 3342              	.LASF72:
 3343 03eb 4F535443 		.ascii	"OSTCBRegTbl\000"
 3343      42526567 
 3343      54626C00 
 3344              	.LASF21:
 3345 03f7 4F534576 		.ascii	"OSEventType\000"
 3345      656E7454 
 3345      79706500 
 3346              	.LASF74:
 3347 0403 70657665 		.ascii	"pevent\000"
 3347      6E7400
 3348              	.LASF87:
 3349 040a 4F534D75 		.ascii	"OSMutexPost\000"
 3349      74657850 
 3349      6F737400 
 3350              	.LASF67:
 3351 0416 4F535443 		.ascii	"OSTCBCyclesTot\000"
 3351      42437963 
 3351      6C657354 
 3351      6F7400
 3352              	.LASF3:
 3353 0425 73686F72 		.ascii	"short unsigned int\000"
 3353      7420756E 
 3353      7369676E 
 3353      65642069 
 3353      6E7400
 3354              	.LASF48:
 3355 0438 4F535443 		.ascii	"OSTCBOpt\000"
 3355      424F7074 
 3355      00
 3356              	.LASF46:
 3357 0441 4F535443 		.ascii	"OSTCBStkBottom\000"
 3357      4253746B 
 3357      426F7474 
 3357      6F6D00
 3358              	.LASF89:
 3359 0450 705F6D75 		.ascii	"p_mutex_data\000"
 3359      7465785F 
 3359      64617461 
 3359      00
ARM GAS  C:\Users\ADMINI~1\AppData\Local\Temp\ccN77QmO.s 			page 77


 3360              	.LASF5:
 3361 045d 6C6F6E67 		.ascii	"long unsigned int\000"
 3361      20756E73 
 3361      69676E65 
 3361      6420696E 
 3361      7400
 3362              	.LASF102:
 3363 046f 443A5C43 		.ascii	"D:\\CYTEST\\Micrium_CY8CKIT-044_OS2\\Micrium\\Examp"
 3363      59544553 
 3363      545C4D69 
 3363      63726975 
 3363      6D5F4359 
 3364 049e 6C65735C 		.ascii	"les\\Cypress\\CY8CKIT-044\\OS2\\PSoC\\OS2.cydsn\000"
 3364      43797072 
 3364      6573735C 
 3364      43593843 
 3364      4B49542D 
 3365              	.LASF56:
 3366 04c9 4F535443 		.ascii	"OSTCBFlagsRdy\000"
 3366      42466C61 
 3366      67735264 
 3366      7900
 3367              	.LASF24:
 3368 04d7 4F534576 		.ascii	"OSEventGrp\000"
 3368      656E7447 
 3368      727000
 3369              	.LASF94:
 3370 04e2 4F534C6F 		.ascii	"OSLockNesting\000"
 3370      636B4E65 
 3370      7374696E 
 3370      6700
 3371              	.LASF33:
 3372 04f0 4F53466C 		.ascii	"OSFlagNodeTCB\000"
 3372      61674E6F 
 3372      64655443 
 3372      4200
 3373              	.LASF51:
 3374 04fe 4F535443 		.ascii	"OSTCBPrev\000"
 3374      42507265 
 3374      7600
 3375              	.LASF98:
 3376 0508 4F535443 		.ascii	"OSTCBCur\000"
 3376      42437572 
 3376      00
 3377              	.LASF62:
 3378 0511 4F535443 		.ascii	"OSTCBY\000"
 3378      425900
 3379              	.LASF104:
 3380 0518 4F534D75 		.ascii	"OSMutex_RdyAtPrio\000"
 3380      7465785F 
 3380      52647941 
 3380      74507269 
 3380      6F00
 3381              	.LASF37:
 3382 052a 4F535F46 		.ascii	"OS_FLAG_NODE\000"
 3382      4C41475F 
 3382      4E4F4445 
ARM GAS  C:\Users\ADMINI~1\AppData\Local\Temp\ccN77QmO.s 			page 78


 3382      00
 3383              	.LASF12:
 3384 0537 424F4F4C 		.ascii	"BOOLEAN\000"
 3384      45414E00 
 3385              	.LASF91:
 3386 053f 70646573 		.ascii	"pdest\000"
 3386      7400
 3387              	.LASF75:
 3388 0545 70657272 		.ascii	"perr\000"
 3388      00
 3389              	.LASF76:
 3390 054a 6370755F 		.ascii	"cpu_sr\000"
 3390      737200
 3391              	.LASF58:
 3392 0551 4F535443 		.ascii	"OSTCBStat\000"
 3392      42537461 
 3392      7400
 3393              	.LASF88:
 3394 055b 4F534D75 		.ascii	"OSMutexQuery\000"
 3394      74657851 
 3394      75657279 
 3394      00
 3395              	.LASF81:
 3396 0568 7461736B 		.ascii	"tasks_waiting\000"
 3396      735F7761 
 3396      6974696E 
 3396      6700
 3397              	.LASF71:
 3398 0576 4F535443 		.ascii	"OSTCBTaskName\000"
 3398      42546173 
 3398      6B4E616D 
 3398      6500
 3399              	.LASF79:
 3400 0584 7072696F 		.ascii	"prio\000"
 3400      00
 3401              	.LASF84:
 3402 0589 74696D65 		.ascii	"timeout\000"
 3402      6F757400 
 3403              	.LASF25:
 3404 0591 4F534576 		.ascii	"OSEventTbl\000"
 3404      656E7454 
 3404      626C00
 3405              		.ident	"GCC: (GNU Tools for ARM Embedded Processors) 5.4.1 20160609 (release) [ARM/embedded-5-bran
