ARM GAS  C:\Users\ADMINI~1\AppData\Local\Temp\ccjqW26u.s 			page 1


   1              		.syntax unified
   2              		.cpu cortex-m0
   3              		.fpu softvfp
   4              		.eabi_attribute 20, 1
   5              		.eabi_attribute 21, 1
   6              		.eabi_attribute 23, 3
   7              		.eabi_attribute 24, 1
   8              		.eabi_attribute 25, 1
   9              		.eabi_attribute 26, 1
  10              		.eabi_attribute 30, 6
  11              		.eabi_attribute 34, 0
  12              		.eabi_attribute 18, 4
  13              		.thumb
  14              		.syntax unified
  15              		.file	"os_mem.c"
  16              		.text
  17              	.Ltext0:
  18              		.cfi_sections	.debug_frame
  19              		.section	.text.OSMemCreate,"ax",%progbits
  20              		.align	2
  21              		.global	OSMemCreate
  22              		.code	16
  23              		.thumb_func
  24              		.type	OSMemCreate, %function
  25              	OSMemCreate:
  26              	.LFB1:
  27              		.file 1 "..\\..\\..\\..\\..\\..\\Software\\uCOS-II\\Source\\os_mem.c"
   1:..\..\..\..\..\..\Software\uCOS-II\Source/os_mem.c **** /*
   2:..\..\..\..\..\..\Software\uCOS-II\Source/os_mem.c **** ***************************************************************************************************
   3:..\..\..\..\..\..\Software\uCOS-II\Source/os_mem.c **** *                                                uC/OS-II
   4:..\..\..\..\..\..\Software\uCOS-II\Source/os_mem.c **** *                                          The Real-Time Kernel
   5:..\..\..\..\..\..\Software\uCOS-II\Source/os_mem.c **** *                                            MEMORY MANAGEMENT
   6:..\..\..\..\..\..\Software\uCOS-II\Source/os_mem.c **** *
   7:..\..\..\..\..\..\Software\uCOS-II\Source/os_mem.c **** *                              (c) Copyright 1992-2013, Micrium, Weston, FL
   8:..\..\..\..\..\..\Software\uCOS-II\Source/os_mem.c **** *                                           All Rights Reserved
   9:..\..\..\..\..\..\Software\uCOS-II\Source/os_mem.c **** *
  10:..\..\..\..\..\..\Software\uCOS-II\Source/os_mem.c **** * File    : OS_MEM.C
  11:..\..\..\..\..\..\Software\uCOS-II\Source/os_mem.c **** * By      : Jean J. Labrosse
  12:..\..\..\..\..\..\Software\uCOS-II\Source/os_mem.c **** * Version : V2.92.11
  13:..\..\..\..\..\..\Software\uCOS-II\Source/os_mem.c **** *
  14:..\..\..\..\..\..\Software\uCOS-II\Source/os_mem.c **** * LICENSING TERMS:
  15:..\..\..\..\..\..\Software\uCOS-II\Source/os_mem.c **** * ---------------
  16:..\..\..\..\..\..\Software\uCOS-II\Source/os_mem.c **** *   uC/OS-II is provided in source form for FREE evaluation, for educational use or for peaceful re
  17:..\..\..\..\..\..\Software\uCOS-II\Source/os_mem.c **** * If you plan on using  uC/OS-II  in a commercial product you need to contact Micrium to properly l
  18:..\..\..\..\..\..\Software\uCOS-II\Source/os_mem.c **** * its use in your product. We provide ALL the source code for your convenience and to help you expe
  19:..\..\..\..\..\..\Software\uCOS-II\Source/os_mem.c **** * uC/OS-II.   The fact that the  source is provided does  NOT  mean that you can use it without  pa
  20:..\..\..\..\..\..\Software\uCOS-II\Source/os_mem.c **** * licensing fee.
  21:..\..\..\..\..\..\Software\uCOS-II\Source/os_mem.c **** ***************************************************************************************************
  22:..\..\..\..\..\..\Software\uCOS-II\Source/os_mem.c **** */
  23:..\..\..\..\..\..\Software\uCOS-II\Source/os_mem.c **** 
  24:..\..\..\..\..\..\Software\uCOS-II\Source/os_mem.c **** #define  MICRIUM_SOURCE
  25:..\..\..\..\..\..\Software\uCOS-II\Source/os_mem.c **** 
  26:..\..\..\..\..\..\Software\uCOS-II\Source/os_mem.c **** #ifndef  OS_MASTER_FILE
  27:..\..\..\..\..\..\Software\uCOS-II\Source/os_mem.c **** #include <ucos_ii.h>
  28:..\..\..\..\..\..\Software\uCOS-II\Source/os_mem.c **** #endif
  29:..\..\..\..\..\..\Software\uCOS-II\Source/os_mem.c **** 
  30:..\..\..\..\..\..\Software\uCOS-II\Source/os_mem.c **** #if (OS_MEM_EN > 0u) && (OS_MAX_MEM_PART > 0u)
ARM GAS  C:\Users\ADMINI~1\AppData\Local\Temp\ccjqW26u.s 			page 2


  31:..\..\..\..\..\..\Software\uCOS-II\Source/os_mem.c **** /*
  32:..\..\..\..\..\..\Software\uCOS-II\Source/os_mem.c **** ***************************************************************************************************
  33:..\..\..\..\..\..\Software\uCOS-II\Source/os_mem.c **** *                                      CREATE A MEMORY PARTITION
  34:..\..\..\..\..\..\Software\uCOS-II\Source/os_mem.c **** *
  35:..\..\..\..\..\..\Software\uCOS-II\Source/os_mem.c **** * Description : Create a fixed-sized memory partition that will be managed by uC/OS-II.
  36:..\..\..\..\..\..\Software\uCOS-II\Source/os_mem.c **** *
  37:..\..\..\..\..\..\Software\uCOS-II\Source/os_mem.c **** * Arguments   : addr     is the starting address of the memory partition
  38:..\..\..\..\..\..\Software\uCOS-II\Source/os_mem.c **** *
  39:..\..\..\..\..\..\Software\uCOS-II\Source/os_mem.c **** *               nblks    is the number of memory blocks to create from the partition.
  40:..\..\..\..\..\..\Software\uCOS-II\Source/os_mem.c **** *
  41:..\..\..\..\..\..\Software\uCOS-II\Source/os_mem.c **** *               blksize  is the size (in bytes) of each block in the memory partition.
  42:..\..\..\..\..\..\Software\uCOS-II\Source/os_mem.c **** *
  43:..\..\..\..\..\..\Software\uCOS-II\Source/os_mem.c **** *               perr     is a pointer to a variable containing an error message which will be set b
  44:..\..\..\..\..\..\Software\uCOS-II\Source/os_mem.c **** *                        this function to either:
  45:..\..\..\..\..\..\Software\uCOS-II\Source/os_mem.c **** *
  46:..\..\..\..\..\..\Software\uCOS-II\Source/os_mem.c **** *                        OS_ERR_NONE              if the memory partition has been created correctl
  47:..\..\..\..\..\..\Software\uCOS-II\Source/os_mem.c **** *                        OS_ERR_MEM_INVALID_ADDR  if you are specifying an invalid address for the 
  48:..\..\..\..\..\..\Software\uCOS-II\Source/os_mem.c **** *                                                 storage of the partition or, the block does not a
  49:..\..\..\..\..\..\Software\uCOS-II\Source/os_mem.c **** *                                                 on a pointer boundary
  50:..\..\..\..\..\..\Software\uCOS-II\Source/os_mem.c **** *                        OS_ERR_MEM_INVALID_PART  no free partitions available
  51:..\..\..\..\..\..\Software\uCOS-II\Source/os_mem.c **** *                        OS_ERR_MEM_INVALID_BLKS  user specified an invalid number of blocks (must 
  52:..\..\..\..\..\..\Software\uCOS-II\Source/os_mem.c **** *                        OS_ERR_MEM_INVALID_SIZE  user specified an invalid block size
  53:..\..\..\..\..\..\Software\uCOS-II\Source/os_mem.c **** *                                                   - must be greater than the size of a pointer
  54:..\..\..\..\..\..\Software\uCOS-II\Source/os_mem.c **** *                                                   - must be able to hold an integral number of po
  55:..\..\..\..\..\..\Software\uCOS-II\Source/os_mem.c **** * Returns    : != (OS_MEM *)0  is the partition was created
  56:..\..\..\..\..\..\Software\uCOS-II\Source/os_mem.c **** *              == (OS_MEM *)0  if the partition was not created because of invalid arguments or, no
  57:..\..\..\..\..\..\Software\uCOS-II\Source/os_mem.c **** *                              free partition is available.
  58:..\..\..\..\..\..\Software\uCOS-II\Source/os_mem.c **** ***************************************************************************************************
  59:..\..\..\..\..\..\Software\uCOS-II\Source/os_mem.c **** */
  60:..\..\..\..\..\..\Software\uCOS-II\Source/os_mem.c **** 
  61:..\..\..\..\..\..\Software\uCOS-II\Source/os_mem.c **** OS_MEM  *OSMemCreate (void   *addr,
  62:..\..\..\..\..\..\Software\uCOS-II\Source/os_mem.c ****                       INT32U  nblks,
  63:..\..\..\..\..\..\Software\uCOS-II\Source/os_mem.c ****                       INT32U  blksize,
  64:..\..\..\..\..\..\Software\uCOS-II\Source/os_mem.c ****                       INT8U  *perr)
  65:..\..\..\..\..\..\Software\uCOS-II\Source/os_mem.c **** {
  28              		.loc 1 65 0
  29              		.cfi_startproc
  30              		@ args = 0, pretend = 0, frame = 40
  31              		@ frame_needed = 1, uses_anonymous_args = 0
  32 0000 80B5     		push	{r7, lr}
  33              		.cfi_def_cfa_offset 8
  34              		.cfi_offset 7, -8
  35              		.cfi_offset 14, -4
  36 0002 8AB0     		sub	sp, sp, #40
  37              		.cfi_def_cfa_offset 48
  38 0004 00AF     		add	r7, sp, #0
  39              		.cfi_def_cfa_register 7
  40 0006 F860     		str	r0, [r7, #12]
  41 0008 B960     		str	r1, [r7, #8]
  42 000a 7A60     		str	r2, [r7, #4]
  43 000c 3B60     		str	r3, [r7]
  66:..\..\..\..\..\..\Software\uCOS-II\Source/os_mem.c ****     OS_MEM    *pmem;
  67:..\..\..\..\..\..\Software\uCOS-II\Source/os_mem.c ****     INT8U     *pblk;
  68:..\..\..\..\..\..\Software\uCOS-II\Source/os_mem.c ****     void     **plink;
  69:..\..\..\..\..\..\Software\uCOS-II\Source/os_mem.c ****     INT32U     loops;
  70:..\..\..\..\..\..\Software\uCOS-II\Source/os_mem.c ****     INT32U     i;
  71:..\..\..\..\..\..\Software\uCOS-II\Source/os_mem.c **** #if OS_CRITICAL_METHOD == 3u                          /* Allocate storage for CPU status register  
ARM GAS  C:\Users\ADMINI~1\AppData\Local\Temp\ccjqW26u.s 			page 3


  72:..\..\..\..\..\..\Software\uCOS-II\Source/os_mem.c ****     OS_CPU_SR  cpu_sr = 0u;
  44              		.loc 1 72 0
  45 000e 0023     		movs	r3, #0
  46 0010 BB61     		str	r3, [r7, #24]
  73:..\..\..\..\..\..\Software\uCOS-II\Source/os_mem.c **** #endif
  74:..\..\..\..\..\..\Software\uCOS-II\Source/os_mem.c **** 
  75:..\..\..\..\..\..\Software\uCOS-II\Source/os_mem.c **** 
  76:..\..\..\..\..\..\Software\uCOS-II\Source/os_mem.c **** 
  77:..\..\..\..\..\..\Software\uCOS-II\Source/os_mem.c **** #ifdef OS_SAFETY_CRITICAL
  78:..\..\..\..\..\..\Software\uCOS-II\Source/os_mem.c ****     if (perr == (INT8U *)0) {
  79:..\..\..\..\..\..\Software\uCOS-II\Source/os_mem.c ****         OS_SAFETY_CRITICAL_EXCEPTION();
  80:..\..\..\..\..\..\Software\uCOS-II\Source/os_mem.c ****         return ((OS_MEM *)0);
  81:..\..\..\..\..\..\Software\uCOS-II\Source/os_mem.c ****     }
  82:..\..\..\..\..\..\Software\uCOS-II\Source/os_mem.c **** #endif
  83:..\..\..\..\..\..\Software\uCOS-II\Source/os_mem.c **** 
  84:..\..\..\..\..\..\Software\uCOS-II\Source/os_mem.c **** #ifdef OS_SAFETY_CRITICAL_IEC61508
  85:..\..\..\..\..\..\Software\uCOS-II\Source/os_mem.c ****     if (OSSafetyCriticalStartFlag == OS_TRUE) {
  86:..\..\..\..\..\..\Software\uCOS-II\Source/os_mem.c ****         OS_SAFETY_CRITICAL_EXCEPTION();
  87:..\..\..\..\..\..\Software\uCOS-II\Source/os_mem.c ****         return ((OS_MEM *)0);
  88:..\..\..\..\..\..\Software\uCOS-II\Source/os_mem.c ****     }
  89:..\..\..\..\..\..\Software\uCOS-II\Source/os_mem.c **** #endif
  90:..\..\..\..\..\..\Software\uCOS-II\Source/os_mem.c **** 
  91:..\..\..\..\..\..\Software\uCOS-II\Source/os_mem.c **** #if OS_ARG_CHK_EN > 0u
  92:..\..\..\..\..\..\Software\uCOS-II\Source/os_mem.c ****     if (addr == (void *)0) {                          /* Must pass a valid address for the memory p
  47              		.loc 1 92 0
  48 0012 FB68     		ldr	r3, [r7, #12]
  49 0014 002B     		cmp	r3, #0
  50 0016 04D1     		bne	.L2
  93:..\..\..\..\..\..\Software\uCOS-II\Source/os_mem.c ****         *perr = OS_ERR_MEM_INVALID_ADDR;
  51              		.loc 1 93 0
  52 0018 3B68     		ldr	r3, [r7]
  53 001a 6222     		movs	r2, #98
  54 001c 1A70     		strb	r2, [r3]
  94:..\..\..\..\..\..\Software\uCOS-II\Source/os_mem.c ****         return ((OS_MEM *)0);
  55              		.loc 1 94 0
  56 001e 0023     		movs	r3, #0
  57 0020 64E0     		b	.L3
  58              	.L2:
  95:..\..\..\..\..\..\Software\uCOS-II\Source/os_mem.c ****     }
  96:..\..\..\..\..\..\Software\uCOS-II\Source/os_mem.c ****     if (((INT32U)addr & (sizeof(void *) - 1u)) != 0u){  /* Must be pointer size aligned            
  59              		.loc 1 96 0
  60 0022 FB68     		ldr	r3, [r7, #12]
  61 0024 0322     		movs	r2, #3
  62 0026 1340     		ands	r3, r2
  63 0028 04D0     		beq	.L4
  97:..\..\..\..\..\..\Software\uCOS-II\Source/os_mem.c ****         *perr = OS_ERR_MEM_INVALID_ADDR;
  64              		.loc 1 97 0
  65 002a 3B68     		ldr	r3, [r7]
  66 002c 6222     		movs	r2, #98
  67 002e 1A70     		strb	r2, [r3]
  98:..\..\..\..\..\..\Software\uCOS-II\Source/os_mem.c ****         return ((OS_MEM *)0);
  68              		.loc 1 98 0
  69 0030 0023     		movs	r3, #0
  70 0032 5BE0     		b	.L3
  71              	.L4:
  99:..\..\..\..\..\..\Software\uCOS-II\Source/os_mem.c ****     }
 100:..\..\..\..\..\..\Software\uCOS-II\Source/os_mem.c ****     if (nblks < 2u) {                                 /* Must have at least 2 blocks per partition 
ARM GAS  C:\Users\ADMINI~1\AppData\Local\Temp\ccjqW26u.s 			page 4


  72              		.loc 1 100 0
  73 0034 BB68     		ldr	r3, [r7, #8]
  74 0036 012B     		cmp	r3, #1
  75 0038 04D8     		bhi	.L5
 101:..\..\..\..\..\..\Software\uCOS-II\Source/os_mem.c ****         *perr = OS_ERR_MEM_INVALID_BLKS;
  76              		.loc 1 101 0
  77 003a 3B68     		ldr	r3, [r7]
  78 003c 5B22     		movs	r2, #91
  79 003e 1A70     		strb	r2, [r3]
 102:..\..\..\..\..\..\Software\uCOS-II\Source/os_mem.c ****         return ((OS_MEM *)0);
  80              		.loc 1 102 0
  81 0040 0023     		movs	r3, #0
  82 0042 53E0     		b	.L3
  83              	.L5:
 103:..\..\..\..\..\..\Software\uCOS-II\Source/os_mem.c ****     }
 104:..\..\..\..\..\..\Software\uCOS-II\Source/os_mem.c ****     if (blksize < sizeof(void *)) {                   /* Must contain space for at least a pointer 
  84              		.loc 1 104 0
  85 0044 7B68     		ldr	r3, [r7, #4]
  86 0046 032B     		cmp	r3, #3
  87 0048 04D8     		bhi	.L6
 105:..\..\..\..\..\..\Software\uCOS-II\Source/os_mem.c ****         *perr = OS_ERR_MEM_INVALID_SIZE;
  88              		.loc 1 105 0
  89 004a 3B68     		ldr	r3, [r7]
  90 004c 5C22     		movs	r2, #92
  91 004e 1A70     		strb	r2, [r3]
 106:..\..\..\..\..\..\Software\uCOS-II\Source/os_mem.c ****         return ((OS_MEM *)0);
  92              		.loc 1 106 0
  93 0050 0023     		movs	r3, #0
  94 0052 4BE0     		b	.L3
  95              	.L6:
 107:..\..\..\..\..\..\Software\uCOS-II\Source/os_mem.c ****     }
 108:..\..\..\..\..\..\Software\uCOS-II\Source/os_mem.c **** #endif
 109:..\..\..\..\..\..\Software\uCOS-II\Source/os_mem.c ****     OS_ENTER_CRITICAL();
  96              		.loc 1 109 0
  97 0054 FFF7FEFF 		bl	OS_CPU_SR_Save
  98 0058 0300     		movs	r3, r0
  99 005a BB61     		str	r3, [r7, #24]
 110:..\..\..\..\..\..\Software\uCOS-II\Source/os_mem.c ****     pmem = OSMemFreeList;                             /* Get next free memory partition            
 100              		.loc 1 110 0
 101 005c 254B     		ldr	r3, .L11
 102 005e 1B68     		ldr	r3, [r3]
 103 0060 7B61     		str	r3, [r7, #20]
 111:..\..\..\..\..\..\Software\uCOS-II\Source/os_mem.c ****     if (OSMemFreeList != (OS_MEM *)0) {               /* See if pool of free partitions was empty  
 104              		.loc 1 111 0
 105 0062 244B     		ldr	r3, .L11
 106 0064 1B68     		ldr	r3, [r3]
 107 0066 002B     		cmp	r3, #0
 108 0068 04D0     		beq	.L7
 112:..\..\..\..\..\..\Software\uCOS-II\Source/os_mem.c ****         OSMemFreeList = (OS_MEM *)OSMemFreeList->OSMemFreeList;
 109              		.loc 1 112 0
 110 006a 224B     		ldr	r3, .L11
 111 006c 1B68     		ldr	r3, [r3]
 112 006e 5A68     		ldr	r2, [r3, #4]
 113 0070 204B     		ldr	r3, .L11
 114 0072 1A60     		str	r2, [r3]
 115              	.L7:
 113:..\..\..\..\..\..\Software\uCOS-II\Source/os_mem.c ****     }
ARM GAS  C:\Users\ADMINI~1\AppData\Local\Temp\ccjqW26u.s 			page 5


 114:..\..\..\..\..\..\Software\uCOS-II\Source/os_mem.c ****     OS_EXIT_CRITICAL();
 116              		.loc 1 114 0
 117 0074 BB69     		ldr	r3, [r7, #24]
 118 0076 1800     		movs	r0, r3
 119 0078 FFF7FEFF 		bl	OS_CPU_SR_Restore
 115:..\..\..\..\..\..\Software\uCOS-II\Source/os_mem.c ****     if (pmem == (OS_MEM *)0) {                        /* See if we have a memory partition         
 120              		.loc 1 115 0
 121 007c 7B69     		ldr	r3, [r7, #20]
 122 007e 002B     		cmp	r3, #0
 123 0080 04D1     		bne	.L8
 116:..\..\..\..\..\..\Software\uCOS-II\Source/os_mem.c ****         *perr = OS_ERR_MEM_INVALID_PART;
 124              		.loc 1 116 0
 125 0082 3B68     		ldr	r3, [r7]
 126 0084 5A22     		movs	r2, #90
 127 0086 1A70     		strb	r2, [r3]
 117:..\..\..\..\..\..\Software\uCOS-II\Source/os_mem.c ****         return ((OS_MEM *)0);
 128              		.loc 1 117 0
 129 0088 0023     		movs	r3, #0
 130 008a 2FE0     		b	.L3
 131              	.L8:
 118:..\..\..\..\..\..\Software\uCOS-II\Source/os_mem.c ****     }
 119:..\..\..\..\..\..\Software\uCOS-II\Source/os_mem.c ****     plink = (void **)addr;                            /* Create linked list of free memory blocks  
 132              		.loc 1 119 0
 133 008c FB68     		ldr	r3, [r7, #12]
 134 008e 3B62     		str	r3, [r7, #32]
 120:..\..\..\..\..\..\Software\uCOS-II\Source/os_mem.c ****     pblk  = (INT8U *)addr;
 135              		.loc 1 120 0
 136 0090 FB68     		ldr	r3, [r7, #12]
 137 0092 7B62     		str	r3, [r7, #36]
 121:..\..\..\..\..\..\Software\uCOS-II\Source/os_mem.c ****     loops  = nblks - 1u;
 138              		.loc 1 121 0
 139 0094 BB68     		ldr	r3, [r7, #8]
 140 0096 013B     		subs	r3, r3, #1
 141 0098 3B61     		str	r3, [r7, #16]
 122:..\..\..\..\..\..\Software\uCOS-II\Source/os_mem.c ****     for (i = 0u; i < loops; i++) {
 142              		.loc 1 122 0
 143 009a 0023     		movs	r3, #0
 144 009c FB61     		str	r3, [r7, #28]
 145 009e 0BE0     		b	.L9
 146              	.L10:
 123:..\..\..\..\..\..\Software\uCOS-II\Source/os_mem.c ****         pblk +=  blksize;                             /* Point to the FOLLOWING block              
 147              		.loc 1 123 0 discriminator 3
 148 00a0 7A6A     		ldr	r2, [r7, #36]
 149 00a2 7B68     		ldr	r3, [r7, #4]
 150 00a4 D318     		adds	r3, r2, r3
 151 00a6 7B62     		str	r3, [r7, #36]
 124:..\..\..\..\..\..\Software\uCOS-II\Source/os_mem.c ****        *plink = (void  *)pblk;                        /* Save pointer to NEXT block in CURRENT bloc
 152              		.loc 1 124 0 discriminator 3
 153 00a8 3B6A     		ldr	r3, [r7, #32]
 154 00aa 7A6A     		ldr	r2, [r7, #36]
 155 00ac 1A60     		str	r2, [r3]
 125:..\..\..\..\..\..\Software\uCOS-II\Source/os_mem.c ****         plink = (void **)pblk;                        /* Position to  NEXT      block              
 156              		.loc 1 125 0 discriminator 3
 157 00ae 7B6A     		ldr	r3, [r7, #36]
 158 00b0 3B62     		str	r3, [r7, #32]
 122:..\..\..\..\..\..\Software\uCOS-II\Source/os_mem.c ****         pblk +=  blksize;                             /* Point to the FOLLOWING block              
 159              		.loc 1 122 0 discriminator 3
ARM GAS  C:\Users\ADMINI~1\AppData\Local\Temp\ccjqW26u.s 			page 6


 160 00b2 FB69     		ldr	r3, [r7, #28]
 161 00b4 0133     		adds	r3, r3, #1
 162 00b6 FB61     		str	r3, [r7, #28]
 163              	.L9:
 122:..\..\..\..\..\..\Software\uCOS-II\Source/os_mem.c ****         pblk +=  blksize;                             /* Point to the FOLLOWING block              
 164              		.loc 1 122 0 is_stmt 0 discriminator 1
 165 00b8 FA69     		ldr	r2, [r7, #28]
 166 00ba 3B69     		ldr	r3, [r7, #16]
 167 00bc 9A42     		cmp	r2, r3
 168 00be EFD3     		bcc	.L10
 126:..\..\..\..\..\..\Software\uCOS-II\Source/os_mem.c ****     }
 127:..\..\..\..\..\..\Software\uCOS-II\Source/os_mem.c ****     *plink              = (void *)0;                  /* Last memory block points to NULL          
 169              		.loc 1 127 0 is_stmt 1
 170 00c0 3B6A     		ldr	r3, [r7, #32]
 171 00c2 0022     		movs	r2, #0
 172 00c4 1A60     		str	r2, [r3]
 128:..\..\..\..\..\..\Software\uCOS-II\Source/os_mem.c ****     pmem->OSMemAddr     = addr;                       /* Store start address of memory partition   
 173              		.loc 1 128 0
 174 00c6 7B69     		ldr	r3, [r7, #20]
 175 00c8 FA68     		ldr	r2, [r7, #12]
 176 00ca 1A60     		str	r2, [r3]
 129:..\..\..\..\..\..\Software\uCOS-II\Source/os_mem.c ****     pmem->OSMemFreeList = addr;                       /* Initialize pointer to pool of free blocks 
 177              		.loc 1 129 0
 178 00cc 7B69     		ldr	r3, [r7, #20]
 179 00ce FA68     		ldr	r2, [r7, #12]
 180 00d0 5A60     		str	r2, [r3, #4]
 130:..\..\..\..\..\..\Software\uCOS-II\Source/os_mem.c ****     pmem->OSMemNFree    = nblks;                      /* Store number of free blocks in MCB        
 181              		.loc 1 130 0
 182 00d2 7B69     		ldr	r3, [r7, #20]
 183 00d4 BA68     		ldr	r2, [r7, #8]
 184 00d6 1A61     		str	r2, [r3, #16]
 131:..\..\..\..\..\..\Software\uCOS-II\Source/os_mem.c ****     pmem->OSMemNBlks    = nblks;
 185              		.loc 1 131 0
 186 00d8 7B69     		ldr	r3, [r7, #20]
 187 00da BA68     		ldr	r2, [r7, #8]
 188 00dc DA60     		str	r2, [r3, #12]
 132:..\..\..\..\..\..\Software\uCOS-II\Source/os_mem.c ****     pmem->OSMemBlkSize  = blksize;                    /* Store block size of each memory blocks    
 189              		.loc 1 132 0
 190 00de 7B69     		ldr	r3, [r7, #20]
 191 00e0 7A68     		ldr	r2, [r7, #4]
 192 00e2 9A60     		str	r2, [r3, #8]
 133:..\..\..\..\..\..\Software\uCOS-II\Source/os_mem.c ****     *perr               = OS_ERR_NONE;
 193              		.loc 1 133 0
 194 00e4 3B68     		ldr	r3, [r7]
 195 00e6 0022     		movs	r2, #0
 196 00e8 1A70     		strb	r2, [r3]
 134:..\..\..\..\..\..\Software\uCOS-II\Source/os_mem.c ****     return (pmem);
 197              		.loc 1 134 0
 198 00ea 7B69     		ldr	r3, [r7, #20]
 199              	.L3:
 135:..\..\..\..\..\..\Software\uCOS-II\Source/os_mem.c **** }
 200              		.loc 1 135 0
 201 00ec 1800     		movs	r0, r3
 202 00ee BD46     		mov	sp, r7
 203 00f0 0AB0     		add	sp, sp, #40
 204              		@ sp needed
 205 00f2 80BD     		pop	{r7, pc}
ARM GAS  C:\Users\ADMINI~1\AppData\Local\Temp\ccjqW26u.s 			page 7


 206              	.L12:
 207              		.align	2
 208              	.L11:
 209 00f4 00000000 		.word	OSMemFreeList
 210              		.cfi_endproc
 211              	.LFE1:
 212              		.size	OSMemCreate, .-OSMemCreate
 213              		.section	.text.OSMemGet,"ax",%progbits
 214              		.align	2
 215              		.global	OSMemGet
 216              		.code	16
 217              		.thumb_func
 218              		.type	OSMemGet, %function
 219              	OSMemGet:
 220              	.LFB2:
 136:..\..\..\..\..\..\Software\uCOS-II\Source/os_mem.c **** /*$PAGE*/
 137:..\..\..\..\..\..\Software\uCOS-II\Source/os_mem.c **** /*
 138:..\..\..\..\..\..\Software\uCOS-II\Source/os_mem.c **** ***************************************************************************************************
 139:..\..\..\..\..\..\Software\uCOS-II\Source/os_mem.c **** *                                         GET A MEMORY BLOCK
 140:..\..\..\..\..\..\Software\uCOS-II\Source/os_mem.c **** *
 141:..\..\..\..\..\..\Software\uCOS-II\Source/os_mem.c **** * Description : Get a memory block from a partition
 142:..\..\..\..\..\..\Software\uCOS-II\Source/os_mem.c **** *
 143:..\..\..\..\..\..\Software\uCOS-II\Source/os_mem.c **** * Arguments   : pmem    is a pointer to the memory partition control block
 144:..\..\..\..\..\..\Software\uCOS-II\Source/os_mem.c **** *
 145:..\..\..\..\..\..\Software\uCOS-II\Source/os_mem.c **** *               perr    is a pointer to a variable containing an error message which will be set by
 146:..\..\..\..\..\..\Software\uCOS-II\Source/os_mem.c **** *                       function to either:
 147:..\..\..\..\..\..\Software\uCOS-II\Source/os_mem.c **** *
 148:..\..\..\..\..\..\Software\uCOS-II\Source/os_mem.c **** *                       OS_ERR_NONE             if the memory partition has been created correctly.
 149:..\..\..\..\..\..\Software\uCOS-II\Source/os_mem.c **** *                       OS_ERR_MEM_NO_FREE_BLKS if there are no more free memory blocks to allocate
 150:..\..\..\..\..\..\Software\uCOS-II\Source/os_mem.c **** *                       OS_ERR_MEM_INVALID_PMEM if you passed a NULL pointer for 'pmem'
 151:..\..\..\..\..\..\Software\uCOS-II\Source/os_mem.c **** *
 152:..\..\..\..\..\..\Software\uCOS-II\Source/os_mem.c **** * Returns     : A pointer to a memory block if no error is detected
 153:..\..\..\..\..\..\Software\uCOS-II\Source/os_mem.c **** *               A pointer to NULL if an error is detected
 154:..\..\..\..\..\..\Software\uCOS-II\Source/os_mem.c **** ***************************************************************************************************
 155:..\..\..\..\..\..\Software\uCOS-II\Source/os_mem.c **** */
 156:..\..\..\..\..\..\Software\uCOS-II\Source/os_mem.c **** 
 157:..\..\..\..\..\..\Software\uCOS-II\Source/os_mem.c **** void  *OSMemGet (OS_MEM  *pmem,
 158:..\..\..\..\..\..\Software\uCOS-II\Source/os_mem.c ****                  INT8U   *perr)
 159:..\..\..\..\..\..\Software\uCOS-II\Source/os_mem.c **** {
 221              		.loc 1 159 0
 222              		.cfi_startproc
 223              		@ args = 0, pretend = 0, frame = 16
 224              		@ frame_needed = 1, uses_anonymous_args = 0
 225 0000 80B5     		push	{r7, lr}
 226              		.cfi_def_cfa_offset 8
 227              		.cfi_offset 7, -8
 228              		.cfi_offset 14, -4
 229 0002 84B0     		sub	sp, sp, #16
 230              		.cfi_def_cfa_offset 24
 231 0004 00AF     		add	r7, sp, #0
 232              		.cfi_def_cfa_register 7
 233 0006 7860     		str	r0, [r7, #4]
 234 0008 3960     		str	r1, [r7]
 160:..\..\..\..\..\..\Software\uCOS-II\Source/os_mem.c ****     void      *pblk;
 161:..\..\..\..\..\..\Software\uCOS-II\Source/os_mem.c **** #if OS_CRITICAL_METHOD == 3u                          /* Allocate storage for CPU status register  
 162:..\..\..\..\..\..\Software\uCOS-II\Source/os_mem.c ****     OS_CPU_SR  cpu_sr = 0u;
 235              		.loc 1 162 0
ARM GAS  C:\Users\ADMINI~1\AppData\Local\Temp\ccjqW26u.s 			page 8


 236 000a 0023     		movs	r3, #0
 237 000c FB60     		str	r3, [r7, #12]
 163:..\..\..\..\..\..\Software\uCOS-II\Source/os_mem.c **** #endif
 164:..\..\..\..\..\..\Software\uCOS-II\Source/os_mem.c **** 
 165:..\..\..\..\..\..\Software\uCOS-II\Source/os_mem.c **** 
 166:..\..\..\..\..\..\Software\uCOS-II\Source/os_mem.c **** 
 167:..\..\..\..\..\..\Software\uCOS-II\Source/os_mem.c **** #ifdef OS_SAFETY_CRITICAL
 168:..\..\..\..\..\..\Software\uCOS-II\Source/os_mem.c ****     if (perr == (INT8U *)0) {
 169:..\..\..\..\..\..\Software\uCOS-II\Source/os_mem.c ****         OS_SAFETY_CRITICAL_EXCEPTION();
 170:..\..\..\..\..\..\Software\uCOS-II\Source/os_mem.c ****         return ((void *)0);
 171:..\..\..\..\..\..\Software\uCOS-II\Source/os_mem.c ****     }
 172:..\..\..\..\..\..\Software\uCOS-II\Source/os_mem.c **** #endif
 173:..\..\..\..\..\..\Software\uCOS-II\Source/os_mem.c **** 
 174:..\..\..\..\..\..\Software\uCOS-II\Source/os_mem.c **** #if OS_ARG_CHK_EN > 0u
 175:..\..\..\..\..\..\Software\uCOS-II\Source/os_mem.c ****     if (pmem == (OS_MEM *)0) {                        /* Must point to a valid memory partition    
 238              		.loc 1 175 0
 239 000e 7B68     		ldr	r3, [r7, #4]
 240 0010 002B     		cmp	r3, #0
 241 0012 04D1     		bne	.L14
 176:..\..\..\..\..\..\Software\uCOS-II\Source/os_mem.c ****         *perr = OS_ERR_MEM_INVALID_PMEM;
 242              		.loc 1 176 0
 243 0014 3B68     		ldr	r3, [r7]
 244 0016 6022     		movs	r2, #96
 245 0018 1A70     		strb	r2, [r3]
 177:..\..\..\..\..\..\Software\uCOS-II\Source/os_mem.c ****         return ((void *)0);
 246              		.loc 1 177 0
 247 001a 0023     		movs	r3, #0
 248 001c 24E0     		b	.L15
 249              	.L14:
 178:..\..\..\..\..\..\Software\uCOS-II\Source/os_mem.c ****     }
 179:..\..\..\..\..\..\Software\uCOS-II\Source/os_mem.c **** #endif
 180:..\..\..\..\..\..\Software\uCOS-II\Source/os_mem.c ****     OS_ENTER_CRITICAL();
 250              		.loc 1 180 0
 251 001e FFF7FEFF 		bl	OS_CPU_SR_Save
 252 0022 0300     		movs	r3, r0
 253 0024 FB60     		str	r3, [r7, #12]
 181:..\..\..\..\..\..\Software\uCOS-II\Source/os_mem.c ****     if (pmem->OSMemNFree > 0u) {                      /* See if there are any free memory blocks   
 254              		.loc 1 181 0
 255 0026 7B68     		ldr	r3, [r7, #4]
 256 0028 1B69     		ldr	r3, [r3, #16]
 257 002a 002B     		cmp	r3, #0
 258 002c 14D0     		beq	.L16
 182:..\..\..\..\..\..\Software\uCOS-II\Source/os_mem.c ****         pblk                = pmem->OSMemFreeList;    /* Yes, point to next free memory block      
 259              		.loc 1 182 0
 260 002e 7B68     		ldr	r3, [r7, #4]
 261 0030 5B68     		ldr	r3, [r3, #4]
 262 0032 BB60     		str	r3, [r7, #8]
 183:..\..\..\..\..\..\Software\uCOS-II\Source/os_mem.c ****         pmem->OSMemFreeList = *(void **)pblk;         /*      Adjust pointer to new free list      
 263              		.loc 1 183 0
 264 0034 BB68     		ldr	r3, [r7, #8]
 265 0036 1A68     		ldr	r2, [r3]
 266 0038 7B68     		ldr	r3, [r7, #4]
 267 003a 5A60     		str	r2, [r3, #4]
 184:..\..\..\..\..\..\Software\uCOS-II\Source/os_mem.c ****         pmem->OSMemNFree--;                           /*      One less memory block in this partiti
 268              		.loc 1 184 0
 269 003c 7B68     		ldr	r3, [r7, #4]
 270 003e 1B69     		ldr	r3, [r3, #16]
ARM GAS  C:\Users\ADMINI~1\AppData\Local\Temp\ccjqW26u.s 			page 9


 271 0040 5A1E     		subs	r2, r3, #1
 272 0042 7B68     		ldr	r3, [r7, #4]
 273 0044 1A61     		str	r2, [r3, #16]
 185:..\..\..\..\..\..\Software\uCOS-II\Source/os_mem.c ****         OS_EXIT_CRITICAL();
 274              		.loc 1 185 0
 275 0046 FB68     		ldr	r3, [r7, #12]
 276 0048 1800     		movs	r0, r3
 277 004a FFF7FEFF 		bl	OS_CPU_SR_Restore
 186:..\..\..\..\..\..\Software\uCOS-II\Source/os_mem.c ****         *perr = OS_ERR_NONE;                          /*      No error                             
 278              		.loc 1 186 0
 279 004e 3B68     		ldr	r3, [r7]
 280 0050 0022     		movs	r2, #0
 281 0052 1A70     		strb	r2, [r3]
 187:..\..\..\..\..\..\Software\uCOS-II\Source/os_mem.c ****         return (pblk);                                /*      Return memory block to caller        
 282              		.loc 1 187 0
 283 0054 BB68     		ldr	r3, [r7, #8]
 284 0056 07E0     		b	.L15
 285              	.L16:
 188:..\..\..\..\..\..\Software\uCOS-II\Source/os_mem.c ****     }
 189:..\..\..\..\..\..\Software\uCOS-II\Source/os_mem.c ****     OS_EXIT_CRITICAL();
 286              		.loc 1 189 0
 287 0058 FB68     		ldr	r3, [r7, #12]
 288 005a 1800     		movs	r0, r3
 289 005c FFF7FEFF 		bl	OS_CPU_SR_Restore
 190:..\..\..\..\..\..\Software\uCOS-II\Source/os_mem.c ****     *perr = OS_ERR_MEM_NO_FREE_BLKS;                  /* No,  Notify caller of empty memory partiti
 290              		.loc 1 190 0
 291 0060 3B68     		ldr	r3, [r7]
 292 0062 5D22     		movs	r2, #93
 293 0064 1A70     		strb	r2, [r3]
 191:..\..\..\..\..\..\Software\uCOS-II\Source/os_mem.c ****     return ((void *)0);                               /*      Return NULL pointer to caller        
 294              		.loc 1 191 0
 295 0066 0023     		movs	r3, #0
 296              	.L15:
 192:..\..\..\..\..\..\Software\uCOS-II\Source/os_mem.c **** }
 297              		.loc 1 192 0
 298 0068 1800     		movs	r0, r3
 299 006a BD46     		mov	sp, r7
 300 006c 04B0     		add	sp, sp, #16
 301              		@ sp needed
 302 006e 80BD     		pop	{r7, pc}
 303              		.cfi_endproc
 304              	.LFE2:
 305              		.size	OSMemGet, .-OSMemGet
 306              		.section	.text.OSMemNameGet,"ax",%progbits
 307              		.align	2
 308              		.global	OSMemNameGet
 309              		.code	16
 310              		.thumb_func
 311              		.type	OSMemNameGet, %function
 312              	OSMemNameGet:
 313              	.LFB3:
 193:..\..\..\..\..\..\Software\uCOS-II\Source/os_mem.c **** /*$PAGE*/
 194:..\..\..\..\..\..\Software\uCOS-II\Source/os_mem.c **** /*
 195:..\..\..\..\..\..\Software\uCOS-II\Source/os_mem.c **** ***************************************************************************************************
 196:..\..\..\..\..\..\Software\uCOS-II\Source/os_mem.c **** *                                 GET THE NAME OF A MEMORY PARTITION
 197:..\..\..\..\..\..\Software\uCOS-II\Source/os_mem.c **** *
 198:..\..\..\..\..\..\Software\uCOS-II\Source/os_mem.c **** * Description: This function is used to obtain the name assigned to a memory partition.
ARM GAS  C:\Users\ADMINI~1\AppData\Local\Temp\ccjqW26u.s 			page 10


 199:..\..\..\..\..\..\Software\uCOS-II\Source/os_mem.c **** *
 200:..\..\..\..\..\..\Software\uCOS-II\Source/os_mem.c **** * Arguments  : pmem      is a pointer to the memory partition
 201:..\..\..\..\..\..\Software\uCOS-II\Source/os_mem.c **** *
 202:..\..\..\..\..\..\Software\uCOS-II\Source/os_mem.c **** *              pname     is a pointer to a pointer to an ASCII string that will receive the name of
 203:..\..\..\..\..\..\Software\uCOS-II\Source/os_mem.c **** *
 204:..\..\..\..\..\..\Software\uCOS-II\Source/os_mem.c **** *              perr      is a pointer to an error code that can contain one of the following values
 205:..\..\..\..\..\..\Software\uCOS-II\Source/os_mem.c **** *
 206:..\..\..\..\..\..\Software\uCOS-II\Source/os_mem.c **** *                        OS_ERR_NONE                if the name was copied to 'pname'
 207:..\..\..\..\..\..\Software\uCOS-II\Source/os_mem.c **** *                        OS_ERR_MEM_INVALID_PMEM    if you passed a NULL pointer for 'pmem'
 208:..\..\..\..\..\..\Software\uCOS-II\Source/os_mem.c **** *                        OS_ERR_PNAME_NULL          You passed a NULL pointer for 'pname'
 209:..\..\..\..\..\..\Software\uCOS-II\Source/os_mem.c **** *                        OS_ERR_NAME_GET_ISR        You called this function from an ISR
 210:..\..\..\..\..\..\Software\uCOS-II\Source/os_mem.c **** *
 211:..\..\..\..\..\..\Software\uCOS-II\Source/os_mem.c **** * Returns    : The length of the string or 0 if 'pmem' is a NULL pointer.
 212:..\..\..\..\..\..\Software\uCOS-II\Source/os_mem.c **** ***************************************************************************************************
 213:..\..\..\..\..\..\Software\uCOS-II\Source/os_mem.c **** */
 214:..\..\..\..\..\..\Software\uCOS-II\Source/os_mem.c **** 
 215:..\..\..\..\..\..\Software\uCOS-II\Source/os_mem.c **** #if OS_MEM_NAME_EN > 0u
 216:..\..\..\..\..\..\Software\uCOS-II\Source/os_mem.c **** INT8U  OSMemNameGet (OS_MEM   *pmem,
 217:..\..\..\..\..\..\Software\uCOS-II\Source/os_mem.c ****                      INT8U   **pname,
 218:..\..\..\..\..\..\Software\uCOS-II\Source/os_mem.c ****                      INT8U    *perr)
 219:..\..\..\..\..\..\Software\uCOS-II\Source/os_mem.c **** {
 314              		.loc 1 219 0
 315              		.cfi_startproc
 316              		@ args = 0, pretend = 0, frame = 24
 317              		@ frame_needed = 1, uses_anonymous_args = 0
 318 0000 90B5     		push	{r4, r7, lr}
 319              		.cfi_def_cfa_offset 12
 320              		.cfi_offset 4, -12
 321              		.cfi_offset 7, -8
 322              		.cfi_offset 14, -4
 323 0002 87B0     		sub	sp, sp, #28
 324              		.cfi_def_cfa_offset 40
 325 0004 00AF     		add	r7, sp, #0
 326              		.cfi_def_cfa_register 7
 327 0006 F860     		str	r0, [r7, #12]
 328 0008 B960     		str	r1, [r7, #8]
 329 000a 7A60     		str	r2, [r7, #4]
 220:..\..\..\..\..\..\Software\uCOS-II\Source/os_mem.c ****     INT8U      len;
 221:..\..\..\..\..\..\Software\uCOS-II\Source/os_mem.c **** #if OS_CRITICAL_METHOD == 3u                     /* Allocate storage for CPU status register       
 222:..\..\..\..\..\..\Software\uCOS-II\Source/os_mem.c ****     OS_CPU_SR  cpu_sr = 0u;
 330              		.loc 1 222 0
 331 000c 0023     		movs	r3, #0
 332 000e 7B61     		str	r3, [r7, #20]
 223:..\..\..\..\..\..\Software\uCOS-II\Source/os_mem.c **** #endif
 224:..\..\..\..\..\..\Software\uCOS-II\Source/os_mem.c **** 
 225:..\..\..\..\..\..\Software\uCOS-II\Source/os_mem.c **** 
 226:..\..\..\..\..\..\Software\uCOS-II\Source/os_mem.c **** 
 227:..\..\..\..\..\..\Software\uCOS-II\Source/os_mem.c **** #ifdef OS_SAFETY_CRITICAL
 228:..\..\..\..\..\..\Software\uCOS-II\Source/os_mem.c ****     if (perr == (INT8U *)0) {
 229:..\..\..\..\..\..\Software\uCOS-II\Source/os_mem.c ****         OS_SAFETY_CRITICAL_EXCEPTION();
 230:..\..\..\..\..\..\Software\uCOS-II\Source/os_mem.c ****         return (0u);
 231:..\..\..\..\..\..\Software\uCOS-II\Source/os_mem.c ****     }
 232:..\..\..\..\..\..\Software\uCOS-II\Source/os_mem.c **** #endif
 233:..\..\..\..\..\..\Software\uCOS-II\Source/os_mem.c **** 
 234:..\..\..\..\..\..\Software\uCOS-II\Source/os_mem.c **** #if OS_ARG_CHK_EN > 0u
 235:..\..\..\..\..\..\Software\uCOS-II\Source/os_mem.c ****     if (pmem == (OS_MEM *)0) {                   /* Is 'pmem' a NULL pointer?                      
 333              		.loc 1 235 0
ARM GAS  C:\Users\ADMINI~1\AppData\Local\Temp\ccjqW26u.s 			page 11


 334 0010 FB68     		ldr	r3, [r7, #12]
 335 0012 002B     		cmp	r3, #0
 336 0014 04D1     		bne	.L18
 236:..\..\..\..\..\..\Software\uCOS-II\Source/os_mem.c ****         *perr = OS_ERR_MEM_INVALID_PMEM;
 337              		.loc 1 236 0
 338 0016 7B68     		ldr	r3, [r7, #4]
 339 0018 6022     		movs	r2, #96
 340 001a 1A70     		strb	r2, [r3]
 237:..\..\..\..\..\..\Software\uCOS-II\Source/os_mem.c ****         return (0u);
 341              		.loc 1 237 0
 342 001c 0023     		movs	r3, #0
 343 001e 2BE0     		b	.L19
 344              	.L18:
 238:..\..\..\..\..\..\Software\uCOS-II\Source/os_mem.c ****     }
 239:..\..\..\..\..\..\Software\uCOS-II\Source/os_mem.c ****     if (pname == (INT8U **)0) {                  /* Is 'pname' a NULL pointer?                     
 345              		.loc 1 239 0
 346 0020 BB68     		ldr	r3, [r7, #8]
 347 0022 002B     		cmp	r3, #0
 348 0024 04D1     		bne	.L20
 240:..\..\..\..\..\..\Software\uCOS-II\Source/os_mem.c ****         *perr = OS_ERR_PNAME_NULL;
 349              		.loc 1 240 0
 350 0026 7B68     		ldr	r3, [r7, #4]
 351 0028 0C22     		movs	r2, #12
 352 002a 1A70     		strb	r2, [r3]
 241:..\..\..\..\..\..\Software\uCOS-II\Source/os_mem.c ****         return (0u);
 353              		.loc 1 241 0
 354 002c 0023     		movs	r3, #0
 355 002e 23E0     		b	.L19
 356              	.L20:
 242:..\..\..\..\..\..\Software\uCOS-II\Source/os_mem.c ****     }
 243:..\..\..\..\..\..\Software\uCOS-II\Source/os_mem.c **** #endif
 244:..\..\..\..\..\..\Software\uCOS-II\Source/os_mem.c ****     if (OSIntNesting > 0u) {                     /* See if trying to call from an ISR              
 357              		.loc 1 244 0
 358 0030 134B     		ldr	r3, .L22
 359 0032 1B78     		ldrb	r3, [r3]
 360 0034 002B     		cmp	r3, #0
 361 0036 04D0     		beq	.L21
 245:..\..\..\..\..\..\Software\uCOS-II\Source/os_mem.c ****         *perr = OS_ERR_NAME_GET_ISR;
 362              		.loc 1 245 0
 363 0038 7B68     		ldr	r3, [r7, #4]
 364 003a 1122     		movs	r2, #17
 365 003c 1A70     		strb	r2, [r3]
 246:..\..\..\..\..\..\Software\uCOS-II\Source/os_mem.c ****         return (0u);
 366              		.loc 1 246 0
 367 003e 0023     		movs	r3, #0
 368 0040 1AE0     		b	.L19
 369              	.L21:
 247:..\..\..\..\..\..\Software\uCOS-II\Source/os_mem.c ****     }
 248:..\..\..\..\..\..\Software\uCOS-II\Source/os_mem.c ****     OS_ENTER_CRITICAL();
 370              		.loc 1 248 0
 371 0042 FFF7FEFF 		bl	OS_CPU_SR_Save
 372 0046 0300     		movs	r3, r0
 373 0048 7B61     		str	r3, [r7, #20]
 249:..\..\..\..\..\..\Software\uCOS-II\Source/os_mem.c ****     *pname = pmem->OSMemName;
 374              		.loc 1 249 0
 375 004a FB68     		ldr	r3, [r7, #12]
 376 004c 5A69     		ldr	r2, [r3, #20]
ARM GAS  C:\Users\ADMINI~1\AppData\Local\Temp\ccjqW26u.s 			page 12


 377 004e BB68     		ldr	r3, [r7, #8]
 378 0050 1A60     		str	r2, [r3]
 250:..\..\..\..\..\..\Software\uCOS-II\Source/os_mem.c ****     len    = OS_StrLen(*pname);
 379              		.loc 1 250 0
 380 0052 BB68     		ldr	r3, [r7, #8]
 381 0054 1B68     		ldr	r3, [r3]
 382 0056 1322     		movs	r2, #19
 383 0058 BC18     		adds	r4, r7, r2
 384 005a 1800     		movs	r0, r3
 385 005c FFF7FEFF 		bl	OS_StrLen
 386 0060 0300     		movs	r3, r0
 387 0062 2370     		strb	r3, [r4]
 251:..\..\..\..\..\..\Software\uCOS-II\Source/os_mem.c ****     OS_EXIT_CRITICAL();
 388              		.loc 1 251 0
 389 0064 7B69     		ldr	r3, [r7, #20]
 390 0066 1800     		movs	r0, r3
 391 0068 FFF7FEFF 		bl	OS_CPU_SR_Restore
 252:..\..\..\..\..\..\Software\uCOS-II\Source/os_mem.c ****     *perr  = OS_ERR_NONE;
 392              		.loc 1 252 0
 393 006c 7B68     		ldr	r3, [r7, #4]
 394 006e 0022     		movs	r2, #0
 395 0070 1A70     		strb	r2, [r3]
 253:..\..\..\..\..\..\Software\uCOS-II\Source/os_mem.c ****     return (len);
 396              		.loc 1 253 0
 397 0072 1323     		movs	r3, #19
 398 0074 FB18     		adds	r3, r7, r3
 399 0076 1B78     		ldrb	r3, [r3]
 400              	.L19:
 254:..\..\..\..\..\..\Software\uCOS-II\Source/os_mem.c **** }
 401              		.loc 1 254 0
 402 0078 1800     		movs	r0, r3
 403 007a BD46     		mov	sp, r7
 404 007c 07B0     		add	sp, sp, #28
 405              		@ sp needed
 406 007e 90BD     		pop	{r4, r7, pc}
 407              	.L23:
 408              		.align	2
 409              	.L22:
 410 0080 00000000 		.word	OSIntNesting
 411              		.cfi_endproc
 412              	.LFE3:
 413              		.size	OSMemNameGet, .-OSMemNameGet
 414              		.section	.text.OSMemNameSet,"ax",%progbits
 415              		.align	2
 416              		.global	OSMemNameSet
 417              		.code	16
 418              		.thumb_func
 419              		.type	OSMemNameSet, %function
 420              	OSMemNameSet:
 421              	.LFB4:
 255:..\..\..\..\..\..\Software\uCOS-II\Source/os_mem.c **** #endif
 256:..\..\..\..\..\..\Software\uCOS-II\Source/os_mem.c **** 
 257:..\..\..\..\..\..\Software\uCOS-II\Source/os_mem.c **** /*$PAGE*/
 258:..\..\..\..\..\..\Software\uCOS-II\Source/os_mem.c **** /*
 259:..\..\..\..\..\..\Software\uCOS-II\Source/os_mem.c **** ***************************************************************************************************
 260:..\..\..\..\..\..\Software\uCOS-II\Source/os_mem.c **** *                                 ASSIGN A NAME TO A MEMORY PARTITION
 261:..\..\..\..\..\..\Software\uCOS-II\Source/os_mem.c **** *
ARM GAS  C:\Users\ADMINI~1\AppData\Local\Temp\ccjqW26u.s 			page 13


 262:..\..\..\..\..\..\Software\uCOS-II\Source/os_mem.c **** * Description: This function assigns a name to a memory partition.
 263:..\..\..\..\..\..\Software\uCOS-II\Source/os_mem.c **** *
 264:..\..\..\..\..\..\Software\uCOS-II\Source/os_mem.c **** * Arguments  : pmem      is a pointer to the memory partition
 265:..\..\..\..\..\..\Software\uCOS-II\Source/os_mem.c **** *
 266:..\..\..\..\..\..\Software\uCOS-II\Source/os_mem.c **** *              pname     is a pointer to an ASCII string that contains the name of the memory parti
 267:..\..\..\..\..\..\Software\uCOS-II\Source/os_mem.c **** *
 268:..\..\..\..\..\..\Software\uCOS-II\Source/os_mem.c **** *              perr      is a pointer to an error code that can contain one of the following values
 269:..\..\..\..\..\..\Software\uCOS-II\Source/os_mem.c **** *
 270:..\..\..\..\..\..\Software\uCOS-II\Source/os_mem.c **** *                        OS_ERR_NONE                if the name was copied to 'pname'
 271:..\..\..\..\..\..\Software\uCOS-II\Source/os_mem.c **** *                        OS_ERR_MEM_INVALID_PMEM    if you passed a NULL pointer for 'pmem'
 272:..\..\..\..\..\..\Software\uCOS-II\Source/os_mem.c **** *                        OS_ERR_PNAME_NULL          You passed a NULL pointer for 'pname'
 273:..\..\..\..\..\..\Software\uCOS-II\Source/os_mem.c **** *                        OS_ERR_MEM_NAME_TOO_LONG   if the name doesn't fit in the storage area
 274:..\..\..\..\..\..\Software\uCOS-II\Source/os_mem.c **** *                        OS_ERR_NAME_SET_ISR        if you called this function from an ISR
 275:..\..\..\..\..\..\Software\uCOS-II\Source/os_mem.c **** *
 276:..\..\..\..\..\..\Software\uCOS-II\Source/os_mem.c **** * Returns    : None
 277:..\..\..\..\..\..\Software\uCOS-II\Source/os_mem.c **** ***************************************************************************************************
 278:..\..\..\..\..\..\Software\uCOS-II\Source/os_mem.c **** */
 279:..\..\..\..\..\..\Software\uCOS-II\Source/os_mem.c **** 
 280:..\..\..\..\..\..\Software\uCOS-II\Source/os_mem.c **** #if OS_MEM_NAME_EN > 0u
 281:..\..\..\..\..\..\Software\uCOS-II\Source/os_mem.c **** void  OSMemNameSet (OS_MEM  *pmem,
 282:..\..\..\..\..\..\Software\uCOS-II\Source/os_mem.c ****                     INT8U   *pname,
 283:..\..\..\..\..\..\Software\uCOS-II\Source/os_mem.c ****                     INT8U   *perr)
 284:..\..\..\..\..\..\Software\uCOS-II\Source/os_mem.c **** {
 422              		.loc 1 284 0
 423              		.cfi_startproc
 424              		@ args = 0, pretend = 0, frame = 24
 425              		@ frame_needed = 1, uses_anonymous_args = 0
 426 0000 80B5     		push	{r7, lr}
 427              		.cfi_def_cfa_offset 8
 428              		.cfi_offset 7, -8
 429              		.cfi_offset 14, -4
 430 0002 86B0     		sub	sp, sp, #24
 431              		.cfi_def_cfa_offset 32
 432 0004 00AF     		add	r7, sp, #0
 433              		.cfi_def_cfa_register 7
 434 0006 F860     		str	r0, [r7, #12]
 435 0008 B960     		str	r1, [r7, #8]
 436 000a 7A60     		str	r2, [r7, #4]
 285:..\..\..\..\..\..\Software\uCOS-II\Source/os_mem.c **** #if OS_CRITICAL_METHOD == 3u                     /* Allocate storage for CPU status register       
 286:..\..\..\..\..\..\Software\uCOS-II\Source/os_mem.c ****     OS_CPU_SR  cpu_sr = 0u;
 437              		.loc 1 286 0
 438 000c 0023     		movs	r3, #0
 439 000e 7B61     		str	r3, [r7, #20]
 287:..\..\..\..\..\..\Software\uCOS-II\Source/os_mem.c **** #endif
 288:..\..\..\..\..\..\Software\uCOS-II\Source/os_mem.c **** 
 289:..\..\..\..\..\..\Software\uCOS-II\Source/os_mem.c **** 
 290:..\..\..\..\..\..\Software\uCOS-II\Source/os_mem.c **** 
 291:..\..\..\..\..\..\Software\uCOS-II\Source/os_mem.c **** #ifdef OS_SAFETY_CRITICAL
 292:..\..\..\..\..\..\Software\uCOS-II\Source/os_mem.c ****     if (perr == (INT8U *)0) {
 293:..\..\..\..\..\..\Software\uCOS-II\Source/os_mem.c ****         OS_SAFETY_CRITICAL_EXCEPTION();
 294:..\..\..\..\..\..\Software\uCOS-II\Source/os_mem.c ****         return;
 295:..\..\..\..\..\..\Software\uCOS-II\Source/os_mem.c ****     }
 296:..\..\..\..\..\..\Software\uCOS-II\Source/os_mem.c **** #endif
 297:..\..\..\..\..\..\Software\uCOS-II\Source/os_mem.c **** 
 298:..\..\..\..\..\..\Software\uCOS-II\Source/os_mem.c **** #if OS_ARG_CHK_EN > 0u
 299:..\..\..\..\..\..\Software\uCOS-II\Source/os_mem.c ****     if (pmem == (OS_MEM *)0) {                   /* Is 'pmem' a NULL pointer?                      
 440              		.loc 1 299 0
ARM GAS  C:\Users\ADMINI~1\AppData\Local\Temp\ccjqW26u.s 			page 14


 441 0010 FB68     		ldr	r3, [r7, #12]
 442 0012 002B     		cmp	r3, #0
 443 0014 03D1     		bne	.L25
 300:..\..\..\..\..\..\Software\uCOS-II\Source/os_mem.c ****         *perr = OS_ERR_MEM_INVALID_PMEM;
 444              		.loc 1 300 0
 445 0016 7B68     		ldr	r3, [r7, #4]
 446 0018 6022     		movs	r2, #96
 447 001a 1A70     		strb	r2, [r3]
 301:..\..\..\..\..\..\Software\uCOS-II\Source/os_mem.c ****         return;
 448              		.loc 1 301 0
 449 001c 1CE0     		b	.L24
 450              	.L25:
 302:..\..\..\..\..\..\Software\uCOS-II\Source/os_mem.c ****     }
 303:..\..\..\..\..\..\Software\uCOS-II\Source/os_mem.c ****     if (pname == (INT8U *)0) {                   /* Is 'pname' a NULL pointer?                     
 451              		.loc 1 303 0
 452 001e BB68     		ldr	r3, [r7, #8]
 453 0020 002B     		cmp	r3, #0
 454 0022 03D1     		bne	.L27
 304:..\..\..\..\..\..\Software\uCOS-II\Source/os_mem.c ****         *perr = OS_ERR_PNAME_NULL;
 455              		.loc 1 304 0
 456 0024 7B68     		ldr	r3, [r7, #4]
 457 0026 0C22     		movs	r2, #12
 458 0028 1A70     		strb	r2, [r3]
 305:..\..\..\..\..\..\Software\uCOS-II\Source/os_mem.c ****         return;
 459              		.loc 1 305 0
 460 002a 15E0     		b	.L24
 461              	.L27:
 306:..\..\..\..\..\..\Software\uCOS-II\Source/os_mem.c ****     }
 307:..\..\..\..\..\..\Software\uCOS-II\Source/os_mem.c **** #endif
 308:..\..\..\..\..\..\Software\uCOS-II\Source/os_mem.c ****     if (OSIntNesting > 0u) {                     /* See if trying to call from an ISR              
 462              		.loc 1 308 0
 463 002c 0C4B     		ldr	r3, .L29
 464 002e 1B78     		ldrb	r3, [r3]
 465 0030 002B     		cmp	r3, #0
 466 0032 03D0     		beq	.L28
 309:..\..\..\..\..\..\Software\uCOS-II\Source/os_mem.c ****         *perr = OS_ERR_NAME_SET_ISR;
 467              		.loc 1 309 0
 468 0034 7B68     		ldr	r3, [r7, #4]
 469 0036 1222     		movs	r2, #18
 470 0038 1A70     		strb	r2, [r3]
 310:..\..\..\..\..\..\Software\uCOS-II\Source/os_mem.c ****         return;
 471              		.loc 1 310 0
 472 003a 0DE0     		b	.L24
 473              	.L28:
 311:..\..\..\..\..\..\Software\uCOS-II\Source/os_mem.c ****     }
 312:..\..\..\..\..\..\Software\uCOS-II\Source/os_mem.c ****     OS_ENTER_CRITICAL();
 474              		.loc 1 312 0
 475 003c FFF7FEFF 		bl	OS_CPU_SR_Save
 476 0040 0300     		movs	r3, r0
 477 0042 7B61     		str	r3, [r7, #20]
 313:..\..\..\..\..\..\Software\uCOS-II\Source/os_mem.c ****     pmem->OSMemName = pname;
 478              		.loc 1 313 0
 479 0044 FB68     		ldr	r3, [r7, #12]
 480 0046 BA68     		ldr	r2, [r7, #8]
 481 0048 5A61     		str	r2, [r3, #20]
 314:..\..\..\..\..\..\Software\uCOS-II\Source/os_mem.c ****     OS_EXIT_CRITICAL();
 482              		.loc 1 314 0
ARM GAS  C:\Users\ADMINI~1\AppData\Local\Temp\ccjqW26u.s 			page 15


 483 004a 7B69     		ldr	r3, [r7, #20]
 484 004c 1800     		movs	r0, r3
 485 004e FFF7FEFF 		bl	OS_CPU_SR_Restore
 315:..\..\..\..\..\..\Software\uCOS-II\Source/os_mem.c ****     *perr           = OS_ERR_NONE;
 486              		.loc 1 315 0
 487 0052 7B68     		ldr	r3, [r7, #4]
 488 0054 0022     		movs	r2, #0
 489 0056 1A70     		strb	r2, [r3]
 490              	.L24:
 316:..\..\..\..\..\..\Software\uCOS-II\Source/os_mem.c **** }
 491              		.loc 1 316 0
 492 0058 BD46     		mov	sp, r7
 493 005a 06B0     		add	sp, sp, #24
 494              		@ sp needed
 495 005c 80BD     		pop	{r7, pc}
 496              	.L30:
 497 005e C046     		.align	2
 498              	.L29:
 499 0060 00000000 		.word	OSIntNesting
 500              		.cfi_endproc
 501              	.LFE4:
 502              		.size	OSMemNameSet, .-OSMemNameSet
 503              		.section	.text.OSMemPut,"ax",%progbits
 504              		.align	2
 505              		.global	OSMemPut
 506              		.code	16
 507              		.thumb_func
 508              		.type	OSMemPut, %function
 509              	OSMemPut:
 510              	.LFB5:
 317:..\..\..\..\..\..\Software\uCOS-II\Source/os_mem.c **** #endif
 318:..\..\..\..\..\..\Software\uCOS-II\Source/os_mem.c **** 
 319:..\..\..\..\..\..\Software\uCOS-II\Source/os_mem.c **** /*$PAGE*/
 320:..\..\..\..\..\..\Software\uCOS-II\Source/os_mem.c **** /*
 321:..\..\..\..\..\..\Software\uCOS-II\Source/os_mem.c **** ***************************************************************************************************
 322:..\..\..\..\..\..\Software\uCOS-II\Source/os_mem.c **** *                                       RELEASE A MEMORY BLOCK
 323:..\..\..\..\..\..\Software\uCOS-II\Source/os_mem.c **** *
 324:..\..\..\..\..\..\Software\uCOS-II\Source/os_mem.c **** * Description : Returns a memory block to a partition
 325:..\..\..\..\..\..\Software\uCOS-II\Source/os_mem.c **** *
 326:..\..\..\..\..\..\Software\uCOS-II\Source/os_mem.c **** * Arguments   : pmem    is a pointer to the memory partition control block
 327:..\..\..\..\..\..\Software\uCOS-II\Source/os_mem.c **** *
 328:..\..\..\..\..\..\Software\uCOS-II\Source/os_mem.c **** *               pblk    is a pointer to the memory block being released.
 329:..\..\..\..\..\..\Software\uCOS-II\Source/os_mem.c **** *
 330:..\..\..\..\..\..\Software\uCOS-II\Source/os_mem.c **** * Returns     : OS_ERR_NONE              if the memory block was inserted into the partition
 331:..\..\..\..\..\..\Software\uCOS-II\Source/os_mem.c **** *               OS_ERR_MEM_FULL          if you are returning a memory block to an already FULL mem
 332:..\..\..\..\..\..\Software\uCOS-II\Source/os_mem.c **** *                                        partition (You freed more blocks than you allocated!)
 333:..\..\..\..\..\..\Software\uCOS-II\Source/os_mem.c **** *               OS_ERR_MEM_INVALID_PMEM  if you passed a NULL pointer for 'pmem'
 334:..\..\..\..\..\..\Software\uCOS-II\Source/os_mem.c **** *               OS_ERR_MEM_INVALID_PBLK  if you passed a NULL pointer for the block to release.
 335:..\..\..\..\..\..\Software\uCOS-II\Source/os_mem.c **** ***************************************************************************************************
 336:..\..\..\..\..\..\Software\uCOS-II\Source/os_mem.c **** */
 337:..\..\..\..\..\..\Software\uCOS-II\Source/os_mem.c **** 
 338:..\..\..\..\..\..\Software\uCOS-II\Source/os_mem.c **** INT8U  OSMemPut (OS_MEM  *pmem,
 339:..\..\..\..\..\..\Software\uCOS-II\Source/os_mem.c ****                  void    *pblk)
 340:..\..\..\..\..\..\Software\uCOS-II\Source/os_mem.c **** {
 511              		.loc 1 340 0
 512              		.cfi_startproc
 513              		@ args = 0, pretend = 0, frame = 16
ARM GAS  C:\Users\ADMINI~1\AppData\Local\Temp\ccjqW26u.s 			page 16


 514              		@ frame_needed = 1, uses_anonymous_args = 0
 515 0000 80B5     		push	{r7, lr}
 516              		.cfi_def_cfa_offset 8
 517              		.cfi_offset 7, -8
 518              		.cfi_offset 14, -4
 519 0002 84B0     		sub	sp, sp, #16
 520              		.cfi_def_cfa_offset 24
 521 0004 00AF     		add	r7, sp, #0
 522              		.cfi_def_cfa_register 7
 523 0006 7860     		str	r0, [r7, #4]
 524 0008 3960     		str	r1, [r7]
 341:..\..\..\..\..\..\Software\uCOS-II\Source/os_mem.c **** #if OS_CRITICAL_METHOD == 3u                     /* Allocate storage for CPU status register       
 342:..\..\..\..\..\..\Software\uCOS-II\Source/os_mem.c ****     OS_CPU_SR  cpu_sr = 0u;
 525              		.loc 1 342 0
 526 000a 0023     		movs	r3, #0
 527 000c FB60     		str	r3, [r7, #12]
 343:..\..\..\..\..\..\Software\uCOS-II\Source/os_mem.c **** #endif
 344:..\..\..\..\..\..\Software\uCOS-II\Source/os_mem.c **** 
 345:..\..\..\..\..\..\Software\uCOS-II\Source/os_mem.c **** 
 346:..\..\..\..\..\..\Software\uCOS-II\Source/os_mem.c **** 
 347:..\..\..\..\..\..\Software\uCOS-II\Source/os_mem.c **** #if OS_ARG_CHK_EN > 0u
 348:..\..\..\..\..\..\Software\uCOS-II\Source/os_mem.c ****     if (pmem == (OS_MEM *)0) {                   /* Must point to a valid memory partition         
 528              		.loc 1 348 0
 529 000e 7B68     		ldr	r3, [r7, #4]
 530 0010 002B     		cmp	r3, #0
 531 0012 01D1     		bne	.L32
 349:..\..\..\..\..\..\Software\uCOS-II\Source/os_mem.c ****         return (OS_ERR_MEM_INVALID_PMEM);
 532              		.loc 1 349 0
 533 0014 6023     		movs	r3, #96
 534 0016 25E0     		b	.L33
 535              	.L32:
 350:..\..\..\..\..\..\Software\uCOS-II\Source/os_mem.c ****     }
 351:..\..\..\..\..\..\Software\uCOS-II\Source/os_mem.c ****     if (pblk == (void *)0) {                     /* Must release a valid block                     
 536              		.loc 1 351 0
 537 0018 3B68     		ldr	r3, [r7]
 538 001a 002B     		cmp	r3, #0
 539 001c 01D1     		bne	.L34
 352:..\..\..\..\..\..\Software\uCOS-II\Source/os_mem.c ****         return (OS_ERR_MEM_INVALID_PBLK);
 540              		.loc 1 352 0
 541 001e 5F23     		movs	r3, #95
 542 0020 20E0     		b	.L33
 543              	.L34:
 353:..\..\..\..\..\..\Software\uCOS-II\Source/os_mem.c ****     }
 354:..\..\..\..\..\..\Software\uCOS-II\Source/os_mem.c **** #endif
 355:..\..\..\..\..\..\Software\uCOS-II\Source/os_mem.c ****     OS_ENTER_CRITICAL();
 544              		.loc 1 355 0
 545 0022 FFF7FEFF 		bl	OS_CPU_SR_Save
 546 0026 0300     		movs	r3, r0
 547 0028 FB60     		str	r3, [r7, #12]
 356:..\..\..\..\..\..\Software\uCOS-II\Source/os_mem.c ****     if (pmem->OSMemNFree >= pmem->OSMemNBlks) {  /* Make sure all blocks not already returned      
 548              		.loc 1 356 0
 549 002a 7B68     		ldr	r3, [r7, #4]
 550 002c 1A69     		ldr	r2, [r3, #16]
 551 002e 7B68     		ldr	r3, [r7, #4]
 552 0030 DB68     		ldr	r3, [r3, #12]
 553 0032 9A42     		cmp	r2, r3
 554 0034 05D3     		bcc	.L35
ARM GAS  C:\Users\ADMINI~1\AppData\Local\Temp\ccjqW26u.s 			page 17


 357:..\..\..\..\..\..\Software\uCOS-II\Source/os_mem.c ****         OS_EXIT_CRITICAL();
 555              		.loc 1 357 0
 556 0036 FB68     		ldr	r3, [r7, #12]
 557 0038 1800     		movs	r0, r3
 558 003a FFF7FEFF 		bl	OS_CPU_SR_Restore
 358:..\..\..\..\..\..\Software\uCOS-II\Source/os_mem.c ****         return (OS_ERR_MEM_FULL);
 559              		.loc 1 358 0
 560 003e 5E23     		movs	r3, #94
 561 0040 10E0     		b	.L33
 562              	.L35:
 359:..\..\..\..\..\..\Software\uCOS-II\Source/os_mem.c ****     }
 360:..\..\..\..\..\..\Software\uCOS-II\Source/os_mem.c ****     *(void **)pblk      = pmem->OSMemFreeList;   /* Insert released block into free block list     
 563              		.loc 1 360 0
 564 0042 7B68     		ldr	r3, [r7, #4]
 565 0044 5A68     		ldr	r2, [r3, #4]
 566 0046 3B68     		ldr	r3, [r7]
 567 0048 1A60     		str	r2, [r3]
 361:..\..\..\..\..\..\Software\uCOS-II\Source/os_mem.c ****     pmem->OSMemFreeList = pblk;
 568              		.loc 1 361 0
 569 004a 7B68     		ldr	r3, [r7, #4]
 570 004c 3A68     		ldr	r2, [r7]
 571 004e 5A60     		str	r2, [r3, #4]
 362:..\..\..\..\..\..\Software\uCOS-II\Source/os_mem.c ****     pmem->OSMemNFree++;                          /* One more memory block in this partition        
 572              		.loc 1 362 0
 573 0050 7B68     		ldr	r3, [r7, #4]
 574 0052 1B69     		ldr	r3, [r3, #16]
 575 0054 5A1C     		adds	r2, r3, #1
 576 0056 7B68     		ldr	r3, [r7, #4]
 577 0058 1A61     		str	r2, [r3, #16]
 363:..\..\..\..\..\..\Software\uCOS-II\Source/os_mem.c ****     OS_EXIT_CRITICAL();
 578              		.loc 1 363 0
 579 005a FB68     		ldr	r3, [r7, #12]
 580 005c 1800     		movs	r0, r3
 581 005e FFF7FEFF 		bl	OS_CPU_SR_Restore
 364:..\..\..\..\..\..\Software\uCOS-II\Source/os_mem.c ****     return (OS_ERR_NONE);                        /* Notify caller that memory block was released   
 582              		.loc 1 364 0
 583 0062 0023     		movs	r3, #0
 584              	.L33:
 365:..\..\..\..\..\..\Software\uCOS-II\Source/os_mem.c **** }
 585              		.loc 1 365 0
 586 0064 1800     		movs	r0, r3
 587 0066 BD46     		mov	sp, r7
 588 0068 04B0     		add	sp, sp, #16
 589              		@ sp needed
 590 006a 80BD     		pop	{r7, pc}
 591              		.cfi_endproc
 592              	.LFE5:
 593              		.size	OSMemPut, .-OSMemPut
 594              		.section	.text.OSMemQuery,"ax",%progbits
 595              		.align	2
 596              		.global	OSMemQuery
 597              		.code	16
 598              		.thumb_func
 599              		.type	OSMemQuery, %function
 600              	OSMemQuery:
 601              	.LFB6:
 366:..\..\..\..\..\..\Software\uCOS-II\Source/os_mem.c **** /*$PAGE*/
ARM GAS  C:\Users\ADMINI~1\AppData\Local\Temp\ccjqW26u.s 			page 18


 367:..\..\..\..\..\..\Software\uCOS-II\Source/os_mem.c **** /*
 368:..\..\..\..\..\..\Software\uCOS-II\Source/os_mem.c **** ***************************************************************************************************
 369:..\..\..\..\..\..\Software\uCOS-II\Source/os_mem.c **** *                                       QUERY MEMORY PARTITION
 370:..\..\..\..\..\..\Software\uCOS-II\Source/os_mem.c **** *
 371:..\..\..\..\..\..\Software\uCOS-II\Source/os_mem.c **** * Description : This function is used to determine the number of free memory blocks and the number 
 372:..\..\..\..\..\..\Software\uCOS-II\Source/os_mem.c **** *               used memory blocks from a memory partition.
 373:..\..\..\..\..\..\Software\uCOS-II\Source/os_mem.c **** *
 374:..\..\..\..\..\..\Software\uCOS-II\Source/os_mem.c **** * Arguments   : pmem        is a pointer to the memory partition control block
 375:..\..\..\..\..\..\Software\uCOS-II\Source/os_mem.c **** *
 376:..\..\..\..\..\..\Software\uCOS-II\Source/os_mem.c **** *               p_mem_data  is a pointer to a structure that will contain information about the mem
 377:..\..\..\..\..\..\Software\uCOS-II\Source/os_mem.c **** *                           partition.
 378:..\..\..\..\..\..\Software\uCOS-II\Source/os_mem.c **** *
 379:..\..\..\..\..\..\Software\uCOS-II\Source/os_mem.c **** * Returns     : OS_ERR_NONE               if no errors were found.
 380:..\..\..\..\..\..\Software\uCOS-II\Source/os_mem.c **** *               OS_ERR_MEM_INVALID_PMEM   if you passed a NULL pointer for 'pmem'
 381:..\..\..\..\..\..\Software\uCOS-II\Source/os_mem.c **** *               OS_ERR_MEM_INVALID_PDATA  if you passed a NULL pointer to the data recipient.
 382:..\..\..\..\..\..\Software\uCOS-II\Source/os_mem.c **** ***************************************************************************************************
 383:..\..\..\..\..\..\Software\uCOS-II\Source/os_mem.c **** */
 384:..\..\..\..\..\..\Software\uCOS-II\Source/os_mem.c **** 
 385:..\..\..\..\..\..\Software\uCOS-II\Source/os_mem.c **** #if OS_MEM_QUERY_EN > 0u
 386:..\..\..\..\..\..\Software\uCOS-II\Source/os_mem.c **** INT8U  OSMemQuery (OS_MEM       *pmem,
 387:..\..\..\..\..\..\Software\uCOS-II\Source/os_mem.c ****                    OS_MEM_DATA  *p_mem_data)
 388:..\..\..\..\..\..\Software\uCOS-II\Source/os_mem.c **** {
 602              		.loc 1 388 0
 603              		.cfi_startproc
 604              		@ args = 0, pretend = 0, frame = 16
 605              		@ frame_needed = 1, uses_anonymous_args = 0
 606 0000 80B5     		push	{r7, lr}
 607              		.cfi_def_cfa_offset 8
 608              		.cfi_offset 7, -8
 609              		.cfi_offset 14, -4
 610 0002 84B0     		sub	sp, sp, #16
 611              		.cfi_def_cfa_offset 24
 612 0004 00AF     		add	r7, sp, #0
 613              		.cfi_def_cfa_register 7
 614 0006 7860     		str	r0, [r7, #4]
 615 0008 3960     		str	r1, [r7]
 389:..\..\..\..\..\..\Software\uCOS-II\Source/os_mem.c **** #if OS_CRITICAL_METHOD == 3u                     /* Allocate storage for CPU status register       
 390:..\..\..\..\..\..\Software\uCOS-II\Source/os_mem.c ****     OS_CPU_SR  cpu_sr = 0u;
 616              		.loc 1 390 0
 617 000a 0023     		movs	r3, #0
 618 000c FB60     		str	r3, [r7, #12]
 391:..\..\..\..\..\..\Software\uCOS-II\Source/os_mem.c **** #endif
 392:..\..\..\..\..\..\Software\uCOS-II\Source/os_mem.c **** 
 393:..\..\..\..\..\..\Software\uCOS-II\Source/os_mem.c **** 
 394:..\..\..\..\..\..\Software\uCOS-II\Source/os_mem.c **** 
 395:..\..\..\..\..\..\Software\uCOS-II\Source/os_mem.c **** #if OS_ARG_CHK_EN > 0u
 396:..\..\..\..\..\..\Software\uCOS-II\Source/os_mem.c ****     if (pmem == (OS_MEM *)0) {                   /* Must point to a valid memory partition         
 619              		.loc 1 396 0
 620 000e 7B68     		ldr	r3, [r7, #4]
 621 0010 002B     		cmp	r3, #0
 622 0012 01D1     		bne	.L37
 397:..\..\..\..\..\..\Software\uCOS-II\Source/os_mem.c ****         return (OS_ERR_MEM_INVALID_PMEM);
 623              		.loc 1 397 0
 624 0014 6023     		movs	r3, #96
 625 0016 28E0     		b	.L38
 626              	.L37:
 398:..\..\..\..\..\..\Software\uCOS-II\Source/os_mem.c ****     }
ARM GAS  C:\Users\ADMINI~1\AppData\Local\Temp\ccjqW26u.s 			page 19


 399:..\..\..\..\..\..\Software\uCOS-II\Source/os_mem.c ****     if (p_mem_data == (OS_MEM_DATA *)0) {        /* Must release a valid storage area for the data 
 627              		.loc 1 399 0
 628 0018 3B68     		ldr	r3, [r7]
 629 001a 002B     		cmp	r3, #0
 630 001c 01D1     		bne	.L39
 400:..\..\..\..\..\..\Software\uCOS-II\Source/os_mem.c ****         return (OS_ERR_MEM_INVALID_PDATA);
 631              		.loc 1 400 0
 632 001e 6123     		movs	r3, #97
 633 0020 23E0     		b	.L38
 634              	.L39:
 401:..\..\..\..\..\..\Software\uCOS-II\Source/os_mem.c ****     }
 402:..\..\..\..\..\..\Software\uCOS-II\Source/os_mem.c **** #endif
 403:..\..\..\..\..\..\Software\uCOS-II\Source/os_mem.c ****     OS_ENTER_CRITICAL();
 635              		.loc 1 403 0
 636 0022 FFF7FEFF 		bl	OS_CPU_SR_Save
 637 0026 0300     		movs	r3, r0
 638 0028 FB60     		str	r3, [r7, #12]
 404:..\..\..\..\..\..\Software\uCOS-II\Source/os_mem.c ****     p_mem_data->OSAddr     = pmem->OSMemAddr;
 639              		.loc 1 404 0
 640 002a 7B68     		ldr	r3, [r7, #4]
 641 002c 1A68     		ldr	r2, [r3]
 642 002e 3B68     		ldr	r3, [r7]
 643 0030 1A60     		str	r2, [r3]
 405:..\..\..\..\..\..\Software\uCOS-II\Source/os_mem.c ****     p_mem_data->OSFreeList = pmem->OSMemFreeList;
 644              		.loc 1 405 0
 645 0032 7B68     		ldr	r3, [r7, #4]
 646 0034 5A68     		ldr	r2, [r3, #4]
 647 0036 3B68     		ldr	r3, [r7]
 648 0038 5A60     		str	r2, [r3, #4]
 406:..\..\..\..\..\..\Software\uCOS-II\Source/os_mem.c ****     p_mem_data->OSBlkSize  = pmem->OSMemBlkSize;
 649              		.loc 1 406 0
 650 003a 7B68     		ldr	r3, [r7, #4]
 651 003c 9A68     		ldr	r2, [r3, #8]
 652 003e 3B68     		ldr	r3, [r7]
 653 0040 9A60     		str	r2, [r3, #8]
 407:..\..\..\..\..\..\Software\uCOS-II\Source/os_mem.c ****     p_mem_data->OSNBlks    = pmem->OSMemNBlks;
 654              		.loc 1 407 0
 655 0042 7B68     		ldr	r3, [r7, #4]
 656 0044 DA68     		ldr	r2, [r3, #12]
 657 0046 3B68     		ldr	r3, [r7]
 658 0048 DA60     		str	r2, [r3, #12]
 408:..\..\..\..\..\..\Software\uCOS-II\Source/os_mem.c ****     p_mem_data->OSNFree    = pmem->OSMemNFree;
 659              		.loc 1 408 0
 660 004a 7B68     		ldr	r3, [r7, #4]
 661 004c 1A69     		ldr	r2, [r3, #16]
 662 004e 3B68     		ldr	r3, [r7]
 663 0050 1A61     		str	r2, [r3, #16]
 409:..\..\..\..\..\..\Software\uCOS-II\Source/os_mem.c ****     OS_EXIT_CRITICAL();
 664              		.loc 1 409 0
 665 0052 FB68     		ldr	r3, [r7, #12]
 666 0054 1800     		movs	r0, r3
 667 0056 FFF7FEFF 		bl	OS_CPU_SR_Restore
 410:..\..\..\..\..\..\Software\uCOS-II\Source/os_mem.c ****     p_mem_data->OSNUsed    = p_mem_data->OSNBlks - p_mem_data->OSNFree;
 668              		.loc 1 410 0
 669 005a 3B68     		ldr	r3, [r7]
 670 005c DA68     		ldr	r2, [r3, #12]
 671 005e 3B68     		ldr	r3, [r7]
ARM GAS  C:\Users\ADMINI~1\AppData\Local\Temp\ccjqW26u.s 			page 20


 672 0060 1B69     		ldr	r3, [r3, #16]
 673 0062 D21A     		subs	r2, r2, r3
 674 0064 3B68     		ldr	r3, [r7]
 675 0066 5A61     		str	r2, [r3, #20]
 411:..\..\..\..\..\..\Software\uCOS-II\Source/os_mem.c ****     return (OS_ERR_NONE);
 676              		.loc 1 411 0
 677 0068 0023     		movs	r3, #0
 678              	.L38:
 412:..\..\..\..\..\..\Software\uCOS-II\Source/os_mem.c **** }
 679              		.loc 1 412 0
 680 006a 1800     		movs	r0, r3
 681 006c BD46     		mov	sp, r7
 682 006e 04B0     		add	sp, sp, #16
 683              		@ sp needed
 684 0070 80BD     		pop	{r7, pc}
 685              		.cfi_endproc
 686              	.LFE6:
 687              		.size	OSMemQuery, .-OSMemQuery
 688 0072 C046     		.section	.rodata
 689              		.align	2
 690              	.LC4:
 691 0000 3F00     		.ascii	"?\000"
 692              		.section	.text.OS_MemInit,"ax",%progbits
 693              		.align	2
 694              		.global	OS_MemInit
 695              		.code	16
 696              		.thumb_func
 697              		.type	OS_MemInit, %function
 698              	OS_MemInit:
 699              	.LFB7:
 413:..\..\..\..\..\..\Software\uCOS-II\Source/os_mem.c **** #endif                                           /* OS_MEM_QUERY_EN                                
 414:..\..\..\..\..\..\Software\uCOS-II\Source/os_mem.c **** /*$PAGE*/
 415:..\..\..\..\..\..\Software\uCOS-II\Source/os_mem.c **** /*
 416:..\..\..\..\..\..\Software\uCOS-II\Source/os_mem.c **** ***************************************************************************************************
 417:..\..\..\..\..\..\Software\uCOS-II\Source/os_mem.c **** *                                 INITIALIZE MEMORY PARTITION MANAGER
 418:..\..\..\..\..\..\Software\uCOS-II\Source/os_mem.c **** *
 419:..\..\..\..\..\..\Software\uCOS-II\Source/os_mem.c **** * Description : This function is called by uC/OS-II to initialize the memory partition manager.  Yo
 420:..\..\..\..\..\..\Software\uCOS-II\Source/os_mem.c **** *               application MUST NOT call this function.
 421:..\..\..\..\..\..\Software\uCOS-II\Source/os_mem.c **** *
 422:..\..\..\..\..\..\Software\uCOS-II\Source/os_mem.c **** * Arguments   : none
 423:..\..\..\..\..\..\Software\uCOS-II\Source/os_mem.c **** *
 424:..\..\..\..\..\..\Software\uCOS-II\Source/os_mem.c **** * Returns     : none
 425:..\..\..\..\..\..\Software\uCOS-II\Source/os_mem.c **** *
 426:..\..\..\..\..\..\Software\uCOS-II\Source/os_mem.c **** * Note(s)    : This function is INTERNAL to uC/OS-II and your application should not call it.
 427:..\..\..\..\..\..\Software\uCOS-II\Source/os_mem.c **** ***************************************************************************************************
 428:..\..\..\..\..\..\Software\uCOS-II\Source/os_mem.c **** */
 429:..\..\..\..\..\..\Software\uCOS-II\Source/os_mem.c **** 
 430:..\..\..\..\..\..\Software\uCOS-II\Source/os_mem.c **** void  OS_MemInit (void)
 431:..\..\..\..\..\..\Software\uCOS-II\Source/os_mem.c **** {
 700              		.loc 1 431 0
 701              		.cfi_startproc
 702              		@ args = 0, pretend = 0, frame = 8
 703              		@ frame_needed = 1, uses_anonymous_args = 0
 704 0000 80B5     		push	{r7, lr}
 705              		.cfi_def_cfa_offset 8
 706              		.cfi_offset 7, -8
 707              		.cfi_offset 14, -4
ARM GAS  C:\Users\ADMINI~1\AppData\Local\Temp\ccjqW26u.s 			page 21


 708 0002 82B0     		sub	sp, sp, #8
 709              		.cfi_def_cfa_offset 16
 710 0004 00AF     		add	r7, sp, #0
 711              		.cfi_def_cfa_register 7
 432:..\..\..\..\..\..\Software\uCOS-II\Source/os_mem.c **** #if OS_MAX_MEM_PART == 1u
 433:..\..\..\..\..\..\Software\uCOS-II\Source/os_mem.c ****     OS_MemClr((INT8U *)&OSMemTbl[0], sizeof(OSMemTbl));   /* Clear the memory partition table      
 434:..\..\..\..\..\..\Software\uCOS-II\Source/os_mem.c ****     OSMemFreeList               = (OS_MEM *)&OSMemTbl[0]; /* Point to beginning of free list       
 435:..\..\..\..\..\..\Software\uCOS-II\Source/os_mem.c **** #if OS_MEM_NAME_EN > 0u
 436:..\..\..\..\..\..\Software\uCOS-II\Source/os_mem.c ****     OSMemFreeList->OSMemName    = (INT8U *)"?";           /* Unknown name                          
 437:..\..\..\..\..\..\Software\uCOS-II\Source/os_mem.c **** #endif
 438:..\..\..\..\..\..\Software\uCOS-II\Source/os_mem.c **** #endif
 439:..\..\..\..\..\..\Software\uCOS-II\Source/os_mem.c **** 
 440:..\..\..\..\..\..\Software\uCOS-II\Source/os_mem.c **** #if OS_MAX_MEM_PART >= 2u
 441:..\..\..\..\..\..\Software\uCOS-II\Source/os_mem.c ****     OS_MEM  *pmem;
 442:..\..\..\..\..\..\Software\uCOS-II\Source/os_mem.c ****     INT16U   i;
 443:..\..\..\..\..\..\Software\uCOS-II\Source/os_mem.c **** 
 444:..\..\..\..\..\..\Software\uCOS-II\Source/os_mem.c **** 
 445:..\..\..\..\..\..\Software\uCOS-II\Source/os_mem.c ****     OS_MemClr((INT8U *)&OSMemTbl[0], sizeof(OSMemTbl));   /* Clear the memory partition table      
 712              		.loc 1 445 0
 713 0006 1F4B     		ldr	r3, .L43
 714 0008 7821     		movs	r1, #120
 715 000a 1800     		movs	r0, r3
 716 000c FFF7FEFF 		bl	OS_MemClr
 446:..\..\..\..\..\..\Software\uCOS-II\Source/os_mem.c ****     for (i = 0u; i < (OS_MAX_MEM_PART - 1u); i++) {       /* Init. list of free memory partitions  
 717              		.loc 1 446 0
 718 0010 BB1D     		adds	r3, r7, #6
 719 0012 0022     		movs	r2, #0
 720 0014 1A80     		strh	r2, [r3]
 721 0016 1BE0     		b	.L41
 722              	.L42:
 447:..\..\..\..\..\..\Software\uCOS-II\Source/os_mem.c ****         pmem                = &OSMemTbl[i];               /* Point to memory control block (MCB)   
 723              		.loc 1 447 0 discriminator 3
 724 0018 BB1D     		adds	r3, r7, #6
 725 001a 1A88     		ldrh	r2, [r3]
 726 001c 1300     		movs	r3, r2
 727 001e 5B00     		lsls	r3, r3, #1
 728 0020 9B18     		adds	r3, r3, r2
 729 0022 DB00     		lsls	r3, r3, #3
 730 0024 174A     		ldr	r2, .L43
 731 0026 9B18     		adds	r3, r3, r2
 732 0028 3B60     		str	r3, [r7]
 448:..\..\..\..\..\..\Software\uCOS-II\Source/os_mem.c ****         pmem->OSMemFreeList = (void *)&OSMemTbl[i + 1u];  /* Chain list of free partitions         
 733              		.loc 1 448 0 discriminator 3
 734 002a BB1D     		adds	r3, r7, #6
 735 002c 1B88     		ldrh	r3, [r3]
 736 002e 5A1C     		adds	r2, r3, #1
 737 0030 1300     		movs	r3, r2
 738 0032 5B00     		lsls	r3, r3, #1
 739 0034 9B18     		adds	r3, r3, r2
 740 0036 DB00     		lsls	r3, r3, #3
 741 0038 124A     		ldr	r2, .L43
 742 003a 9A18     		adds	r2, r3, r2
 743 003c 3B68     		ldr	r3, [r7]
 744 003e 5A60     		str	r2, [r3, #4]
 449:..\..\..\..\..\..\Software\uCOS-II\Source/os_mem.c **** #if OS_MEM_NAME_EN > 0u
 450:..\..\..\..\..\..\Software\uCOS-II\Source/os_mem.c ****         pmem->OSMemName  = (INT8U *)(void *)"?";
 745              		.loc 1 450 0 discriminator 3
ARM GAS  C:\Users\ADMINI~1\AppData\Local\Temp\ccjqW26u.s 			page 22


 746 0040 3B68     		ldr	r3, [r7]
 747 0042 114A     		ldr	r2, .L43+4
 748 0044 5A61     		str	r2, [r3, #20]
 446:..\..\..\..\..\..\Software\uCOS-II\Source/os_mem.c ****         pmem                = &OSMemTbl[i];               /* Point to memory control block (MCB)   
 749              		.loc 1 446 0 discriminator 3
 750 0046 BB1D     		adds	r3, r7, #6
 751 0048 1A88     		ldrh	r2, [r3]
 752 004a BB1D     		adds	r3, r7, #6
 753 004c 0132     		adds	r2, r2, #1
 754 004e 1A80     		strh	r2, [r3]
 755              	.L41:
 446:..\..\..\..\..\..\Software\uCOS-II\Source/os_mem.c ****         pmem                = &OSMemTbl[i];               /* Point to memory control block (MCB)   
 756              		.loc 1 446 0 is_stmt 0 discriminator 1
 757 0050 BB1D     		adds	r3, r7, #6
 758 0052 1B88     		ldrh	r3, [r3]
 759 0054 032B     		cmp	r3, #3
 760 0056 DFD9     		bls	.L42
 451:..\..\..\..\..\..\Software\uCOS-II\Source/os_mem.c **** #endif
 452:..\..\..\..\..\..\Software\uCOS-II\Source/os_mem.c ****     }
 453:..\..\..\..\..\..\Software\uCOS-II\Source/os_mem.c ****     pmem                = &OSMemTbl[i];
 761              		.loc 1 453 0 is_stmt 1
 762 0058 BB1D     		adds	r3, r7, #6
 763 005a 1A88     		ldrh	r2, [r3]
 764 005c 1300     		movs	r3, r2
 765 005e 5B00     		lsls	r3, r3, #1
 766 0060 9B18     		adds	r3, r3, r2
 767 0062 DB00     		lsls	r3, r3, #3
 768 0064 074A     		ldr	r2, .L43
 769 0066 9B18     		adds	r3, r3, r2
 770 0068 3B60     		str	r3, [r7]
 454:..\..\..\..\..\..\Software\uCOS-II\Source/os_mem.c ****     pmem->OSMemFreeList = (void *)0;                      /* Initialize last node                  
 771              		.loc 1 454 0
 772 006a 3B68     		ldr	r3, [r7]
 773 006c 0022     		movs	r2, #0
 774 006e 5A60     		str	r2, [r3, #4]
 455:..\..\..\..\..\..\Software\uCOS-II\Source/os_mem.c **** #if OS_MEM_NAME_EN > 0u
 456:..\..\..\..\..\..\Software\uCOS-II\Source/os_mem.c ****     pmem->OSMemName = (INT8U *)(void *)"?";
 775              		.loc 1 456 0
 776 0070 3B68     		ldr	r3, [r7]
 777 0072 054A     		ldr	r2, .L43+4
 778 0074 5A61     		str	r2, [r3, #20]
 457:..\..\..\..\..\..\Software\uCOS-II\Source/os_mem.c **** #endif
 458:..\..\..\..\..\..\Software\uCOS-II\Source/os_mem.c **** 
 459:..\..\..\..\..\..\Software\uCOS-II\Source/os_mem.c ****     OSMemFreeList   = &OSMemTbl[0];                       /* Point to beginning of free list       
 779              		.loc 1 459 0
 780 0076 054B     		ldr	r3, .L43+8
 781 0078 024A     		ldr	r2, .L43
 782 007a 1A60     		str	r2, [r3]
 460:..\..\..\..\..\..\Software\uCOS-II\Source/os_mem.c **** #endif
 461:..\..\..\..\..\..\Software\uCOS-II\Source/os_mem.c **** }
 783              		.loc 1 461 0
 784 007c C046     		nop
 785 007e BD46     		mov	sp, r7
 786 0080 02B0     		add	sp, sp, #8
 787              		@ sp needed
 788 0082 80BD     		pop	{r7, pc}
 789              	.L44:
ARM GAS  C:\Users\ADMINI~1\AppData\Local\Temp\ccjqW26u.s 			page 23


 790              		.align	2
 791              	.L43:
 792 0084 00000000 		.word	OSMemTbl
 793 0088 00000000 		.word	.LC4
 794 008c 00000000 		.word	OSMemFreeList
 795              		.cfi_endproc
 796              	.LFE7:
 797              		.size	OS_MemInit, .-OS_MemInit
 798              		.text
 799              	.Letext0:
 800              		.file 2 "..\\..\\..\\..\\..\\..\\Software\\uCOS-II\\Ports\\ARM-Cortex-M0\\Generic\\GNU/os_cpu.h"
 801              		.file 3 "..\\..\\..\\..\\..\\..\\Software\\uCOS-II\\Source/ucos_ii.h"