ARM GAS  C:\Users\ADMINI~1\AppData\Local\Temp\ccsfG4Nc.s 			page 1


   1              		.syntax unified
   2              		.cpu cortex-m0
   3              		.fpu softvfp
   4              		.eabi_attribute 20, 1
   5              		.eabi_attribute 21, 1
   6              		.eabi_attribute 23, 3
   7              		.eabi_attribute 24, 1
   8              		.eabi_attribute 25, 1
   9              		.eabi_attribute 26, 1
  10              		.eabi_attribute 30, 6
  11              		.eabi_attribute 34, 0
  12              		.eabi_attribute 18, 4
  13              		.thumb
  14              		.syntax unified
  15              		.file	"os_mbox.c"
  16              		.text
  17              	.Ltext0:
  18              		.cfi_sections	.debug_frame
  19              		.section	.text.OSMboxAccept,"ax",%progbits
  20              		.align	2
  21              		.global	OSMboxAccept
  22              		.code	16
  23              		.thumb_func
  24              		.type	OSMboxAccept, %function
  25              	OSMboxAccept:
  26              	.LFB1:
  27              		.file 1 "..\\..\\..\\..\\..\\..\\Software\\uCOS-II\\Source\\os_mbox.c"
   1:..\..\..\..\..\..\Software\uCOS-II\Source/os_mbox.c **** /*
   2:..\..\..\..\..\..\Software\uCOS-II\Source/os_mbox.c **** ***************************************************************************************************
   3:..\..\..\..\..\..\Software\uCOS-II\Source/os_mbox.c **** *                                                uC/OS-II
   4:..\..\..\..\..\..\Software\uCOS-II\Source/os_mbox.c **** *                                          The Real-Time Kernel
   5:..\..\..\..\..\..\Software\uCOS-II\Source/os_mbox.c **** *                                       MESSAGE MAILBOX MANAGEMENT
   6:..\..\..\..\..\..\Software\uCOS-II\Source/os_mbox.c **** *
   7:..\..\..\..\..\..\Software\uCOS-II\Source/os_mbox.c **** *                              (c) Copyright 1992-2013, Micrium, Weston, FL
   8:..\..\..\..\..\..\Software\uCOS-II\Source/os_mbox.c **** *                                           All Rights Reserved
   9:..\..\..\..\..\..\Software\uCOS-II\Source/os_mbox.c **** *
  10:..\..\..\..\..\..\Software\uCOS-II\Source/os_mbox.c **** * File    : OS_MBOX.C
  11:..\..\..\..\..\..\Software\uCOS-II\Source/os_mbox.c **** * By      : Jean J. Labrosse
  12:..\..\..\..\..\..\Software\uCOS-II\Source/os_mbox.c **** * Version : V2.92.11
  13:..\..\..\..\..\..\Software\uCOS-II\Source/os_mbox.c **** *
  14:..\..\..\..\..\..\Software\uCOS-II\Source/os_mbox.c **** * LICENSING TERMS:
  15:..\..\..\..\..\..\Software\uCOS-II\Source/os_mbox.c **** * ---------------
  16:..\..\..\..\..\..\Software\uCOS-II\Source/os_mbox.c **** *   uC/OS-II is provided in source form for FREE evaluation, for educational use or for peaceful re
  17:..\..\..\..\..\..\Software\uCOS-II\Source/os_mbox.c **** * If you plan on using  uC/OS-II  in a commercial product you need to contact Micrium to properly l
  18:..\..\..\..\..\..\Software\uCOS-II\Source/os_mbox.c **** * its use in your product. We provide ALL the source code for your convenience and to help you expe
  19:..\..\..\..\..\..\Software\uCOS-II\Source/os_mbox.c **** * uC/OS-II.   The fact that the  source is provided does  NOT  mean that you can use it without  pa
  20:..\..\..\..\..\..\Software\uCOS-II\Source/os_mbox.c **** * licensing fee.
  21:..\..\..\..\..\..\Software\uCOS-II\Source/os_mbox.c **** ***************************************************************************************************
  22:..\..\..\..\..\..\Software\uCOS-II\Source/os_mbox.c **** */
  23:..\..\..\..\..\..\Software\uCOS-II\Source/os_mbox.c **** 
  24:..\..\..\..\..\..\Software\uCOS-II\Source/os_mbox.c **** #define  MICRIUM_SOURCE
  25:..\..\..\..\..\..\Software\uCOS-II\Source/os_mbox.c **** 
  26:..\..\..\..\..\..\Software\uCOS-II\Source/os_mbox.c **** #ifndef  OS_MASTER_FILE
  27:..\..\..\..\..\..\Software\uCOS-II\Source/os_mbox.c **** #include <ucos_ii.h>
  28:..\..\..\..\..\..\Software\uCOS-II\Source/os_mbox.c **** #endif
  29:..\..\..\..\..\..\Software\uCOS-II\Source/os_mbox.c **** 
  30:..\..\..\..\..\..\Software\uCOS-II\Source/os_mbox.c **** #if OS_MBOX_EN > 0u
ARM GAS  C:\Users\ADMINI~1\AppData\Local\Temp\ccsfG4Nc.s 			page 2


  31:..\..\..\..\..\..\Software\uCOS-II\Source/os_mbox.c **** /*
  32:..\..\..\..\..\..\Software\uCOS-II\Source/os_mbox.c **** ***************************************************************************************************
  33:..\..\..\..\..\..\Software\uCOS-II\Source/os_mbox.c **** *                                        ACCEPT MESSAGE FROM MAILBOX
  34:..\..\..\..\..\..\Software\uCOS-II\Source/os_mbox.c **** *
  35:..\..\..\..\..\..\Software\uCOS-II\Source/os_mbox.c **** * Description: This function checks the mailbox to see if a message is available.  Unlike OSMboxPen
  36:..\..\..\..\..\..\Software\uCOS-II\Source/os_mbox.c **** *              OSMboxAccept() does not suspend the calling task if a message is not available.
  37:..\..\..\..\..\..\Software\uCOS-II\Source/os_mbox.c **** *
  38:..\..\..\..\..\..\Software\uCOS-II\Source/os_mbox.c **** * Arguments  : pevent        is a pointer to the event control block
  39:..\..\..\..\..\..\Software\uCOS-II\Source/os_mbox.c **** *
  40:..\..\..\..\..\..\Software\uCOS-II\Source/os_mbox.c **** * Returns    : != (void *)0  is the message in the mailbox if one is available.  The mailbox is cle
  41:..\..\..\..\..\..\Software\uCOS-II\Source/os_mbox.c **** *                            so the next time OSMboxAccept() is called, the mailbox will be empty.
  42:..\..\..\..\..\..\Software\uCOS-II\Source/os_mbox.c **** *              == (void *)0  if the mailbox is empty or,
  43:..\..\..\..\..\..\Software\uCOS-II\Source/os_mbox.c **** *                            if 'pevent' is a NULL pointer or,
  44:..\..\..\..\..\..\Software\uCOS-II\Source/os_mbox.c **** *                            if you didn't pass the proper event pointer.
  45:..\..\..\..\..\..\Software\uCOS-II\Source/os_mbox.c **** ***************************************************************************************************
  46:..\..\..\..\..\..\Software\uCOS-II\Source/os_mbox.c **** */
  47:..\..\..\..\..\..\Software\uCOS-II\Source/os_mbox.c **** 
  48:..\..\..\..\..\..\Software\uCOS-II\Source/os_mbox.c **** #if OS_MBOX_ACCEPT_EN > 0u
  49:..\..\..\..\..\..\Software\uCOS-II\Source/os_mbox.c **** void  *OSMboxAccept (OS_EVENT *pevent)
  50:..\..\..\..\..\..\Software\uCOS-II\Source/os_mbox.c **** {
  28              		.loc 1 50 0
  29              		.cfi_startproc
  30              		@ args = 0, pretend = 0, frame = 16
  31              		@ frame_needed = 1, uses_anonymous_args = 0
  32 0000 80B5     		push	{r7, lr}
  33              		.cfi_def_cfa_offset 8
  34              		.cfi_offset 7, -8
  35              		.cfi_offset 14, -4
  36 0002 84B0     		sub	sp, sp, #16
  37              		.cfi_def_cfa_offset 24
  38 0004 00AF     		add	r7, sp, #0
  39              		.cfi_def_cfa_register 7
  40 0006 7860     		str	r0, [r7, #4]
  51:..\..\..\..\..\..\Software\uCOS-II\Source/os_mbox.c ****     void      *pmsg;
  52:..\..\..\..\..\..\Software\uCOS-II\Source/os_mbox.c **** #if OS_CRITICAL_METHOD == 3u                              /* Allocate storage for CPU status regist
  53:..\..\..\..\..\..\Software\uCOS-II\Source/os_mbox.c ****     OS_CPU_SR  cpu_sr = 0u;
  41              		.loc 1 53 0
  42 0008 0023     		movs	r3, #0
  43 000a FB60     		str	r3, [r7, #12]
  54:..\..\..\..\..\..\Software\uCOS-II\Source/os_mbox.c **** #endif
  55:..\..\..\..\..\..\Software\uCOS-II\Source/os_mbox.c **** 
  56:..\..\..\..\..\..\Software\uCOS-II\Source/os_mbox.c **** 
  57:..\..\..\..\..\..\Software\uCOS-II\Source/os_mbox.c **** 
  58:..\..\..\..\..\..\Software\uCOS-II\Source/os_mbox.c **** #if OS_ARG_CHK_EN > 0u
  59:..\..\..\..\..\..\Software\uCOS-II\Source/os_mbox.c ****     if (pevent == (OS_EVENT *)0) {                        /* Validate 'pevent'                     
  44              		.loc 1 59 0
  45 000c 7B68     		ldr	r3, [r7, #4]
  46 000e 002B     		cmp	r3, #0
  47 0010 01D1     		bne	.L2
  60:..\..\..\..\..\..\Software\uCOS-II\Source/os_mbox.c ****         return ((void *)0);
  48              		.loc 1 60 0
  49 0012 0023     		movs	r3, #0
  50 0014 14E0     		b	.L3
  51              	.L2:
  61:..\..\..\..\..\..\Software\uCOS-II\Source/os_mbox.c ****     }
  62:..\..\..\..\..\..\Software\uCOS-II\Source/os_mbox.c **** #endif
  63:..\..\..\..\..\..\Software\uCOS-II\Source/os_mbox.c ****     if (pevent->OSEventType != OS_EVENT_TYPE_MBOX) {      /* Validate event block type             
ARM GAS  C:\Users\ADMINI~1\AppData\Local\Temp\ccsfG4Nc.s 			page 3


  52              		.loc 1 63 0
  53 0016 7B68     		ldr	r3, [r7, #4]
  54 0018 1B78     		ldrb	r3, [r3]
  55 001a 012B     		cmp	r3, #1
  56 001c 01D0     		beq	.L4
  64:..\..\..\..\..\..\Software\uCOS-II\Source/os_mbox.c ****         return ((void *)0);
  57              		.loc 1 64 0
  58 001e 0023     		movs	r3, #0
  59 0020 0EE0     		b	.L3
  60              	.L4:
  65:..\..\..\..\..\..\Software\uCOS-II\Source/os_mbox.c ****     }
  66:..\..\..\..\..\..\Software\uCOS-II\Source/os_mbox.c ****     OS_ENTER_CRITICAL();
  61              		.loc 1 66 0
  62 0022 FFF7FEFF 		bl	OS_CPU_SR_Save
  63 0026 0300     		movs	r3, r0
  64 0028 FB60     		str	r3, [r7, #12]
  67:..\..\..\..\..\..\Software\uCOS-II\Source/os_mbox.c ****     pmsg               = pevent->OSEventPtr;
  65              		.loc 1 67 0
  66 002a 7B68     		ldr	r3, [r7, #4]
  67 002c 5B68     		ldr	r3, [r3, #4]
  68 002e BB60     		str	r3, [r7, #8]
  68:..\..\..\..\..\..\Software\uCOS-II\Source/os_mbox.c ****     pevent->OSEventPtr = (void *)0;                       /* Clear the mailbox                     
  69              		.loc 1 68 0
  70 0030 7B68     		ldr	r3, [r7, #4]
  71 0032 0022     		movs	r2, #0
  72 0034 5A60     		str	r2, [r3, #4]
  69:..\..\..\..\..\..\Software\uCOS-II\Source/os_mbox.c ****     OS_EXIT_CRITICAL();
  73              		.loc 1 69 0
  74 0036 FB68     		ldr	r3, [r7, #12]
  75 0038 1800     		movs	r0, r3
  76 003a FFF7FEFF 		bl	OS_CPU_SR_Restore
  70:..\..\..\..\..\..\Software\uCOS-II\Source/os_mbox.c ****     return (pmsg);                                        /* Return the message received (or NULL) 
  77              		.loc 1 70 0
  78 003e BB68     		ldr	r3, [r7, #8]
  79              	.L3:
  71:..\..\..\..\..\..\Software\uCOS-II\Source/os_mbox.c **** }
  80              		.loc 1 71 0
  81 0040 1800     		movs	r0, r3
  82 0042 BD46     		mov	sp, r7
  83 0044 04B0     		add	sp, sp, #16
  84              		@ sp needed
  85 0046 80BD     		pop	{r7, pc}
  86              		.cfi_endproc
  87              	.LFE1:
  88              		.size	OSMboxAccept, .-OSMboxAccept
  89              		.section	.rodata
  90              		.align	2
  91              	.LC2:
  92 0000 3F00     		.ascii	"?\000"
  93              		.section	.text.OSMboxCreate,"ax",%progbits
  94              		.align	2
  95              		.global	OSMboxCreate
  96              		.code	16
  97              		.thumb_func
  98              		.type	OSMboxCreate, %function
  99              	OSMboxCreate:
 100              	.LFB2:
ARM GAS  C:\Users\ADMINI~1\AppData\Local\Temp\ccsfG4Nc.s 			page 4


  72:..\..\..\..\..\..\Software\uCOS-II\Source/os_mbox.c **** #endif
  73:..\..\..\..\..\..\Software\uCOS-II\Source/os_mbox.c **** /*$PAGE*/
  74:..\..\..\..\..\..\Software\uCOS-II\Source/os_mbox.c **** /*
  75:..\..\..\..\..\..\Software\uCOS-II\Source/os_mbox.c **** ***************************************************************************************************
  76:..\..\..\..\..\..\Software\uCOS-II\Source/os_mbox.c **** *                                          CREATE A MESSAGE MAILBOX
  77:..\..\..\..\..\..\Software\uCOS-II\Source/os_mbox.c **** *
  78:..\..\..\..\..\..\Software\uCOS-II\Source/os_mbox.c **** * Description: This function creates a message mailbox if free event control blocks are available.
  79:..\..\..\..\..\..\Software\uCOS-II\Source/os_mbox.c **** *
  80:..\..\..\..\..\..\Software\uCOS-II\Source/os_mbox.c **** * Arguments  : pmsg          is a pointer to a message that you wish to deposit in the mailbox.  If
  81:..\..\..\..\..\..\Software\uCOS-II\Source/os_mbox.c **** *                            you set this value to the NULL pointer (i.e. (void *)0) then the mailb
  82:..\..\..\..\..\..\Software\uCOS-II\Source/os_mbox.c **** *                            will be considered empty.
  83:..\..\..\..\..\..\Software\uCOS-II\Source/os_mbox.c **** *
  84:..\..\..\..\..\..\Software\uCOS-II\Source/os_mbox.c **** * Returns    : != (OS_EVENT *)0  is a pointer to the event control clock (OS_EVENT) associated with
  85:..\..\..\..\..\..\Software\uCOS-II\Source/os_mbox.c **** *                                created mailbox
  86:..\..\..\..\..\..\Software\uCOS-II\Source/os_mbox.c **** *              == (OS_EVENT *)0  if no event control blocks were available
  87:..\..\..\..\..\..\Software\uCOS-II\Source/os_mbox.c **** ***************************************************************************************************
  88:..\..\..\..\..\..\Software\uCOS-II\Source/os_mbox.c **** */
  89:..\..\..\..\..\..\Software\uCOS-II\Source/os_mbox.c **** 
  90:..\..\..\..\..\..\Software\uCOS-II\Source/os_mbox.c **** OS_EVENT  *OSMboxCreate (void *pmsg)
  91:..\..\..\..\..\..\Software\uCOS-II\Source/os_mbox.c **** {
 101              		.loc 1 91 0
 102              		.cfi_startproc
 103              		@ args = 0, pretend = 0, frame = 16
 104              		@ frame_needed = 1, uses_anonymous_args = 0
 105 0000 80B5     		push	{r7, lr}
 106              		.cfi_def_cfa_offset 8
 107              		.cfi_offset 7, -8
 108              		.cfi_offset 14, -4
 109 0002 84B0     		sub	sp, sp, #16
 110              		.cfi_def_cfa_offset 24
 111 0004 00AF     		add	r7, sp, #0
 112              		.cfi_def_cfa_register 7
 113 0006 7860     		str	r0, [r7, #4]
  92:..\..\..\..\..\..\Software\uCOS-II\Source/os_mbox.c ****     OS_EVENT  *pevent;
  93:..\..\..\..\..\..\Software\uCOS-II\Source/os_mbox.c **** #if OS_CRITICAL_METHOD == 3u                     /* Allocate storage for CPU status register       
  94:..\..\..\..\..\..\Software\uCOS-II\Source/os_mbox.c ****     OS_CPU_SR  cpu_sr = 0u;
 114              		.loc 1 94 0
 115 0008 0023     		movs	r3, #0
 116 000a FB60     		str	r3, [r7, #12]
  95:..\..\..\..\..\..\Software\uCOS-II\Source/os_mbox.c **** #endif
  96:..\..\..\..\..\..\Software\uCOS-II\Source/os_mbox.c **** 
  97:..\..\..\..\..\..\Software\uCOS-II\Source/os_mbox.c **** 
  98:..\..\..\..\..\..\Software\uCOS-II\Source/os_mbox.c **** 
  99:..\..\..\..\..\..\Software\uCOS-II\Source/os_mbox.c **** #ifdef OS_SAFETY_CRITICAL_IEC61508
 100:..\..\..\..\..\..\Software\uCOS-II\Source/os_mbox.c ****     if (OSSafetyCriticalStartFlag == OS_TRUE) {
 101:..\..\..\..\..\..\Software\uCOS-II\Source/os_mbox.c ****         OS_SAFETY_CRITICAL_EXCEPTION();
 102:..\..\..\..\..\..\Software\uCOS-II\Source/os_mbox.c ****         return ((OS_EVENT *)0);
 103:..\..\..\..\..\..\Software\uCOS-II\Source/os_mbox.c ****     }
 104:..\..\..\..\..\..\Software\uCOS-II\Source/os_mbox.c **** #endif
 105:..\..\..\..\..\..\Software\uCOS-II\Source/os_mbox.c **** 
 106:..\..\..\..\..\..\Software\uCOS-II\Source/os_mbox.c ****     if (OSIntNesting > 0u) {                     /* See if called from ISR ...                     
 117              		.loc 1 106 0
 118 000c 184B     		ldr	r3, .L10
 119 000e 1B78     		ldrb	r3, [r3]
 120 0010 002B     		cmp	r3, #0
 121 0012 01D0     		beq	.L6
 107:..\..\..\..\..\..\Software\uCOS-II\Source/os_mbox.c ****         return ((OS_EVENT *)0);                  /* ... can't CREATE from an ISR                   
ARM GAS  C:\Users\ADMINI~1\AppData\Local\Temp\ccsfG4Nc.s 			page 5


 122              		.loc 1 107 0
 123 0014 0023     		movs	r3, #0
 124 0016 27E0     		b	.L7
 125              	.L6:
 108:..\..\..\..\..\..\Software\uCOS-II\Source/os_mbox.c ****     }
 109:..\..\..\..\..\..\Software\uCOS-II\Source/os_mbox.c ****     OS_ENTER_CRITICAL();
 126              		.loc 1 109 0
 127 0018 FFF7FEFF 		bl	OS_CPU_SR_Save
 128 001c 0300     		movs	r3, r0
 129 001e FB60     		str	r3, [r7, #12]
 110:..\..\..\..\..\..\Software\uCOS-II\Source/os_mbox.c ****     pevent = OSEventFreeList;                    /* Get next free event control block              
 130              		.loc 1 110 0
 131 0020 144B     		ldr	r3, .L10+4
 132 0022 1B68     		ldr	r3, [r3]
 133 0024 BB60     		str	r3, [r7, #8]
 111:..\..\..\..\..\..\Software\uCOS-II\Source/os_mbox.c ****     if (OSEventFreeList != (OS_EVENT *)0) {      /* See if pool of free ECB pool was empty         
 134              		.loc 1 111 0
 135 0026 134B     		ldr	r3, .L10+4
 136 0028 1B68     		ldr	r3, [r3]
 137 002a 002B     		cmp	r3, #0
 138 002c 04D0     		beq	.L8
 112:..\..\..\..\..\..\Software\uCOS-II\Source/os_mbox.c ****         OSEventFreeList = (OS_EVENT *)OSEventFreeList->OSEventPtr;
 139              		.loc 1 112 0
 140 002e 114B     		ldr	r3, .L10+4
 141 0030 1B68     		ldr	r3, [r3]
 142 0032 5A68     		ldr	r2, [r3, #4]
 143 0034 0F4B     		ldr	r3, .L10+4
 144 0036 1A60     		str	r2, [r3]
 145              	.L8:
 113:..\..\..\..\..\..\Software\uCOS-II\Source/os_mbox.c ****     }
 114:..\..\..\..\..\..\Software\uCOS-II\Source/os_mbox.c ****     OS_EXIT_CRITICAL();
 146              		.loc 1 114 0
 147 0038 FB68     		ldr	r3, [r7, #12]
 148 003a 1800     		movs	r0, r3
 149 003c FFF7FEFF 		bl	OS_CPU_SR_Restore
 115:..\..\..\..\..\..\Software\uCOS-II\Source/os_mbox.c ****     if (pevent != (OS_EVENT *)0) {
 150              		.loc 1 115 0
 151 0040 BB68     		ldr	r3, [r7, #8]
 152 0042 002B     		cmp	r3, #0
 153 0044 0FD0     		beq	.L9
 116:..\..\..\..\..\..\Software\uCOS-II\Source/os_mbox.c ****         pevent->OSEventType    = OS_EVENT_TYPE_MBOX;
 154              		.loc 1 116 0
 155 0046 BB68     		ldr	r3, [r7, #8]
 156 0048 0122     		movs	r2, #1
 157 004a 1A70     		strb	r2, [r3]
 117:..\..\..\..\..\..\Software\uCOS-II\Source/os_mbox.c ****         pevent->OSEventCnt     = 0u;
 158              		.loc 1 117 0
 159 004c BB68     		ldr	r3, [r7, #8]
 160 004e 0022     		movs	r2, #0
 161 0050 1A81     		strh	r2, [r3, #8]
 118:..\..\..\..\..\..\Software\uCOS-II\Source/os_mbox.c ****         pevent->OSEventPtr     = pmsg;           /* Deposit message in event control block         
 162              		.loc 1 118 0
 163 0052 BB68     		ldr	r3, [r7, #8]
 164 0054 7A68     		ldr	r2, [r7, #4]
 165 0056 5A60     		str	r2, [r3, #4]
 119:..\..\..\..\..\..\Software\uCOS-II\Source/os_mbox.c **** #if OS_EVENT_NAME_EN > 0u
 120:..\..\..\..\..\..\Software\uCOS-II\Source/os_mbox.c ****         pevent->OSEventName    = (INT8U *)(void *)"?";
ARM GAS  C:\Users\ADMINI~1\AppData\Local\Temp\ccsfG4Nc.s 			page 6


 166              		.loc 1 120 0
 167 0058 BB68     		ldr	r3, [r7, #8]
 168 005a 074A     		ldr	r2, .L10+8
 169 005c 5A61     		str	r2, [r3, #20]
 121:..\..\..\..\..\..\Software\uCOS-II\Source/os_mbox.c **** #endif
 122:..\..\..\..\..\..\Software\uCOS-II\Source/os_mbox.c ****         OS_EventWaitListInit(pevent);
 170              		.loc 1 122 0
 171 005e BB68     		ldr	r3, [r7, #8]
 172 0060 1800     		movs	r0, r3
 173 0062 FFF7FEFF 		bl	OS_EventWaitListInit
 174              	.L9:
 123:..\..\..\..\..\..\Software\uCOS-II\Source/os_mbox.c ****     }
 124:..\..\..\..\..\..\Software\uCOS-II\Source/os_mbox.c ****     return (pevent);                             /* Return pointer to event control block          
 175              		.loc 1 124 0
 176 0066 BB68     		ldr	r3, [r7, #8]
 177              	.L7:
 125:..\..\..\..\..\..\Software\uCOS-II\Source/os_mbox.c **** }
 178              		.loc 1 125 0
 179 0068 1800     		movs	r0, r3
 180 006a BD46     		mov	sp, r7
 181 006c 04B0     		add	sp, sp, #16
 182              		@ sp needed
 183 006e 80BD     		pop	{r7, pc}
 184              	.L11:
 185              		.align	2
 186              	.L10:
 187 0070 00000000 		.word	OSIntNesting
 188 0074 00000000 		.word	OSEventFreeList
 189 0078 00000000 		.word	.LC2
 190              		.cfi_endproc
 191              	.LFE2:
 192              		.size	OSMboxCreate, .-OSMboxCreate
 193              		.section	.text.OSMboxDel,"ax",%progbits
 194              		.align	2
 195              		.global	OSMboxDel
 196              		.code	16
 197              		.thumb_func
 198              		.type	OSMboxDel, %function
 199              	OSMboxDel:
 200              	.LFB3:
 126:..\..\..\..\..\..\Software\uCOS-II\Source/os_mbox.c **** /*$PAGE*/
 127:..\..\..\..\..\..\Software\uCOS-II\Source/os_mbox.c **** /*
 128:..\..\..\..\..\..\Software\uCOS-II\Source/os_mbox.c **** ***************************************************************************************************
 129:..\..\..\..\..\..\Software\uCOS-II\Source/os_mbox.c **** *                                           DELETE A MAIBOX
 130:..\..\..\..\..\..\Software\uCOS-II\Source/os_mbox.c **** *
 131:..\..\..\..\..\..\Software\uCOS-II\Source/os_mbox.c **** * Description: This function deletes a mailbox and readies all tasks pending on the mailbox.
 132:..\..\..\..\..\..\Software\uCOS-II\Source/os_mbox.c **** *
 133:..\..\..\..\..\..\Software\uCOS-II\Source/os_mbox.c **** * Arguments  : pevent        is a pointer to the event control block associated with the desired
 134:..\..\..\..\..\..\Software\uCOS-II\Source/os_mbox.c **** *                            mailbox.
 135:..\..\..\..\..\..\Software\uCOS-II\Source/os_mbox.c **** *
 136:..\..\..\..\..\..\Software\uCOS-II\Source/os_mbox.c **** *              opt           determines delete options as follows:
 137:..\..\..\..\..\..\Software\uCOS-II\Source/os_mbox.c **** *                            opt == OS_DEL_NO_PEND   Delete the mailbox ONLY if no task pending
 138:..\..\..\..\..\..\Software\uCOS-II\Source/os_mbox.c **** *                            opt == OS_DEL_ALWAYS    Deletes the mailbox even if tasks are waiting.
 139:..\..\..\..\..\..\Software\uCOS-II\Source/os_mbox.c **** *                                                    In this case, all the tasks pending will be re
 140:..\..\..\..\..\..\Software\uCOS-II\Source/os_mbox.c **** *
 141:..\..\..\..\..\..\Software\uCOS-II\Source/os_mbox.c **** *              perr          is a pointer to an error code that can contain one of the following va
 142:..\..\..\..\..\..\Software\uCOS-II\Source/os_mbox.c **** *                            OS_ERR_NONE             The call was successful and the mailbox was de
ARM GAS  C:\Users\ADMINI~1\AppData\Local\Temp\ccsfG4Nc.s 			page 7


 143:..\..\..\..\..\..\Software\uCOS-II\Source/os_mbox.c **** *                            OS_ERR_DEL_ISR          If you attempted to delete the mailbox from an
 144:..\..\..\..\..\..\Software\uCOS-II\Source/os_mbox.c **** *                            OS_ERR_INVALID_OPT      An invalid option was specified
 145:..\..\..\..\..\..\Software\uCOS-II\Source/os_mbox.c **** *                            OS_ERR_TASK_WAITING     One or more tasks were waiting on the mailbox
 146:..\..\..\..\..\..\Software\uCOS-II\Source/os_mbox.c **** *                            OS_ERR_EVENT_TYPE       If you didn't pass a pointer to a mailbox
 147:..\..\..\..\..\..\Software\uCOS-II\Source/os_mbox.c **** *                            OS_ERR_PEVENT_NULL      If 'pevent' is a NULL pointer.
 148:..\..\..\..\..\..\Software\uCOS-II\Source/os_mbox.c **** *
 149:..\..\..\..\..\..\Software\uCOS-II\Source/os_mbox.c **** * Returns    : pevent        upon error
 150:..\..\..\..\..\..\Software\uCOS-II\Source/os_mbox.c **** *              (OS_EVENT *)0 if the mailbox was successfully deleted.
 151:..\..\..\..\..\..\Software\uCOS-II\Source/os_mbox.c **** *
 152:..\..\..\..\..\..\Software\uCOS-II\Source/os_mbox.c **** * Note(s)    : 1) This function must be used with care.  Tasks that would normally expect the prese
 153:..\..\..\..\..\..\Software\uCOS-II\Source/os_mbox.c **** *                 the mailbox MUST check the return code of OSMboxPend().
 154:..\..\..\..\..\..\Software\uCOS-II\Source/os_mbox.c **** *              2) OSMboxAccept() callers will not know that the intended mailbox has been deleted!
 155:..\..\..\..\..\..\Software\uCOS-II\Source/os_mbox.c **** *              3) This call can potentially disable interrupts for a long time.  The interrupt disa
 156:..\..\..\..\..\..\Software\uCOS-II\Source/os_mbox.c **** *                 time is directly proportional to the number of tasks waiting on the mailbox.
 157:..\..\..\..\..\..\Software\uCOS-II\Source/os_mbox.c **** *              4) Because ALL tasks pending on the mailbox will be readied, you MUST be careful in
 158:..\..\..\..\..\..\Software\uCOS-II\Source/os_mbox.c **** *                 applications where the mailbox is used for mutual exclusion because the resource(
 159:..\..\..\..\..\..\Software\uCOS-II\Source/os_mbox.c **** *                 will no longer be guarded by the mailbox.
 160:..\..\..\..\..\..\Software\uCOS-II\Source/os_mbox.c **** *              5) All tasks that were waiting for the mailbox will be readied and returned an 
 161:..\..\..\..\..\..\Software\uCOS-II\Source/os_mbox.c **** *                 OS_ERR_PEND_ABORT if OSMboxDel() was called with OS_DEL_ALWAYS
 162:..\..\..\..\..\..\Software\uCOS-II\Source/os_mbox.c **** ***************************************************************************************************
 163:..\..\..\..\..\..\Software\uCOS-II\Source/os_mbox.c **** */
 164:..\..\..\..\..\..\Software\uCOS-II\Source/os_mbox.c **** 
 165:..\..\..\..\..\..\Software\uCOS-II\Source/os_mbox.c **** #if OS_MBOX_DEL_EN > 0u
 166:..\..\..\..\..\..\Software\uCOS-II\Source/os_mbox.c **** OS_EVENT  *OSMboxDel (OS_EVENT  *pevent,
 167:..\..\..\..\..\..\Software\uCOS-II\Source/os_mbox.c ****                       INT8U      opt,
 168:..\..\..\..\..\..\Software\uCOS-II\Source/os_mbox.c ****                       INT8U     *perr)
 169:..\..\..\..\..\..\Software\uCOS-II\Source/os_mbox.c **** {
 201              		.loc 1 169 0
 202              		.cfi_startproc
 203              		@ args = 0, pretend = 0, frame = 32
 204              		@ frame_needed = 1, uses_anonymous_args = 0
 205 0000 80B5     		push	{r7, lr}
 206              		.cfi_def_cfa_offset 8
 207              		.cfi_offset 7, -8
 208              		.cfi_offset 14, -4
 209 0002 88B0     		sub	sp, sp, #32
 210              		.cfi_def_cfa_offset 40
 211 0004 00AF     		add	r7, sp, #0
 212              		.cfi_def_cfa_register 7
 213 0006 F860     		str	r0, [r7, #12]
 214 0008 7A60     		str	r2, [r7, #4]
 215 000a 0B23     		movs	r3, #11
 216 000c FB18     		adds	r3, r7, r3
 217 000e 0A1C     		adds	r2, r1, #0
 218 0010 1A70     		strb	r2, [r3]
 170:..\..\..\..\..\..\Software\uCOS-II\Source/os_mbox.c ****     BOOLEAN    tasks_waiting;
 171:..\..\..\..\..\..\Software\uCOS-II\Source/os_mbox.c ****     OS_EVENT  *pevent_return;
 172:..\..\..\..\..\..\Software\uCOS-II\Source/os_mbox.c **** #if OS_CRITICAL_METHOD == 3u                               /* Allocate storage for CPU status regis
 173:..\..\..\..\..\..\Software\uCOS-II\Source/os_mbox.c ****     OS_CPU_SR  cpu_sr = 0u;
 219              		.loc 1 173 0
 220 0012 0023     		movs	r3, #0
 221 0014 7B61     		str	r3, [r7, #20]
 174:..\..\..\..\..\..\Software\uCOS-II\Source/os_mbox.c **** #endif
 175:..\..\..\..\..\..\Software\uCOS-II\Source/os_mbox.c **** 
 176:..\..\..\..\..\..\Software\uCOS-II\Source/os_mbox.c **** 
 177:..\..\..\..\..\..\Software\uCOS-II\Source/os_mbox.c **** 
 178:..\..\..\..\..\..\Software\uCOS-II\Source/os_mbox.c **** #ifdef OS_SAFETY_CRITICAL
ARM GAS  C:\Users\ADMINI~1\AppData\Local\Temp\ccsfG4Nc.s 			page 8


 179:..\..\..\..\..\..\Software\uCOS-II\Source/os_mbox.c ****     if (perr == (INT8U *)0) {
 180:..\..\..\..\..\..\Software\uCOS-II\Source/os_mbox.c ****         OS_SAFETY_CRITICAL_EXCEPTION();
 181:..\..\..\..\..\..\Software\uCOS-II\Source/os_mbox.c ****         return ((OS_EVENT *)0);
 182:..\..\..\..\..\..\Software\uCOS-II\Source/os_mbox.c ****     }
 183:..\..\..\..\..\..\Software\uCOS-II\Source/os_mbox.c **** #endif
 184:..\..\..\..\..\..\Software\uCOS-II\Source/os_mbox.c **** 
 185:..\..\..\..\..\..\Software\uCOS-II\Source/os_mbox.c **** #if OS_ARG_CHK_EN > 0u
 186:..\..\..\..\..\..\Software\uCOS-II\Source/os_mbox.c ****     if (pevent == (OS_EVENT *)0) {                         /* Validate 'pevent'                    
 222              		.loc 1 186 0
 223 0016 FB68     		ldr	r3, [r7, #12]
 224 0018 002B     		cmp	r3, #0
 225 001a 04D1     		bne	.L13
 187:..\..\..\..\..\..\Software\uCOS-II\Source/os_mbox.c ****         *perr = OS_ERR_PEVENT_NULL;
 226              		.loc 1 187 0
 227 001c 7B68     		ldr	r3, [r7, #4]
 228 001e 0422     		movs	r2, #4
 229 0020 1A70     		strb	r2, [r3]
 188:..\..\..\..\..\..\Software\uCOS-II\Source/os_mbox.c ****         return (pevent);
 230              		.loc 1 188 0
 231 0022 FB68     		ldr	r3, [r7, #12]
 232 0024 89E0     		b	.L14
 233              	.L13:
 189:..\..\..\..\..\..\Software\uCOS-II\Source/os_mbox.c ****     }
 190:..\..\..\..\..\..\Software\uCOS-II\Source/os_mbox.c **** #endif
 191:..\..\..\..\..\..\Software\uCOS-II\Source/os_mbox.c ****     if (pevent->OSEventType != OS_EVENT_TYPE_MBOX) {       /* Validate event block type            
 234              		.loc 1 191 0
 235 0026 FB68     		ldr	r3, [r7, #12]
 236 0028 1B78     		ldrb	r3, [r3]
 237 002a 012B     		cmp	r3, #1
 238 002c 04D0     		beq	.L15
 192:..\..\..\..\..\..\Software\uCOS-II\Source/os_mbox.c ****         *perr = OS_ERR_EVENT_TYPE;
 239              		.loc 1 192 0
 240 002e 7B68     		ldr	r3, [r7, #4]
 241 0030 0122     		movs	r2, #1
 242 0032 1A70     		strb	r2, [r3]
 193:..\..\..\..\..\..\Software\uCOS-II\Source/os_mbox.c ****         return (pevent);
 243              		.loc 1 193 0
 244 0034 FB68     		ldr	r3, [r7, #12]
 245 0036 80E0     		b	.L14
 246              	.L15:
 194:..\..\..\..\..\..\Software\uCOS-II\Source/os_mbox.c ****     }
 195:..\..\..\..\..\..\Software\uCOS-II\Source/os_mbox.c ****     if (OSIntNesting > 0u) {                               /* See if called from ISR ...           
 247              		.loc 1 195 0
 248 0038 424B     		ldr	r3, .L29
 249 003a 1B78     		ldrb	r3, [r3]
 250 003c 002B     		cmp	r3, #0
 251 003e 04D0     		beq	.L16
 196:..\..\..\..\..\..\Software\uCOS-II\Source/os_mbox.c ****         *perr = OS_ERR_DEL_ISR;                            /* ... can't DELETE from an ISR         
 252              		.loc 1 196 0
 253 0040 7B68     		ldr	r3, [r7, #4]
 254 0042 0F22     		movs	r2, #15
 255 0044 1A70     		strb	r2, [r3]
 197:..\..\..\..\..\..\Software\uCOS-II\Source/os_mbox.c ****         return (pevent);
 256              		.loc 1 197 0
 257 0046 FB68     		ldr	r3, [r7, #12]
 258 0048 77E0     		b	.L14
 259              	.L16:
ARM GAS  C:\Users\ADMINI~1\AppData\Local\Temp\ccsfG4Nc.s 			page 9


 198:..\..\..\..\..\..\Software\uCOS-II\Source/os_mbox.c ****     }
 199:..\..\..\..\..\..\Software\uCOS-II\Source/os_mbox.c ****     OS_ENTER_CRITICAL();
 260              		.loc 1 199 0
 261 004a FFF7FEFF 		bl	OS_CPU_SR_Save
 262 004e 0300     		movs	r3, r0
 263 0050 7B61     		str	r3, [r7, #20]
 200:..\..\..\..\..\..\Software\uCOS-II\Source/os_mbox.c ****     if (pevent->OSEventGrp != 0u) {                        /* See if any tasks waiting on mailbox  
 264              		.loc 1 200 0
 265 0052 FB68     		ldr	r3, [r7, #12]
 266 0054 9B7A     		ldrb	r3, [r3, #10]
 267 0056 002B     		cmp	r3, #0
 268 0058 04D0     		beq	.L17
 201:..\..\..\..\..\..\Software\uCOS-II\Source/os_mbox.c ****         tasks_waiting = OS_TRUE;                           /* Yes                                  
 269              		.loc 1 201 0
 270 005a 1F23     		movs	r3, #31
 271 005c FB18     		adds	r3, r7, r3
 272 005e 0122     		movs	r2, #1
 273 0060 1A70     		strb	r2, [r3]
 274 0062 03E0     		b	.L18
 275              	.L17:
 202:..\..\..\..\..\..\Software\uCOS-II\Source/os_mbox.c ****     } else {
 203:..\..\..\..\..\..\Software\uCOS-II\Source/os_mbox.c ****         tasks_waiting = OS_FALSE;                          /* No                                   
 276              		.loc 1 203 0
 277 0064 1F23     		movs	r3, #31
 278 0066 FB18     		adds	r3, r7, r3
 279 0068 0022     		movs	r2, #0
 280 006a 1A70     		strb	r2, [r3]
 281              	.L18:
 204:..\..\..\..\..\..\Software\uCOS-II\Source/os_mbox.c ****     }
 205:..\..\..\..\..\..\Software\uCOS-II\Source/os_mbox.c ****     switch (opt) {
 282              		.loc 1 205 0
 283 006c 0B23     		movs	r3, #11
 284 006e FB18     		adds	r3, r7, r3
 285 0070 1B78     		ldrb	r3, [r3]
 286 0072 002B     		cmp	r3, #0
 287 0074 02D0     		beq	.L20
 288 0076 012B     		cmp	r3, #1
 289 0078 2FD0     		beq	.L25
 290 007a 53E0     		b	.L28
 291              	.L20:
 206:..\..\..\..\..\..\Software\uCOS-II\Source/os_mbox.c ****         case OS_DEL_NO_PEND:                               /* Delete mailbox only if no task waitin
 207:..\..\..\..\..\..\Software\uCOS-II\Source/os_mbox.c ****              if (tasks_waiting == OS_FALSE) {
 292              		.loc 1 207 0
 293 007c 1F23     		movs	r3, #31
 294 007e FB18     		adds	r3, r7, r3
 295 0080 1B78     		ldrb	r3, [r3]
 296 0082 002B     		cmp	r3, #0
 297 0084 19D1     		bne	.L22
 208:..\..\..\..\..\..\Software\uCOS-II\Source/os_mbox.c **** #if OS_EVENT_NAME_EN > 0u
 209:..\..\..\..\..\..\Software\uCOS-II\Source/os_mbox.c ****                  pevent->OSEventName = (INT8U *)(void *)"?";
 298              		.loc 1 209 0
 299 0086 FB68     		ldr	r3, [r7, #12]
 300 0088 2F4A     		ldr	r2, .L29+4
 301 008a 5A61     		str	r2, [r3, #20]
 210:..\..\..\..\..\..\Software\uCOS-II\Source/os_mbox.c **** #endif
 211:..\..\..\..\..\..\Software\uCOS-II\Source/os_mbox.c ****                  pevent->OSEventType = OS_EVENT_TYPE_UNUSED;
 302              		.loc 1 211 0
ARM GAS  C:\Users\ADMINI~1\AppData\Local\Temp\ccsfG4Nc.s 			page 10


 303 008c FB68     		ldr	r3, [r7, #12]
 304 008e 0022     		movs	r2, #0
 305 0090 1A70     		strb	r2, [r3]
 212:..\..\..\..\..\..\Software\uCOS-II\Source/os_mbox.c ****                  pevent->OSEventPtr  = OSEventFreeList;    /* Return Event Control Block to free li
 306              		.loc 1 212 0
 307 0092 2E4B     		ldr	r3, .L29+8
 308 0094 1A68     		ldr	r2, [r3]
 309 0096 FB68     		ldr	r3, [r7, #12]
 310 0098 5A60     		str	r2, [r3, #4]
 213:..\..\..\..\..\..\Software\uCOS-II\Source/os_mbox.c ****                  pevent->OSEventCnt  = 0u;
 311              		.loc 1 213 0
 312 009a FB68     		ldr	r3, [r7, #12]
 313 009c 0022     		movs	r2, #0
 314 009e 1A81     		strh	r2, [r3, #8]
 214:..\..\..\..\..\..\Software\uCOS-II\Source/os_mbox.c ****                  OSEventFreeList     = pevent;             /* Get next free event control block    
 315              		.loc 1 214 0
 316 00a0 2A4B     		ldr	r3, .L29+8
 317 00a2 FA68     		ldr	r2, [r7, #12]
 318 00a4 1A60     		str	r2, [r3]
 215:..\..\..\..\..\..\Software\uCOS-II\Source/os_mbox.c ****                  OS_EXIT_CRITICAL();
 319              		.loc 1 215 0
 320 00a6 7B69     		ldr	r3, [r7, #20]
 321 00a8 1800     		movs	r0, r3
 322 00aa FFF7FEFF 		bl	OS_CPU_SR_Restore
 216:..\..\..\..\..\..\Software\uCOS-II\Source/os_mbox.c ****                  *perr               = OS_ERR_NONE;
 323              		.loc 1 216 0
 324 00ae 7B68     		ldr	r3, [r7, #4]
 325 00b0 0022     		movs	r2, #0
 326 00b2 1A70     		strb	r2, [r3]
 217:..\..\..\..\..\..\Software\uCOS-II\Source/os_mbox.c ****                  pevent_return       = (OS_EVENT *)0;      /* Mailbox has been deleted             
 327              		.loc 1 217 0
 328 00b4 0023     		movs	r3, #0
 329 00b6 BB61     		str	r3, [r7, #24]
 218:..\..\..\..\..\..\Software\uCOS-II\Source/os_mbox.c ****              } else {
 219:..\..\..\..\..\..\Software\uCOS-II\Source/os_mbox.c ****                  OS_EXIT_CRITICAL();
 220:..\..\..\..\..\..\Software\uCOS-II\Source/os_mbox.c ****                  *perr               = OS_ERR_TASK_WAITING;
 221:..\..\..\..\..\..\Software\uCOS-II\Source/os_mbox.c ****                  pevent_return       = pevent;
 222:..\..\..\..\..\..\Software\uCOS-II\Source/os_mbox.c ****              }
 223:..\..\..\..\..\..\Software\uCOS-II\Source/os_mbox.c ****              break;
 330              		.loc 1 223 0
 331 00b8 3EE0     		b	.L24
 332              	.L22:
 219:..\..\..\..\..\..\Software\uCOS-II\Source/os_mbox.c ****                  *perr               = OS_ERR_TASK_WAITING;
 333              		.loc 1 219 0
 334 00ba 7B69     		ldr	r3, [r7, #20]
 335 00bc 1800     		movs	r0, r3
 336 00be FFF7FEFF 		bl	OS_CPU_SR_Restore
 220:..\..\..\..\..\..\Software\uCOS-II\Source/os_mbox.c ****                  pevent_return       = pevent;
 337              		.loc 1 220 0
 338 00c2 7B68     		ldr	r3, [r7, #4]
 339 00c4 4922     		movs	r2, #73
 340 00c6 1A70     		strb	r2, [r3]
 221:..\..\..\..\..\..\Software\uCOS-II\Source/os_mbox.c ****              }
 341              		.loc 1 221 0
 342 00c8 FB68     		ldr	r3, [r7, #12]
 343 00ca BB61     		str	r3, [r7, #24]
 344              		.loc 1 223 0
ARM GAS  C:\Users\ADMINI~1\AppData\Local\Temp\ccsfG4Nc.s 			page 11


 345 00cc 34E0     		b	.L24
 346              	.L26:
 224:..\..\..\..\..\..\Software\uCOS-II\Source/os_mbox.c **** 
 225:..\..\..\..\..\..\Software\uCOS-II\Source/os_mbox.c ****         case OS_DEL_ALWAYS:                                /* Always delete the mailbox            
 226:..\..\..\..\..\..\Software\uCOS-II\Source/os_mbox.c ****              while (pevent->OSEventGrp != 0u) {            /* Ready ALL tasks waiting for mailbox  
 227:..\..\..\..\..\..\Software\uCOS-II\Source/os_mbox.c ****                  (void)OS_EventTaskRdy(pevent, (void *)0, OS_STAT_MBOX, OS_STAT_PEND_ABORT);
 347              		.loc 1 227 0
 348 00ce F868     		ldr	r0, [r7, #12]
 349 00d0 0223     		movs	r3, #2
 350 00d2 0222     		movs	r2, #2
 351 00d4 0021     		movs	r1, #0
 352 00d6 FFF7FEFF 		bl	OS_EventTaskRdy
 353              	.L25:
 226:..\..\..\..\..\..\Software\uCOS-II\Source/os_mbox.c ****                  (void)OS_EventTaskRdy(pevent, (void *)0, OS_STAT_MBOX, OS_STAT_PEND_ABORT);
 354              		.loc 1 226 0
 355 00da FB68     		ldr	r3, [r7, #12]
 356 00dc 9B7A     		ldrb	r3, [r3, #10]
 357 00de 002B     		cmp	r3, #0
 358 00e0 F5D1     		bne	.L26
 228:..\..\..\..\..\..\Software\uCOS-II\Source/os_mbox.c ****              }
 229:..\..\..\..\..\..\Software\uCOS-II\Source/os_mbox.c **** #if OS_EVENT_NAME_EN > 0u
 230:..\..\..\..\..\..\Software\uCOS-II\Source/os_mbox.c ****              pevent->OSEventName    = (INT8U *)(void *)"?";
 359              		.loc 1 230 0
 360 00e2 FB68     		ldr	r3, [r7, #12]
 361 00e4 184A     		ldr	r2, .L29+4
 362 00e6 5A61     		str	r2, [r3, #20]
 231:..\..\..\..\..\..\Software\uCOS-II\Source/os_mbox.c **** #endif
 232:..\..\..\..\..\..\Software\uCOS-II\Source/os_mbox.c ****              pevent->OSEventType    = OS_EVENT_TYPE_UNUSED;
 363              		.loc 1 232 0
 364 00e8 FB68     		ldr	r3, [r7, #12]
 365 00ea 0022     		movs	r2, #0
 366 00ec 1A70     		strb	r2, [r3]
 233:..\..\..\..\..\..\Software\uCOS-II\Source/os_mbox.c ****              pevent->OSEventPtr     = OSEventFreeList;     /* Return Event Control Block to free li
 367              		.loc 1 233 0
 368 00ee 174B     		ldr	r3, .L29+8
 369 00f0 1A68     		ldr	r2, [r3]
 370 00f2 FB68     		ldr	r3, [r7, #12]
 371 00f4 5A60     		str	r2, [r3, #4]
 234:..\..\..\..\..\..\Software\uCOS-II\Source/os_mbox.c ****              pevent->OSEventCnt     = 0u;
 372              		.loc 1 234 0
 373 00f6 FB68     		ldr	r3, [r7, #12]
 374 00f8 0022     		movs	r2, #0
 375 00fa 1A81     		strh	r2, [r3, #8]
 235:..\..\..\..\..\..\Software\uCOS-II\Source/os_mbox.c ****              OSEventFreeList        = pevent;              /* Get next free event control block    
 376              		.loc 1 235 0
 377 00fc 134B     		ldr	r3, .L29+8
 378 00fe FA68     		ldr	r2, [r7, #12]
 379 0100 1A60     		str	r2, [r3]
 236:..\..\..\..\..\..\Software\uCOS-II\Source/os_mbox.c ****              OS_EXIT_CRITICAL();
 380              		.loc 1 236 0
 381 0102 7B69     		ldr	r3, [r7, #20]
 382 0104 1800     		movs	r0, r3
 383 0106 FFF7FEFF 		bl	OS_CPU_SR_Restore
 237:..\..\..\..\..\..\Software\uCOS-II\Source/os_mbox.c ****              if (tasks_waiting == OS_TRUE) {               /* Reschedule only if task(s) were waiti
 384              		.loc 1 237 0
 385 010a 1F23     		movs	r3, #31
 386 010c FB18     		adds	r3, r7, r3
ARM GAS  C:\Users\ADMINI~1\AppData\Local\Temp\ccsfG4Nc.s 			page 12


 387 010e 1B78     		ldrb	r3, [r3]
 388 0110 012B     		cmp	r3, #1
 389 0112 01D1     		bne	.L27
 238:..\..\..\..\..\..\Software\uCOS-II\Source/os_mbox.c ****                  OS_Sched();                               /* Find highest priority task ready to r
 390              		.loc 1 238 0
 391 0114 FFF7FEFF 		bl	OS_Sched
 392              	.L27:
 239:..\..\..\..\..\..\Software\uCOS-II\Source/os_mbox.c ****              }
 240:..\..\..\..\..\..\Software\uCOS-II\Source/os_mbox.c ****              *perr         = OS_ERR_NONE;
 393              		.loc 1 240 0
 394 0118 7B68     		ldr	r3, [r7, #4]
 395 011a 0022     		movs	r2, #0
 396 011c 1A70     		strb	r2, [r3]
 241:..\..\..\..\..\..\Software\uCOS-II\Source/os_mbox.c ****              pevent_return = (OS_EVENT *)0;                /* Mailbox has been deleted             
 397              		.loc 1 241 0
 398 011e 0023     		movs	r3, #0
 399 0120 BB61     		str	r3, [r7, #24]
 242:..\..\..\..\..\..\Software\uCOS-II\Source/os_mbox.c ****              break;
 400              		.loc 1 242 0
 401 0122 09E0     		b	.L24
 402              	.L28:
 243:..\..\..\..\..\..\Software\uCOS-II\Source/os_mbox.c **** 
 244:..\..\..\..\..\..\Software\uCOS-II\Source/os_mbox.c ****         default:
 245:..\..\..\..\..\..\Software\uCOS-II\Source/os_mbox.c ****              OS_EXIT_CRITICAL();
 403              		.loc 1 245 0
 404 0124 7B69     		ldr	r3, [r7, #20]
 405 0126 1800     		movs	r0, r3
 406 0128 FFF7FEFF 		bl	OS_CPU_SR_Restore
 246:..\..\..\..\..\..\Software\uCOS-II\Source/os_mbox.c ****              *perr         = OS_ERR_INVALID_OPT;
 407              		.loc 1 246 0
 408 012c 7B68     		ldr	r3, [r7, #4]
 409 012e 0722     		movs	r2, #7
 410 0130 1A70     		strb	r2, [r3]
 247:..\..\..\..\..\..\Software\uCOS-II\Source/os_mbox.c ****              pevent_return = pevent;
 411              		.loc 1 247 0
 412 0132 FB68     		ldr	r3, [r7, #12]
 413 0134 BB61     		str	r3, [r7, #24]
 248:..\..\..\..\..\..\Software\uCOS-II\Source/os_mbox.c ****              break;
 414              		.loc 1 248 0
 415 0136 C046     		nop
 416              	.L24:
 249:..\..\..\..\..\..\Software\uCOS-II\Source/os_mbox.c ****     }
 250:..\..\..\..\..\..\Software\uCOS-II\Source/os_mbox.c ****     return (pevent_return);
 417              		.loc 1 250 0
 418 0138 BB69     		ldr	r3, [r7, #24]
 419              	.L14:
 251:..\..\..\..\..\..\Software\uCOS-II\Source/os_mbox.c **** }
 420              		.loc 1 251 0
 421 013a 1800     		movs	r0, r3
 422 013c BD46     		mov	sp, r7
 423 013e 08B0     		add	sp, sp, #32
 424              		@ sp needed
 425 0140 80BD     		pop	{r7, pc}
 426              	.L30:
 427 0142 C046     		.align	2
 428              	.L29:
 429 0144 00000000 		.word	OSIntNesting
ARM GAS  C:\Users\ADMINI~1\AppData\Local\Temp\ccsfG4Nc.s 			page 13


 430 0148 00000000 		.word	.LC2
 431 014c 00000000 		.word	OSEventFreeList
 432              		.cfi_endproc
 433              	.LFE3:
 434              		.size	OSMboxDel, .-OSMboxDel
 435              		.section	.text.OSMboxPend,"ax",%progbits
 436              		.align	2
 437              		.global	OSMboxPend
 438              		.code	16
 439              		.thumb_func
 440              		.type	OSMboxPend, %function
 441              	OSMboxPend:
 442              	.LFB4:
 252:..\..\..\..\..\..\Software\uCOS-II\Source/os_mbox.c **** #endif
 253:..\..\..\..\..\..\Software\uCOS-II\Source/os_mbox.c **** 
 254:..\..\..\..\..\..\Software\uCOS-II\Source/os_mbox.c **** /*$PAGE*/
 255:..\..\..\..\..\..\Software\uCOS-II\Source/os_mbox.c **** /*
 256:..\..\..\..\..\..\Software\uCOS-II\Source/os_mbox.c **** ***************************************************************************************************
 257:..\..\..\..\..\..\Software\uCOS-II\Source/os_mbox.c **** *                                    PEND ON MAILBOX FOR A MESSAGE
 258:..\..\..\..\..\..\Software\uCOS-II\Source/os_mbox.c **** *
 259:..\..\..\..\..\..\Software\uCOS-II\Source/os_mbox.c **** * Description: This function waits for a message to be sent to a mailbox
 260:..\..\..\..\..\..\Software\uCOS-II\Source/os_mbox.c **** *
 261:..\..\..\..\..\..\Software\uCOS-II\Source/os_mbox.c **** * Arguments  : pevent        is a pointer to the event control block associated with the desired ma
 262:..\..\..\..\..\..\Software\uCOS-II\Source/os_mbox.c **** *
 263:..\..\..\..\..\..\Software\uCOS-II\Source/os_mbox.c **** *              timeout       is an optional timeout period (in clock ticks).  If non-zero, your tas
 264:..\..\..\..\..\..\Software\uCOS-II\Source/os_mbox.c **** *                            wait for a message to arrive at the mailbox up to the amount of time
 265:..\..\..\..\..\..\Software\uCOS-II\Source/os_mbox.c **** *                            specified by this argument.  If you specify 0, however, your task will
 266:..\..\..\..\..\..\Software\uCOS-II\Source/os_mbox.c **** *                            forever at the specified mailbox or, until a message arrives.
 267:..\..\..\..\..\..\Software\uCOS-II\Source/os_mbox.c **** *
 268:..\..\..\..\..\..\Software\uCOS-II\Source/os_mbox.c **** *              perr          is a pointer to where an error message will be deposited.  Possible er
 269:..\..\..\..\..\..\Software\uCOS-II\Source/os_mbox.c **** *                            messages are:
 270:..\..\..\..\..\..\Software\uCOS-II\Source/os_mbox.c **** *
 271:..\..\..\..\..\..\Software\uCOS-II\Source/os_mbox.c **** *                            OS_ERR_NONE         The call was successful and your task received a
 272:..\..\..\..\..\..\Software\uCOS-II\Source/os_mbox.c **** *                                                message.
 273:..\..\..\..\..\..\Software\uCOS-II\Source/os_mbox.c **** *                            OS_ERR_TIMEOUT      A message was not received within the specified 't
 274:..\..\..\..\..\..\Software\uCOS-II\Source/os_mbox.c **** *                            OS_ERR_PEND_ABORT   The wait on the mailbox was aborted.
 275:..\..\..\..\..\..\Software\uCOS-II\Source/os_mbox.c **** *                            OS_ERR_EVENT_TYPE   Invalid event type
 276:..\..\..\..\..\..\Software\uCOS-II\Source/os_mbox.c **** *                            OS_ERR_PEND_ISR     If you called this function from an ISR and the re
 277:..\..\..\..\..\..\Software\uCOS-II\Source/os_mbox.c **** *                                                would lead to a suspension.
 278:..\..\..\..\..\..\Software\uCOS-II\Source/os_mbox.c **** *                            OS_ERR_PEVENT_NULL  If 'pevent' is a NULL pointer
 279:..\..\..\..\..\..\Software\uCOS-II\Source/os_mbox.c **** *                            OS_ERR_PEND_LOCKED  If you called this function when the scheduler is 
 280:..\..\..\..\..\..\Software\uCOS-II\Source/os_mbox.c **** *
 281:..\..\..\..\..\..\Software\uCOS-II\Source/os_mbox.c **** * Returns    : != (void *)0  is a pointer to the message received
 282:..\..\..\..\..\..\Software\uCOS-II\Source/os_mbox.c **** *              == (void *)0  if no message was received or,
 283:..\..\..\..\..\..\Software\uCOS-II\Source/os_mbox.c **** *                            if 'pevent' is a NULL pointer or,
 284:..\..\..\..\..\..\Software\uCOS-II\Source/os_mbox.c **** *                            if you didn't pass the proper pointer to the event control block.
 285:..\..\..\..\..\..\Software\uCOS-II\Source/os_mbox.c **** ***************************************************************************************************
 286:..\..\..\..\..\..\Software\uCOS-II\Source/os_mbox.c **** */
 287:..\..\..\..\..\..\Software\uCOS-II\Source/os_mbox.c **** /*$PAGE*/
 288:..\..\..\..\..\..\Software\uCOS-II\Source/os_mbox.c **** void  *OSMboxPend (OS_EVENT  *pevent,
 289:..\..\..\..\..\..\Software\uCOS-II\Source/os_mbox.c ****                    INT32U     timeout,
 290:..\..\..\..\..\..\Software\uCOS-II\Source/os_mbox.c ****                    INT8U     *perr)
 291:..\..\..\..\..\..\Software\uCOS-II\Source/os_mbox.c **** {
 443              		.loc 1 291 0
 444              		.cfi_startproc
 445              		@ args = 0, pretend = 0, frame = 24
 446              		@ frame_needed = 1, uses_anonymous_args = 0
ARM GAS  C:\Users\ADMINI~1\AppData\Local\Temp\ccsfG4Nc.s 			page 14


 447 0000 80B5     		push	{r7, lr}
 448              		.cfi_def_cfa_offset 8
 449              		.cfi_offset 7, -8
 450              		.cfi_offset 14, -4
 451 0002 86B0     		sub	sp, sp, #24
 452              		.cfi_def_cfa_offset 32
 453 0004 00AF     		add	r7, sp, #0
 454              		.cfi_def_cfa_register 7
 455 0006 F860     		str	r0, [r7, #12]
 456 0008 B960     		str	r1, [r7, #8]
 457 000a 7A60     		str	r2, [r7, #4]
 292:..\..\..\..\..\..\Software\uCOS-II\Source/os_mbox.c ****     void      *pmsg;
 293:..\..\..\..\..\..\Software\uCOS-II\Source/os_mbox.c **** #if OS_CRITICAL_METHOD == 3u                          /* Allocate storage for CPU status register  
 294:..\..\..\..\..\..\Software\uCOS-II\Source/os_mbox.c ****     OS_CPU_SR  cpu_sr = 0u;
 458              		.loc 1 294 0
 459 000c 0023     		movs	r3, #0
 460 000e 3B61     		str	r3, [r7, #16]
 295:..\..\..\..\..\..\Software\uCOS-II\Source/os_mbox.c **** #endif
 296:..\..\..\..\..\..\Software\uCOS-II\Source/os_mbox.c **** 
 297:..\..\..\..\..\..\Software\uCOS-II\Source/os_mbox.c **** 
 298:..\..\..\..\..\..\Software\uCOS-II\Source/os_mbox.c **** 
 299:..\..\..\..\..\..\Software\uCOS-II\Source/os_mbox.c **** #ifdef OS_SAFETY_CRITICAL
 300:..\..\..\..\..\..\Software\uCOS-II\Source/os_mbox.c ****     if (perr == (INT8U *)0) {
 301:..\..\..\..\..\..\Software\uCOS-II\Source/os_mbox.c ****         OS_SAFETY_CRITICAL_EXCEPTION();
 302:..\..\..\..\..\..\Software\uCOS-II\Source/os_mbox.c ****         return ((void *)0);
 303:..\..\..\..\..\..\Software\uCOS-II\Source/os_mbox.c ****     }
 304:..\..\..\..\..\..\Software\uCOS-II\Source/os_mbox.c **** #endif
 305:..\..\..\..\..\..\Software\uCOS-II\Source/os_mbox.c **** 
 306:..\..\..\..\..\..\Software\uCOS-II\Source/os_mbox.c **** #if OS_ARG_CHK_EN > 0u
 307:..\..\..\..\..\..\Software\uCOS-II\Source/os_mbox.c ****     if (pevent == (OS_EVENT *)0) {                    /* Validate 'pevent'                         
 461              		.loc 1 307 0
 462 0010 FB68     		ldr	r3, [r7, #12]
 463 0012 002B     		cmp	r3, #0
 464 0014 04D1     		bne	.L32
 308:..\..\..\..\..\..\Software\uCOS-II\Source/os_mbox.c ****         *perr = OS_ERR_PEVENT_NULL;
 465              		.loc 1 308 0
 466 0016 7B68     		ldr	r3, [r7, #4]
 467 0018 0422     		movs	r2, #4
 468 001a 1A70     		strb	r2, [r3]
 309:..\..\..\..\..\..\Software\uCOS-II\Source/os_mbox.c ****         return ((void *)0);
 469              		.loc 1 309 0
 470 001c 0023     		movs	r3, #0
 471 001e 91E0     		b	.L33
 472              	.L32:
 310:..\..\..\..\..\..\Software\uCOS-II\Source/os_mbox.c ****     }
 311:..\..\..\..\..\..\Software\uCOS-II\Source/os_mbox.c **** #endif
 312:..\..\..\..\..\..\Software\uCOS-II\Source/os_mbox.c ****     if (pevent->OSEventType != OS_EVENT_TYPE_MBOX) {  /* Validate event block type                 
 473              		.loc 1 312 0
 474 0020 FB68     		ldr	r3, [r7, #12]
 475 0022 1B78     		ldrb	r3, [r3]
 476 0024 012B     		cmp	r3, #1
 477 0026 04D0     		beq	.L34
 313:..\..\..\..\..\..\Software\uCOS-II\Source/os_mbox.c ****         *perr = OS_ERR_EVENT_TYPE;
 478              		.loc 1 313 0
 479 0028 7B68     		ldr	r3, [r7, #4]
 480 002a 0122     		movs	r2, #1
 481 002c 1A70     		strb	r2, [r3]
ARM GAS  C:\Users\ADMINI~1\AppData\Local\Temp\ccsfG4Nc.s 			page 15


 314:..\..\..\..\..\..\Software\uCOS-II\Source/os_mbox.c ****         return ((void *)0);
 482              		.loc 1 314 0
 483 002e 0023     		movs	r3, #0
 484 0030 88E0     		b	.L33
 485              	.L34:
 315:..\..\..\..\..\..\Software\uCOS-II\Source/os_mbox.c ****     }
 316:..\..\..\..\..\..\Software\uCOS-II\Source/os_mbox.c ****     if (OSIntNesting > 0u) {                          /* See if called from ISR ...                
 486              		.loc 1 316 0
 487 0032 464B     		ldr	r3, .L43
 488 0034 1B78     		ldrb	r3, [r3]
 489 0036 002B     		cmp	r3, #0
 490 0038 04D0     		beq	.L35
 317:..\..\..\..\..\..\Software\uCOS-II\Source/os_mbox.c ****         *perr = OS_ERR_PEND_ISR;                      /* ... can't PEND from an ISR                
 491              		.loc 1 317 0
 492 003a 7B68     		ldr	r3, [r7, #4]
 493 003c 0222     		movs	r2, #2
 494 003e 1A70     		strb	r2, [r3]
 318:..\..\..\..\..\..\Software\uCOS-II\Source/os_mbox.c ****         return ((void *)0);
 495              		.loc 1 318 0
 496 0040 0023     		movs	r3, #0
 497 0042 7FE0     		b	.L33
 498              	.L35:
 319:..\..\..\..\..\..\Software\uCOS-II\Source/os_mbox.c ****     }
 320:..\..\..\..\..\..\Software\uCOS-II\Source/os_mbox.c ****     if (OSLockNesting > 0u) {                         /* See if called with scheduler locked ...   
 499              		.loc 1 320 0
 500 0044 424B     		ldr	r3, .L43+4
 501 0046 1B78     		ldrb	r3, [r3]
 502 0048 002B     		cmp	r3, #0
 503 004a 04D0     		beq	.L36
 321:..\..\..\..\..\..\Software\uCOS-II\Source/os_mbox.c ****         *perr = OS_ERR_PEND_LOCKED;                   /* ... can't PEND when locked                
 504              		.loc 1 321 0
 505 004c 7B68     		ldr	r3, [r7, #4]
 506 004e 0D22     		movs	r2, #13
 507 0050 1A70     		strb	r2, [r3]
 322:..\..\..\..\..\..\Software\uCOS-II\Source/os_mbox.c ****         return ((void *)0);
 508              		.loc 1 322 0
 509 0052 0023     		movs	r3, #0
 510 0054 76E0     		b	.L33
 511              	.L36:
 323:..\..\..\..\..\..\Software\uCOS-II\Source/os_mbox.c ****     }
 324:..\..\..\..\..\..\Software\uCOS-II\Source/os_mbox.c ****     OS_ENTER_CRITICAL();
 512              		.loc 1 324 0
 513 0056 FFF7FEFF 		bl	OS_CPU_SR_Save
 514 005a 0300     		movs	r3, r0
 515 005c 3B61     		str	r3, [r7, #16]
 325:..\..\..\..\..\..\Software\uCOS-II\Source/os_mbox.c ****     pmsg = pevent->OSEventPtr;
 516              		.loc 1 325 0
 517 005e FB68     		ldr	r3, [r7, #12]
 518 0060 5B68     		ldr	r3, [r3, #4]
 519 0062 7B61     		str	r3, [r7, #20]
 326:..\..\..\..\..\..\Software\uCOS-II\Source/os_mbox.c ****     if (pmsg != (void *)0) {                          /* See if there is already a message         
 520              		.loc 1 326 0
 521 0064 7B69     		ldr	r3, [r7, #20]
 522 0066 002B     		cmp	r3, #0
 523 0068 0BD0     		beq	.L37
 327:..\..\..\..\..\..\Software\uCOS-II\Source/os_mbox.c ****         pevent->OSEventPtr = (void *)0;               /* Clear the mailbox                         
 524              		.loc 1 327 0
ARM GAS  C:\Users\ADMINI~1\AppData\Local\Temp\ccsfG4Nc.s 			page 16


 525 006a FB68     		ldr	r3, [r7, #12]
 526 006c 0022     		movs	r2, #0
 527 006e 5A60     		str	r2, [r3, #4]
 328:..\..\..\..\..\..\Software\uCOS-II\Source/os_mbox.c ****         OS_EXIT_CRITICAL();
 528              		.loc 1 328 0
 529 0070 3B69     		ldr	r3, [r7, #16]
 530 0072 1800     		movs	r0, r3
 531 0074 FFF7FEFF 		bl	OS_CPU_SR_Restore
 329:..\..\..\..\..\..\Software\uCOS-II\Source/os_mbox.c ****         *perr = OS_ERR_NONE;
 532              		.loc 1 329 0
 533 0078 7B68     		ldr	r3, [r7, #4]
 534 007a 0022     		movs	r2, #0
 535 007c 1A70     		strb	r2, [r3]
 330:..\..\..\..\..\..\Software\uCOS-II\Source/os_mbox.c ****         return (pmsg);                                /* Return the message received (or NULL)     
 536              		.loc 1 330 0
 537 007e 7B69     		ldr	r3, [r7, #20]
 538 0080 60E0     		b	.L33
 539              	.L37:
 331:..\..\..\..\..\..\Software\uCOS-II\Source/os_mbox.c ****     }
 332:..\..\..\..\..\..\Software\uCOS-II\Source/os_mbox.c ****     OSTCBCur->OSTCBStat     |= OS_STAT_MBOX;          /* Message not available, task will pend     
 540              		.loc 1 332 0
 541 0082 344B     		ldr	r3, .L43+8
 542 0084 1A68     		ldr	r2, [r3]
 543 0086 334B     		ldr	r3, .L43+8
 544 0088 1B68     		ldr	r3, [r3]
 545 008a 3421     		movs	r1, #52
 546 008c 5B5C     		ldrb	r3, [r3, r1]
 547 008e 0221     		movs	r1, #2
 548 0090 0B43     		orrs	r3, r1
 549 0092 D9B2     		uxtb	r1, r3
 550 0094 3423     		movs	r3, #52
 551 0096 D154     		strb	r1, [r2, r3]
 333:..\..\..\..\..\..\Software\uCOS-II\Source/os_mbox.c ****     OSTCBCur->OSTCBStatPend  = OS_STAT_PEND_OK;
 552              		.loc 1 333 0
 553 0098 2E4B     		ldr	r3, .L43+8
 554 009a 1B68     		ldr	r3, [r3]
 555 009c 3522     		movs	r2, #53
 556 009e 0021     		movs	r1, #0
 557 00a0 9954     		strb	r1, [r3, r2]
 334:..\..\..\..\..\..\Software\uCOS-II\Source/os_mbox.c ****     OSTCBCur->OSTCBDly       = timeout;               /* Load timeout in TCB                       
 558              		.loc 1 334 0
 559 00a2 2C4B     		ldr	r3, .L43+8
 560 00a4 1B68     		ldr	r3, [r3]
 561 00a6 BA68     		ldr	r2, [r7, #8]
 562 00a8 1A63     		str	r2, [r3, #48]
 335:..\..\..\..\..\..\Software\uCOS-II\Source/os_mbox.c ****     OS_EventTaskWait(pevent);                         /* Suspend task until event or timeout occurs
 563              		.loc 1 335 0
 564 00aa FB68     		ldr	r3, [r7, #12]
 565 00ac 1800     		movs	r0, r3
 566 00ae FFF7FEFF 		bl	OS_EventTaskWait
 336:..\..\..\..\..\..\Software\uCOS-II\Source/os_mbox.c ****     OS_EXIT_CRITICAL();
 567              		.loc 1 336 0
 568 00b2 3B69     		ldr	r3, [r7, #16]
 569 00b4 1800     		movs	r0, r3
 570 00b6 FFF7FEFF 		bl	OS_CPU_SR_Restore
 337:..\..\..\..\..\..\Software\uCOS-II\Source/os_mbox.c ****     OS_Sched();                                       /* Find next highest priority task ready to r
 571              		.loc 1 337 0
ARM GAS  C:\Users\ADMINI~1\AppData\Local\Temp\ccsfG4Nc.s 			page 17


 572 00ba FFF7FEFF 		bl	OS_Sched
 338:..\..\..\..\..\..\Software\uCOS-II\Source/os_mbox.c ****     OS_ENTER_CRITICAL();
 573              		.loc 1 338 0
 574 00be FFF7FEFF 		bl	OS_CPU_SR_Save
 575 00c2 0300     		movs	r3, r0
 576 00c4 3B61     		str	r3, [r7, #16]
 339:..\..\..\..\..\..\Software\uCOS-II\Source/os_mbox.c ****     switch (OSTCBCur->OSTCBStatPend) {                /* See if we timed-out or aborted            
 577              		.loc 1 339 0
 578 00c6 234B     		ldr	r3, .L43+8
 579 00c8 1B68     		ldr	r3, [r3]
 580 00ca 3522     		movs	r2, #53
 581 00cc 9B5C     		ldrb	r3, [r3, r2]
 582 00ce 002B     		cmp	r3, #0
 583 00d0 02D0     		beq	.L39
 584 00d2 022B     		cmp	r3, #2
 585 00d4 08D0     		beq	.L40
 586 00d6 0DE0     		b	.L42
 587              	.L39:
 340:..\..\..\..\..\..\Software\uCOS-II\Source/os_mbox.c ****         case OS_STAT_PEND_OK:
 341:..\..\..\..\..\..\Software\uCOS-II\Source/os_mbox.c ****              pmsg =  OSTCBCur->OSTCBMsg;
 588              		.loc 1 341 0
 589 00d8 1E4B     		ldr	r3, .L43+8
 590 00da 1B68     		ldr	r3, [r3]
 591 00dc 5B6A     		ldr	r3, [r3, #36]
 592 00de 7B61     		str	r3, [r7, #20]
 342:..\..\..\..\..\..\Software\uCOS-II\Source/os_mbox.c ****             *perr =  OS_ERR_NONE;
 593              		.loc 1 342 0
 594 00e0 7B68     		ldr	r3, [r7, #4]
 595 00e2 0022     		movs	r2, #0
 596 00e4 1A70     		strb	r2, [r3]
 343:..\..\..\..\..\..\Software\uCOS-II\Source/os_mbox.c ****              break;
 597              		.loc 1 343 0
 598 00e6 12E0     		b	.L41
 599              	.L40:
 344:..\..\..\..\..\..\Software\uCOS-II\Source/os_mbox.c **** 
 345:..\..\..\..\..\..\Software\uCOS-II\Source/os_mbox.c ****         case OS_STAT_PEND_ABORT:
 346:..\..\..\..\..\..\Software\uCOS-II\Source/os_mbox.c ****              pmsg = (void *)0;
 600              		.loc 1 346 0
 601 00e8 0023     		movs	r3, #0
 602 00ea 7B61     		str	r3, [r7, #20]
 347:..\..\..\..\..\..\Software\uCOS-II\Source/os_mbox.c ****             *perr =  OS_ERR_PEND_ABORT;               /* Indicate that we aborted                  
 603              		.loc 1 347 0
 604 00ec 7B68     		ldr	r3, [r7, #4]
 605 00ee 0E22     		movs	r2, #14
 606 00f0 1A70     		strb	r2, [r3]
 348:..\..\..\..\..\..\Software\uCOS-II\Source/os_mbox.c ****              break;
 607              		.loc 1 348 0
 608 00f2 0CE0     		b	.L41
 609              	.L42:
 349:..\..\..\..\..\..\Software\uCOS-II\Source/os_mbox.c **** 
 350:..\..\..\..\..\..\Software\uCOS-II\Source/os_mbox.c ****         case OS_STAT_PEND_TO:
 351:..\..\..\..\..\..\Software\uCOS-II\Source/os_mbox.c ****         default:
 352:..\..\..\..\..\..\Software\uCOS-II\Source/os_mbox.c ****              OS_EventTaskRemove(OSTCBCur, pevent);
 610              		.loc 1 352 0
 611 00f4 174B     		ldr	r3, .L43+8
 612 00f6 1B68     		ldr	r3, [r3]
 613 00f8 FA68     		ldr	r2, [r7, #12]
ARM GAS  C:\Users\ADMINI~1\AppData\Local\Temp\ccsfG4Nc.s 			page 18


 614 00fa 1100     		movs	r1, r2
 615 00fc 1800     		movs	r0, r3
 616 00fe FFF7FEFF 		bl	OS_EventTaskRemove
 353:..\..\..\..\..\..\Software\uCOS-II\Source/os_mbox.c ****              pmsg = (void *)0;
 617              		.loc 1 353 0
 618 0102 0023     		movs	r3, #0
 619 0104 7B61     		str	r3, [r7, #20]
 354:..\..\..\..\..\..\Software\uCOS-II\Source/os_mbox.c ****             *perr =  OS_ERR_TIMEOUT;                  /* Indicate that we didn't get event within T
 620              		.loc 1 354 0
 621 0106 7B68     		ldr	r3, [r7, #4]
 622 0108 0A22     		movs	r2, #10
 623 010a 1A70     		strb	r2, [r3]
 355:..\..\..\..\..\..\Software\uCOS-II\Source/os_mbox.c ****              break;
 624              		.loc 1 355 0
 625 010c C046     		nop
 626              	.L41:
 356:..\..\..\..\..\..\Software\uCOS-II\Source/os_mbox.c ****     }
 357:..\..\..\..\..\..\Software\uCOS-II\Source/os_mbox.c ****     OSTCBCur->OSTCBStat          =  OS_STAT_RDY;      /* Set   task  status to ready               
 627              		.loc 1 357 0
 628 010e 114B     		ldr	r3, .L43+8
 629 0110 1B68     		ldr	r3, [r3]
 630 0112 3422     		movs	r2, #52
 631 0114 0021     		movs	r1, #0
 632 0116 9954     		strb	r1, [r3, r2]
 358:..\..\..\..\..\..\Software\uCOS-II\Source/os_mbox.c ****     OSTCBCur->OSTCBStatPend      =  OS_STAT_PEND_OK;  /* Clear pend  status                        
 633              		.loc 1 358 0
 634 0118 0E4B     		ldr	r3, .L43+8
 635 011a 1B68     		ldr	r3, [r3]
 636 011c 3522     		movs	r2, #53
 637 011e 0021     		movs	r1, #0
 638 0120 9954     		strb	r1, [r3, r2]
 359:..\..\..\..\..\..\Software\uCOS-II\Source/os_mbox.c ****     OSTCBCur->OSTCBEventPtr      = (OS_EVENT  *)0;    /* Clear event pointers                      
 639              		.loc 1 359 0
 640 0122 0C4B     		ldr	r3, .L43+8
 641 0124 1B68     		ldr	r3, [r3]
 642 0126 0022     		movs	r2, #0
 643 0128 DA61     		str	r2, [r3, #28]
 360:..\..\..\..\..\..\Software\uCOS-II\Source/os_mbox.c **** #if (OS_EVENT_MULTI_EN > 0u)
 361:..\..\..\..\..\..\Software\uCOS-II\Source/os_mbox.c ****     OSTCBCur->OSTCBEventMultiPtr = (OS_EVENT **)0;
 644              		.loc 1 361 0
 645 012a 0A4B     		ldr	r3, .L43+8
 646 012c 1B68     		ldr	r3, [r3]
 647 012e 0022     		movs	r2, #0
 648 0130 1A62     		str	r2, [r3, #32]
 362:..\..\..\..\..\..\Software\uCOS-II\Source/os_mbox.c **** #endif
 363:..\..\..\..\..\..\Software\uCOS-II\Source/os_mbox.c ****     OSTCBCur->OSTCBMsg           = (void      *)0;    /* Clear  received message                   
 649              		.loc 1 363 0
 650 0132 084B     		ldr	r3, .L43+8
 651 0134 1B68     		ldr	r3, [r3]
 652 0136 0022     		movs	r2, #0
 653 0138 5A62     		str	r2, [r3, #36]
 364:..\..\..\..\..\..\Software\uCOS-II\Source/os_mbox.c ****     OS_EXIT_CRITICAL();
 654              		.loc 1 364 0
 655 013a 3B69     		ldr	r3, [r7, #16]
 656 013c 1800     		movs	r0, r3
 657 013e FFF7FEFF 		bl	OS_CPU_SR_Restore
 365:..\..\..\..\..\..\Software\uCOS-II\Source/os_mbox.c ****     return (pmsg);                                    /* Return received message                   
ARM GAS  C:\Users\ADMINI~1\AppData\Local\Temp\ccsfG4Nc.s 			page 19


 658              		.loc 1 365 0
 659 0142 7B69     		ldr	r3, [r7, #20]
 660              	.L33:
 366:..\..\..\..\..\..\Software\uCOS-II\Source/os_mbox.c **** }
 661              		.loc 1 366 0
 662 0144 1800     		movs	r0, r3
 663 0146 BD46     		mov	sp, r7
 664 0148 06B0     		add	sp, sp, #24
 665              		@ sp needed
 666 014a 80BD     		pop	{r7, pc}
 667              	.L44:
 668              		.align	2
 669              	.L43:
 670 014c 00000000 		.word	OSIntNesting
 671 0150 00000000 		.word	OSLockNesting
 672 0154 00000000 		.word	OSTCBCur
 673              		.cfi_endproc
 674              	.LFE4:
 675              		.size	OSMboxPend, .-OSMboxPend
 676              		.section	.text.OSMboxPendAbort,"ax",%progbits
 677              		.align	2
 678              		.global	OSMboxPendAbort
 679              		.code	16
 680              		.thumb_func
 681              		.type	OSMboxPendAbort, %function
 682              	OSMboxPendAbort:
 683              	.LFB5:
 367:..\..\..\..\..\..\Software\uCOS-II\Source/os_mbox.c **** /*$PAGE*/
 368:..\..\..\..\..\..\Software\uCOS-II\Source/os_mbox.c **** /*
 369:..\..\..\..\..\..\Software\uCOS-II\Source/os_mbox.c **** ***************************************************************************************************
 370:..\..\..\..\..\..\Software\uCOS-II\Source/os_mbox.c **** *                                     ABORT WAITING ON A MESSAGE MAILBOX
 371:..\..\..\..\..\..\Software\uCOS-II\Source/os_mbox.c **** *
 372:..\..\..\..\..\..\Software\uCOS-II\Source/os_mbox.c **** * Description: This function aborts & readies any tasks currently waiting on a mailbox.  This funct
 373:..\..\..\..\..\..\Software\uCOS-II\Source/os_mbox.c **** *              should be used to fault-abort the wait on the mailbox, rather than to normally signa
 374:..\..\..\..\..\..\Software\uCOS-II\Source/os_mbox.c **** *              the mailbox via OSMboxPost() or OSMboxPostOpt().
 375:..\..\..\..\..\..\Software\uCOS-II\Source/os_mbox.c **** *
 376:..\..\..\..\..\..\Software\uCOS-II\Source/os_mbox.c **** * Arguments  : pevent        is a pointer to the event control block associated with the desired ma
 377:..\..\..\..\..\..\Software\uCOS-II\Source/os_mbox.c **** *
 378:..\..\..\..\..\..\Software\uCOS-II\Source/os_mbox.c **** *              opt           determines the type of ABORT performed:
 379:..\..\..\..\..\..\Software\uCOS-II\Source/os_mbox.c **** *                            OS_PEND_OPT_NONE         ABORT wait for a single task (HPT) waiting on
 380:..\..\..\..\..\..\Software\uCOS-II\Source/os_mbox.c **** *                                                     mailbox
 381:..\..\..\..\..\..\Software\uCOS-II\Source/os_mbox.c **** *                            OS_PEND_OPT_BROADCAST    ABORT wait for ALL tasks that are  waiting on
 382:..\..\..\..\..\..\Software\uCOS-II\Source/os_mbox.c **** *                                                     mailbox
 383:..\..\..\..\..\..\Software\uCOS-II\Source/os_mbox.c **** *
 384:..\..\..\..\..\..\Software\uCOS-II\Source/os_mbox.c **** *              perr          is a pointer to where an error message will be deposited.  Possible er
 385:..\..\..\..\..\..\Software\uCOS-II\Source/os_mbox.c **** *                            messages are:
 386:..\..\..\..\..\..\Software\uCOS-II\Source/os_mbox.c **** *
 387:..\..\..\..\..\..\Software\uCOS-II\Source/os_mbox.c **** *                            OS_ERR_NONE         No tasks were     waiting on the mailbox.
 388:..\..\..\..\..\..\Software\uCOS-II\Source/os_mbox.c **** *                            OS_ERR_PEND_ABORT   At least one task waiting on the mailbox was readi
 389:..\..\..\..\..\..\Software\uCOS-II\Source/os_mbox.c **** *                                                and informed of the aborted wait; check return val
 390:..\..\..\..\..\..\Software\uCOS-II\Source/os_mbox.c **** *                                                for the number of tasks whose wait on the mailbox
 391:..\..\..\..\..\..\Software\uCOS-II\Source/os_mbox.c **** *                                                was aborted.
 392:..\..\..\..\..\..\Software\uCOS-II\Source/os_mbox.c **** *                            OS_ERR_EVENT_TYPE   If you didn't pass a pointer to a mailbox.
 393:..\..\..\..\..\..\Software\uCOS-II\Source/os_mbox.c **** *                            OS_ERR_PEVENT_NULL  If 'pevent' is a NULL pointer.
 394:..\..\..\..\..\..\Software\uCOS-II\Source/os_mbox.c **** *
 395:..\..\..\..\..\..\Software\uCOS-II\Source/os_mbox.c **** * Returns    : == 0          if no tasks were waiting on the mailbox, or upon error.
 396:..\..\..\..\..\..\Software\uCOS-II\Source/os_mbox.c **** *              >  0          if one or more tasks waiting on the mailbox are now readied and inform
ARM GAS  C:\Users\ADMINI~1\AppData\Local\Temp\ccsfG4Nc.s 			page 20


 397:..\..\..\..\..\..\Software\uCOS-II\Source/os_mbox.c **** ***************************************************************************************************
 398:..\..\..\..\..\..\Software\uCOS-II\Source/os_mbox.c **** */
 399:..\..\..\..\..\..\Software\uCOS-II\Source/os_mbox.c **** 
 400:..\..\..\..\..\..\Software\uCOS-II\Source/os_mbox.c **** #if OS_MBOX_PEND_ABORT_EN > 0u
 401:..\..\..\..\..\..\Software\uCOS-II\Source/os_mbox.c **** INT8U  OSMboxPendAbort (OS_EVENT  *pevent,
 402:..\..\..\..\..\..\Software\uCOS-II\Source/os_mbox.c ****                         INT8U      opt,
 403:..\..\..\..\..\..\Software\uCOS-II\Source/os_mbox.c ****                         INT8U     *perr)
 404:..\..\..\..\..\..\Software\uCOS-II\Source/os_mbox.c **** {
 684              		.loc 1 404 0
 685              		.cfi_startproc
 686              		@ args = 0, pretend = 0, frame = 24
 687              		@ frame_needed = 1, uses_anonymous_args = 0
 688 0000 80B5     		push	{r7, lr}
 689              		.cfi_def_cfa_offset 8
 690              		.cfi_offset 7, -8
 691              		.cfi_offset 14, -4
 692 0002 86B0     		sub	sp, sp, #24
 693              		.cfi_def_cfa_offset 32
 694 0004 00AF     		add	r7, sp, #0
 695              		.cfi_def_cfa_register 7
 696 0006 F860     		str	r0, [r7, #12]
 697 0008 7A60     		str	r2, [r7, #4]
 698 000a 0B23     		movs	r3, #11
 699 000c FB18     		adds	r3, r7, r3
 700 000e 0A1C     		adds	r2, r1, #0
 701 0010 1A70     		strb	r2, [r3]
 405:..\..\..\..\..\..\Software\uCOS-II\Source/os_mbox.c ****     INT8U      nbr_tasks;
 406:..\..\..\..\..\..\Software\uCOS-II\Source/os_mbox.c **** #if OS_CRITICAL_METHOD == 3u                               /* Allocate storage for CPU status regis
 407:..\..\..\..\..\..\Software\uCOS-II\Source/os_mbox.c ****     OS_CPU_SR  cpu_sr = 0u;
 702              		.loc 1 407 0
 703 0012 0023     		movs	r3, #0
 704 0014 3B61     		str	r3, [r7, #16]
 408:..\..\..\..\..\..\Software\uCOS-II\Source/os_mbox.c **** #endif
 409:..\..\..\..\..\..\Software\uCOS-II\Source/os_mbox.c **** 
 410:..\..\..\..\..\..\Software\uCOS-II\Source/os_mbox.c **** 
 411:..\..\..\..\..\..\Software\uCOS-II\Source/os_mbox.c **** 
 412:..\..\..\..\..\..\Software\uCOS-II\Source/os_mbox.c **** #ifdef OS_SAFETY_CRITICAL
 413:..\..\..\..\..\..\Software\uCOS-II\Source/os_mbox.c ****     if (perr == (INT8U *)0) {
 414:..\..\..\..\..\..\Software\uCOS-II\Source/os_mbox.c ****         OS_SAFETY_CRITICAL_EXCEPTION();
 415:..\..\..\..\..\..\Software\uCOS-II\Source/os_mbox.c ****         return (0u);
 416:..\..\..\..\..\..\Software\uCOS-II\Source/os_mbox.c ****     }
 417:..\..\..\..\..\..\Software\uCOS-II\Source/os_mbox.c **** #endif
 418:..\..\..\..\..\..\Software\uCOS-II\Source/os_mbox.c **** 
 419:..\..\..\..\..\..\Software\uCOS-II\Source/os_mbox.c **** #if OS_ARG_CHK_EN > 0u
 420:..\..\..\..\..\..\Software\uCOS-II\Source/os_mbox.c ****     if (pevent == (OS_EVENT *)0) {                         /* Validate 'pevent'                    
 705              		.loc 1 420 0
 706 0016 FB68     		ldr	r3, [r7, #12]
 707 0018 002B     		cmp	r3, #0
 708 001a 04D1     		bne	.L46
 421:..\..\..\..\..\..\Software\uCOS-II\Source/os_mbox.c ****         *perr = OS_ERR_PEVENT_NULL;
 709              		.loc 1 421 0
 710 001c 7B68     		ldr	r3, [r7, #4]
 711 001e 0422     		movs	r2, #4
 712 0020 1A70     		strb	r2, [r3]
 422:..\..\..\..\..\..\Software\uCOS-II\Source/os_mbox.c ****         return (0u);
 713              		.loc 1 422 0
 714 0022 0023     		movs	r3, #0
ARM GAS  C:\Users\ADMINI~1\AppData\Local\Temp\ccsfG4Nc.s 			page 21


 715 0024 4FE0     		b	.L47
 716              	.L46:
 423:..\..\..\..\..\..\Software\uCOS-II\Source/os_mbox.c ****     }
 424:..\..\..\..\..\..\Software\uCOS-II\Source/os_mbox.c **** #endif
 425:..\..\..\..\..\..\Software\uCOS-II\Source/os_mbox.c ****     if (pevent->OSEventType != OS_EVENT_TYPE_MBOX) {       /* Validate event block type            
 717              		.loc 1 425 0
 718 0026 FB68     		ldr	r3, [r7, #12]
 719 0028 1B78     		ldrb	r3, [r3]
 720 002a 012B     		cmp	r3, #1
 721 002c 04D0     		beq	.L48
 426:..\..\..\..\..\..\Software\uCOS-II\Source/os_mbox.c ****         *perr = OS_ERR_EVENT_TYPE;
 722              		.loc 1 426 0
 723 002e 7B68     		ldr	r3, [r7, #4]
 724 0030 0122     		movs	r2, #1
 725 0032 1A70     		strb	r2, [r3]
 427:..\..\..\..\..\..\Software\uCOS-II\Source/os_mbox.c ****         return (0u);
 726              		.loc 1 427 0
 727 0034 0023     		movs	r3, #0
 728 0036 46E0     		b	.L47
 729              	.L48:
 428:..\..\..\..\..\..\Software\uCOS-II\Source/os_mbox.c ****     }
 429:..\..\..\..\..\..\Software\uCOS-II\Source/os_mbox.c ****     OS_ENTER_CRITICAL();
 730              		.loc 1 429 0
 731 0038 FFF7FEFF 		bl	OS_CPU_SR_Save
 732 003c 0300     		movs	r3, r0
 733 003e 3B61     		str	r3, [r7, #16]
 430:..\..\..\..\..\..\Software\uCOS-II\Source/os_mbox.c ****     if (pevent->OSEventGrp != 0u) {                        /* See if any task waiting on mailbox?  
 734              		.loc 1 430 0
 735 0040 FB68     		ldr	r3, [r7, #12]
 736 0042 9B7A     		ldrb	r3, [r3, #10]
 737 0044 002B     		cmp	r3, #0
 738 0046 36D0     		beq	.L49
 431:..\..\..\..\..\..\Software\uCOS-II\Source/os_mbox.c ****         nbr_tasks = 0u;
 739              		.loc 1 431 0
 740 0048 1723     		movs	r3, #23
 741 004a FB18     		adds	r3, r7, r3
 742 004c 0022     		movs	r2, #0
 743 004e 1A70     		strb	r2, [r3]
 432:..\..\..\..\..\..\Software\uCOS-II\Source/os_mbox.c ****         switch (opt) {
 744              		.loc 1 432 0
 745 0050 0B23     		movs	r3, #11
 746 0052 FB18     		adds	r3, r7, r3
 747 0054 1B78     		ldrb	r3, [r3]
 748 0056 012B     		cmp	r3, #1
 749 0058 12D1     		bne	.L55
 433:..\..\..\..\..\..\Software\uCOS-II\Source/os_mbox.c ****             case OS_PEND_OPT_BROADCAST:                    /* Do we need to abort ALL waiting tasks
 434:..\..\..\..\..\..\Software\uCOS-II\Source/os_mbox.c ****                  while (pevent->OSEventGrp != 0u) {        /* Yes, ready ALL tasks waiting on mailb
 750              		.loc 1 434 0
 751 005a 0CE0     		b	.L52
 752              	.L53:
 435:..\..\..\..\..\..\Software\uCOS-II\Source/os_mbox.c ****                      (void)OS_EventTaskRdy(pevent, (void *)0, OS_STAT_MBOX, OS_STAT_PEND_ABORT);
 753              		.loc 1 435 0
 754 005c F868     		ldr	r0, [r7, #12]
 755 005e 0223     		movs	r3, #2
 756 0060 0222     		movs	r2, #2
 757 0062 0021     		movs	r1, #0
 758 0064 FFF7FEFF 		bl	OS_EventTaskRdy
ARM GAS  C:\Users\ADMINI~1\AppData\Local\Temp\ccsfG4Nc.s 			page 22


 436:..\..\..\..\..\..\Software\uCOS-II\Source/os_mbox.c ****                      nbr_tasks++;
 759              		.loc 1 436 0
 760 0068 1723     		movs	r3, #23
 761 006a FB18     		adds	r3, r7, r3
 762 006c 1A78     		ldrb	r2, [r3]
 763 006e 1723     		movs	r3, #23
 764 0070 FB18     		adds	r3, r7, r3
 765 0072 0132     		adds	r2, r2, #1
 766 0074 1A70     		strb	r2, [r3]
 767              	.L52:
 434:..\..\..\..\..\..\Software\uCOS-II\Source/os_mbox.c ****                      (void)OS_EventTaskRdy(pevent, (void *)0, OS_STAT_MBOX, OS_STAT_PEND_ABORT);
 768              		.loc 1 434 0
 769 0076 FB68     		ldr	r3, [r7, #12]
 770 0078 9B7A     		ldrb	r3, [r3, #10]
 771 007a 002B     		cmp	r3, #0
 772 007c EED1     		bne	.L53
 437:..\..\..\..\..\..\Software\uCOS-II\Source/os_mbox.c ****                  }
 438:..\..\..\..\..\..\Software\uCOS-II\Source/os_mbox.c ****                  break;
 773              		.loc 1 438 0
 774 007e 0DE0     		b	.L54
 775              	.L55:
 439:..\..\..\..\..\..\Software\uCOS-II\Source/os_mbox.c **** 
 440:..\..\..\..\..\..\Software\uCOS-II\Source/os_mbox.c ****             case OS_PEND_OPT_NONE:
 441:..\..\..\..\..\..\Software\uCOS-II\Source/os_mbox.c ****             default:                                       /* No,  ready HPT       waiting on mailb
 442:..\..\..\..\..\..\Software\uCOS-II\Source/os_mbox.c ****                  (void)OS_EventTaskRdy(pevent, (void *)0, OS_STAT_MBOX, OS_STAT_PEND_ABORT);
 776              		.loc 1 442 0
 777 0080 F868     		ldr	r0, [r7, #12]
 778 0082 0223     		movs	r3, #2
 779 0084 0222     		movs	r2, #2
 780 0086 0021     		movs	r1, #0
 781 0088 FFF7FEFF 		bl	OS_EventTaskRdy
 443:..\..\..\..\..\..\Software\uCOS-II\Source/os_mbox.c ****                  nbr_tasks++;
 782              		.loc 1 443 0
 783 008c 1723     		movs	r3, #23
 784 008e FB18     		adds	r3, r7, r3
 785 0090 1A78     		ldrb	r2, [r3]
 786 0092 1723     		movs	r3, #23
 787 0094 FB18     		adds	r3, r7, r3
 788 0096 0132     		adds	r2, r2, #1
 789 0098 1A70     		strb	r2, [r3]
 444:..\..\..\..\..\..\Software\uCOS-II\Source/os_mbox.c ****                  break;
 790              		.loc 1 444 0
 791 009a C046     		nop
 792              	.L54:
 445:..\..\..\..\..\..\Software\uCOS-II\Source/os_mbox.c ****         }
 446:..\..\..\..\..\..\Software\uCOS-II\Source/os_mbox.c ****         OS_EXIT_CRITICAL();
 793              		.loc 1 446 0
 794 009c 3B69     		ldr	r3, [r7, #16]
 795 009e 1800     		movs	r0, r3
 796 00a0 FFF7FEFF 		bl	OS_CPU_SR_Restore
 447:..\..\..\..\..\..\Software\uCOS-II\Source/os_mbox.c ****         OS_Sched();                                        /* Find HPT ready to run                
 797              		.loc 1 447 0
 798 00a4 FFF7FEFF 		bl	OS_Sched
 448:..\..\..\..\..\..\Software\uCOS-II\Source/os_mbox.c ****         *perr = OS_ERR_PEND_ABORT;
 799              		.loc 1 448 0
 800 00a8 7B68     		ldr	r3, [r7, #4]
 801 00aa 0E22     		movs	r2, #14
ARM GAS  C:\Users\ADMINI~1\AppData\Local\Temp\ccsfG4Nc.s 			page 23


 802 00ac 1A70     		strb	r2, [r3]
 449:..\..\..\..\..\..\Software\uCOS-II\Source/os_mbox.c ****         return (nbr_tasks);
 803              		.loc 1 449 0
 804 00ae 1723     		movs	r3, #23
 805 00b0 FB18     		adds	r3, r7, r3
 806 00b2 1B78     		ldrb	r3, [r3]
 807 00b4 07E0     		b	.L47
 808              	.L49:
 450:..\..\..\..\..\..\Software\uCOS-II\Source/os_mbox.c ****     }
 451:..\..\..\..\..\..\Software\uCOS-II\Source/os_mbox.c ****     OS_EXIT_CRITICAL();
 809              		.loc 1 451 0
 810 00b6 3B69     		ldr	r3, [r7, #16]
 811 00b8 1800     		movs	r0, r3
 812 00ba FFF7FEFF 		bl	OS_CPU_SR_Restore
 452:..\..\..\..\..\..\Software\uCOS-II\Source/os_mbox.c ****     *perr = OS_ERR_NONE;
 813              		.loc 1 452 0
 814 00be 7B68     		ldr	r3, [r7, #4]
 815 00c0 0022     		movs	r2, #0
 816 00c2 1A70     		strb	r2, [r3]
 453:..\..\..\..\..\..\Software\uCOS-II\Source/os_mbox.c ****     return (0u);                                           /* No tasks waiting on mailbox          
 817              		.loc 1 453 0
 818 00c4 0023     		movs	r3, #0
 819              	.L47:
 454:..\..\..\..\..\..\Software\uCOS-II\Source/os_mbox.c **** }
 820              		.loc 1 454 0
 821 00c6 1800     		movs	r0, r3
 822 00c8 BD46     		mov	sp, r7
 823 00ca 06B0     		add	sp, sp, #24
 824              		@ sp needed
 825 00cc 80BD     		pop	{r7, pc}
 826              		.cfi_endproc
 827              	.LFE5:
 828              		.size	OSMboxPendAbort, .-OSMboxPendAbort
 829 00ce C046     		.section	.text.OSMboxPost,"ax",%progbits
 830              		.align	2
 831              		.global	OSMboxPost
 832              		.code	16
 833              		.thumb_func
 834              		.type	OSMboxPost, %function
 835              	OSMboxPost:
 836              	.LFB6:
 455:..\..\..\..\..\..\Software\uCOS-II\Source/os_mbox.c **** #endif
 456:..\..\..\..\..\..\Software\uCOS-II\Source/os_mbox.c **** 
 457:..\..\..\..\..\..\Software\uCOS-II\Source/os_mbox.c **** /*$PAGE*/
 458:..\..\..\..\..\..\Software\uCOS-II\Source/os_mbox.c **** /*
 459:..\..\..\..\..\..\Software\uCOS-II\Source/os_mbox.c **** ***************************************************************************************************
 460:..\..\..\..\..\..\Software\uCOS-II\Source/os_mbox.c **** *                                      POST MESSAGE TO A MAILBOX
 461:..\..\..\..\..\..\Software\uCOS-II\Source/os_mbox.c **** *
 462:..\..\..\..\..\..\Software\uCOS-II\Source/os_mbox.c **** * Description: This function sends a message to a mailbox
 463:..\..\..\..\..\..\Software\uCOS-II\Source/os_mbox.c **** *
 464:..\..\..\..\..\..\Software\uCOS-II\Source/os_mbox.c **** * Arguments  : pevent        is a pointer to the event control block associated with the desired ma
 465:..\..\..\..\..\..\Software\uCOS-II\Source/os_mbox.c **** *
 466:..\..\..\..\..\..\Software\uCOS-II\Source/os_mbox.c **** *              pmsg          is a pointer to the message to send.  You MUST NOT send a NULL pointer
 467:..\..\..\..\..\..\Software\uCOS-II\Source/os_mbox.c **** *
 468:..\..\..\..\..\..\Software\uCOS-II\Source/os_mbox.c **** * Returns    : OS_ERR_NONE          The call was successful and the message was sent
 469:..\..\..\..\..\..\Software\uCOS-II\Source/os_mbox.c **** *              OS_ERR_MBOX_FULL     If the mailbox already contains a message.  You can can only se
 470:..\..\..\..\..\..\Software\uCOS-II\Source/os_mbox.c **** *                                   message at a time and thus, the message MUST be consumed before
ARM GAS  C:\Users\ADMINI~1\AppData\Local\Temp\ccsfG4Nc.s 			page 24


 471:..\..\..\..\..\..\Software\uCOS-II\Source/os_mbox.c **** *                                   are allowed to send another one.
 472:..\..\..\..\..\..\Software\uCOS-II\Source/os_mbox.c **** *              OS_ERR_EVENT_TYPE    If you are attempting to post to a non mailbox.
 473:..\..\..\..\..\..\Software\uCOS-II\Source/os_mbox.c **** *              OS_ERR_PEVENT_NULL   If 'pevent' is a NULL pointer
 474:..\..\..\..\..\..\Software\uCOS-II\Source/os_mbox.c **** *              OS_ERR_POST_NULL_PTR If you are attempting to post a NULL pointer
 475:..\..\..\..\..\..\Software\uCOS-II\Source/os_mbox.c **** *
 476:..\..\..\..\..\..\Software\uCOS-II\Source/os_mbox.c **** * Note(s)    : 1) HPT means Highest Priority Task
 477:..\..\..\..\..\..\Software\uCOS-II\Source/os_mbox.c **** ***************************************************************************************************
 478:..\..\..\..\..\..\Software\uCOS-II\Source/os_mbox.c **** */
 479:..\..\..\..\..\..\Software\uCOS-II\Source/os_mbox.c **** 
 480:..\..\..\..\..\..\Software\uCOS-II\Source/os_mbox.c **** #if OS_MBOX_POST_EN > 0u
 481:..\..\..\..\..\..\Software\uCOS-II\Source/os_mbox.c **** INT8U  OSMboxPost (OS_EVENT  *pevent,
 482:..\..\..\..\..\..\Software\uCOS-II\Source/os_mbox.c ****                    void      *pmsg)
 483:..\..\..\..\..\..\Software\uCOS-II\Source/os_mbox.c **** {
 837              		.loc 1 483 0
 838              		.cfi_startproc
 839              		@ args = 0, pretend = 0, frame = 16
 840              		@ frame_needed = 1, uses_anonymous_args = 0
 841 0000 80B5     		push	{r7, lr}
 842              		.cfi_def_cfa_offset 8
 843              		.cfi_offset 7, -8
 844              		.cfi_offset 14, -4
 845 0002 84B0     		sub	sp, sp, #16
 846              		.cfi_def_cfa_offset 24
 847 0004 00AF     		add	r7, sp, #0
 848              		.cfi_def_cfa_register 7
 849 0006 7860     		str	r0, [r7, #4]
 850 0008 3960     		str	r1, [r7]
 484:..\..\..\..\..\..\Software\uCOS-II\Source/os_mbox.c **** #if OS_CRITICAL_METHOD == 3u                          /* Allocate storage for CPU status register  
 485:..\..\..\..\..\..\Software\uCOS-II\Source/os_mbox.c ****     OS_CPU_SR  cpu_sr = 0u;
 851              		.loc 1 485 0
 852 000a 0023     		movs	r3, #0
 853 000c FB60     		str	r3, [r7, #12]
 486:..\..\..\..\..\..\Software\uCOS-II\Source/os_mbox.c **** #endif
 487:..\..\..\..\..\..\Software\uCOS-II\Source/os_mbox.c **** 
 488:..\..\..\..\..\..\Software\uCOS-II\Source/os_mbox.c **** 
 489:..\..\..\..\..\..\Software\uCOS-II\Source/os_mbox.c **** 
 490:..\..\..\..\..\..\Software\uCOS-II\Source/os_mbox.c **** #if OS_ARG_CHK_EN > 0u
 491:..\..\..\..\..\..\Software\uCOS-II\Source/os_mbox.c ****     if (pevent == (OS_EVENT *)0) {                    /* Validate 'pevent'                         
 854              		.loc 1 491 0
 855 000e 7B68     		ldr	r3, [r7, #4]
 856 0010 002B     		cmp	r3, #0
 857 0012 01D1     		bne	.L57
 492:..\..\..\..\..\..\Software\uCOS-II\Source/os_mbox.c ****         return (OS_ERR_PEVENT_NULL);
 858              		.loc 1 492 0
 859 0014 0423     		movs	r3, #4
 860 0016 32E0     		b	.L58
 861              	.L57:
 493:..\..\..\..\..\..\Software\uCOS-II\Source/os_mbox.c ****     }
 494:..\..\..\..\..\..\Software\uCOS-II\Source/os_mbox.c ****     if (pmsg == (void *)0) {                          /* Make sure we are not posting a NULL pointe
 862              		.loc 1 494 0
 863 0018 3B68     		ldr	r3, [r7]
 864 001a 002B     		cmp	r3, #0
 865 001c 01D1     		bne	.L59
 495:..\..\..\..\..\..\Software\uCOS-II\Source/os_mbox.c ****         return (OS_ERR_POST_NULL_PTR);
 866              		.loc 1 495 0
 867 001e 0323     		movs	r3, #3
 868 0020 2DE0     		b	.L58
ARM GAS  C:\Users\ADMINI~1\AppData\Local\Temp\ccsfG4Nc.s 			page 25


 869              	.L59:
 496:..\..\..\..\..\..\Software\uCOS-II\Source/os_mbox.c ****     }
 497:..\..\..\..\..\..\Software\uCOS-II\Source/os_mbox.c **** #endif
 498:..\..\..\..\..\..\Software\uCOS-II\Source/os_mbox.c ****     if (pevent->OSEventType != OS_EVENT_TYPE_MBOX) {  /* Validate event block type                 
 870              		.loc 1 498 0
 871 0022 7B68     		ldr	r3, [r7, #4]
 872 0024 1B78     		ldrb	r3, [r3]
 873 0026 012B     		cmp	r3, #1
 874 0028 01D0     		beq	.L60
 499:..\..\..\..\..\..\Software\uCOS-II\Source/os_mbox.c ****         return (OS_ERR_EVENT_TYPE);
 875              		.loc 1 499 0
 876 002a 0123     		movs	r3, #1
 877 002c 27E0     		b	.L58
 878              	.L60:
 500:..\..\..\..\..\..\Software\uCOS-II\Source/os_mbox.c ****     }
 501:..\..\..\..\..\..\Software\uCOS-II\Source/os_mbox.c ****     OS_ENTER_CRITICAL();
 879              		.loc 1 501 0
 880 002e FFF7FEFF 		bl	OS_CPU_SR_Save
 881 0032 0300     		movs	r3, r0
 882 0034 FB60     		str	r3, [r7, #12]
 502:..\..\..\..\..\..\Software\uCOS-II\Source/os_mbox.c ****     if (pevent->OSEventGrp != 0u) {                   /* See if any task pending on mailbox        
 883              		.loc 1 502 0
 884 0036 7B68     		ldr	r3, [r7, #4]
 885 0038 9B7A     		ldrb	r3, [r3, #10]
 886 003a 002B     		cmp	r3, #0
 887 003c 0DD0     		beq	.L61
 503:..\..\..\..\..\..\Software\uCOS-II\Source/os_mbox.c ****                                                       /* Ready HPT waiting on event                
 504:..\..\..\..\..\..\Software\uCOS-II\Source/os_mbox.c ****         (void)OS_EventTaskRdy(pevent, pmsg, OS_STAT_MBOX, OS_STAT_PEND_OK);
 888              		.loc 1 504 0
 889 003e 3968     		ldr	r1, [r7]
 890 0040 7868     		ldr	r0, [r7, #4]
 891 0042 0023     		movs	r3, #0
 892 0044 0222     		movs	r2, #2
 893 0046 FFF7FEFF 		bl	OS_EventTaskRdy
 505:..\..\..\..\..\..\Software\uCOS-II\Source/os_mbox.c ****         OS_EXIT_CRITICAL();
 894              		.loc 1 505 0
 895 004a FB68     		ldr	r3, [r7, #12]
 896 004c 1800     		movs	r0, r3
 897 004e FFF7FEFF 		bl	OS_CPU_SR_Restore
 506:..\..\..\..\..\..\Software\uCOS-II\Source/os_mbox.c ****         OS_Sched();                                   /* Find highest priority task ready to run   
 898              		.loc 1 506 0
 899 0052 FFF7FEFF 		bl	OS_Sched
 507:..\..\..\..\..\..\Software\uCOS-II\Source/os_mbox.c ****         return (OS_ERR_NONE);
 900              		.loc 1 507 0
 901 0056 0023     		movs	r3, #0
 902 0058 11E0     		b	.L58
 903              	.L61:
 508:..\..\..\..\..\..\Software\uCOS-II\Source/os_mbox.c ****     }
 509:..\..\..\..\..\..\Software\uCOS-II\Source/os_mbox.c ****     if (pevent->OSEventPtr != (void *)0) {            /* Make sure mailbox doesn't already have a m
 904              		.loc 1 509 0
 905 005a 7B68     		ldr	r3, [r7, #4]
 906 005c 5B68     		ldr	r3, [r3, #4]
 907 005e 002B     		cmp	r3, #0
 908 0060 05D0     		beq	.L62
 510:..\..\..\..\..\..\Software\uCOS-II\Source/os_mbox.c ****         OS_EXIT_CRITICAL();
 909              		.loc 1 510 0
 910 0062 FB68     		ldr	r3, [r7, #12]
ARM GAS  C:\Users\ADMINI~1\AppData\Local\Temp\ccsfG4Nc.s 			page 26


 911 0064 1800     		movs	r0, r3
 912 0066 FFF7FEFF 		bl	OS_CPU_SR_Restore
 511:..\..\..\..\..\..\Software\uCOS-II\Source/os_mbox.c ****         return (OS_ERR_MBOX_FULL);
 913              		.loc 1 511 0
 914 006a 1423     		movs	r3, #20
 915 006c 07E0     		b	.L58
 916              	.L62:
 512:..\..\..\..\..\..\Software\uCOS-II\Source/os_mbox.c ****     }
 513:..\..\..\..\..\..\Software\uCOS-II\Source/os_mbox.c ****     pevent->OSEventPtr = pmsg;                        /* Place message in mailbox                  
 917              		.loc 1 513 0
 918 006e 7B68     		ldr	r3, [r7, #4]
 919 0070 3A68     		ldr	r2, [r7]
 920 0072 5A60     		str	r2, [r3, #4]
 514:..\..\..\..\..\..\Software\uCOS-II\Source/os_mbox.c ****     OS_EXIT_CRITICAL();
 921              		.loc 1 514 0
 922 0074 FB68     		ldr	r3, [r7, #12]
 923 0076 1800     		movs	r0, r3
 924 0078 FFF7FEFF 		bl	OS_CPU_SR_Restore
 515:..\..\..\..\..\..\Software\uCOS-II\Source/os_mbox.c ****     return (OS_ERR_NONE);
 925              		.loc 1 515 0
 926 007c 0023     		movs	r3, #0
 927              	.L58:
 516:..\..\..\..\..\..\Software\uCOS-II\Source/os_mbox.c **** }
 928              		.loc 1 516 0
 929 007e 1800     		movs	r0, r3
 930 0080 BD46     		mov	sp, r7
 931 0082 04B0     		add	sp, sp, #16
 932              		@ sp needed
 933 0084 80BD     		pop	{r7, pc}
 934              		.cfi_endproc
 935              	.LFE6:
 936              		.size	OSMboxPost, .-OSMboxPost
 937 0086 C046     		.section	.text.OSMboxPostOpt,"ax",%progbits
 938              		.align	2
 939              		.global	OSMboxPostOpt
 940              		.code	16
 941              		.thumb_func
 942              		.type	OSMboxPostOpt, %function
 943              	OSMboxPostOpt:
 944              	.LFB7:
 517:..\..\..\..\..\..\Software\uCOS-II\Source/os_mbox.c **** #endif
 518:..\..\..\..\..\..\Software\uCOS-II\Source/os_mbox.c **** 
 519:..\..\..\..\..\..\Software\uCOS-II\Source/os_mbox.c **** /*$PAGE*/
 520:..\..\..\..\..\..\Software\uCOS-II\Source/os_mbox.c **** /*
 521:..\..\..\..\..\..\Software\uCOS-II\Source/os_mbox.c **** ***************************************************************************************************
 522:..\..\..\..\..\..\Software\uCOS-II\Source/os_mbox.c **** *                                      POST MESSAGE TO A MAILBOX
 523:..\..\..\..\..\..\Software\uCOS-II\Source/os_mbox.c **** *
 524:..\..\..\..\..\..\Software\uCOS-II\Source/os_mbox.c **** * Description: This function sends a message to a mailbox
 525:..\..\..\..\..\..\Software\uCOS-II\Source/os_mbox.c **** *
 526:..\..\..\..\..\..\Software\uCOS-II\Source/os_mbox.c **** * Arguments  : pevent        is a pointer to the event control block associated with the desired ma
 527:..\..\..\..\..\..\Software\uCOS-II\Source/os_mbox.c **** *
 528:..\..\..\..\..\..\Software\uCOS-II\Source/os_mbox.c **** *              pmsg          is a pointer to the message to send.  You MUST NOT send a NULL pointer
 529:..\..\..\..\..\..\Software\uCOS-II\Source/os_mbox.c **** *
 530:..\..\..\..\..\..\Software\uCOS-II\Source/os_mbox.c **** *              opt           determines the type of POST performed:
 531:..\..\..\..\..\..\Software\uCOS-II\Source/os_mbox.c **** *                            OS_POST_OPT_NONE         POST to a single waiting task
 532:..\..\..\..\..\..\Software\uCOS-II\Source/os_mbox.c **** *                                                     (Identical to OSMboxPost())
 533:..\..\..\..\..\..\Software\uCOS-II\Source/os_mbox.c **** *                            OS_POST_OPT_BROADCAST    POST to ALL tasks that are waiting on the mai
ARM GAS  C:\Users\ADMINI~1\AppData\Local\Temp\ccsfG4Nc.s 			page 27


 534:..\..\..\..\..\..\Software\uCOS-II\Source/os_mbox.c **** *
 535:..\..\..\..\..\..\Software\uCOS-II\Source/os_mbox.c **** *                            OS_POST_OPT_NO_SCHED     Indicates that the scheduler will NOT be invo
 536:..\..\..\..\..\..\Software\uCOS-II\Source/os_mbox.c **** *
 537:..\..\..\..\..\..\Software\uCOS-II\Source/os_mbox.c **** * Returns    : OS_ERR_NONE          The call was successful and the message was sent
 538:..\..\..\..\..\..\Software\uCOS-II\Source/os_mbox.c **** *              OS_ERR_MBOX_FULL     If the mailbox already contains a message.  You can can only se
 539:..\..\..\..\..\..\Software\uCOS-II\Source/os_mbox.c **** *                                   message at a time and thus, the message MUST be consumed before
 540:..\..\..\..\..\..\Software\uCOS-II\Source/os_mbox.c **** *                                   are allowed to send another one.
 541:..\..\..\..\..\..\Software\uCOS-II\Source/os_mbox.c **** *              OS_ERR_EVENT_TYPE    If you are attempting to post to a non mailbox.
 542:..\..\..\..\..\..\Software\uCOS-II\Source/os_mbox.c **** *              OS_ERR_PEVENT_NULL   If 'pevent' is a NULL pointer
 543:..\..\..\..\..\..\Software\uCOS-II\Source/os_mbox.c **** *              OS_ERR_POST_NULL_PTR If you are attempting to post a NULL pointer
 544:..\..\..\..\..\..\Software\uCOS-II\Source/os_mbox.c **** *
 545:..\..\..\..\..\..\Software\uCOS-II\Source/os_mbox.c **** * Note(s)    : 1) HPT means Highest Priority Task
 546:..\..\..\..\..\..\Software\uCOS-II\Source/os_mbox.c **** *
 547:..\..\..\..\..\..\Software\uCOS-II\Source/os_mbox.c **** * Warning    : Interrupts can be disabled for a long time if you do a 'broadcast'.  In fact, the
 548:..\..\..\..\..\..\Software\uCOS-II\Source/os_mbox.c **** *              interrupt disable time is proportional to the number of tasks waiting on the mailbox
 549:..\..\..\..\..\..\Software\uCOS-II\Source/os_mbox.c **** ***************************************************************************************************
 550:..\..\..\..\..\..\Software\uCOS-II\Source/os_mbox.c **** */
 551:..\..\..\..\..\..\Software\uCOS-II\Source/os_mbox.c **** 
 552:..\..\..\..\..\..\Software\uCOS-II\Source/os_mbox.c **** #if OS_MBOX_POST_OPT_EN > 0u
 553:..\..\..\..\..\..\Software\uCOS-II\Source/os_mbox.c **** INT8U  OSMboxPostOpt (OS_EVENT  *pevent,
 554:..\..\..\..\..\..\Software\uCOS-II\Source/os_mbox.c ****                       void      *pmsg,
 555:..\..\..\..\..\..\Software\uCOS-II\Source/os_mbox.c ****                       INT8U      opt)
 556:..\..\..\..\..\..\Software\uCOS-II\Source/os_mbox.c **** {
 945              		.loc 1 556 0
 946              		.cfi_startproc
 947              		@ args = 0, pretend = 0, frame = 24
 948              		@ frame_needed = 1, uses_anonymous_args = 0
 949 0000 80B5     		push	{r7, lr}
 950              		.cfi_def_cfa_offset 8
 951              		.cfi_offset 7, -8
 952              		.cfi_offset 14, -4
 953 0002 86B0     		sub	sp, sp, #24
 954              		.cfi_def_cfa_offset 32
 955 0004 00AF     		add	r7, sp, #0
 956              		.cfi_def_cfa_register 7
 957 0006 F860     		str	r0, [r7, #12]
 958 0008 B960     		str	r1, [r7, #8]
 959 000a FB1D     		adds	r3, r7, #7
 960 000c 1A70     		strb	r2, [r3]
 557:..\..\..\..\..\..\Software\uCOS-II\Source/os_mbox.c **** #if OS_CRITICAL_METHOD == 3u                          /* Allocate storage for CPU status register  
 558:..\..\..\..\..\..\Software\uCOS-II\Source/os_mbox.c ****     OS_CPU_SR  cpu_sr = 0u;
 961              		.loc 1 558 0
 962 000e 0023     		movs	r3, #0
 963 0010 7B61     		str	r3, [r7, #20]
 559:..\..\..\..\..\..\Software\uCOS-II\Source/os_mbox.c **** #endif
 560:..\..\..\..\..\..\Software\uCOS-II\Source/os_mbox.c **** 
 561:..\..\..\..\..\..\Software\uCOS-II\Source/os_mbox.c **** 
 562:..\..\..\..\..\..\Software\uCOS-II\Source/os_mbox.c **** 
 563:..\..\..\..\..\..\Software\uCOS-II\Source/os_mbox.c **** #if OS_ARG_CHK_EN > 0u
 564:..\..\..\..\..\..\Software\uCOS-II\Source/os_mbox.c ****     if (pevent == (OS_EVENT *)0) {                    /* Validate 'pevent'                         
 964              		.loc 1 564 0
 965 0012 FB68     		ldr	r3, [r7, #12]
 966 0014 002B     		cmp	r3, #0
 967 0016 01D1     		bne	.L64
 565:..\..\..\..\..\..\Software\uCOS-II\Source/os_mbox.c ****         return (OS_ERR_PEVENT_NULL);
 968              		.loc 1 565 0
 969 0018 0423     		movs	r3, #4
ARM GAS  C:\Users\ADMINI~1\AppData\Local\Temp\ccsfG4Nc.s 			page 28


 970 001a 48E0     		b	.L65
 971              	.L64:
 566:..\..\..\..\..\..\Software\uCOS-II\Source/os_mbox.c ****     }
 567:..\..\..\..\..\..\Software\uCOS-II\Source/os_mbox.c ****     if (pmsg == (void *)0) {                          /* Make sure we are not posting a NULL pointe
 972              		.loc 1 567 0
 973 001c BB68     		ldr	r3, [r7, #8]
 974 001e 002B     		cmp	r3, #0
 975 0020 01D1     		bne	.L66
 568:..\..\..\..\..\..\Software\uCOS-II\Source/os_mbox.c ****         return (OS_ERR_POST_NULL_PTR);
 976              		.loc 1 568 0
 977 0022 0323     		movs	r3, #3
 978 0024 43E0     		b	.L65
 979              	.L66:
 569:..\..\..\..\..\..\Software\uCOS-II\Source/os_mbox.c ****     }
 570:..\..\..\..\..\..\Software\uCOS-II\Source/os_mbox.c **** #endif
 571:..\..\..\..\..\..\Software\uCOS-II\Source/os_mbox.c ****     if (pevent->OSEventType != OS_EVENT_TYPE_MBOX) {  /* Validate event block type                 
 980              		.loc 1 571 0
 981 0026 FB68     		ldr	r3, [r7, #12]
 982 0028 1B78     		ldrb	r3, [r3]
 983 002a 012B     		cmp	r3, #1
 984 002c 01D0     		beq	.L67
 572:..\..\..\..\..\..\Software\uCOS-II\Source/os_mbox.c ****         return (OS_ERR_EVENT_TYPE);
 985              		.loc 1 572 0
 986 002e 0123     		movs	r3, #1
 987 0030 3DE0     		b	.L65
 988              	.L67:
 573:..\..\..\..\..\..\Software\uCOS-II\Source/os_mbox.c ****     }
 574:..\..\..\..\..\..\Software\uCOS-II\Source/os_mbox.c ****     OS_ENTER_CRITICAL();
 989              		.loc 1 574 0
 990 0032 FFF7FEFF 		bl	OS_CPU_SR_Save
 991 0036 0300     		movs	r3, r0
 992 0038 7B61     		str	r3, [r7, #20]
 575:..\..\..\..\..\..\Software\uCOS-II\Source/os_mbox.c ****     if (pevent->OSEventGrp != 0u) {                   /* See if any task pending on mailbox        
 993              		.loc 1 575 0
 994 003a FB68     		ldr	r3, [r7, #12]
 995 003c 9B7A     		ldrb	r3, [r3, #10]
 996 003e 002B     		cmp	r3, #0
 997 0040 23D0     		beq	.L68
 576:..\..\..\..\..\..\Software\uCOS-II\Source/os_mbox.c ****         if ((opt & OS_POST_OPT_BROADCAST) != 0x00u) { /* Do we need to post msg to ALL waiting task
 998              		.loc 1 576 0
 999 0042 FB1D     		adds	r3, r7, #7
 1000 0044 1B78     		ldrb	r3, [r3]
 1001 0046 0122     		movs	r2, #1
 1002 0048 1340     		ands	r3, r2
 1003 004a 0BD0     		beq	.L69
 577:..\..\..\..\..\..\Software\uCOS-II\Source/os_mbox.c ****             while (pevent->OSEventGrp != 0u) {        /* Yes, Post to ALL tasks waiting on mailbox 
 1004              		.loc 1 577 0
 1005 004c 05E0     		b	.L70
 1006              	.L71:
 578:..\..\..\..\..\..\Software\uCOS-II\Source/os_mbox.c ****                 (void)OS_EventTaskRdy(pevent, pmsg, OS_STAT_MBOX, OS_STAT_PEND_OK);
 1007              		.loc 1 578 0
 1008 004e B968     		ldr	r1, [r7, #8]
 1009 0050 F868     		ldr	r0, [r7, #12]
 1010 0052 0023     		movs	r3, #0
 1011 0054 0222     		movs	r2, #2
 1012 0056 FFF7FEFF 		bl	OS_EventTaskRdy
 1013              	.L70:
ARM GAS  C:\Users\ADMINI~1\AppData\Local\Temp\ccsfG4Nc.s 			page 29


 577:..\..\..\..\..\..\Software\uCOS-II\Source/os_mbox.c ****             while (pevent->OSEventGrp != 0u) {        /* Yes, Post to ALL tasks waiting on mailbox 
 1014              		.loc 1 577 0
 1015 005a FB68     		ldr	r3, [r7, #12]
 1016 005c 9B7A     		ldrb	r3, [r3, #10]
 1017 005e 002B     		cmp	r3, #0
 1018 0060 F5D1     		bne	.L71
 1019 0062 05E0     		b	.L72
 1020              	.L69:
 579:..\..\..\..\..\..\Software\uCOS-II\Source/os_mbox.c ****             }
 580:..\..\..\..\..\..\Software\uCOS-II\Source/os_mbox.c ****         } else {                                      /* No,  Post to HPT waiting on mbox          
 581:..\..\..\..\..\..\Software\uCOS-II\Source/os_mbox.c ****             (void)OS_EventTaskRdy(pevent, pmsg, OS_STAT_MBOX, OS_STAT_PEND_OK);
 1021              		.loc 1 581 0
 1022 0064 B968     		ldr	r1, [r7, #8]
 1023 0066 F868     		ldr	r0, [r7, #12]
 1024 0068 0023     		movs	r3, #0
 1025 006a 0222     		movs	r2, #2
 1026 006c FFF7FEFF 		bl	OS_EventTaskRdy
 1027              	.L72:
 582:..\..\..\..\..\..\Software\uCOS-II\Source/os_mbox.c ****         }
 583:..\..\..\..\..\..\Software\uCOS-II\Source/os_mbox.c ****         OS_EXIT_CRITICAL();
 1028              		.loc 1 583 0
 1029 0070 7B69     		ldr	r3, [r7, #20]
 1030 0072 1800     		movs	r0, r3
 1031 0074 FFF7FEFF 		bl	OS_CPU_SR_Restore
 584:..\..\..\..\..\..\Software\uCOS-II\Source/os_mbox.c ****         if ((opt & OS_POST_OPT_NO_SCHED) == 0u) {     /* See if scheduler needs to be invoked      
 1032              		.loc 1 584 0
 1033 0078 FB1D     		adds	r3, r7, #7
 1034 007a 1B78     		ldrb	r3, [r3]
 1035 007c 0422     		movs	r2, #4
 1036 007e 1340     		ands	r3, r2
 1037 0080 01D1     		bne	.L73
 585:..\..\..\..\..\..\Software\uCOS-II\Source/os_mbox.c ****             OS_Sched();                               /* Find HPT ready to run                     
 1038              		.loc 1 585 0
 1039 0082 FFF7FEFF 		bl	OS_Sched
 1040              	.L73:
 586:..\..\..\..\..\..\Software\uCOS-II\Source/os_mbox.c ****         }
 587:..\..\..\..\..\..\Software\uCOS-II\Source/os_mbox.c ****         return (OS_ERR_NONE);
 1041              		.loc 1 587 0
 1042 0086 0023     		movs	r3, #0
 1043 0088 11E0     		b	.L65
 1044              	.L68:
 588:..\..\..\..\..\..\Software\uCOS-II\Source/os_mbox.c ****     }
 589:..\..\..\..\..\..\Software\uCOS-II\Source/os_mbox.c ****     if (pevent->OSEventPtr != (void *)0) {            /* Make sure mailbox doesn't already have a m
 1045              		.loc 1 589 0
 1046 008a FB68     		ldr	r3, [r7, #12]
 1047 008c 5B68     		ldr	r3, [r3, #4]
 1048 008e 002B     		cmp	r3, #0
 1049 0090 05D0     		beq	.L74
 590:..\..\..\..\..\..\Software\uCOS-II\Source/os_mbox.c ****         OS_EXIT_CRITICAL();
 1050              		.loc 1 590 0
 1051 0092 7B69     		ldr	r3, [r7, #20]
 1052 0094 1800     		movs	r0, r3
 1053 0096 FFF7FEFF 		bl	OS_CPU_SR_Restore
 591:..\..\..\..\..\..\Software\uCOS-II\Source/os_mbox.c ****         return (OS_ERR_MBOX_FULL);
 1054              		.loc 1 591 0
 1055 009a 1423     		movs	r3, #20
 1056 009c 07E0     		b	.L65
ARM GAS  C:\Users\ADMINI~1\AppData\Local\Temp\ccsfG4Nc.s 			page 30


 1057              	.L74:
 592:..\..\..\..\..\..\Software\uCOS-II\Source/os_mbox.c ****     }
 593:..\..\..\..\..\..\Software\uCOS-II\Source/os_mbox.c ****     pevent->OSEventPtr = pmsg;                        /* Place message in mailbox                  
 1058              		.loc 1 593 0
 1059 009e FB68     		ldr	r3, [r7, #12]
 1060 00a0 BA68     		ldr	r2, [r7, #8]
 1061 00a2 5A60     		str	r2, [r3, #4]
 594:..\..\..\..\..\..\Software\uCOS-II\Source/os_mbox.c ****     OS_EXIT_CRITICAL();
 1062              		.loc 1 594 0
 1063 00a4 7B69     		ldr	r3, [r7, #20]
 1064 00a6 1800     		movs	r0, r3
 1065 00a8 FFF7FEFF 		bl	OS_CPU_SR_Restore
 595:..\..\..\..\..\..\Software\uCOS-II\Source/os_mbox.c ****     return (OS_ERR_NONE);
 1066              		.loc 1 595 0
 1067 00ac 0023     		movs	r3, #0
 1068              	.L65:
 596:..\..\..\..\..\..\Software\uCOS-II\Source/os_mbox.c **** }
 1069              		.loc 1 596 0
 1070 00ae 1800     		movs	r0, r3
 1071 00b0 BD46     		mov	sp, r7
 1072 00b2 06B0     		add	sp, sp, #24
 1073              		@ sp needed
 1074 00b4 80BD     		pop	{r7, pc}
 1075              		.cfi_endproc
 1076              	.LFE7:
 1077              		.size	OSMboxPostOpt, .-OSMboxPostOpt
 1078 00b6 C046     		.section	.text.OSMboxQuery,"ax",%progbits
 1079              		.align	2
 1080              		.global	OSMboxQuery
 1081              		.code	16
 1082              		.thumb_func
 1083              		.type	OSMboxQuery, %function
 1084              	OSMboxQuery:
 1085              	.LFB8:
 597:..\..\..\..\..\..\Software\uCOS-II\Source/os_mbox.c **** #endif
 598:..\..\..\..\..\..\Software\uCOS-II\Source/os_mbox.c **** 
 599:..\..\..\..\..\..\Software\uCOS-II\Source/os_mbox.c **** /*$PAGE*/
 600:..\..\..\..\..\..\Software\uCOS-II\Source/os_mbox.c **** /*
 601:..\..\..\..\..\..\Software\uCOS-II\Source/os_mbox.c **** ***************************************************************************************************
 602:..\..\..\..\..\..\Software\uCOS-II\Source/os_mbox.c **** *                                       QUERY A MESSAGE MAILBOX
 603:..\..\..\..\..\..\Software\uCOS-II\Source/os_mbox.c **** *
 604:..\..\..\..\..\..\Software\uCOS-II\Source/os_mbox.c **** * Description: This function obtains information about a message mailbox.
 605:..\..\..\..\..\..\Software\uCOS-II\Source/os_mbox.c **** *
 606:..\..\..\..\..\..\Software\uCOS-II\Source/os_mbox.c **** * Arguments  : pevent        is a pointer to the event control block associated with the desired ma
 607:..\..\..\..\..\..\Software\uCOS-II\Source/os_mbox.c **** *
 608:..\..\..\..\..\..\Software\uCOS-II\Source/os_mbox.c **** *              p_mbox_data   is a pointer to a structure that will contain information about the me
 609:..\..\..\..\..\..\Software\uCOS-II\Source/os_mbox.c **** *                            mailbox.
 610:..\..\..\..\..\..\Software\uCOS-II\Source/os_mbox.c **** *
 611:..\..\..\..\..\..\Software\uCOS-II\Source/os_mbox.c **** * Returns    : OS_ERR_NONE         The call was successful and the message was sent
 612:..\..\..\..\..\..\Software\uCOS-II\Source/os_mbox.c **** *              OS_ERR_EVENT_TYPE   If you are attempting to obtain data from a non mailbox.
 613:..\..\..\..\..\..\Software\uCOS-II\Source/os_mbox.c **** *              OS_ERR_PEVENT_NULL  If 'pevent'      is a NULL pointer
 614:..\..\..\..\..\..\Software\uCOS-II\Source/os_mbox.c **** *              OS_ERR_PDATA_NULL   If 'p_mbox_data' is a NULL pointer
 615:..\..\..\..\..\..\Software\uCOS-II\Source/os_mbox.c **** ***************************************************************************************************
 616:..\..\..\..\..\..\Software\uCOS-II\Source/os_mbox.c **** */
 617:..\..\..\..\..\..\Software\uCOS-II\Source/os_mbox.c **** 
 618:..\..\..\..\..\..\Software\uCOS-II\Source/os_mbox.c **** #if OS_MBOX_QUERY_EN > 0u
 619:..\..\..\..\..\..\Software\uCOS-II\Source/os_mbox.c **** INT8U  OSMboxQuery (OS_EVENT      *pevent,
ARM GAS  C:\Users\ADMINI~1\AppData\Local\Temp\ccsfG4Nc.s 			page 31


 620:..\..\..\..\..\..\Software\uCOS-II\Source/os_mbox.c ****                     OS_MBOX_DATA  *p_mbox_data)
 621:..\..\..\..\..\..\Software\uCOS-II\Source/os_mbox.c **** {
 1086              		.loc 1 621 0
 1087              		.cfi_startproc
 1088              		@ args = 0, pretend = 0, frame = 24
 1089              		@ frame_needed = 1, uses_anonymous_args = 0
 1090 0000 80B5     		push	{r7, lr}
 1091              		.cfi_def_cfa_offset 8
 1092              		.cfi_offset 7, -8
 1093              		.cfi_offset 14, -4
 1094 0002 86B0     		sub	sp, sp, #24
 1095              		.cfi_def_cfa_offset 32
 1096 0004 00AF     		add	r7, sp, #0
 1097              		.cfi_def_cfa_register 7
 1098 0006 7860     		str	r0, [r7, #4]
 1099 0008 3960     		str	r1, [r7]
 622:..\..\..\..\..\..\Software\uCOS-II\Source/os_mbox.c ****     INT8U       i;
 623:..\..\..\..\..\..\Software\uCOS-II\Source/os_mbox.c ****     OS_PRIO    *psrc;
 624:..\..\..\..\..\..\Software\uCOS-II\Source/os_mbox.c ****     OS_PRIO    *pdest;
 625:..\..\..\..\..\..\Software\uCOS-II\Source/os_mbox.c **** #if OS_CRITICAL_METHOD == 3u                               /* Allocate storage for CPU status regis
 626:..\..\..\..\..\..\Software\uCOS-II\Source/os_mbox.c ****     OS_CPU_SR   cpu_sr = 0u;
 1100              		.loc 1 626 0
 1101 000a 0023     		movs	r3, #0
 1102 000c BB60     		str	r3, [r7, #8]
 627:..\..\..\..\..\..\Software\uCOS-II\Source/os_mbox.c **** #endif
 628:..\..\..\..\..\..\Software\uCOS-II\Source/os_mbox.c **** 
 629:..\..\..\..\..\..\Software\uCOS-II\Source/os_mbox.c **** 
 630:..\..\..\..\..\..\Software\uCOS-II\Source/os_mbox.c **** 
 631:..\..\..\..\..\..\Software\uCOS-II\Source/os_mbox.c **** #if OS_ARG_CHK_EN > 0u
 632:..\..\..\..\..\..\Software\uCOS-II\Source/os_mbox.c ****     if (pevent == (OS_EVENT *)0) {                         /* Validate 'pevent'                    
 1103              		.loc 1 632 0
 1104 000e 7B68     		ldr	r3, [r7, #4]
 1105 0010 002B     		cmp	r3, #0
 1106 0012 01D1     		bne	.L76
 633:..\..\..\..\..\..\Software\uCOS-II\Source/os_mbox.c ****         return (OS_ERR_PEVENT_NULL);
 1107              		.loc 1 633 0
 1108 0014 0423     		movs	r3, #4
 1109 0016 3AE0     		b	.L77
 1110              	.L76:
 634:..\..\..\..\..\..\Software\uCOS-II\Source/os_mbox.c ****     }
 635:..\..\..\..\..\..\Software\uCOS-II\Source/os_mbox.c ****     if (p_mbox_data == (OS_MBOX_DATA *)0) {                /* Validate 'p_mbox_data'               
 1111              		.loc 1 635 0
 1112 0018 3B68     		ldr	r3, [r7]
 1113 001a 002B     		cmp	r3, #0
 1114 001c 01D1     		bne	.L78
 636:..\..\..\..\..\..\Software\uCOS-II\Source/os_mbox.c ****         return (OS_ERR_PDATA_NULL);
 1115              		.loc 1 636 0
 1116 001e 0923     		movs	r3, #9
 1117 0020 35E0     		b	.L77
 1118              	.L78:
 637:..\..\..\..\..\..\Software\uCOS-II\Source/os_mbox.c ****     }
 638:..\..\..\..\..\..\Software\uCOS-II\Source/os_mbox.c **** #endif
 639:..\..\..\..\..\..\Software\uCOS-II\Source/os_mbox.c ****     if (pevent->OSEventType != OS_EVENT_TYPE_MBOX) {       /* Validate event block type            
 1119              		.loc 1 639 0
 1120 0022 7B68     		ldr	r3, [r7, #4]
 1121 0024 1B78     		ldrb	r3, [r3]
 1122 0026 012B     		cmp	r3, #1
ARM GAS  C:\Users\ADMINI~1\AppData\Local\Temp\ccsfG4Nc.s 			page 32


 1123 0028 01D0     		beq	.L79
 640:..\..\..\..\..\..\Software\uCOS-II\Source/os_mbox.c ****         return (OS_ERR_EVENT_TYPE);
 1124              		.loc 1 640 0
 1125 002a 0123     		movs	r3, #1
 1126 002c 2FE0     		b	.L77
 1127              	.L79:
 641:..\..\..\..\..\..\Software\uCOS-II\Source/os_mbox.c ****     }
 642:..\..\..\..\..\..\Software\uCOS-II\Source/os_mbox.c ****     OS_ENTER_CRITICAL();
 1128              		.loc 1 642 0
 1129 002e FFF7FEFF 		bl	OS_CPU_SR_Save
 1130 0032 0300     		movs	r3, r0
 1131 0034 BB60     		str	r3, [r7, #8]
 643:..\..\..\..\..\..\Software\uCOS-II\Source/os_mbox.c ****     p_mbox_data->OSEventGrp = pevent->OSEventGrp;          /* Copy message mailbox wait list       
 1132              		.loc 1 643 0
 1133 0036 7B68     		ldr	r3, [r7, #4]
 1134 0038 9A7A     		ldrb	r2, [r3, #10]
 1135 003a 3B68     		ldr	r3, [r7]
 1136 003c 1A73     		strb	r2, [r3, #12]
 644:..\..\..\..\..\..\Software\uCOS-II\Source/os_mbox.c ****     psrc                    = &pevent->OSEventTbl[0];
 1137              		.loc 1 644 0
 1138 003e 7B68     		ldr	r3, [r7, #4]
 1139 0040 0B33     		adds	r3, r3, #11
 1140 0042 3B61     		str	r3, [r7, #16]
 645:..\..\..\..\..\..\Software\uCOS-II\Source/os_mbox.c ****     pdest                   = &p_mbox_data->OSEventTbl[0];
 1141              		.loc 1 645 0
 1142 0044 3B68     		ldr	r3, [r7]
 1143 0046 0433     		adds	r3, r3, #4
 1144 0048 FB60     		str	r3, [r7, #12]
 646:..\..\..\..\..\..\Software\uCOS-II\Source/os_mbox.c ****     for (i = 0u; i < OS_EVENT_TBL_SIZE; i++) {
 1145              		.loc 1 646 0
 1146 004a 1723     		movs	r3, #23
 1147 004c FB18     		adds	r3, r7, r3
 1148 004e 0022     		movs	r2, #0
 1149 0050 1A70     		strb	r2, [r3]
 1150 0052 0EE0     		b	.L80
 1151              	.L81:
 647:..\..\..\..\..\..\Software\uCOS-II\Source/os_mbox.c ****         *pdest++ = *psrc++;
 1152              		.loc 1 647 0 discriminator 3
 1153 0054 FB68     		ldr	r3, [r7, #12]
 1154 0056 5A1C     		adds	r2, r3, #1
 1155 0058 FA60     		str	r2, [r7, #12]
 1156 005a 3A69     		ldr	r2, [r7, #16]
 1157 005c 511C     		adds	r1, r2, #1
 1158 005e 3961     		str	r1, [r7, #16]
 1159 0060 1278     		ldrb	r2, [r2]
 1160 0062 1A70     		strb	r2, [r3]
 646:..\..\..\..\..\..\Software\uCOS-II\Source/os_mbox.c ****     for (i = 0u; i < OS_EVENT_TBL_SIZE; i++) {
 1161              		.loc 1 646 0 discriminator 3
 1162 0064 1723     		movs	r3, #23
 1163 0066 FB18     		adds	r3, r7, r3
 1164 0068 1A78     		ldrb	r2, [r3]
 1165 006a 1723     		movs	r3, #23
 1166 006c FB18     		adds	r3, r7, r3
 1167 006e 0132     		adds	r2, r2, #1
 1168 0070 1A70     		strb	r2, [r3]
 1169              	.L80:
 646:..\..\..\..\..\..\Software\uCOS-II\Source/os_mbox.c ****     for (i = 0u; i < OS_EVENT_TBL_SIZE; i++) {
ARM GAS  C:\Users\ADMINI~1\AppData\Local\Temp\ccsfG4Nc.s 			page 33


 1170              		.loc 1 646 0 is_stmt 0 discriminator 1
 1171 0072 1723     		movs	r3, #23
 1172 0074 FB18     		adds	r3, r7, r3
 1173 0076 1B78     		ldrb	r3, [r3]
 1174 0078 072B     		cmp	r3, #7
 1175 007a EBD9     		bls	.L81
 648:..\..\..\..\..\..\Software\uCOS-II\Source/os_mbox.c ****     }
 649:..\..\..\..\..\..\Software\uCOS-II\Source/os_mbox.c ****     p_mbox_data->OSMsg = pevent->OSEventPtr;               /* Get message from mailbox             
 1176              		.loc 1 649 0 is_stmt 1
 1177 007c 7B68     		ldr	r3, [r7, #4]
 1178 007e 5A68     		ldr	r2, [r3, #4]
 1179 0080 3B68     		ldr	r3, [r7]
 1180 0082 1A60     		str	r2, [r3]
 650:..\..\..\..\..\..\Software\uCOS-II\Source/os_mbox.c ****     OS_EXIT_CRITICAL();
 1181              		.loc 1 650 0
 1182 0084 BB68     		ldr	r3, [r7, #8]
 1183 0086 1800     		movs	r0, r3
 1184 0088 FFF7FEFF 		bl	OS_CPU_SR_Restore
 651:..\..\..\..\..\..\Software\uCOS-II\Source/os_mbox.c ****     return (OS_ERR_NONE);
 1185              		.loc 1 651 0
 1186 008c 0023     		movs	r3, #0
 1187              	.L77:
 652:..\..\..\..\..\..\Software\uCOS-II\Source/os_mbox.c **** }
 1188              		.loc 1 652 0
 1189 008e 1800     		movs	r0, r3
 1190 0090 BD46     		mov	sp, r7
 1191 0092 06B0     		add	sp, sp, #24
 1192              		@ sp needed
 1193 0094 80BD     		pop	{r7, pc}
 1194              		.cfi_endproc
 1195              	.LFE8:
 1196              		.size	OSMboxQuery, .-OSMboxQuery
 1197 0096 C046     		.text
 1198              	.Letext0:
 1199              		.file 2 "..\\..\\..\\..\\..\\..\\Software\\uCOS-II\\Ports\\ARM-Cortex-M0\\Generic\\GNU/os_cpu.h"
 1200              		.file 3 "..\\..\\..\\..\\..\\..\\Software\\uCOS-II\\Source/ucos_ii.h"
 1201              		.section	.debug_info,"",%progbits
 1202              	.Ldebug_info0:
 1203 0000 E5060000 		.4byte	0x6e5
 1204 0004 0400     		.2byte	0x4
 1205 0006 00000000 		.4byte	.Ldebug_abbrev0
 1206 000a 04       		.byte	0x4
 1207 000b 01       		.uleb128 0x1
 1208 000c 09020000 		.4byte	.LASF95
 1209 0010 0C       		.byte	0xc
 1210 0011 73000000 		.4byte	.LASF96
 1211 0015 24040000 		.4byte	.LASF97
 1212 0019 00000000 		.4byte	.Ldebug_ranges0+0
 1213 001d 00000000 		.4byte	0
 1214 0021 00000000 		.4byte	.Ldebug_line0
 1215 0025 02       		.uleb128 0x2
 1216 0026 01       		.byte	0x1
 1217 0027 06       		.byte	0x6
 1218 0028 57010000 		.4byte	.LASF0
 1219 002c 02       		.uleb128 0x2
 1220 002d 01       		.byte	0x1
 1221 002e 08       		.byte	0x8
ARM GAS  C:\Users\ADMINI~1\AppData\Local\Temp\ccsfG4Nc.s 			page 34


 1222 002f A8020000 		.4byte	.LASF1
 1223 0033 02       		.uleb128 0x2
 1224 0034 02       		.byte	0x2
 1225 0035 05       		.byte	0x5
 1226 0036 F8000000 		.4byte	.LASF2
 1227 003a 02       		.uleb128 0x2
 1228 003b 02       		.byte	0x2
 1229 003c 07       		.byte	0x7
 1230 003d DC030000 		.4byte	.LASF3
 1231 0041 02       		.uleb128 0x2
 1232 0042 04       		.byte	0x4
 1233 0043 05       		.byte	0x5
 1234 0044 B8010000 		.4byte	.LASF4
 1235 0048 02       		.uleb128 0x2
 1236 0049 04       		.byte	0x4
 1237 004a 07       		.byte	0x7
 1238 004b 12040000 		.4byte	.LASF5
 1239 004f 02       		.uleb128 0x2
 1240 0050 08       		.byte	0x8
 1241 0051 05       		.byte	0x5
 1242 0052 95010000 		.4byte	.LASF6
 1243 0056 02       		.uleb128 0x2
 1244 0057 08       		.byte	0x8
 1245 0058 07       		.byte	0x7
 1246 0059 1D030000 		.4byte	.LASF7
 1247 005d 03       		.uleb128 0x3
 1248 005e 04       		.byte	0x4
 1249 005f 05       		.byte	0x5
 1250 0060 696E7400 		.ascii	"int\000"
 1251 0064 02       		.uleb128 0x2
 1252 0065 04       		.byte	0x4
 1253 0066 07       		.byte	0x7
 1254 0067 44030000 		.4byte	.LASF8
 1255 006b 02       		.uleb128 0x2
 1256 006c 08       		.byte	0x8
 1257 006d 04       		.byte	0x4
 1258 006e BC020000 		.4byte	.LASF9
 1259 0072 04       		.uleb128 0x4
 1260 0073 04       		.byte	0x4
 1261 0074 02       		.uleb128 0x2
 1262 0075 04       		.byte	0x4
 1263 0076 07       		.byte	0x7
 1264 0077 B3000000 		.4byte	.LASF10
 1265 007b 02       		.uleb128 0x2
 1266 007c 01       		.byte	0x1
 1267 007d 08       		.byte	0x8
 1268 007e 8D030000 		.4byte	.LASF11
 1269 0082 05       		.uleb128 0x5
 1270 0083 E0040000 		.4byte	.LASF12
 1271 0087 02       		.byte	0x2
 1272 0088 72       		.byte	0x72
 1273 0089 2C000000 		.4byte	0x2c
 1274 008d 05       		.uleb128 0x5
 1275 008e 03020000 		.4byte	.LASF13
 1276 0092 02       		.byte	0x2
 1277 0093 73       		.byte	0x73
 1278 0094 2C000000 		.4byte	0x2c
ARM GAS  C:\Users\ADMINI~1\AppData\Local\Temp\ccsfG4Nc.s 			page 35


 1279 0098 05       		.uleb128 0x5
 1280 0099 0A030000 		.4byte	.LASF14
 1281 009d 02       		.byte	0x2
 1282 009e 75       		.byte	0x75
 1283 009f 3A000000 		.4byte	0x3a
 1284 00a3 05       		.uleb128 0x5
 1285 00a4 23010000 		.4byte	.LASF15
 1286 00a8 02       		.byte	0x2
 1287 00a9 77       		.byte	0x77
 1288 00aa 64000000 		.4byte	0x64
 1289 00ae 02       		.uleb128 0x2
 1290 00af 04       		.byte	0x4
 1291 00b0 04       		.byte	0x4
 1292 00b1 78010000 		.4byte	.LASF16
 1293 00b5 02       		.uleb128 0x2
 1294 00b6 08       		.byte	0x8
 1295 00b7 04       		.byte	0x4
 1296 00b8 38000000 		.4byte	.LASF17
 1297 00bc 05       		.uleb128 0x5
 1298 00bd 71010000 		.4byte	.LASF18
 1299 00c1 02       		.byte	0x2
 1300 00c2 7C       		.byte	0x7c
 1301 00c3 64000000 		.4byte	0x64
 1302 00c7 05       		.uleb128 0x5
 1303 00c8 C6000000 		.4byte	.LASF19
 1304 00cc 02       		.byte	0x2
 1305 00cd 7D       		.byte	0x7d
 1306 00ce 64000000 		.4byte	0x64
 1307 00d2 06       		.uleb128 0x6
 1308 00d3 AD030000 		.4byte	.LASF20
 1309 00d7 03       		.byte	0x3
 1310 00d8 7201     		.2byte	0x172
 1311 00da 8D000000 		.4byte	0x8d
 1312 00de 07       		.uleb128 0x7
 1313 00df DD000000 		.4byte	.LASF29
 1314 00e3 18       		.byte	0x18
 1315 00e4 03       		.byte	0x3
 1316 00e5 7801     		.2byte	0x178
 1317 00e7 3A010000 		.4byte	0x13a
 1318 00eb 08       		.uleb128 0x8
 1319 00ec 3E010000 		.4byte	.LASF21
 1320 00f0 03       		.byte	0x3
 1321 00f1 7901     		.2byte	0x179
 1322 00f3 8D000000 		.4byte	0x8d
 1323 00f7 00       		.byte	0
 1324 00f8 08       		.uleb128 0x8
 1325 00f9 07040000 		.4byte	.LASF22
 1326 00fd 03       		.byte	0x3
 1327 00fe 7A01     		.2byte	0x17a
 1328 0100 72000000 		.4byte	0x72
 1329 0104 04       		.byte	0x4
 1330 0105 08       		.uleb128 0x8
 1331 0106 B5030000 		.4byte	.LASF23
 1332 010a 03       		.byte	0x3
 1333 010b 7B01     		.2byte	0x17b
 1334 010d 98000000 		.4byte	0x98
 1335 0111 08       		.byte	0x8
ARM GAS  C:\Users\ADMINI~1\AppData\Local\Temp\ccsfG4Nc.s 			page 36


 1336 0112 08       		.uleb128 0x8
 1337 0113 8C040000 		.4byte	.LASF24
 1338 0117 03       		.byte	0x3
 1339 0118 7C01     		.2byte	0x17c
 1340 011a D2000000 		.4byte	0xd2
 1341 011e 0A       		.byte	0xa
 1342 011f 08       		.uleb128 0x8
 1343 0120 48050000 		.4byte	.LASF25
 1344 0124 03       		.byte	0x3
 1345 0125 7D01     		.2byte	0x17d
 1346 0127 3A010000 		.4byte	0x13a
 1347 012b 0B       		.byte	0xb
 1348 012c 08       		.uleb128 0x8
 1349 012d A7000000 		.4byte	.LASF26
 1350 0131 03       		.byte	0x3
 1351 0132 8001     		.2byte	0x180
 1352 0134 4A010000 		.4byte	0x14a
 1353 0138 14       		.byte	0x14
 1354 0139 00       		.byte	0
 1355 013a 09       		.uleb128 0x9
 1356 013b D2000000 		.4byte	0xd2
 1357 013f 4A010000 		.4byte	0x14a
 1358 0143 0A       		.uleb128 0xa
 1359 0144 74000000 		.4byte	0x74
 1360 0148 07       		.byte	0x7
 1361 0149 00       		.byte	0
 1362 014a 0B       		.uleb128 0xb
 1363 014b 04       		.byte	0x4
 1364 014c 8D000000 		.4byte	0x8d
 1365 0150 06       		.uleb128 0x6
 1366 0151 AF010000 		.4byte	.LASF27
 1367 0155 03       		.byte	0x3
 1368 0156 8201     		.2byte	0x182
 1369 0158 DE000000 		.4byte	0xde
 1370 015c 06       		.uleb128 0x6
 1371 015d 0D000000 		.4byte	.LASF28
 1372 0161 03       		.byte	0x3
 1373 0162 9301     		.2byte	0x193
 1374 0164 98000000 		.4byte	0x98
 1375 0168 07       		.uleb128 0x7
 1376 0169 FE040000 		.4byte	.LASF30
 1377 016d 14       		.byte	0x14
 1378 016e 03       		.byte	0x3
 1379 016f A601     		.2byte	0x1a6
 1380 0171 C4010000 		.4byte	0x1c4
 1381 0175 08       		.uleb128 0x8
 1382 0176 9E030000 		.4byte	.LASF31
 1383 017a 03       		.byte	0x3
 1384 017b A701     		.2byte	0x1a7
 1385 017d 72000000 		.4byte	0x72
 1386 0181 00       		.byte	0
 1387 0182 08       		.uleb128 0x8
 1388 0183 72030000 		.4byte	.LASF32
 1389 0187 03       		.byte	0x3
 1390 0188 A801     		.2byte	0x1a8
 1391 018a 72000000 		.4byte	0x72
 1392 018e 04       		.byte	0x4
ARM GAS  C:\Users\ADMINI~1\AppData\Local\Temp\ccsfG4Nc.s 			page 37


 1393 018f 08       		.uleb128 0x8
 1394 0190 A5040000 		.4byte	.LASF33
 1395 0194 03       		.byte	0x3
 1396 0195 A901     		.2byte	0x1a9
 1397 0197 72000000 		.4byte	0x72
 1398 019b 08       		.byte	0x8
 1399 019c 08       		.uleb128 0x8
 1400 019d 4C000000 		.4byte	.LASF34
 1401 01a1 03       		.byte	0x3
 1402 01a2 AA01     		.2byte	0x1aa
 1403 01a4 72000000 		.4byte	0x72
 1404 01a8 0C       		.byte	0xc
 1405 01a9 08       		.uleb128 0x8
 1406 01aa D2020000 		.4byte	.LASF35
 1407 01ae 03       		.byte	0x3
 1408 01af AB01     		.2byte	0x1ab
 1409 01b1 5C010000 		.4byte	0x15c
 1410 01b5 10       		.byte	0x10
 1411 01b6 08       		.uleb128 0x8
 1412 01b7 E2020000 		.4byte	.LASF36
 1413 01bb 03       		.byte	0x3
 1414 01bc AC01     		.2byte	0x1ac
 1415 01be 8D000000 		.4byte	0x8d
 1416 01c2 12       		.byte	0x12
 1417 01c3 00       		.byte	0
 1418 01c4 06       		.uleb128 0x6
 1419 01c5 D3040000 		.4byte	.LASF37
 1420 01c9 03       		.byte	0x3
 1421 01ca B101     		.2byte	0x1b1
 1422 01cc 68010000 		.4byte	0x168
 1423 01d0 07       		.uleb128 0x7
 1424 01d1 2B000000 		.4byte	.LASF38
 1425 01d5 10       		.byte	0x10
 1426 01d6 03       		.byte	0x3
 1427 01d7 BC01     		.2byte	0x1bc
 1428 01d9 05020000 		.4byte	0x205
 1429 01dd 08       		.uleb128 0x8
 1430 01de B6020000 		.4byte	.LASF39
 1431 01e2 03       		.byte	0x3
 1432 01e3 BD01     		.2byte	0x1bd
 1433 01e5 72000000 		.4byte	0x72
 1434 01e9 00       		.byte	0
 1435 01ea 08       		.uleb128 0x8
 1436 01eb 48050000 		.4byte	.LASF25
 1437 01ef 03       		.byte	0x3
 1438 01f0 BE01     		.2byte	0x1be
 1439 01f2 3A010000 		.4byte	0x13a
 1440 01f6 04       		.byte	0x4
 1441 01f7 08       		.uleb128 0x8
 1442 01f8 8C040000 		.4byte	.LASF24
 1443 01fc 03       		.byte	0x3
 1444 01fd BF01     		.2byte	0x1bf
 1445 01ff D2000000 		.4byte	0xd2
 1446 0203 0C       		.byte	0xc
 1447 0204 00       		.byte	0
 1448 0205 06       		.uleb128 0x6
 1449 0206 C6040000 		.4byte	.LASF40
ARM GAS  C:\Users\ADMINI~1\AppData\Local\Temp\ccsfG4Nc.s 			page 38


 1450 020a 03       		.byte	0x3
 1451 020b C001     		.2byte	0x1c0
 1452 020d D0010000 		.4byte	0x1d0
 1453 0211 07       		.uleb128 0x7
 1454 0212 EE010000 		.4byte	.LASF41
 1455 0216 58       		.byte	0x58
 1456 0217 03       		.byte	0x3
 1457 0218 2E02     		.2byte	0x22e
 1458 021a 98030000 		.4byte	0x398
 1459 021e 08       		.uleb128 0x8
 1460 021f 02010000 		.4byte	.LASF42
 1461 0223 03       		.byte	0x3
 1462 0224 2F02     		.2byte	0x22f
 1463 0226 98030000 		.4byte	0x398
 1464 022a 00       		.byte	0
 1465 022b 08       		.uleb128 0x8
 1466 022c 11030000 		.4byte	.LASF43
 1467 0230 03       		.byte	0x3
 1468 0231 3202     		.2byte	0x232
 1469 0233 72000000 		.4byte	0x72
 1470 0237 04       		.byte	0x4
 1471 0238 08       		.uleb128 0x8
 1472 0239 F8030000 		.4byte	.LASF44
 1473 023d 03       		.byte	0x3
 1474 023e 3302     		.2byte	0x233
 1475 0240 98030000 		.4byte	0x398
 1476 0244 08       		.byte	0x8
 1477 0245 08       		.uleb128 0x8
 1478 0246 D7010000 		.4byte	.LASF45
 1479 024a 03       		.byte	0x3
 1480 024b 3402     		.2byte	0x234
 1481 024d A3000000 		.4byte	0xa3
 1482 0251 0C       		.byte	0xc
 1483 0252 08       		.uleb128 0x8
 1484 0253 EF030000 		.4byte	.LASF46
 1485 0257 03       		.byte	0x3
 1486 0258 3502     		.2byte	0x235
 1487 025a 98000000 		.4byte	0x98
 1488 025e 10       		.byte	0x10
 1489 025f 08       		.uleb128 0x8
 1490 0260 CF010000 		.4byte	.LASF47
 1491 0264 03       		.byte	0x3
 1492 0265 3602     		.2byte	0x236
 1493 0267 98000000 		.4byte	0x98
 1494 026b 12       		.byte	0x12
 1495 026c 08       		.uleb128 0x8
 1496 026d 34010000 		.4byte	.LASF48
 1497 0271 03       		.byte	0x3
 1498 0272 3902     		.2byte	0x239
 1499 0274 9E030000 		.4byte	0x39e
 1500 0278 14       		.byte	0x14
 1501 0279 08       		.uleb128 0x8
 1502 027a B3040000 		.4byte	.LASF49
 1503 027e 03       		.byte	0x3
 1504 027f 3A02     		.2byte	0x23a
 1505 0281 9E030000 		.4byte	0x39e
 1506 0285 18       		.byte	0x18
ARM GAS  C:\Users\ADMINI~1\AppData\Local\Temp\ccsfG4Nc.s 			page 39


 1507 0286 08       		.uleb128 0x8
 1508 0287 51030000 		.4byte	.LASF50
 1509 028b 03       		.byte	0x3
 1510 028c 4302     		.2byte	0x243
 1511 028e A4030000 		.4byte	0x3a4
 1512 0292 1C       		.byte	0x1c
 1513 0293 08       		.uleb128 0x8
 1514 0294 5F030000 		.4byte	.LASF51
 1515 0298 03       		.byte	0x3
 1516 0299 4702     		.2byte	0x247
 1517 029b AA030000 		.4byte	0x3aa
 1518 029f 20       		.byte	0x20
 1519 02a0 08       		.uleb128 0x8
 1520 02a1 6A000000 		.4byte	.LASF52
 1521 02a5 03       		.byte	0x3
 1522 02a6 4B02     		.2byte	0x24b
 1523 02a8 72000000 		.4byte	0x72
 1524 02ac 24       		.byte	0x24
 1525 02ad 08       		.uleb128 0x8
 1526 02ae 7E010000 		.4byte	.LASF53
 1527 02b2 03       		.byte	0x3
 1528 02b3 5002     		.2byte	0x250
 1529 02b5 B0030000 		.4byte	0x3b0
 1530 02b9 28       		.byte	0x28
 1531 02ba 08       		.uleb128 0x8
 1532 02bb 7E040000 		.4byte	.LASF54
 1533 02bf 03       		.byte	0x3
 1534 02c0 5202     		.2byte	0x252
 1535 02c2 5C010000 		.4byte	0x15c
 1536 02c6 2C       		.byte	0x2c
 1537 02c7 08       		.uleb128 0x8
 1538 02c8 8C010000 		.4byte	.LASF55
 1539 02cc 03       		.byte	0x3
 1540 02cd 5502     		.2byte	0x255
 1541 02cf A3000000 		.4byte	0xa3
 1542 02d3 30       		.byte	0x30
 1543 02d4 08       		.uleb128 0x8
 1544 02d5 F4040000 		.4byte	.LASF56
 1545 02d9 03       		.byte	0x3
 1546 02da 5602     		.2byte	0x256
 1547 02dc 8D000000 		.4byte	0x8d
 1548 02e0 34       		.byte	0x34
 1549 02e1 08       		.uleb128 0x8
 1550 02e2 16000000 		.4byte	.LASF57
 1551 02e6 03       		.byte	0x3
 1552 02e7 5702     		.2byte	0x257
 1553 02e9 8D000000 		.4byte	0x8d
 1554 02ed 35       		.byte	0x35
 1555 02ee 08       		.uleb128 0x8
 1556 02ef 2A010000 		.4byte	.LASF58
 1557 02f3 03       		.byte	0x3
 1558 02f4 5802     		.2byte	0x258
 1559 02f6 8D000000 		.4byte	0x8d
 1560 02fa 36       		.byte	0x36
 1561 02fb 08       		.uleb128 0x8
 1562 02fc C1010000 		.4byte	.LASF59
 1563 0300 03       		.byte	0x3
ARM GAS  C:\Users\ADMINI~1\AppData\Local\Temp\ccsfG4Nc.s 			page 40


 1564 0301 5A02     		.2byte	0x25a
 1565 0303 8D000000 		.4byte	0x8d
 1566 0307 37       		.byte	0x37
 1567 0308 08       		.uleb128 0x8
 1568 0309 C8010000 		.4byte	.LASF60
 1569 030d 03       		.byte	0x3
 1570 030e 5B02     		.2byte	0x25b
 1571 0310 8D000000 		.4byte	0x8d
 1572 0314 38       		.byte	0x38
 1573 0315 08       		.uleb128 0x8
 1574 0316 F5020000 		.4byte	.LASF61
 1575 031a 03       		.byte	0x3
 1576 031b 5C02     		.2byte	0x25c
 1577 031d D2000000 		.4byte	0xd2
 1578 0321 39       		.byte	0x39
 1579 0322 08       		.uleb128 0x8
 1580 0323 E4010000 		.4byte	.LASF62
 1581 0327 03       		.byte	0x3
 1582 0328 5D02     		.2byte	0x25d
 1583 032a D2000000 		.4byte	0xd2
 1584 032e 3A       		.byte	0x3a
 1585 032f 08       		.uleb128 0x8
 1586 0330 5E000000 		.4byte	.LASF63
 1587 0334 03       		.byte	0x3
 1588 0335 6002     		.2byte	0x260
 1589 0337 8D000000 		.4byte	0x8d
 1590 033b 3B       		.byte	0x3b
 1591 033c 08       		.uleb128 0x8
 1592 033d 63010000 		.4byte	.LASF64
 1593 0341 03       		.byte	0x3
 1594 0342 6402     		.2byte	0x264
 1595 0344 A3000000 		.4byte	0xa3
 1596 0348 3C       		.byte	0x3c
 1597 0349 08       		.uleb128 0x8
 1598 034a CD030000 		.4byte	.LASF65
 1599 034e 03       		.byte	0x3
 1600 034f 6502     		.2byte	0x265
 1601 0351 A3000000 		.4byte	0xa3
 1602 0355 40       		.byte	0x40
 1603 0356 08       		.uleb128 0x8
 1604 0357 97020000 		.4byte	.LASF66
 1605 035b 03       		.byte	0x3
 1606 035c 6602     		.2byte	0x266
 1607 035e A3000000 		.4byte	0xa3
 1608 0362 44       		.byte	0x44
 1609 0363 08       		.uleb128 0x8
 1610 0364 3F000000 		.4byte	.LASF67
 1611 0368 03       		.byte	0x3
 1612 0369 6702     		.2byte	0x267
 1613 036b 98030000 		.4byte	0x398
 1614 036f 48       		.byte	0x48
 1615 0370 08       		.uleb128 0x8
 1616 0371 D0000000 		.4byte	.LASF68
 1617 0375 03       		.byte	0x3
 1618 0376 6802     		.2byte	0x268
 1619 0378 A3000000 		.4byte	0xa3
 1620 037c 4C       		.byte	0x4c
ARM GAS  C:\Users\ADMINI~1\AppData\Local\Temp\ccsfG4Nc.s 			page 41


 1621 037d 08       		.uleb128 0x8
 1622 037e 24050000 		.4byte	.LASF69
 1623 0382 03       		.byte	0x3
 1624 0383 6C02     		.2byte	0x26c
 1625 0385 4A010000 		.4byte	0x14a
 1626 0389 50       		.byte	0x50
 1627 038a 08       		.uleb128 0x8
 1628 038b 81030000 		.4byte	.LASF70
 1629 038f 03       		.byte	0x3
 1630 0390 7002     		.2byte	0x270
 1631 0392 B6030000 		.4byte	0x3b6
 1632 0396 54       		.byte	0x54
 1633 0397 00       		.byte	0
 1634 0398 0B       		.uleb128 0xb
 1635 0399 04       		.byte	0x4
 1636 039a BC000000 		.4byte	0xbc
 1637 039e 0B       		.uleb128 0xb
 1638 039f 04       		.byte	0x4
 1639 03a0 11020000 		.4byte	0x211
 1640 03a4 0B       		.uleb128 0xb
 1641 03a5 04       		.byte	0x4
 1642 03a6 50010000 		.4byte	0x150
 1643 03aa 0B       		.uleb128 0xb
 1644 03ab 04       		.byte	0x4
 1645 03ac A4030000 		.4byte	0x3a4
 1646 03b0 0B       		.uleb128 0xb
 1647 03b1 04       		.byte	0x4
 1648 03b2 C4010000 		.4byte	0x1c4
 1649 03b6 09       		.uleb128 0x9
 1650 03b7 A3000000 		.4byte	0xa3
 1651 03bb C6030000 		.4byte	0x3c6
 1652 03bf 0A       		.uleb128 0xa
 1653 03c0 74000000 		.4byte	0x74
 1654 03c4 00       		.byte	0
 1655 03c5 00       		.byte	0
 1656 03c6 06       		.uleb128 0x6
 1657 03c7 24000000 		.4byte	.LASF71
 1658 03cb 03       		.byte	0x3
 1659 03cc 7202     		.2byte	0x272
 1660 03ce 11020000 		.4byte	0x211
 1661 03d2 0C       		.uleb128 0xc
 1662 03d3 4A010000 		.4byte	.LASF74
 1663 03d7 01       		.byte	0x1
 1664 03d8 31       		.byte	0x31
 1665 03d9 72000000 		.4byte	0x72
 1666 03dd 00000000 		.4byte	.LFB1
 1667 03e1 48000000 		.4byte	.LFE1-.LFB1
 1668 03e5 01       		.uleb128 0x1
 1669 03e6 9C       		.byte	0x9c
 1670 03e7 16040000 		.4byte	0x416
 1671 03eb 0D       		.uleb128 0xd
 1672 03ec C0030000 		.4byte	.LASF76
 1673 03f0 01       		.byte	0x1
 1674 03f1 31       		.byte	0x31
 1675 03f2 A4030000 		.4byte	0x3a4
 1676 03f6 02       		.uleb128 0x2
 1677 03f7 91       		.byte	0x91
ARM GAS  C:\Users\ADMINI~1\AppData\Local\Temp\ccsfG4Nc.s 			page 42


 1678 03f8 6C       		.sleb128 -20
 1679 03f9 0E       		.uleb128 0xe
 1680 03fa F3000000 		.4byte	.LASF72
 1681 03fe 01       		.byte	0x1
 1682 03ff 33       		.byte	0x33
 1683 0400 72000000 		.4byte	0x72
 1684 0404 02       		.uleb128 0x2
 1685 0405 91       		.byte	0x91
 1686 0406 70       		.sleb128 -16
 1687 0407 0E       		.uleb128 0xe
 1688 0408 ED040000 		.4byte	.LASF73
 1689 040c 01       		.byte	0x1
 1690 040d 35       		.byte	0x35
 1691 040e C7000000 		.4byte	0xc7
 1692 0412 02       		.uleb128 0x2
 1693 0413 91       		.byte	0x91
 1694 0414 74       		.sleb128 -12
 1695 0415 00       		.byte	0
 1696 0416 0C       		.uleb128 0xc
 1697 0417 00000000 		.4byte	.LASF75
 1698 041b 01       		.byte	0x1
 1699 041c 5A       		.byte	0x5a
 1700 041d A4030000 		.4byte	0x3a4
 1701 0421 00000000 		.4byte	.LFB2
 1702 0425 7C000000 		.4byte	.LFE2-.LFB2
 1703 0429 01       		.uleb128 0x1
 1704 042a 9C       		.byte	0x9c
 1705 042b 5A040000 		.4byte	0x45a
 1706 042f 0D       		.uleb128 0xd
 1707 0430 F3000000 		.4byte	.LASF72
 1708 0434 01       		.byte	0x1
 1709 0435 5A       		.byte	0x5a
 1710 0436 72000000 		.4byte	0x72
 1711 043a 02       		.uleb128 0x2
 1712 043b 91       		.byte	0x91
 1713 043c 6C       		.sleb128 -20
 1714 043d 0E       		.uleb128 0xe
 1715 043e C0030000 		.4byte	.LASF76
 1716 0442 01       		.byte	0x1
 1717 0443 5C       		.byte	0x5c
 1718 0444 A4030000 		.4byte	0x3a4
 1719 0448 02       		.uleb128 0x2
 1720 0449 91       		.byte	0x91
 1721 044a 70       		.sleb128 -16
 1722 044b 0E       		.uleb128 0xe
 1723 044c ED040000 		.4byte	.LASF73
 1724 0450 01       		.byte	0x1
 1725 0451 5E       		.byte	0x5e
 1726 0452 C7000000 		.4byte	0xc7
 1727 0456 02       		.uleb128 0x2
 1728 0457 91       		.byte	0x91
 1729 0458 74       		.sleb128 -12
 1730 0459 00       		.byte	0
 1731 045a 0C       		.uleb128 0xc
 1732 045b BC000000 		.4byte	.LASF77
 1733 045f 01       		.byte	0x1
 1734 0460 A6       		.byte	0xa6
ARM GAS  C:\Users\ADMINI~1\AppData\Local\Temp\ccsfG4Nc.s 			page 43


 1735 0461 A4030000 		.4byte	0x3a4
 1736 0465 00000000 		.4byte	.LFB3
 1737 0469 50010000 		.4byte	.LFE3-.LFB3
 1738 046d 01       		.uleb128 0x1
 1739 046e 9C       		.byte	0x9c
 1740 046f C8040000 		.4byte	0x4c8
 1741 0473 0D       		.uleb128 0xd
 1742 0474 C0030000 		.4byte	.LASF76
 1743 0478 01       		.byte	0x1
 1744 0479 A6       		.byte	0xa6
 1745 047a A4030000 		.4byte	0x3a4
 1746 047e 02       		.uleb128 0x2
 1747 047f 91       		.byte	0x91
 1748 0480 64       		.sleb128 -28
 1749 0481 0F       		.uleb128 0xf
 1750 0482 6F707400 		.ascii	"opt\000"
 1751 0486 01       		.byte	0x1
 1752 0487 A7       		.byte	0xa7
 1753 0488 8D000000 		.4byte	0x8d
 1754 048c 02       		.uleb128 0x2
 1755 048d 91       		.byte	0x91
 1756 048e 63       		.sleb128 -29
 1757 048f 0D       		.uleb128 0xd
 1758 0490 E8040000 		.4byte	.LASF78
 1759 0494 01       		.byte	0x1
 1760 0495 A8       		.byte	0xa8
 1761 0496 4A010000 		.4byte	0x14a
 1762 049a 02       		.uleb128 0x2
 1763 049b 91       		.byte	0x91
 1764 049c 5C       		.sleb128 -36
 1765 049d 0E       		.uleb128 0xe
 1766 049e 0B050000 		.4byte	.LASF79
 1767 04a2 01       		.byte	0x1
 1768 04a3 AA       		.byte	0xaa
 1769 04a4 82000000 		.4byte	0x82
 1770 04a8 02       		.uleb128 0x2
 1771 04a9 91       		.byte	0x91
 1772 04aa 77       		.sleb128 -9
 1773 04ab 0E       		.uleb128 0xe
 1774 04ac F5010000 		.4byte	.LASF80
 1775 04b0 01       		.byte	0x1
 1776 04b1 AB       		.byte	0xab
 1777 04b2 A4030000 		.4byte	0x3a4
 1778 04b6 02       		.uleb128 0x2
 1779 04b7 91       		.byte	0x91
 1780 04b8 70       		.sleb128 -16
 1781 04b9 0E       		.uleb128 0xe
 1782 04ba ED040000 		.4byte	.LASF73
 1783 04be 01       		.byte	0x1
 1784 04bf AD       		.byte	0xad
 1785 04c0 C7000000 		.4byte	0xc7
 1786 04c4 02       		.uleb128 0x2
 1787 04c5 91       		.byte	0x91
 1788 04c6 6C       		.sleb128 -20
 1789 04c7 00       		.byte	0
 1790 04c8 10       		.uleb128 0x10
 1791 04c9 FF020000 		.4byte	.LASF81
ARM GAS  C:\Users\ADMINI~1\AppData\Local\Temp\ccsfG4Nc.s 			page 44


 1792 04cd 01       		.byte	0x1
 1793 04ce 2001     		.2byte	0x120
 1794 04d0 72000000 		.4byte	0x72
 1795 04d4 00000000 		.4byte	.LFB4
 1796 04d8 58010000 		.4byte	.LFE4-.LFB4
 1797 04dc 01       		.uleb128 0x1
 1798 04dd 9C       		.byte	0x9c
 1799 04de 2E050000 		.4byte	0x52e
 1800 04e2 11       		.uleb128 0x11
 1801 04e3 C0030000 		.4byte	.LASF76
 1802 04e7 01       		.byte	0x1
 1803 04e8 2001     		.2byte	0x120
 1804 04ea A4030000 		.4byte	0x3a4
 1805 04ee 02       		.uleb128 0x2
 1806 04ef 91       		.byte	0x91
 1807 04f0 6C       		.sleb128 -20
 1808 04f1 11       		.uleb128 0x11
 1809 04f2 40050000 		.4byte	.LASF82
 1810 04f6 01       		.byte	0x1
 1811 04f7 2101     		.2byte	0x121
 1812 04f9 A3000000 		.4byte	0xa3
 1813 04fd 02       		.uleb128 0x2
 1814 04fe 91       		.byte	0x91
 1815 04ff 68       		.sleb128 -24
 1816 0500 11       		.uleb128 0x11
 1817 0501 E8040000 		.4byte	.LASF78
 1818 0505 01       		.byte	0x1
 1819 0506 2201     		.2byte	0x122
 1820 0508 4A010000 		.4byte	0x14a
 1821 050c 02       		.uleb128 0x2
 1822 050d 91       		.byte	0x91
 1823 050e 64       		.sleb128 -28
 1824 050f 12       		.uleb128 0x12
 1825 0510 F3000000 		.4byte	.LASF72
 1826 0514 01       		.byte	0x1
 1827 0515 2401     		.2byte	0x124
 1828 0517 72000000 		.4byte	0x72
 1829 051b 02       		.uleb128 0x2
 1830 051c 91       		.byte	0x91
 1831 051d 74       		.sleb128 -12
 1832 051e 12       		.uleb128 0x12
 1833 051f ED040000 		.4byte	.LASF73
 1834 0523 01       		.byte	0x1
 1835 0524 2601     		.2byte	0x126
 1836 0526 C7000000 		.4byte	0xc7
 1837 052a 02       		.uleb128 0x2
 1838 052b 91       		.byte	0x91
 1839 052c 70       		.sleb128 -16
 1840 052d 00       		.byte	0
 1841 052e 10       		.uleb128 0x10
 1842 052f 34030000 		.4byte	.LASF83
 1843 0533 01       		.byte	0x1
 1844 0534 9101     		.2byte	0x191
 1845 0536 8D000000 		.4byte	0x8d
 1846 053a 00000000 		.4byte	.LFB5
 1847 053e CE000000 		.4byte	.LFE5-.LFB5
 1848 0542 01       		.uleb128 0x1
ARM GAS  C:\Users\ADMINI~1\AppData\Local\Temp\ccsfG4Nc.s 			page 45


 1849 0543 9C       		.byte	0x9c
 1850 0544 94050000 		.4byte	0x594
 1851 0548 11       		.uleb128 0x11
 1852 0549 C0030000 		.4byte	.LASF76
 1853 054d 01       		.byte	0x1
 1854 054e 9101     		.2byte	0x191
 1855 0550 A4030000 		.4byte	0x3a4
 1856 0554 02       		.uleb128 0x2
 1857 0555 91       		.byte	0x91
 1858 0556 6C       		.sleb128 -20
 1859 0557 13       		.uleb128 0x13
 1860 0558 6F707400 		.ascii	"opt\000"
 1861 055c 01       		.byte	0x1
 1862 055d 9201     		.2byte	0x192
 1863 055f 8D000000 		.4byte	0x8d
 1864 0563 02       		.uleb128 0x2
 1865 0564 91       		.byte	0x91
 1866 0565 6B       		.sleb128 -21
 1867 0566 11       		.uleb128 0x11
 1868 0567 E8040000 		.4byte	.LASF78
 1869 056b 01       		.byte	0x1
 1870 056c 9301     		.2byte	0x193
 1871 056e 4A010000 		.4byte	0x14a
 1872 0572 02       		.uleb128 0x2
 1873 0573 91       		.byte	0x91
 1874 0574 64       		.sleb128 -28
 1875 0575 12       		.uleb128 0x12
 1876 0576 C8020000 		.4byte	.LASF84
 1877 057a 01       		.byte	0x1
 1878 057b 9501     		.2byte	0x195
 1879 057d 8D000000 		.4byte	0x8d
 1880 0581 02       		.uleb128 0x2
 1881 0582 91       		.byte	0x91
 1882 0583 77       		.sleb128 -9
 1883 0584 12       		.uleb128 0x12
 1884 0585 ED040000 		.4byte	.LASF73
 1885 0589 01       		.byte	0x1
 1886 058a 9701     		.2byte	0x197
 1887 058c C7000000 		.4byte	0xc7
 1888 0590 02       		.uleb128 0x2
 1889 0591 91       		.byte	0x91
 1890 0592 70       		.sleb128 -16
 1891 0593 00       		.byte	0
 1892 0594 10       		.uleb128 0x10
 1893 0595 19050000 		.4byte	.LASF85
 1894 0599 01       		.byte	0x1
 1895 059a E101     		.2byte	0x1e1
 1896 059c 8D000000 		.4byte	0x8d
 1897 05a0 00000000 		.4byte	.LFB6
 1898 05a4 86000000 		.4byte	.LFE6-.LFB6
 1899 05a8 01       		.uleb128 0x1
 1900 05a9 9C       		.byte	0x9c
 1901 05aa DC050000 		.4byte	0x5dc
 1902 05ae 11       		.uleb128 0x11
 1903 05af C0030000 		.4byte	.LASF76
 1904 05b3 01       		.byte	0x1
 1905 05b4 E101     		.2byte	0x1e1
ARM GAS  C:\Users\ADMINI~1\AppData\Local\Temp\ccsfG4Nc.s 			page 46


 1906 05b6 A4030000 		.4byte	0x3a4
 1907 05ba 02       		.uleb128 0x2
 1908 05bb 91       		.byte	0x91
 1909 05bc 6C       		.sleb128 -20
 1910 05bd 11       		.uleb128 0x11
 1911 05be F3000000 		.4byte	.LASF72
 1912 05c2 01       		.byte	0x1
 1913 05c3 E201     		.2byte	0x1e2
 1914 05c5 72000000 		.4byte	0x72
 1915 05c9 02       		.uleb128 0x2
 1916 05ca 91       		.byte	0x91
 1917 05cb 68       		.sleb128 -24
 1918 05cc 12       		.uleb128 0x12
 1919 05cd ED040000 		.4byte	.LASF73
 1920 05d1 01       		.byte	0x1
 1921 05d2 E501     		.2byte	0x1e5
 1922 05d4 C7000000 		.4byte	0xc7
 1923 05d8 02       		.uleb128 0x2
 1924 05d9 91       		.byte	0x91
 1925 05da 74       		.sleb128 -12
 1926 05db 00       		.byte	0
 1927 05dc 10       		.uleb128 0x10
 1928 05dd 32050000 		.4byte	.LASF86
 1929 05e1 01       		.byte	0x1
 1930 05e2 2902     		.2byte	0x229
 1931 05e4 8D000000 		.4byte	0x8d
 1932 05e8 00000000 		.4byte	.LFB7
 1933 05ec B6000000 		.4byte	.LFE7-.LFB7
 1934 05f0 01       		.uleb128 0x1
 1935 05f1 9C       		.byte	0x9c
 1936 05f2 33060000 		.4byte	0x633
 1937 05f6 11       		.uleb128 0x11
 1938 05f7 C0030000 		.4byte	.LASF76
 1939 05fb 01       		.byte	0x1
 1940 05fc 2902     		.2byte	0x229
 1941 05fe A4030000 		.4byte	0x3a4
 1942 0602 02       		.uleb128 0x2
 1943 0603 91       		.byte	0x91
 1944 0604 6C       		.sleb128 -20
 1945 0605 11       		.uleb128 0x11
 1946 0606 F3000000 		.4byte	.LASF72
 1947 060a 01       		.byte	0x1
 1948 060b 2A02     		.2byte	0x22a
 1949 060d 72000000 		.4byte	0x72
 1950 0611 02       		.uleb128 0x2
 1951 0612 91       		.byte	0x91
 1952 0613 68       		.sleb128 -24
 1953 0614 13       		.uleb128 0x13
 1954 0615 6F707400 		.ascii	"opt\000"
 1955 0619 01       		.byte	0x1
 1956 061a 2B02     		.2byte	0x22b
 1957 061c 8D000000 		.4byte	0x8d
 1958 0620 02       		.uleb128 0x2
 1959 0621 91       		.byte	0x91
 1960 0622 67       		.sleb128 -25
 1961 0623 12       		.uleb128 0x12
 1962 0624 ED040000 		.4byte	.LASF73
ARM GAS  C:\Users\ADMINI~1\AppData\Local\Temp\ccsfG4Nc.s 			page 47


 1963 0628 01       		.byte	0x1
 1964 0629 2E02     		.2byte	0x22e
 1965 062b C7000000 		.4byte	0xc7
 1966 062f 02       		.uleb128 0x2
 1967 0630 91       		.byte	0x91
 1968 0631 74       		.sleb128 -12
 1969 0632 00       		.byte	0
 1970 0633 10       		.uleb128 0x10
 1971 0634 92030000 		.4byte	.LASF87
 1972 0638 01       		.byte	0x1
 1973 0639 6B02     		.2byte	0x26b
 1974 063b 8D000000 		.4byte	0x8d
 1975 063f 00000000 		.4byte	.LFB8
 1976 0643 96000000 		.4byte	.LFE8-.LFB8
 1977 0647 01       		.uleb128 0x1
 1978 0648 9C       		.byte	0x9c
 1979 0649 A6060000 		.4byte	0x6a6
 1980 064d 11       		.uleb128 0x11
 1981 064e C0030000 		.4byte	.LASF76
 1982 0652 01       		.byte	0x1
 1983 0653 6B02     		.2byte	0x26b
 1984 0655 A4030000 		.4byte	0x3a4
 1985 0659 02       		.uleb128 0x2
 1986 065a 91       		.byte	0x91
 1987 065b 64       		.sleb128 -28
 1988 065c 11       		.uleb128 0x11
 1989 065d A3010000 		.4byte	.LASF88
 1990 0661 01       		.byte	0x1
 1991 0662 6C02     		.2byte	0x26c
 1992 0664 A6060000 		.4byte	0x6a6
 1993 0668 02       		.uleb128 0x2
 1994 0669 91       		.byte	0x91
 1995 066a 60       		.sleb128 -32
 1996 066b 14       		.uleb128 0x14
 1997 066c 6900     		.ascii	"i\000"
 1998 066e 01       		.byte	0x1
 1999 066f 6E02     		.2byte	0x26e
 2000 0671 8D000000 		.4byte	0x8d
 2001 0675 02       		.uleb128 0x2
 2002 0676 91       		.byte	0x91
 2003 0677 77       		.sleb128 -9
 2004 0678 12       		.uleb128 0x12
 2005 0679 0E010000 		.4byte	.LASF89
 2006 067d 01       		.byte	0x1
 2007 067e 6F02     		.2byte	0x26f
 2008 0680 AC060000 		.4byte	0x6ac
 2009 0684 02       		.uleb128 0x2
 2010 0685 91       		.byte	0x91
 2011 0686 70       		.sleb128 -16
 2012 0687 12       		.uleb128 0x12
 2013 0688 C7030000 		.4byte	.LASF90
 2014 068c 01       		.byte	0x1
 2015 068d 7002     		.2byte	0x270
 2016 068f AC060000 		.4byte	0x6ac
 2017 0693 02       		.uleb128 0x2
 2018 0694 91       		.byte	0x91
 2019 0695 6C       		.sleb128 -20
ARM GAS  C:\Users\ADMINI~1\AppData\Local\Temp\ccsfG4Nc.s 			page 48


 2020 0696 12       		.uleb128 0x12
 2021 0697 ED040000 		.4byte	.LASF73
 2022 069b 01       		.byte	0x1
 2023 069c 7202     		.2byte	0x272
 2024 069e C7000000 		.4byte	0xc7
 2025 06a2 02       		.uleb128 0x2
 2026 06a3 91       		.byte	0x91
 2027 06a4 68       		.sleb128 -24
 2028 06a5 00       		.byte	0
 2029 06a6 0B       		.uleb128 0xb
 2030 06a7 04       		.byte	0x4
 2031 06a8 05020000 		.4byte	0x205
 2032 06ac 0B       		.uleb128 0xb
 2033 06ad 04       		.byte	0x4
 2034 06ae D2000000 		.4byte	0xd2
 2035 06b2 15       		.uleb128 0x15
 2036 06b3 13010000 		.4byte	.LASF91
 2037 06b7 03       		.byte	0x3
 2038 06b8 B302     		.2byte	0x2b3
 2039 06ba A4030000 		.4byte	0x3a4
 2040 06be 15       		.uleb128 0x15
 2041 06bf E6000000 		.4byte	.LASF92
 2042 06c3 03       		.byte	0x3
 2043 06c4 C402     		.2byte	0x2c4
 2044 06c6 8D000000 		.4byte	0x8d
 2045 06ca 15       		.uleb128 0x15
 2046 06cb 97040000 		.4byte	.LASF93
 2047 06cf 03       		.byte	0x3
 2048 06d0 C602     		.2byte	0x2c6
 2049 06d2 8D000000 		.4byte	0x8d
 2050 06d6 15       		.uleb128 0x15
 2051 06d7 BD040000 		.4byte	.LASF94
 2052 06db 03       		.byte	0x3
 2053 06dc DB02     		.2byte	0x2db
 2054 06de E2060000 		.4byte	0x6e2
 2055 06e2 0B       		.uleb128 0xb
 2056 06e3 04       		.byte	0x4
 2057 06e4 C6030000 		.4byte	0x3c6
 2058 06e8 00       		.byte	0
 2059              		.section	.debug_abbrev,"",%progbits
 2060              	.Ldebug_abbrev0:
 2061 0000 01       		.uleb128 0x1
 2062 0001 11       		.uleb128 0x11
 2063 0002 01       		.byte	0x1
 2064 0003 25       		.uleb128 0x25
 2065 0004 0E       		.uleb128 0xe
 2066 0005 13       		.uleb128 0x13
 2067 0006 0B       		.uleb128 0xb
 2068 0007 03       		.uleb128 0x3
 2069 0008 0E       		.uleb128 0xe
 2070 0009 1B       		.uleb128 0x1b
 2071 000a 0E       		.uleb128 0xe
 2072 000b 55       		.uleb128 0x55
 2073 000c 17       		.uleb128 0x17
 2074 000d 11       		.uleb128 0x11
 2075 000e 01       		.uleb128 0x1
 2076 000f 10       		.uleb128 0x10
ARM GAS  C:\Users\ADMINI~1\AppData\Local\Temp\ccsfG4Nc.s 			page 49


 2077 0010 17       		.uleb128 0x17
 2078 0011 00       		.byte	0
 2079 0012 00       		.byte	0
 2080 0013 02       		.uleb128 0x2
 2081 0014 24       		.uleb128 0x24
 2082 0015 00       		.byte	0
 2083 0016 0B       		.uleb128 0xb
 2084 0017 0B       		.uleb128 0xb
 2085 0018 3E       		.uleb128 0x3e
 2086 0019 0B       		.uleb128 0xb
 2087 001a 03       		.uleb128 0x3
 2088 001b 0E       		.uleb128 0xe
 2089 001c 00       		.byte	0
 2090 001d 00       		.byte	0
 2091 001e 03       		.uleb128 0x3
 2092 001f 24       		.uleb128 0x24
 2093 0020 00       		.byte	0
 2094 0021 0B       		.uleb128 0xb
 2095 0022 0B       		.uleb128 0xb
 2096 0023 3E       		.uleb128 0x3e
 2097 0024 0B       		.uleb128 0xb
 2098 0025 03       		.uleb128 0x3
 2099 0026 08       		.uleb128 0x8
 2100 0027 00       		.byte	0
 2101 0028 00       		.byte	0
 2102 0029 04       		.uleb128 0x4
 2103 002a 0F       		.uleb128 0xf
 2104 002b 00       		.byte	0
 2105 002c 0B       		.uleb128 0xb
 2106 002d 0B       		.uleb128 0xb
 2107 002e 00       		.byte	0
 2108 002f 00       		.byte	0
 2109 0030 05       		.uleb128 0x5
 2110 0031 16       		.uleb128 0x16
 2111 0032 00       		.byte	0
 2112 0033 03       		.uleb128 0x3
 2113 0034 0E       		.uleb128 0xe
 2114 0035 3A       		.uleb128 0x3a
 2115 0036 0B       		.uleb128 0xb
 2116 0037 3B       		.uleb128 0x3b
 2117 0038 0B       		.uleb128 0xb
 2118 0039 49       		.uleb128 0x49
 2119 003a 13       		.uleb128 0x13
 2120 003b 00       		.byte	0
 2121 003c 00       		.byte	0
 2122 003d 06       		.uleb128 0x6
 2123 003e 16       		.uleb128 0x16
 2124 003f 00       		.byte	0
 2125 0040 03       		.uleb128 0x3
 2126 0041 0E       		.uleb128 0xe
 2127 0042 3A       		.uleb128 0x3a
 2128 0043 0B       		.uleb128 0xb
 2129 0044 3B       		.uleb128 0x3b
 2130 0045 05       		.uleb128 0x5
 2131 0046 49       		.uleb128 0x49
 2132 0047 13       		.uleb128 0x13
 2133 0048 00       		.byte	0
ARM GAS  C:\Users\ADMINI~1\AppData\Local\Temp\ccsfG4Nc.s 			page 50


 2134 0049 00       		.byte	0
 2135 004a 07       		.uleb128 0x7
 2136 004b 13       		.uleb128 0x13
 2137 004c 01       		.byte	0x1
 2138 004d 03       		.uleb128 0x3
 2139 004e 0E       		.uleb128 0xe
 2140 004f 0B       		.uleb128 0xb
 2141 0050 0B       		.uleb128 0xb
 2142 0051 3A       		.uleb128 0x3a
 2143 0052 0B       		.uleb128 0xb
 2144 0053 3B       		.uleb128 0x3b
 2145 0054 05       		.uleb128 0x5
 2146 0055 01       		.uleb128 0x1
 2147 0056 13       		.uleb128 0x13
 2148 0057 00       		.byte	0
 2149 0058 00       		.byte	0
 2150 0059 08       		.uleb128 0x8
 2151 005a 0D       		.uleb128 0xd
 2152 005b 00       		.byte	0
 2153 005c 03       		.uleb128 0x3
 2154 005d 0E       		.uleb128 0xe
 2155 005e 3A       		.uleb128 0x3a
 2156 005f 0B       		.uleb128 0xb
 2157 0060 3B       		.uleb128 0x3b
 2158 0061 05       		.uleb128 0x5
 2159 0062 49       		.uleb128 0x49
 2160 0063 13       		.uleb128 0x13
 2161 0064 38       		.uleb128 0x38
 2162 0065 0B       		.uleb128 0xb
 2163 0066 00       		.byte	0
 2164 0067 00       		.byte	0
 2165 0068 09       		.uleb128 0x9
 2166 0069 01       		.uleb128 0x1
 2167 006a 01       		.byte	0x1
 2168 006b 49       		.uleb128 0x49
 2169 006c 13       		.uleb128 0x13
 2170 006d 01       		.uleb128 0x1
 2171 006e 13       		.uleb128 0x13
 2172 006f 00       		.byte	0
 2173 0070 00       		.byte	0
 2174 0071 0A       		.uleb128 0xa
 2175 0072 21       		.uleb128 0x21
 2176 0073 00       		.byte	0
 2177 0074 49       		.uleb128 0x49
 2178 0075 13       		.uleb128 0x13
 2179 0076 2F       		.uleb128 0x2f
 2180 0077 0B       		.uleb128 0xb
 2181 0078 00       		.byte	0
 2182 0079 00       		.byte	0
 2183 007a 0B       		.uleb128 0xb
 2184 007b 0F       		.uleb128 0xf
 2185 007c 00       		.byte	0
 2186 007d 0B       		.uleb128 0xb
 2187 007e 0B       		.uleb128 0xb
 2188 007f 49       		.uleb128 0x49
 2189 0080 13       		.uleb128 0x13
 2190 0081 00       		.byte	0
ARM GAS  C:\Users\ADMINI~1\AppData\Local\Temp\ccsfG4Nc.s 			page 51


 2191 0082 00       		.byte	0
 2192 0083 0C       		.uleb128 0xc
 2193 0084 2E       		.uleb128 0x2e
 2194 0085 01       		.byte	0x1
 2195 0086 3F       		.uleb128 0x3f
 2196 0087 19       		.uleb128 0x19
 2197 0088 03       		.uleb128 0x3
 2198 0089 0E       		.uleb128 0xe
 2199 008a 3A       		.uleb128 0x3a
 2200 008b 0B       		.uleb128 0xb
 2201 008c 3B       		.uleb128 0x3b
 2202 008d 0B       		.uleb128 0xb
 2203 008e 27       		.uleb128 0x27
 2204 008f 19       		.uleb128 0x19
 2205 0090 49       		.uleb128 0x49
 2206 0091 13       		.uleb128 0x13
 2207 0092 11       		.uleb128 0x11
 2208 0093 01       		.uleb128 0x1
 2209 0094 12       		.uleb128 0x12
 2210 0095 06       		.uleb128 0x6
 2211 0096 40       		.uleb128 0x40
 2212 0097 18       		.uleb128 0x18
 2213 0098 9642     		.uleb128 0x2116
 2214 009a 19       		.uleb128 0x19
 2215 009b 01       		.uleb128 0x1
 2216 009c 13       		.uleb128 0x13
 2217 009d 00       		.byte	0
 2218 009e 00       		.byte	0
 2219 009f 0D       		.uleb128 0xd
 2220 00a0 05       		.uleb128 0x5
 2221 00a1 00       		.byte	0
 2222 00a2 03       		.uleb128 0x3
 2223 00a3 0E       		.uleb128 0xe
 2224 00a4 3A       		.uleb128 0x3a
 2225 00a5 0B       		.uleb128 0xb
 2226 00a6 3B       		.uleb128 0x3b
 2227 00a7 0B       		.uleb128 0xb
 2228 00a8 49       		.uleb128 0x49
 2229 00a9 13       		.uleb128 0x13
 2230 00aa 02       		.uleb128 0x2
 2231 00ab 18       		.uleb128 0x18
 2232 00ac 00       		.byte	0
 2233 00ad 00       		.byte	0
 2234 00ae 0E       		.uleb128 0xe
 2235 00af 34       		.uleb128 0x34
 2236 00b0 00       		.byte	0
 2237 00b1 03       		.uleb128 0x3
 2238 00b2 0E       		.uleb128 0xe
 2239 00b3 3A       		.uleb128 0x3a
 2240 00b4 0B       		.uleb128 0xb
 2241 00b5 3B       		.uleb128 0x3b
 2242 00b6 0B       		.uleb128 0xb
 2243 00b7 49       		.uleb128 0x49
 2244 00b8 13       		.uleb128 0x13
 2245 00b9 02       		.uleb128 0x2
 2246 00ba 18       		.uleb128 0x18
 2247 00bb 00       		.byte	0
ARM GAS  C:\Users\ADMINI~1\AppData\Local\Temp\ccsfG4Nc.s 			page 52


 2248 00bc 00       		.byte	0
 2249 00bd 0F       		.uleb128 0xf
 2250 00be 05       		.uleb128 0x5
 2251 00bf 00       		.byte	0
 2252 00c0 03       		.uleb128 0x3
 2253 00c1 08       		.uleb128 0x8
 2254 00c2 3A       		.uleb128 0x3a
 2255 00c3 0B       		.uleb128 0xb
 2256 00c4 3B       		.uleb128 0x3b
 2257 00c5 0B       		.uleb128 0xb
 2258 00c6 49       		.uleb128 0x49
 2259 00c7 13       		.uleb128 0x13
 2260 00c8 02       		.uleb128 0x2
 2261 00c9 18       		.uleb128 0x18
 2262 00ca 00       		.byte	0
 2263 00cb 00       		.byte	0
 2264 00cc 10       		.uleb128 0x10
 2265 00cd 2E       		.uleb128 0x2e
 2266 00ce 01       		.byte	0x1
 2267 00cf 3F       		.uleb128 0x3f
 2268 00d0 19       		.uleb128 0x19
 2269 00d1 03       		.uleb128 0x3
 2270 00d2 0E       		.uleb128 0xe
 2271 00d3 3A       		.uleb128 0x3a
 2272 00d4 0B       		.uleb128 0xb
 2273 00d5 3B       		.uleb128 0x3b
 2274 00d6 05       		.uleb128 0x5
 2275 00d7 27       		.uleb128 0x27
 2276 00d8 19       		.uleb128 0x19
 2277 00d9 49       		.uleb128 0x49
 2278 00da 13       		.uleb128 0x13
 2279 00db 11       		.uleb128 0x11
 2280 00dc 01       		.uleb128 0x1
 2281 00dd 12       		.uleb128 0x12
 2282 00de 06       		.uleb128 0x6
 2283 00df 40       		.uleb128 0x40
 2284 00e0 18       		.uleb128 0x18
 2285 00e1 9642     		.uleb128 0x2116
 2286 00e3 19       		.uleb128 0x19
 2287 00e4 01       		.uleb128 0x1
 2288 00e5 13       		.uleb128 0x13
 2289 00e6 00       		.byte	0
 2290 00e7 00       		.byte	0
 2291 00e8 11       		.uleb128 0x11
 2292 00e9 05       		.uleb128 0x5
 2293 00ea 00       		.byte	0
 2294 00eb 03       		.uleb128 0x3
 2295 00ec 0E       		.uleb128 0xe
 2296 00ed 3A       		.uleb128 0x3a
 2297 00ee 0B       		.uleb128 0xb
 2298 00ef 3B       		.uleb128 0x3b
 2299 00f0 05       		.uleb128 0x5
 2300 00f1 49       		.uleb128 0x49
 2301 00f2 13       		.uleb128 0x13
 2302 00f3 02       		.uleb128 0x2
 2303 00f4 18       		.uleb128 0x18
 2304 00f5 00       		.byte	0
ARM GAS  C:\Users\ADMINI~1\AppData\Local\Temp\ccsfG4Nc.s 			page 53


 2305 00f6 00       		.byte	0
 2306 00f7 12       		.uleb128 0x12
 2307 00f8 34       		.uleb128 0x34
 2308 00f9 00       		.byte	0
 2309 00fa 03       		.uleb128 0x3
 2310 00fb 0E       		.uleb128 0xe
 2311 00fc 3A       		.uleb128 0x3a
 2312 00fd 0B       		.uleb128 0xb
 2313 00fe 3B       		.uleb128 0x3b
 2314 00ff 05       		.uleb128 0x5
 2315 0100 49       		.uleb128 0x49
 2316 0101 13       		.uleb128 0x13
 2317 0102 02       		.uleb128 0x2
 2318 0103 18       		.uleb128 0x18
 2319 0104 00       		.byte	0
 2320 0105 00       		.byte	0
 2321 0106 13       		.uleb128 0x13
 2322 0107 05       		.uleb128 0x5
 2323 0108 00       		.byte	0
 2324 0109 03       		.uleb128 0x3
 2325 010a 08       		.uleb128 0x8
 2326 010b 3A       		.uleb128 0x3a
 2327 010c 0B       		.uleb128 0xb
 2328 010d 3B       		.uleb128 0x3b
 2329 010e 05       		.uleb128 0x5
 2330 010f 49       		.uleb128 0x49
 2331 0110 13       		.uleb128 0x13
 2332 0111 02       		.uleb128 0x2
 2333 0112 18       		.uleb128 0x18
 2334 0113 00       		.byte	0
 2335 0114 00       		.byte	0
 2336 0115 14       		.uleb128 0x14
 2337 0116 34       		.uleb128 0x34
 2338 0117 00       		.byte	0
 2339 0118 03       		.uleb128 0x3
 2340 0119 08       		.uleb128 0x8
 2341 011a 3A       		.uleb128 0x3a
 2342 011b 0B       		.uleb128 0xb
 2343 011c 3B       		.uleb128 0x3b
 2344 011d 05       		.uleb128 0x5
 2345 011e 49       		.uleb128 0x49
 2346 011f 13       		.uleb128 0x13
 2347 0120 02       		.uleb128 0x2
 2348 0121 18       		.uleb128 0x18
 2349 0122 00       		.byte	0
 2350 0123 00       		.byte	0
 2351 0124 15       		.uleb128 0x15
 2352 0125 34       		.uleb128 0x34
 2353 0126 00       		.byte	0
 2354 0127 03       		.uleb128 0x3
 2355 0128 0E       		.uleb128 0xe
 2356 0129 3A       		.uleb128 0x3a
 2357 012a 0B       		.uleb128 0xb
 2358 012b 3B       		.uleb128 0x3b
 2359 012c 05       		.uleb128 0x5
 2360 012d 49       		.uleb128 0x49
 2361 012e 13       		.uleb128 0x13
ARM GAS  C:\Users\ADMINI~1\AppData\Local\Temp\ccsfG4Nc.s 			page 54


 2362 012f 3F       		.uleb128 0x3f
 2363 0130 19       		.uleb128 0x19
 2364 0131 3C       		.uleb128 0x3c
 2365 0132 19       		.uleb128 0x19
 2366 0133 00       		.byte	0
 2367 0134 00       		.byte	0
 2368 0135 00       		.byte	0
 2369              		.section	.debug_aranges,"",%progbits
 2370 0000 54000000 		.4byte	0x54
 2371 0004 0200     		.2byte	0x2
 2372 0006 00000000 		.4byte	.Ldebug_info0
 2373 000a 04       		.byte	0x4
 2374 000b 00       		.byte	0
 2375 000c 0000     		.2byte	0
 2376 000e 0000     		.2byte	0
 2377 0010 00000000 		.4byte	.LFB1
 2378 0014 48000000 		.4byte	.LFE1-.LFB1
 2379 0018 00000000 		.4byte	.LFB2
 2380 001c 7C000000 		.4byte	.LFE2-.LFB2
 2381 0020 00000000 		.4byte	.LFB3
 2382 0024 50010000 		.4byte	.LFE3-.LFB3
 2383 0028 00000000 		.4byte	.LFB4
 2384 002c 58010000 		.4byte	.LFE4-.LFB4
 2385 0030 00000000 		.4byte	.LFB5
 2386 0034 CE000000 		.4byte	.LFE5-.LFB5
 2387 0038 00000000 		.4byte	.LFB6
 2388 003c 86000000 		.4byte	.LFE6-.LFB6
 2389 0040 00000000 		.4byte	.LFB7
 2390 0044 B6000000 		.4byte	.LFE7-.LFB7
 2391 0048 00000000 		.4byte	.LFB8
 2392 004c 96000000 		.4byte	.LFE8-.LFB8
 2393 0050 00000000 		.4byte	0
 2394 0054 00000000 		.4byte	0
 2395              		.section	.debug_ranges,"",%progbits
 2396              	.Ldebug_ranges0:
 2397 0000 00000000 		.4byte	.LFB1
 2398 0004 48000000 		.4byte	.LFE1
 2399 0008 00000000 		.4byte	.LFB2
 2400 000c 7C000000 		.4byte	.LFE2
 2401 0010 00000000 		.4byte	.LFB3
 2402 0014 50010000 		.4byte	.LFE3
 2403 0018 00000000 		.4byte	.LFB4
 2404 001c 58010000 		.4byte	.LFE4
 2405 0020 00000000 		.4byte	.LFB5
 2406 0024 CE000000 		.4byte	.LFE5
 2407 0028 00000000 		.4byte	.LFB6
 2408 002c 86000000 		.4byte	.LFE6
 2409 0030 00000000 		.4byte	.LFB7
 2410 0034 B6000000 		.4byte	.LFE7
 2411 0038 00000000 		.4byte	.LFB8
 2412 003c 96000000 		.4byte	.LFE8
 2413 0040 00000000 		.4byte	0
 2414 0044 00000000 		.4byte	0
 2415              		.section	.debug_line,"",%progbits
 2416              	.Ldebug_line0:
 2417 0000 15020000 		.section	.debug_str,"MS",%progbits,1
 2417      0200A600 
ARM GAS  C:\Users\ADMINI~1\AppData\Local\Temp\ccsfG4Nc.s 			page 55


 2417      00000201 
 2417      FB0E0D00 
 2417      01010101 
 2418              	.LASF75:
 2419 0000 4F534D62 		.ascii	"OSMboxCreate\000"
 2419      6F784372 
 2419      65617465 
 2419      00
 2420              	.LASF28:
 2421 000d 4F535F46 		.ascii	"OS_FLAGS\000"
 2421      4C414753 
 2421      00
 2422              	.LASF57:
 2423 0016 4F535443 		.ascii	"OSTCBStatPend\000"
 2423      42537461 
 2423      7450656E 
 2423      6400
 2424              	.LASF71:
 2425 0024 4F535F54 		.ascii	"OS_TCB\000"
 2425      434200
 2426              	.LASF38:
 2427 002b 6F735F6D 		.ascii	"os_mbox_data\000"
 2427      626F785F 
 2427      64617461 
 2427      00
 2428              	.LASF17:
 2429 0038 646F7562 		.ascii	"double\000"
 2429      6C6500
 2430              	.LASF67:
 2431 003f 4F535443 		.ascii	"OSTCBStkBase\000"
 2431      4253746B 
 2431      42617365 
 2431      00
 2432              	.LASF34:
 2433 004c 4F53466C 		.ascii	"OSFlagNodeFlagGrp\000"
 2433      61674E6F 
 2433      6465466C 
 2433      61674772 
 2433      7000
 2434              	.LASF63:
 2435 005e 4F535443 		.ascii	"OSTCBDelReq\000"
 2435      4244656C 
 2435      52657100 
 2436              	.LASF52:
 2437 006a 4F535443 		.ascii	"OSTCBMsg\000"
 2437      424D7367 
 2437      00
 2438              	.LASF96:
 2439 0073 2E2E5C2E 		.ascii	"..\\..\\..\\..\\..\\..\\Software\\uCOS-II\\Source\\"
 2439      2E5C2E2E 
 2439      5C2E2E5C 
 2439      2E2E5C2E 
 2439      2E5C536F 
 2440 009d 6F735F6D 		.ascii	"os_mbox.c\000"
 2440      626F782E 
 2440      6300
 2441              	.LASF26:
ARM GAS  C:\Users\ADMINI~1\AppData\Local\Temp\ccsfG4Nc.s 			page 56


 2442 00a7 4F534576 		.ascii	"OSEventName\000"
 2442      656E744E 
 2442      616D6500 
 2443              	.LASF10:
 2444 00b3 73697A65 		.ascii	"sizetype\000"
 2444      74797065 
 2444      00
 2445              	.LASF77:
 2446 00bc 4F534D62 		.ascii	"OSMboxDel\000"
 2446      6F784465 
 2446      6C00
 2447              	.LASF19:
 2448 00c6 4F535F43 		.ascii	"OS_CPU_SR\000"
 2448      50555F53 
 2448      5200
 2449              	.LASF68:
 2450 00d0 4F535443 		.ascii	"OSTCBStkUsed\000"
 2450      4253746B 
 2450      55736564 
 2450      00
 2451              	.LASF29:
 2452 00dd 6F735F65 		.ascii	"os_event\000"
 2452      76656E74 
 2452      00
 2453              	.LASF92:
 2454 00e6 4F53496E 		.ascii	"OSIntNesting\000"
 2454      744E6573 
 2454      74696E67 
 2454      00
 2455              	.LASF72:
 2456 00f3 706D7367 		.ascii	"pmsg\000"
 2456      00
 2457              	.LASF2:
 2458 00f8 73686F72 		.ascii	"short int\000"
 2458      7420696E 
 2458      7400
 2459              	.LASF42:
 2460 0102 4F535443 		.ascii	"OSTCBStkPtr\000"
 2460      4253746B 
 2460      50747200 
 2461              	.LASF89:
 2462 010e 70737263 		.ascii	"psrc\000"
 2462      00
 2463              	.LASF91:
 2464 0113 4F534576 		.ascii	"OSEventFreeList\000"
 2464      656E7446 
 2464      7265654C 
 2464      69737400 
 2465              	.LASF15:
 2466 0123 494E5433 		.ascii	"INT32U\000"
 2466      325500
 2467              	.LASF58:
 2468 012a 4F535443 		.ascii	"OSTCBPrio\000"
 2468      42507269 
 2468      6F00
 2469              	.LASF48:
 2470 0134 4F535443 		.ascii	"OSTCBNext\000"
ARM GAS  C:\Users\ADMINI~1\AppData\Local\Temp\ccsfG4Nc.s 			page 57


 2470      424E6578 
 2470      7400
 2471              	.LASF21:
 2472 013e 4F534576 		.ascii	"OSEventType\000"
 2472      656E7454 
 2472      79706500 
 2473              	.LASF74:
 2474 014a 4F534D62 		.ascii	"OSMboxAccept\000"
 2474      6F784163 
 2474      63657074 
 2474      00
 2475              	.LASF0:
 2476 0157 7369676E 		.ascii	"signed char\000"
 2476      65642063 
 2476      68617200 
 2477              	.LASF64:
 2478 0163 4F535443 		.ascii	"OSTCBCtxSwCtr\000"
 2478      42437478 
 2478      53774374 
 2478      7200
 2479              	.LASF18:
 2480 0171 4F535F53 		.ascii	"OS_STK\000"
 2480      544B00
 2481              	.LASF16:
 2482 0178 666C6F61 		.ascii	"float\000"
 2482      7400
 2483              	.LASF53:
 2484 017e 4F535443 		.ascii	"OSTCBFlagNode\000"
 2484      42466C61 
 2484      674E6F64 
 2484      6500
 2485              	.LASF55:
 2486 018c 4F535443 		.ascii	"OSTCBDly\000"
 2486      42446C79 
 2486      00
 2487              	.LASF6:
 2488 0195 6C6F6E67 		.ascii	"long long int\000"
 2488      206C6F6E 
 2488      6720696E 
 2488      7400
 2489              	.LASF88:
 2490 01a3 705F6D62 		.ascii	"p_mbox_data\000"
 2490      6F785F64 
 2490      61746100 
 2491              	.LASF27:
 2492 01af 4F535F45 		.ascii	"OS_EVENT\000"
 2492      56454E54 
 2492      00
 2493              	.LASF4:
 2494 01b8 6C6F6E67 		.ascii	"long int\000"
 2494      20696E74 
 2494      00
 2495              	.LASF59:
 2496 01c1 4F535443 		.ascii	"OSTCBX\000"
 2496      425800
 2497              	.LASF60:
 2498 01c8 4F535443 		.ascii	"OSTCBY\000"
ARM GAS  C:\Users\ADMINI~1\AppData\Local\Temp\ccsfG4Nc.s 			page 58


 2498      425900
 2499              	.LASF47:
 2500 01cf 4F535443 		.ascii	"OSTCBId\000"
 2500      42496400 
 2501              	.LASF45:
 2502 01d7 4F535443 		.ascii	"OSTCBStkSize\000"
 2502      4253746B 
 2502      53697A65 
 2502      00
 2503              	.LASF62:
 2504 01e4 4F535443 		.ascii	"OSTCBBitY\000"
 2504      42426974 
 2504      5900
 2505              	.LASF41:
 2506 01ee 6F735F74 		.ascii	"os_tcb\000"
 2506      636200
 2507              	.LASF80:
 2508 01f5 70657665 		.ascii	"pevent_return\000"
 2508      6E745F72 
 2508      65747572 
 2508      6E00
 2509              	.LASF13:
 2510 0203 494E5438 		.ascii	"INT8U\000"
 2510      5500
 2511              	.LASF95:
 2512 0209 474E5520 		.ascii	"GNU C11 5.4.1 20160609 (release) [ARM/embedded-5-br"
 2512      43313120 
 2512      352E342E 
 2512      31203230 
 2512      31363036 
 2513 023c 616E6368 		.ascii	"anch revision 237715] -mcpu=cortex-m0 -mthumb -g -O"
 2513      20726576 
 2513      6973696F 
 2513      6E203233 
 2513      37373135 
 2514 026f 30202D66 		.ascii	"0 -ffunction-sections -ffat-lto-objects\000"
 2514      66756E63 
 2514      74696F6E 
 2514      2D736563 
 2514      74696F6E 
 2515              	.LASF66:
 2516 0297 4F535443 		.ascii	"OSTCBCyclesStart\000"
 2516      42437963 
 2516      6C657353 
 2516      74617274 
 2516      00
 2517              	.LASF1:
 2518 02a8 756E7369 		.ascii	"unsigned char\000"
 2518      676E6564 
 2518      20636861 
 2518      7200
 2519              	.LASF39:
 2520 02b6 4F534D73 		.ascii	"OSMsg\000"
 2520      6700
 2521              	.LASF9:
 2522 02bc 6C6F6E67 		.ascii	"long double\000"
 2522      20646F75 
ARM GAS  C:\Users\ADMINI~1\AppData\Local\Temp\ccsfG4Nc.s 			page 59


 2522      626C6500 
 2523              	.LASF84:
 2524 02c8 6E62725F 		.ascii	"nbr_tasks\000"
 2524      7461736B 
 2524      7300
 2525              	.LASF35:
 2526 02d2 4F53466C 		.ascii	"OSFlagNodeFlags\000"
 2526      61674E6F 
 2526      6465466C 
 2526      61677300 
 2527              	.LASF36:
 2528 02e2 4F53466C 		.ascii	"OSFlagNodeWaitType\000"
 2528      61674E6F 
 2528      64655761 
 2528      69745479 
 2528      706500
 2529              	.LASF61:
 2530 02f5 4F535443 		.ascii	"OSTCBBitX\000"
 2530      42426974 
 2530      5800
 2531              	.LASF81:
 2532 02ff 4F534D62 		.ascii	"OSMboxPend\000"
 2532      6F785065 
 2532      6E6400
 2533              	.LASF14:
 2534 030a 494E5431 		.ascii	"INT16U\000"
 2534      365500
 2535              	.LASF43:
 2536 0311 4F535443 		.ascii	"OSTCBExtPtr\000"
 2536      42457874 
 2536      50747200 
 2537              	.LASF7:
 2538 031d 6C6F6E67 		.ascii	"long long unsigned int\000"
 2538      206C6F6E 
 2538      6720756E 
 2538      7369676E 
 2538      65642069 
 2539              	.LASF83:
 2540 0334 4F534D62 		.ascii	"OSMboxPendAbort\000"
 2540      6F785065 
 2540      6E644162 
 2540      6F727400 
 2541              	.LASF8:
 2542 0344 756E7369 		.ascii	"unsigned int\000"
 2542      676E6564 
 2542      20696E74 
 2542      00
 2543              	.LASF50:
 2544 0351 4F535443 		.ascii	"OSTCBEventPtr\000"
 2544      42457665 
 2544      6E745074 
 2544      7200
 2545              	.LASF51:
 2546 035f 4F535443 		.ascii	"OSTCBEventMultiPtr\000"
 2546      42457665 
 2546      6E744D75 
 2546      6C746950 
ARM GAS  C:\Users\ADMINI~1\AppData\Local\Temp\ccsfG4Nc.s 			page 60


 2546      747200
 2547              	.LASF32:
 2548 0372 4F53466C 		.ascii	"OSFlagNodePrev\000"
 2548      61674E6F 
 2548      64655072 
 2548      657600
 2549              	.LASF70:
 2550 0381 4F535443 		.ascii	"OSTCBRegTbl\000"
 2550      42526567 
 2550      54626C00 
 2551              	.LASF11:
 2552 038d 63686172 		.ascii	"char\000"
 2552      00
 2553              	.LASF87:
 2554 0392 4F534D62 		.ascii	"OSMboxQuery\000"
 2554      6F785175 
 2554      65727900 
 2555              	.LASF31:
 2556 039e 4F53466C 		.ascii	"OSFlagNodeNext\000"
 2556      61674E6F 
 2556      64654E65 
 2556      787400
 2557              	.LASF20:
 2558 03ad 4F535F50 		.ascii	"OS_PRIO\000"
 2558      52494F00 
 2559              	.LASF23:
 2560 03b5 4F534576 		.ascii	"OSEventCnt\000"
 2560      656E7443 
 2560      6E7400
 2561              	.LASF76:
 2562 03c0 70657665 		.ascii	"pevent\000"
 2562      6E7400
 2563              	.LASF90:
 2564 03c7 70646573 		.ascii	"pdest\000"
 2564      7400
 2565              	.LASF65:
 2566 03cd 4F535443 		.ascii	"OSTCBCyclesTot\000"
 2566      42437963 
 2566      6C657354 
 2566      6F7400
 2567              	.LASF3:
 2568 03dc 73686F72 		.ascii	"short unsigned int\000"
 2568      7420756E 
 2568      7369676E 
 2568      65642069 
 2568      6E7400
 2569              	.LASF46:
 2570 03ef 4F535443 		.ascii	"OSTCBOpt\000"
 2570      424F7074 
 2570      00
 2571              	.LASF44:
 2572 03f8 4F535443 		.ascii	"OSTCBStkBottom\000"
 2572      4253746B 
 2572      426F7474 
 2572      6F6D00
 2573              	.LASF22:
 2574 0407 4F534576 		.ascii	"OSEventPtr\000"
ARM GAS  C:\Users\ADMINI~1\AppData\Local\Temp\ccsfG4Nc.s 			page 61


 2574      656E7450 
 2574      747200
 2575              	.LASF5:
 2576 0412 6C6F6E67 		.ascii	"long unsigned int\000"
 2576      20756E73 
 2576      69676E65 
 2576      6420696E 
 2576      7400
 2577              	.LASF97:
 2578 0424 443A5C43 		.ascii	"D:\\CYTEST\\Micrium_CY8CKIT-044_OS2\\Micrium\\Examp"
 2578      59544553 
 2578      545C4D69 
 2578      63726975 
 2578      6D5F4359 
 2579 0453 6C65735C 		.ascii	"les\\Cypress\\CY8CKIT-044\\OS2\\PSoC\\OS2.cydsn\000"
 2579      43797072 
 2579      6573735C 
 2579      43593843 
 2579      4B49542D 
 2580              	.LASF54:
 2581 047e 4F535443 		.ascii	"OSTCBFlagsRdy\000"
 2581      42466C61 
 2581      67735264 
 2581      7900
 2582              	.LASF24:
 2583 048c 4F534576 		.ascii	"OSEventGrp\000"
 2583      656E7447 
 2583      727000
 2584              	.LASF93:
 2585 0497 4F534C6F 		.ascii	"OSLockNesting\000"
 2585      636B4E65 
 2585      7374696E 
 2585      6700
 2586              	.LASF33:
 2587 04a5 4F53466C 		.ascii	"OSFlagNodeTCB\000"
 2587      61674E6F 
 2587      64655443 
 2587      4200
 2588              	.LASF49:
 2589 04b3 4F535443 		.ascii	"OSTCBPrev\000"
 2589      42507265 
 2589      7600
 2590              	.LASF94:
 2591 04bd 4F535443 		.ascii	"OSTCBCur\000"
 2591      42437572 
 2591      00
 2592              	.LASF40:
 2593 04c6 4F535F4D 		.ascii	"OS_MBOX_DATA\000"
 2593      424F585F 
 2593      44415441 
 2593      00
 2594              	.LASF37:
 2595 04d3 4F535F46 		.ascii	"OS_FLAG_NODE\000"
 2595      4C41475F 
 2595      4E4F4445 
 2595      00
 2596              	.LASF12:
ARM GAS  C:\Users\ADMINI~1\AppData\Local\Temp\ccsfG4Nc.s 			page 62


 2597 04e0 424F4F4C 		.ascii	"BOOLEAN\000"
 2597      45414E00 
 2598              	.LASF78:
 2599 04e8 70657272 		.ascii	"perr\000"
 2599      00
 2600              	.LASF73:
 2601 04ed 6370755F 		.ascii	"cpu_sr\000"
 2601      737200
 2602              	.LASF56:
 2603 04f4 4F535443 		.ascii	"OSTCBStat\000"
 2603      42537461 
 2603      7400
 2604              	.LASF30:
 2605 04fe 6F735F66 		.ascii	"os_flag_node\000"
 2605      6C61675F 
 2605      6E6F6465 
 2605      00
 2606              	.LASF79:
 2607 050b 7461736B 		.ascii	"tasks_waiting\000"
 2607      735F7761 
 2607      6974696E 
 2607      6700
 2608              	.LASF85:
 2609 0519 4F534D62 		.ascii	"OSMboxPost\000"
 2609      6F78506F 
 2609      737400
 2610              	.LASF69:
 2611 0524 4F535443 		.ascii	"OSTCBTaskName\000"
 2611      42546173 
 2611      6B4E616D 
 2611      6500
 2612              	.LASF86:
 2613 0532 4F534D62 		.ascii	"OSMboxPostOpt\000"
 2613      6F78506F 
 2613      73744F70 
 2613      7400
 2614              	.LASF82:
 2615 0540 74696D65 		.ascii	"timeout\000"
 2615      6F757400 
 2616              	.LASF25:
 2617 0548 4F534576 		.ascii	"OSEventTbl\000"
 2617      656E7454 
 2617      626C00
 2618              		.ident	"GCC: (GNU Tools for ARM Embedded Processors) 5.4.1 20160609 (release) [ARM/embedded-5-bran
