ARM GAS  C:\Users\ADMINI~1\AppData\Local\Temp\cc9sCsDg.s 			page 1


   1              		.syntax unified
   2              		.cpu cortex-m0
   3              		.fpu softvfp
   4              		.eabi_attribute 20, 1
   5              		.eabi_attribute 21, 1
   6              		.eabi_attribute 23, 3
   7              		.eabi_attribute 24, 1
   8              		.eabi_attribute 25, 1
   9              		.eabi_attribute 26, 1
  10              		.eabi_attribute 30, 6
  11              		.eabi_attribute 34, 0
  12              		.eabi_attribute 18, 4
  13              		.thumb
  14              		.syntax unified
  15              		.file	"os_q.c"
  16              		.text
  17              	.Ltext0:
  18              		.cfi_sections	.debug_frame
  19              		.section	.text.OSQAccept,"ax",%progbits
  20              		.align	2
  21              		.global	OSQAccept
  22              		.code	16
  23              		.thumb_func
  24              		.type	OSQAccept, %function
  25              	OSQAccept:
  26              	.LFB1:
  27              		.file 1 "..\\..\\..\\..\\..\\..\\Software\\uCOS-II\\Source\\os_q.c"
   1:..\..\..\..\..\..\Software\uCOS-II\Source/os_q.c **** /*
   2:..\..\..\..\..\..\Software\uCOS-II\Source/os_q.c **** ***************************************************************************************************
   3:..\..\..\..\..\..\Software\uCOS-II\Source/os_q.c **** *                                                uC/OS-II
   4:..\..\..\..\..\..\Software\uCOS-II\Source/os_q.c **** *                                          The Real-Time Kernel
   5:..\..\..\..\..\..\Software\uCOS-II\Source/os_q.c **** *                                        MESSAGE QUEUE MANAGEMENT
   6:..\..\..\..\..\..\Software\uCOS-II\Source/os_q.c **** *
   7:..\..\..\..\..\..\Software\uCOS-II\Source/os_q.c **** *                              (c) Copyright 1992-2013, Micrium, Weston, FL
   8:..\..\..\..\..\..\Software\uCOS-II\Source/os_q.c **** *                                           All Rights Reserved
   9:..\..\..\..\..\..\Software\uCOS-II\Source/os_q.c **** *
  10:..\..\..\..\..\..\Software\uCOS-II\Source/os_q.c **** * File    : OS_Q.C
  11:..\..\..\..\..\..\Software\uCOS-II\Source/os_q.c **** * By      : Jean J. Labrosse
  12:..\..\..\..\..\..\Software\uCOS-II\Source/os_q.c **** * Version : V2.92.11
  13:..\..\..\..\..\..\Software\uCOS-II\Source/os_q.c **** *
  14:..\..\..\..\..\..\Software\uCOS-II\Source/os_q.c **** * LICENSING TERMS:
  15:..\..\..\..\..\..\Software\uCOS-II\Source/os_q.c **** * ---------------
  16:..\..\..\..\..\..\Software\uCOS-II\Source/os_q.c **** *   uC/OS-II is provided in source form for FREE evaluation, for educational use or for peaceful re
  17:..\..\..\..\..\..\Software\uCOS-II\Source/os_q.c **** * If you plan on using  uC/OS-II  in a commercial product you need to contact Micrium to properly l
  18:..\..\..\..\..\..\Software\uCOS-II\Source/os_q.c **** * its use in your product. We provide ALL the source code for your convenience and to help you expe
  19:..\..\..\..\..\..\Software\uCOS-II\Source/os_q.c **** * uC/OS-II.   The fact that the  source is provided does  NOT  mean that you can use it without  pa
  20:..\..\..\..\..\..\Software\uCOS-II\Source/os_q.c **** * licensing fee.
  21:..\..\..\..\..\..\Software\uCOS-II\Source/os_q.c **** ***************************************************************************************************
  22:..\..\..\..\..\..\Software\uCOS-II\Source/os_q.c **** */
  23:..\..\..\..\..\..\Software\uCOS-II\Source/os_q.c **** 
  24:..\..\..\..\..\..\Software\uCOS-II\Source/os_q.c **** #define  MICRIUM_SOURCE
  25:..\..\..\..\..\..\Software\uCOS-II\Source/os_q.c **** 
  26:..\..\..\..\..\..\Software\uCOS-II\Source/os_q.c **** #ifndef  OS_MASTER_FILE
  27:..\..\..\..\..\..\Software\uCOS-II\Source/os_q.c **** #include <ucos_ii.h>
  28:..\..\..\..\..\..\Software\uCOS-II\Source/os_q.c **** #endif
  29:..\..\..\..\..\..\Software\uCOS-II\Source/os_q.c **** 
  30:..\..\..\..\..\..\Software\uCOS-II\Source/os_q.c **** #if (OS_Q_EN > 0u) && (OS_MAX_QS > 0u)
ARM GAS  C:\Users\ADMINI~1\AppData\Local\Temp\cc9sCsDg.s 			page 2


  31:..\..\..\..\..\..\Software\uCOS-II\Source/os_q.c **** /*
  32:..\..\..\..\..\..\Software\uCOS-II\Source/os_q.c **** ***************************************************************************************************
  33:..\..\..\..\..\..\Software\uCOS-II\Source/os_q.c **** *                                      ACCEPT MESSAGE FROM QUEUE
  34:..\..\..\..\..\..\Software\uCOS-II\Source/os_q.c **** *
  35:..\..\..\..\..\..\Software\uCOS-II\Source/os_q.c **** * Description: This function checks the queue to see if a message is available.  Unlike OSQPend(),
  36:..\..\..\..\..\..\Software\uCOS-II\Source/os_q.c **** *              OSQAccept() does not suspend the calling task if a message is not available.
  37:..\..\..\..\..\..\Software\uCOS-II\Source/os_q.c **** *
  38:..\..\..\..\..\..\Software\uCOS-II\Source/os_q.c **** * Arguments  : pevent        is a pointer to the event control block
  39:..\..\..\..\..\..\Software\uCOS-II\Source/os_q.c **** *
  40:..\..\..\..\..\..\Software\uCOS-II\Source/os_q.c **** *              perr          is a pointer to where an error message will be deposited.  Possible er
  41:..\..\..\..\..\..\Software\uCOS-II\Source/os_q.c **** *                            messages are:
  42:..\..\..\..\..\..\Software\uCOS-II\Source/os_q.c **** *
  43:..\..\..\..\..\..\Software\uCOS-II\Source/os_q.c **** *                            OS_ERR_NONE         The call was successful and your task received a
  44:..\..\..\..\..\..\Software\uCOS-II\Source/os_q.c **** *                                                message.
  45:..\..\..\..\..\..\Software\uCOS-II\Source/os_q.c **** *                            OS_ERR_EVENT_TYPE   You didn't pass a pointer to a queue
  46:..\..\..\..\..\..\Software\uCOS-II\Source/os_q.c **** *                            OS_ERR_PEVENT_NULL  If 'pevent' is a NULL pointer
  47:..\..\..\..\..\..\Software\uCOS-II\Source/os_q.c **** *                            OS_ERR_Q_EMPTY      The queue did not contain any messages
  48:..\..\..\..\..\..\Software\uCOS-II\Source/os_q.c **** *
  49:..\..\..\..\..\..\Software\uCOS-II\Source/os_q.c **** * Returns    : != (void *)0  is the message in the queue if one is available.  The message is remov
  50:..\..\..\..\..\..\Software\uCOS-II\Source/os_q.c **** *                            from the so the next time OSQAccept() is called, the queue will contai
  51:..\..\..\..\..\..\Software\uCOS-II\Source/os_q.c **** *                            one less entry.
  52:..\..\..\..\..\..\Software\uCOS-II\Source/os_q.c **** *              == (void *)0  if you received a NULL pointer message
  53:..\..\..\..\..\..\Software\uCOS-II\Source/os_q.c **** *                            if the queue is empty or,
  54:..\..\..\..\..\..\Software\uCOS-II\Source/os_q.c **** *                            if 'pevent' is a NULL pointer or,
  55:..\..\..\..\..\..\Software\uCOS-II\Source/os_q.c **** *                            if you passed an invalid event type
  56:..\..\..\..\..\..\Software\uCOS-II\Source/os_q.c **** *
  57:..\..\..\..\..\..\Software\uCOS-II\Source/os_q.c **** * Note(s)    : As of V2.60, you can now pass NULL pointers through queues.  Because of this, the ar
  58:..\..\..\..\..\..\Software\uCOS-II\Source/os_q.c **** *              'perr' has been added to the API to tell you about the outcome of the call.
  59:..\..\..\..\..\..\Software\uCOS-II\Source/os_q.c **** ***************************************************************************************************
  60:..\..\..\..\..\..\Software\uCOS-II\Source/os_q.c **** */
  61:..\..\..\..\..\..\Software\uCOS-II\Source/os_q.c **** 
  62:..\..\..\..\..\..\Software\uCOS-II\Source/os_q.c **** #if OS_Q_ACCEPT_EN > 0u
  63:..\..\..\..\..\..\Software\uCOS-II\Source/os_q.c **** void  *OSQAccept (OS_EVENT  *pevent,
  64:..\..\..\..\..\..\Software\uCOS-II\Source/os_q.c ****                   INT8U     *perr)
  65:..\..\..\..\..\..\Software\uCOS-II\Source/os_q.c **** {
  28              		.loc 1 65 0
  29              		.cfi_startproc
  30              		@ args = 0, pretend = 0, frame = 24
  31              		@ frame_needed = 1, uses_anonymous_args = 0
  32 0000 80B5     		push	{r7, lr}
  33              		.cfi_def_cfa_offset 8
  34              		.cfi_offset 7, -8
  35              		.cfi_offset 14, -4
  36 0002 86B0     		sub	sp, sp, #24
  37              		.cfi_def_cfa_offset 32
  38 0004 00AF     		add	r7, sp, #0
  39              		.cfi_def_cfa_register 7
  40 0006 7860     		str	r0, [r7, #4]
  41 0008 3960     		str	r1, [r7]
  66:..\..\..\..\..\..\Software\uCOS-II\Source/os_q.c ****     void      *pmsg;
  67:..\..\..\..\..\..\Software\uCOS-II\Source/os_q.c ****     OS_Q      *pq;
  68:..\..\..\..\..\..\Software\uCOS-II\Source/os_q.c **** #if OS_CRITICAL_METHOD == 3u                     /* Allocate storage for CPU status register       
  69:..\..\..\..\..\..\Software\uCOS-II\Source/os_q.c ****     OS_CPU_SR  cpu_sr = 0u;
  42              		.loc 1 69 0
  43 000a 0023     		movs	r3, #0
  44 000c 3B61     		str	r3, [r7, #16]
  70:..\..\..\..\..\..\Software\uCOS-II\Source/os_q.c **** #endif
ARM GAS  C:\Users\ADMINI~1\AppData\Local\Temp\cc9sCsDg.s 			page 3


  71:..\..\..\..\..\..\Software\uCOS-II\Source/os_q.c **** 
  72:..\..\..\..\..\..\Software\uCOS-II\Source/os_q.c **** 
  73:..\..\..\..\..\..\Software\uCOS-II\Source/os_q.c **** 
  74:..\..\..\..\..\..\Software\uCOS-II\Source/os_q.c **** #ifdef OS_SAFETY_CRITICAL
  75:..\..\..\..\..\..\Software\uCOS-II\Source/os_q.c ****     if (perr == (INT8U *)0) {
  76:..\..\..\..\..\..\Software\uCOS-II\Source/os_q.c ****         OS_SAFETY_CRITICAL_EXCEPTION();
  77:..\..\..\..\..\..\Software\uCOS-II\Source/os_q.c ****         return ((void *)0);
  78:..\..\..\..\..\..\Software\uCOS-II\Source/os_q.c ****     }
  79:..\..\..\..\..\..\Software\uCOS-II\Source/os_q.c **** #endif
  80:..\..\..\..\..\..\Software\uCOS-II\Source/os_q.c **** 
  81:..\..\..\..\..\..\Software\uCOS-II\Source/os_q.c **** #if OS_ARG_CHK_EN > 0u
  82:..\..\..\..\..\..\Software\uCOS-II\Source/os_q.c ****     if (pevent == (OS_EVENT *)0) {               /* Validate 'pevent'                              
  45              		.loc 1 82 0
  46 000e 7B68     		ldr	r3, [r7, #4]
  47 0010 002B     		cmp	r3, #0
  48 0012 04D1     		bne	.L2
  83:..\..\..\..\..\..\Software\uCOS-II\Source/os_q.c ****         *perr = OS_ERR_PEVENT_NULL;
  49              		.loc 1 83 0
  50 0014 3B68     		ldr	r3, [r7]
  51 0016 0422     		movs	r2, #4
  52 0018 1A70     		strb	r2, [r3]
  84:..\..\..\..\..\..\Software\uCOS-II\Source/os_q.c ****         return ((void *)0);
  53              		.loc 1 84 0
  54 001a 0023     		movs	r3, #0
  55 001c 38E0     		b	.L3
  56              	.L2:
  85:..\..\..\..\..\..\Software\uCOS-II\Source/os_q.c ****     }
  86:..\..\..\..\..\..\Software\uCOS-II\Source/os_q.c **** #endif
  87:..\..\..\..\..\..\Software\uCOS-II\Source/os_q.c ****     if (pevent->OSEventType != OS_EVENT_TYPE_Q) {/* Validate event block type                      
  57              		.loc 1 87 0
  58 001e 7B68     		ldr	r3, [r7, #4]
  59 0020 1B78     		ldrb	r3, [r3]
  60 0022 022B     		cmp	r3, #2
  61 0024 04D0     		beq	.L4
  88:..\..\..\..\..\..\Software\uCOS-II\Source/os_q.c ****         *perr = OS_ERR_EVENT_TYPE;
  62              		.loc 1 88 0
  63 0026 3B68     		ldr	r3, [r7]
  64 0028 0122     		movs	r2, #1
  65 002a 1A70     		strb	r2, [r3]
  89:..\..\..\..\..\..\Software\uCOS-II\Source/os_q.c ****         return ((void *)0);
  66              		.loc 1 89 0
  67 002c 0023     		movs	r3, #0
  68 002e 2FE0     		b	.L3
  69              	.L4:
  90:..\..\..\..\..\..\Software\uCOS-II\Source/os_q.c ****     }
  91:..\..\..\..\..\..\Software\uCOS-II\Source/os_q.c ****     OS_ENTER_CRITICAL();
  70              		.loc 1 91 0
  71 0030 FFF7FEFF 		bl	OS_CPU_SR_Save
  72 0034 0300     		movs	r3, r0
  73 0036 3B61     		str	r3, [r7, #16]
  92:..\..\..\..\..\..\Software\uCOS-II\Source/os_q.c ****     pq = (OS_Q *)pevent->OSEventPtr;             /* Point at queue control block                   
  74              		.loc 1 92 0
  75 0038 7B68     		ldr	r3, [r7, #4]
  76 003a 5B68     		ldr	r3, [r3, #4]
  77 003c FB60     		str	r3, [r7, #12]
  93:..\..\..\..\..\..\Software\uCOS-II\Source/os_q.c ****     if (pq->OSQEntries > 0u) {                   /* See if any messages in the queue               
  78              		.loc 1 93 0
ARM GAS  C:\Users\ADMINI~1\AppData\Local\Temp\cc9sCsDg.s 			page 4


  79 003e FB68     		ldr	r3, [r7, #12]
  80 0040 DB8A     		ldrh	r3, [r3, #22]
  81 0042 002B     		cmp	r3, #0
  82 0044 1AD0     		beq	.L5
  94:..\..\..\..\..\..\Software\uCOS-II\Source/os_q.c ****         pmsg = *pq->OSQOut++;                    /* Yes, extract oldest message from the queue     
  83              		.loc 1 94 0
  84 0046 FB68     		ldr	r3, [r7, #12]
  85 0048 1B69     		ldr	r3, [r3, #16]
  86 004a 191D     		adds	r1, r3, #4
  87 004c FA68     		ldr	r2, [r7, #12]
  88 004e 1161     		str	r1, [r2, #16]
  89 0050 1B68     		ldr	r3, [r3]
  90 0052 7B61     		str	r3, [r7, #20]
  95:..\..\..\..\..\..\Software\uCOS-II\Source/os_q.c ****         pq->OSQEntries--;                        /* Update the number of entries in the queue      
  91              		.loc 1 95 0
  92 0054 FB68     		ldr	r3, [r7, #12]
  93 0056 DB8A     		ldrh	r3, [r3, #22]
  94 0058 013B     		subs	r3, r3, #1
  95 005a 9AB2     		uxth	r2, r3
  96 005c FB68     		ldr	r3, [r7, #12]
  97 005e DA82     		strh	r2, [r3, #22]
  96:..\..\..\..\..\..\Software\uCOS-II\Source/os_q.c ****         if (pq->OSQOut == pq->OSQEnd) {          /* Wrap OUT pointer if we are at the end of the qu
  98              		.loc 1 96 0
  99 0060 FB68     		ldr	r3, [r7, #12]
 100 0062 1A69     		ldr	r2, [r3, #16]
 101 0064 FB68     		ldr	r3, [r7, #12]
 102 0066 9B68     		ldr	r3, [r3, #8]
 103 0068 9A42     		cmp	r2, r3
 104 006a 03D1     		bne	.L6
  97:..\..\..\..\..\..\Software\uCOS-II\Source/os_q.c ****             pq->OSQOut = pq->OSQStart;
 105              		.loc 1 97 0
 106 006c FB68     		ldr	r3, [r7, #12]
 107 006e 5A68     		ldr	r2, [r3, #4]
 108 0070 FB68     		ldr	r3, [r7, #12]
 109 0072 1A61     		str	r2, [r3, #16]
 110              	.L6:
  98:..\..\..\..\..\..\Software\uCOS-II\Source/os_q.c ****         }
  99:..\..\..\..\..\..\Software\uCOS-II\Source/os_q.c ****         *perr = OS_ERR_NONE;
 111              		.loc 1 99 0
 112 0074 3B68     		ldr	r3, [r7]
 113 0076 0022     		movs	r2, #0
 114 0078 1A70     		strb	r2, [r3]
 115 007a 04E0     		b	.L7
 116              	.L5:
 100:..\..\..\..\..\..\Software\uCOS-II\Source/os_q.c ****     } else {
 101:..\..\..\..\..\..\Software\uCOS-II\Source/os_q.c ****         *perr = OS_ERR_Q_EMPTY;
 117              		.loc 1 101 0
 118 007c 3B68     		ldr	r3, [r7]
 119 007e 1F22     		movs	r2, #31
 120 0080 1A70     		strb	r2, [r3]
 102:..\..\..\..\..\..\Software\uCOS-II\Source/os_q.c ****         pmsg  = (void *)0;                       /* Queue is empty                                 
 121              		.loc 1 102 0
 122 0082 0023     		movs	r3, #0
 123 0084 7B61     		str	r3, [r7, #20]
 124              	.L7:
 103:..\..\..\..\..\..\Software\uCOS-II\Source/os_q.c ****     }
 104:..\..\..\..\..\..\Software\uCOS-II\Source/os_q.c ****     OS_EXIT_CRITICAL();
ARM GAS  C:\Users\ADMINI~1\AppData\Local\Temp\cc9sCsDg.s 			page 5


 125              		.loc 1 104 0
 126 0086 3B69     		ldr	r3, [r7, #16]
 127 0088 1800     		movs	r0, r3
 128 008a FFF7FEFF 		bl	OS_CPU_SR_Restore
 105:..\..\..\..\..\..\Software\uCOS-II\Source/os_q.c ****     return (pmsg);                               /* Return message received (or NULL)              
 129              		.loc 1 105 0
 130 008e 7B69     		ldr	r3, [r7, #20]
 131              	.L3:
 106:..\..\..\..\..\..\Software\uCOS-II\Source/os_q.c **** }
 132              		.loc 1 106 0
 133 0090 1800     		movs	r0, r3
 134 0092 BD46     		mov	sp, r7
 135 0094 06B0     		add	sp, sp, #24
 136              		@ sp needed
 137 0096 80BD     		pop	{r7, pc}
 138              		.cfi_endproc
 139              	.LFE1:
 140              		.size	OSQAccept, .-OSQAccept
 141              		.section	.rodata
 142              		.align	2
 143              	.LC3:
 144 0000 3F00     		.ascii	"?\000"
 145              		.section	.text.OSQCreate,"ax",%progbits
 146              		.align	2
 147              		.global	OSQCreate
 148              		.code	16
 149              		.thumb_func
 150              		.type	OSQCreate, %function
 151              	OSQCreate:
 152              	.LFB2:
 107:..\..\..\..\..\..\Software\uCOS-II\Source/os_q.c **** #endif
 108:..\..\..\..\..\..\Software\uCOS-II\Source/os_q.c **** /*$PAGE*/
 109:..\..\..\..\..\..\Software\uCOS-II\Source/os_q.c **** /*
 110:..\..\..\..\..\..\Software\uCOS-II\Source/os_q.c **** ***************************************************************************************************
 111:..\..\..\..\..\..\Software\uCOS-II\Source/os_q.c **** *                                       CREATE A MESSAGE QUEUE
 112:..\..\..\..\..\..\Software\uCOS-II\Source/os_q.c **** *
 113:..\..\..\..\..\..\Software\uCOS-II\Source/os_q.c **** * Description: This function creates a message queue if free event control blocks are available.
 114:..\..\..\..\..\..\Software\uCOS-II\Source/os_q.c **** *
 115:..\..\..\..\..\..\Software\uCOS-II\Source/os_q.c **** * Arguments  : start         is a pointer to the base address of the message queue storage area.  T
 116:..\..\..\..\..\..\Software\uCOS-II\Source/os_q.c **** *                            storage area MUST be declared as an array of pointers to 'void' as fol
 117:..\..\..\..\..\..\Software\uCOS-II\Source/os_q.c **** *
 118:..\..\..\..\..\..\Software\uCOS-II\Source/os_q.c **** *                            void *MessageStorage[size]
 119:..\..\..\..\..\..\Software\uCOS-II\Source/os_q.c **** *
 120:..\..\..\..\..\..\Software\uCOS-II\Source/os_q.c **** *              size          is the number of elements in the storage area
 121:..\..\..\..\..\..\Software\uCOS-II\Source/os_q.c **** *
 122:..\..\..\..\..\..\Software\uCOS-II\Source/os_q.c **** * Returns    : != (OS_EVENT *)0  is a pointer to the event control clock (OS_EVENT) associated with
 123:..\..\..\..\..\..\Software\uCOS-II\Source/os_q.c **** *                                created queue
 124:..\..\..\..\..\..\Software\uCOS-II\Source/os_q.c **** *              == (OS_EVENT *)0  if no event control blocks were available or an error was detected
 125:..\..\..\..\..\..\Software\uCOS-II\Source/os_q.c **** ***************************************************************************************************
 126:..\..\..\..\..\..\Software\uCOS-II\Source/os_q.c **** */
 127:..\..\..\..\..\..\Software\uCOS-II\Source/os_q.c **** 
 128:..\..\..\..\..\..\Software\uCOS-II\Source/os_q.c **** OS_EVENT  *OSQCreate (void    **start,
 129:..\..\..\..\..\..\Software\uCOS-II\Source/os_q.c ****                       INT16U    size)
 130:..\..\..\..\..\..\Software\uCOS-II\Source/os_q.c **** {
 153              		.loc 1 130 0
 154              		.cfi_startproc
 155              		@ args = 0, pretend = 0, frame = 24
ARM GAS  C:\Users\ADMINI~1\AppData\Local\Temp\cc9sCsDg.s 			page 6


 156              		@ frame_needed = 1, uses_anonymous_args = 0
 157 0000 80B5     		push	{r7, lr}
 158              		.cfi_def_cfa_offset 8
 159              		.cfi_offset 7, -8
 160              		.cfi_offset 14, -4
 161 0002 86B0     		sub	sp, sp, #24
 162              		.cfi_def_cfa_offset 32
 163 0004 00AF     		add	r7, sp, #0
 164              		.cfi_def_cfa_register 7
 165 0006 7860     		str	r0, [r7, #4]
 166 0008 0A00     		movs	r2, r1
 167 000a BB1C     		adds	r3, r7, #2
 168 000c 1A80     		strh	r2, [r3]
 131:..\..\..\..\..\..\Software\uCOS-II\Source/os_q.c ****     OS_EVENT  *pevent;
 132:..\..\..\..\..\..\Software\uCOS-II\Source/os_q.c ****     OS_Q      *pq;
 133:..\..\..\..\..\..\Software\uCOS-II\Source/os_q.c **** #if OS_CRITICAL_METHOD == 3u                     /* Allocate storage for CPU status register       
 134:..\..\..\..\..\..\Software\uCOS-II\Source/os_q.c ****     OS_CPU_SR  cpu_sr = 0u;
 169              		.loc 1 134 0
 170 000e 0023     		movs	r3, #0
 171 0010 3B61     		str	r3, [r7, #16]
 135:..\..\..\..\..\..\Software\uCOS-II\Source/os_q.c **** #endif
 136:..\..\..\..\..\..\Software\uCOS-II\Source/os_q.c **** 
 137:..\..\..\..\..\..\Software\uCOS-II\Source/os_q.c **** 
 138:..\..\..\..\..\..\Software\uCOS-II\Source/os_q.c **** 
 139:..\..\..\..\..\..\Software\uCOS-II\Source/os_q.c **** #ifdef OS_SAFETY_CRITICAL_IEC61508
 140:..\..\..\..\..\..\Software\uCOS-II\Source/os_q.c ****     if (OSSafetyCriticalStartFlag == OS_TRUE) {
 141:..\..\..\..\..\..\Software\uCOS-II\Source/os_q.c ****         OS_SAFETY_CRITICAL_EXCEPTION();
 142:..\..\..\..\..\..\Software\uCOS-II\Source/os_q.c ****         return ((OS_EVENT *)0);
 143:..\..\..\..\..\..\Software\uCOS-II\Source/os_q.c ****     }
 144:..\..\..\..\..\..\Software\uCOS-II\Source/os_q.c **** #endif
 145:..\..\..\..\..\..\Software\uCOS-II\Source/os_q.c **** 
 146:..\..\..\..\..\..\Software\uCOS-II\Source/os_q.c ****     if (OSIntNesting > 0u) {                     /* See if called from ISR ...                     
 172              		.loc 1 146 0
 173 0012 354B     		ldr	r3, .L14
 174 0014 1B78     		ldrb	r3, [r3]
 175 0016 002B     		cmp	r3, #0
 176 0018 01D0     		beq	.L9
 147:..\..\..\..\..\..\Software\uCOS-II\Source/os_q.c ****         return ((OS_EVENT *)0);                  /* ... can't CREATE from an ISR                   
 177              		.loc 1 147 0
 178 001a 0023     		movs	r3, #0
 179 001c 5FE0     		b	.L10
 180              	.L9:
 148:..\..\..\..\..\..\Software\uCOS-II\Source/os_q.c ****     }
 149:..\..\..\..\..\..\Software\uCOS-II\Source/os_q.c ****     OS_ENTER_CRITICAL();
 181              		.loc 1 149 0
 182 001e FFF7FEFF 		bl	OS_CPU_SR_Save
 183 0022 0300     		movs	r3, r0
 184 0024 3B61     		str	r3, [r7, #16]
 150:..\..\..\..\..\..\Software\uCOS-II\Source/os_q.c ****     pevent = OSEventFreeList;                    /* Get next free event control block              
 185              		.loc 1 150 0
 186 0026 314B     		ldr	r3, .L14+4
 187 0028 1B68     		ldr	r3, [r3]
 188 002a 7B61     		str	r3, [r7, #20]
 151:..\..\..\..\..\..\Software\uCOS-II\Source/os_q.c ****     if (OSEventFreeList != (OS_EVENT *)0) {      /* See if pool of free ECB pool was empty         
 189              		.loc 1 151 0
 190 002c 2F4B     		ldr	r3, .L14+4
 191 002e 1B68     		ldr	r3, [r3]
ARM GAS  C:\Users\ADMINI~1\AppData\Local\Temp\cc9sCsDg.s 			page 7


 192 0030 002B     		cmp	r3, #0
 193 0032 04D0     		beq	.L11
 152:..\..\..\..\..\..\Software\uCOS-II\Source/os_q.c ****         OSEventFreeList = (OS_EVENT *)OSEventFreeList->OSEventPtr;
 194              		.loc 1 152 0
 195 0034 2D4B     		ldr	r3, .L14+4
 196 0036 1B68     		ldr	r3, [r3]
 197 0038 5A68     		ldr	r2, [r3, #4]
 198 003a 2C4B     		ldr	r3, .L14+4
 199 003c 1A60     		str	r2, [r3]
 200              	.L11:
 153:..\..\..\..\..\..\Software\uCOS-II\Source/os_q.c ****     }
 154:..\..\..\..\..\..\Software\uCOS-II\Source/os_q.c ****     OS_EXIT_CRITICAL();
 201              		.loc 1 154 0
 202 003e 3B69     		ldr	r3, [r7, #16]
 203 0040 1800     		movs	r0, r3
 204 0042 FFF7FEFF 		bl	OS_CPU_SR_Restore
 155:..\..\..\..\..\..\Software\uCOS-II\Source/os_q.c ****     if (pevent != (OS_EVENT *)0) {               /* See if we have an event control block          
 205              		.loc 1 155 0
 206 0046 7B69     		ldr	r3, [r7, #20]
 207 0048 002B     		cmp	r3, #0
 208 004a 47D0     		beq	.L12
 156:..\..\..\..\..\..\Software\uCOS-II\Source/os_q.c ****         OS_ENTER_CRITICAL();
 209              		.loc 1 156 0
 210 004c FFF7FEFF 		bl	OS_CPU_SR_Save
 211 0050 0300     		movs	r3, r0
 212 0052 3B61     		str	r3, [r7, #16]
 157:..\..\..\..\..\..\Software\uCOS-II\Source/os_q.c ****         pq = OSQFreeList;                        /* Get a free queue control block                 
 213              		.loc 1 157 0
 214 0054 264B     		ldr	r3, .L14+8
 215 0056 1B68     		ldr	r3, [r3]
 216 0058 FB60     		str	r3, [r7, #12]
 158:..\..\..\..\..\..\Software\uCOS-II\Source/os_q.c ****         if (pq != (OS_Q *)0) {                   /* Were we able to get a queue control block ?    
 217              		.loc 1 158 0
 218 005a FB68     		ldr	r3, [r7, #12]
 219 005c 002B     		cmp	r3, #0
 220 005e 30D0     		beq	.L13
 159:..\..\..\..\..\..\Software\uCOS-II\Source/os_q.c ****             OSQFreeList            = OSQFreeList->OSQPtr; /* Yes, Adjust free list pointer to next 
 221              		.loc 1 159 0
 222 0060 234B     		ldr	r3, .L14+8
 223 0062 1B68     		ldr	r3, [r3]
 224 0064 1A68     		ldr	r2, [r3]
 225 0066 224B     		ldr	r3, .L14+8
 226 0068 1A60     		str	r2, [r3]
 160:..\..\..\..\..\..\Software\uCOS-II\Source/os_q.c ****             OS_EXIT_CRITICAL();
 227              		.loc 1 160 0
 228 006a 3B69     		ldr	r3, [r7, #16]
 229 006c 1800     		movs	r0, r3
 230 006e FFF7FEFF 		bl	OS_CPU_SR_Restore
 161:..\..\..\..\..\..\Software\uCOS-II\Source/os_q.c ****             pq->OSQStart           = start;               /*      Initialize the queue             
 231              		.loc 1 161 0
 232 0072 FB68     		ldr	r3, [r7, #12]
 233 0074 7A68     		ldr	r2, [r7, #4]
 234 0076 5A60     		str	r2, [r3, #4]
 162:..\..\..\..\..\..\Software\uCOS-II\Source/os_q.c ****             pq->OSQEnd             = &start[size];
 235              		.loc 1 162 0
 236 0078 BB1C     		adds	r3, r7, #2
 237 007a 1B88     		ldrh	r3, [r3]
ARM GAS  C:\Users\ADMINI~1\AppData\Local\Temp\cc9sCsDg.s 			page 8


 238 007c 9B00     		lsls	r3, r3, #2
 239 007e 7A68     		ldr	r2, [r7, #4]
 240 0080 D218     		adds	r2, r2, r3
 241 0082 FB68     		ldr	r3, [r7, #12]
 242 0084 9A60     		str	r2, [r3, #8]
 163:..\..\..\..\..\..\Software\uCOS-II\Source/os_q.c ****             pq->OSQIn              = start;
 243              		.loc 1 163 0
 244 0086 FB68     		ldr	r3, [r7, #12]
 245 0088 7A68     		ldr	r2, [r7, #4]
 246 008a DA60     		str	r2, [r3, #12]
 164:..\..\..\..\..\..\Software\uCOS-II\Source/os_q.c ****             pq->OSQOut             = start;
 247              		.loc 1 164 0
 248 008c FB68     		ldr	r3, [r7, #12]
 249 008e 7A68     		ldr	r2, [r7, #4]
 250 0090 1A61     		str	r2, [r3, #16]
 165:..\..\..\..\..\..\Software\uCOS-II\Source/os_q.c ****             pq->OSQSize            = size;
 251              		.loc 1 165 0
 252 0092 FB68     		ldr	r3, [r7, #12]
 253 0094 BA1C     		adds	r2, r7, #2
 254 0096 1288     		ldrh	r2, [r2]
 255 0098 9A82     		strh	r2, [r3, #20]
 166:..\..\..\..\..\..\Software\uCOS-II\Source/os_q.c ****             pq->OSQEntries         = 0u;
 256              		.loc 1 166 0
 257 009a FB68     		ldr	r3, [r7, #12]
 258 009c 0022     		movs	r2, #0
 259 009e DA82     		strh	r2, [r3, #22]
 167:..\..\..\..\..\..\Software\uCOS-II\Source/os_q.c ****             pevent->OSEventType    = OS_EVENT_TYPE_Q;
 260              		.loc 1 167 0
 261 00a0 7B69     		ldr	r3, [r7, #20]
 262 00a2 0222     		movs	r2, #2
 263 00a4 1A70     		strb	r2, [r3]
 168:..\..\..\..\..\..\Software\uCOS-II\Source/os_q.c ****             pevent->OSEventCnt     = 0u;
 264              		.loc 1 168 0
 265 00a6 7B69     		ldr	r3, [r7, #20]
 266 00a8 0022     		movs	r2, #0
 267 00aa 1A81     		strh	r2, [r3, #8]
 169:..\..\..\..\..\..\Software\uCOS-II\Source/os_q.c ****             pevent->OSEventPtr     = pq;
 268              		.loc 1 169 0
 269 00ac 7B69     		ldr	r3, [r7, #20]
 270 00ae FA68     		ldr	r2, [r7, #12]
 271 00b0 5A60     		str	r2, [r3, #4]
 170:..\..\..\..\..\..\Software\uCOS-II\Source/os_q.c **** #if OS_EVENT_NAME_EN > 0u
 171:..\..\..\..\..\..\Software\uCOS-II\Source/os_q.c ****             pevent->OSEventName    = (INT8U *)(void *)"?";
 272              		.loc 1 171 0
 273 00b2 7B69     		ldr	r3, [r7, #20]
 274 00b4 0F4A     		ldr	r2, .L14+12
 275 00b6 5A61     		str	r2, [r3, #20]
 172:..\..\..\..\..\..\Software\uCOS-II\Source/os_q.c **** #endif
 173:..\..\..\..\..\..\Software\uCOS-II\Source/os_q.c ****             OS_EventWaitListInit(pevent);                 /*      Initialize the wait list         
 276              		.loc 1 173 0
 277 00b8 7B69     		ldr	r3, [r7, #20]
 278 00ba 1800     		movs	r0, r3
 279 00bc FFF7FEFF 		bl	OS_EventWaitListInit
 280 00c0 0CE0     		b	.L12
 281              	.L13:
 174:..\..\..\..\..\..\Software\uCOS-II\Source/os_q.c ****         } else {
 175:..\..\..\..\..\..\Software\uCOS-II\Source/os_q.c ****             pevent->OSEventPtr = (void *)OSEventFreeList; /* No,  Return event control block on err
ARM GAS  C:\Users\ADMINI~1\AppData\Local\Temp\cc9sCsDg.s 			page 9


 282              		.loc 1 175 0
 283 00c2 0A4B     		ldr	r3, .L14+4
 284 00c4 1A68     		ldr	r2, [r3]
 285 00c6 7B69     		ldr	r3, [r7, #20]
 286 00c8 5A60     		str	r2, [r3, #4]
 176:..\..\..\..\..\..\Software\uCOS-II\Source/os_q.c ****             OSEventFreeList    = pevent;
 287              		.loc 1 176 0
 288 00ca 084B     		ldr	r3, .L14+4
 289 00cc 7A69     		ldr	r2, [r7, #20]
 290 00ce 1A60     		str	r2, [r3]
 177:..\..\..\..\..\..\Software\uCOS-II\Source/os_q.c ****             OS_EXIT_CRITICAL();
 291              		.loc 1 177 0
 292 00d0 3B69     		ldr	r3, [r7, #16]
 293 00d2 1800     		movs	r0, r3
 294 00d4 FFF7FEFF 		bl	OS_CPU_SR_Restore
 178:..\..\..\..\..\..\Software\uCOS-II\Source/os_q.c ****             pevent = (OS_EVENT *)0;
 295              		.loc 1 178 0
 296 00d8 0023     		movs	r3, #0
 297 00da 7B61     		str	r3, [r7, #20]
 298              	.L12:
 179:..\..\..\..\..\..\Software\uCOS-II\Source/os_q.c ****         }
 180:..\..\..\..\..\..\Software\uCOS-II\Source/os_q.c ****     }
 181:..\..\..\..\..\..\Software\uCOS-II\Source/os_q.c ****     return (pevent);
 299              		.loc 1 181 0
 300 00dc 7B69     		ldr	r3, [r7, #20]
 301              	.L10:
 182:..\..\..\..\..\..\Software\uCOS-II\Source/os_q.c **** }
 302              		.loc 1 182 0
 303 00de 1800     		movs	r0, r3
 304 00e0 BD46     		mov	sp, r7
 305 00e2 06B0     		add	sp, sp, #24
 306              		@ sp needed
 307 00e4 80BD     		pop	{r7, pc}
 308              	.L15:
 309 00e6 C046     		.align	2
 310              	.L14:
 311 00e8 00000000 		.word	OSIntNesting
 312 00ec 00000000 		.word	OSEventFreeList
 313 00f0 00000000 		.word	OSQFreeList
 314 00f4 00000000 		.word	.LC3
 315              		.cfi_endproc
 316              	.LFE2:
 317              		.size	OSQCreate, .-OSQCreate
 318              		.section	.text.OSQDel,"ax",%progbits
 319              		.align	2
 320              		.global	OSQDel
 321              		.code	16
 322              		.thumb_func
 323              		.type	OSQDel, %function
 324              	OSQDel:
 325              	.LFB3:
 183:..\..\..\..\..\..\Software\uCOS-II\Source/os_q.c **** /*$PAGE*/
 184:..\..\..\..\..\..\Software\uCOS-II\Source/os_q.c **** /*
 185:..\..\..\..\..\..\Software\uCOS-II\Source/os_q.c **** ***************************************************************************************************
 186:..\..\..\..\..\..\Software\uCOS-II\Source/os_q.c **** *                                       DELETE A MESSAGE QUEUE
 187:..\..\..\..\..\..\Software\uCOS-II\Source/os_q.c **** *
 188:..\..\..\..\..\..\Software\uCOS-II\Source/os_q.c **** * Description: This function deletes a message queue and readies all tasks pending on the queue.
ARM GAS  C:\Users\ADMINI~1\AppData\Local\Temp\cc9sCsDg.s 			page 10


 189:..\..\..\..\..\..\Software\uCOS-II\Source/os_q.c **** *
 190:..\..\..\..\..\..\Software\uCOS-II\Source/os_q.c **** * Arguments  : pevent        is a pointer to the event control block associated with the desired
 191:..\..\..\..\..\..\Software\uCOS-II\Source/os_q.c **** *                            queue.
 192:..\..\..\..\..\..\Software\uCOS-II\Source/os_q.c **** *
 193:..\..\..\..\..\..\Software\uCOS-II\Source/os_q.c **** *              opt           determines delete options as follows:
 194:..\..\..\..\..\..\Software\uCOS-II\Source/os_q.c **** *                            opt == OS_DEL_NO_PEND   Delete the queue ONLY if no task pending
 195:..\..\..\..\..\..\Software\uCOS-II\Source/os_q.c **** *                            opt == OS_DEL_ALWAYS    Deletes the queue even if tasks are waiting.
 196:..\..\..\..\..\..\Software\uCOS-II\Source/os_q.c **** *                                                    In this case, all the tasks pending will be re
 197:..\..\..\..\..\..\Software\uCOS-II\Source/os_q.c **** *
 198:..\..\..\..\..\..\Software\uCOS-II\Source/os_q.c **** *              perr          is a pointer to an error code that can contain one of the following va
 199:..\..\..\..\..\..\Software\uCOS-II\Source/os_q.c **** *                            OS_ERR_NONE             The call was successful and the queue was dele
 200:..\..\..\..\..\..\Software\uCOS-II\Source/os_q.c **** *                            OS_ERR_DEL_ISR          If you tried to delete the queue from an ISR
 201:..\..\..\..\..\..\Software\uCOS-II\Source/os_q.c **** *                            OS_ERR_INVALID_OPT      An invalid option was specified
 202:..\..\..\..\..\..\Software\uCOS-II\Source/os_q.c **** *                            OS_ERR_TASK_WAITING     One or more tasks were waiting on the queue
 203:..\..\..\..\..\..\Software\uCOS-II\Source/os_q.c **** *                            OS_ERR_EVENT_TYPE       If you didn't pass a pointer to a queue
 204:..\..\..\..\..\..\Software\uCOS-II\Source/os_q.c **** *                            OS_ERR_PEVENT_NULL      If 'pevent' is a NULL pointer.
 205:..\..\..\..\..\..\Software\uCOS-II\Source/os_q.c **** *
 206:..\..\..\..\..\..\Software\uCOS-II\Source/os_q.c **** * Returns    : pevent        upon error
 207:..\..\..\..\..\..\Software\uCOS-II\Source/os_q.c **** *              (OS_EVENT *)0 if the queue was successfully deleted.
 208:..\..\..\..\..\..\Software\uCOS-II\Source/os_q.c **** *
 209:..\..\..\..\..\..\Software\uCOS-II\Source/os_q.c **** * Note(s)    : 1) This function must be used with care.  Tasks that would normally expect the prese
 210:..\..\..\..\..\..\Software\uCOS-II\Source/os_q.c **** *                 the queue MUST check the return code of OSQPend().
 211:..\..\..\..\..\..\Software\uCOS-II\Source/os_q.c **** *              2) OSQAccept() callers will not know that the intended queue has been deleted unless
 212:..\..\..\..\..\..\Software\uCOS-II\Source/os_q.c **** *                 they check 'pevent' to see that it's a NULL pointer.
 213:..\..\..\..\..\..\Software\uCOS-II\Source/os_q.c **** *              3) This call can potentially disable interrupts for a long time.  The interrupt disa
 214:..\..\..\..\..\..\Software\uCOS-II\Source/os_q.c **** *                 time is directly proportional to the number of tasks waiting on the queue.
 215:..\..\..\..\..\..\Software\uCOS-II\Source/os_q.c **** *              4) Because ALL tasks pending on the queue will be readied, you MUST be careful in
 216:..\..\..\..\..\..\Software\uCOS-II\Source/os_q.c **** *                 applications where the queue is used for mutual exclusion because the resource(s)
 217:..\..\..\..\..\..\Software\uCOS-II\Source/os_q.c **** *                 will no longer be guarded by the queue.
 218:..\..\..\..\..\..\Software\uCOS-II\Source/os_q.c **** *              5) If the storage for the message queue was allocated dynamically (i.e. using a mall
 219:..\..\..\..\..\..\Software\uCOS-II\Source/os_q.c **** *                 type call) then your application MUST release the memory storage by call the coun
 220:..\..\..\..\..\..\Software\uCOS-II\Source/os_q.c **** *                 call of the dynamic allocation scheme used.  If the queue storage was created sta
 221:..\..\..\..\..\..\Software\uCOS-II\Source/os_q.c **** *                 then, the storage can be reused.
 222:..\..\..\..\..\..\Software\uCOS-II\Source/os_q.c **** *              6) All tasks that were waiting for the queue will be readied and returned an 
 223:..\..\..\..\..\..\Software\uCOS-II\Source/os_q.c **** *                 OS_ERR_PEND_ABORT if OSQDel() was called with OS_DEL_ALWAYS
 224:..\..\..\..\..\..\Software\uCOS-II\Source/os_q.c **** ***************************************************************************************************
 225:..\..\..\..\..\..\Software\uCOS-II\Source/os_q.c **** */
 226:..\..\..\..\..\..\Software\uCOS-II\Source/os_q.c **** 
 227:..\..\..\..\..\..\Software\uCOS-II\Source/os_q.c **** #if OS_Q_DEL_EN > 0u
 228:..\..\..\..\..\..\Software\uCOS-II\Source/os_q.c **** OS_EVENT  *OSQDel (OS_EVENT  *pevent,
 229:..\..\..\..\..\..\Software\uCOS-II\Source/os_q.c ****                    INT8U      opt,
 230:..\..\..\..\..\..\Software\uCOS-II\Source/os_q.c ****                    INT8U     *perr)
 231:..\..\..\..\..\..\Software\uCOS-II\Source/os_q.c **** {
 326              		.loc 1 231 0
 327              		.cfi_startproc
 328              		@ args = 0, pretend = 0, frame = 32
 329              		@ frame_needed = 1, uses_anonymous_args = 0
 330 0000 80B5     		push	{r7, lr}
 331              		.cfi_def_cfa_offset 8
 332              		.cfi_offset 7, -8
 333              		.cfi_offset 14, -4
 334 0002 88B0     		sub	sp, sp, #32
 335              		.cfi_def_cfa_offset 40
 336 0004 00AF     		add	r7, sp, #0
 337              		.cfi_def_cfa_register 7
 338 0006 F860     		str	r0, [r7, #12]
 339 0008 7A60     		str	r2, [r7, #4]
ARM GAS  C:\Users\ADMINI~1\AppData\Local\Temp\cc9sCsDg.s 			page 11


 340 000a 0B23     		movs	r3, #11
 341 000c FB18     		adds	r3, r7, r3
 342 000e 0A1C     		adds	r2, r1, #0
 343 0010 1A70     		strb	r2, [r3]
 232:..\..\..\..\..\..\Software\uCOS-II\Source/os_q.c ****     BOOLEAN    tasks_waiting;
 233:..\..\..\..\..\..\Software\uCOS-II\Source/os_q.c ****     OS_EVENT  *pevent_return;
 234:..\..\..\..\..\..\Software\uCOS-II\Source/os_q.c ****     OS_Q      *pq;
 235:..\..\..\..\..\..\Software\uCOS-II\Source/os_q.c **** #if OS_CRITICAL_METHOD == 3u                               /* Allocate storage for CPU status regis
 236:..\..\..\..\..\..\Software\uCOS-II\Source/os_q.c ****     OS_CPU_SR  cpu_sr = 0u;
 344              		.loc 1 236 0
 345 0012 0023     		movs	r3, #0
 346 0014 7B61     		str	r3, [r7, #20]
 237:..\..\..\..\..\..\Software\uCOS-II\Source/os_q.c **** #endif
 238:..\..\..\..\..\..\Software\uCOS-II\Source/os_q.c **** 
 239:..\..\..\..\..\..\Software\uCOS-II\Source/os_q.c **** 
 240:..\..\..\..\..\..\Software\uCOS-II\Source/os_q.c **** 
 241:..\..\..\..\..\..\Software\uCOS-II\Source/os_q.c **** #ifdef OS_SAFETY_CRITICAL
 242:..\..\..\..\..\..\Software\uCOS-II\Source/os_q.c ****     if (perr == (INT8U *)0) {
 243:..\..\..\..\..\..\Software\uCOS-II\Source/os_q.c ****         OS_SAFETY_CRITICAL_EXCEPTION();
 244:..\..\..\..\..\..\Software\uCOS-II\Source/os_q.c ****         return ((OS_EVENT *)0);
 245:..\..\..\..\..\..\Software\uCOS-II\Source/os_q.c ****     }
 246:..\..\..\..\..\..\Software\uCOS-II\Source/os_q.c **** #endif
 247:..\..\..\..\..\..\Software\uCOS-II\Source/os_q.c **** 
 248:..\..\..\..\..\..\Software\uCOS-II\Source/os_q.c **** #if OS_ARG_CHK_EN > 0u
 249:..\..\..\..\..\..\Software\uCOS-II\Source/os_q.c ****     if (pevent == (OS_EVENT *)0) {                         /* Validate 'pevent'                    
 347              		.loc 1 249 0
 348 0016 FB68     		ldr	r3, [r7, #12]
 349 0018 002B     		cmp	r3, #0
 350 001a 04D1     		bne	.L17
 250:..\..\..\..\..\..\Software\uCOS-II\Source/os_q.c ****         *perr = OS_ERR_PEVENT_NULL;
 351              		.loc 1 250 0
 352 001c 7B68     		ldr	r3, [r7, #4]
 353 001e 0422     		movs	r2, #4
 354 0020 1A70     		strb	r2, [r3]
 251:..\..\..\..\..\..\Software\uCOS-II\Source/os_q.c ****         return (pevent);
 355              		.loc 1 251 0
 356 0022 FB68     		ldr	r3, [r7, #12]
 357 0024 9DE0     		b	.L18
 358              	.L17:
 252:..\..\..\..\..\..\Software\uCOS-II\Source/os_q.c ****     }
 253:..\..\..\..\..\..\Software\uCOS-II\Source/os_q.c **** #endif
 254:..\..\..\..\..\..\Software\uCOS-II\Source/os_q.c ****     if (pevent->OSEventType != OS_EVENT_TYPE_Q) {          /* Validate event block type            
 359              		.loc 1 254 0
 360 0026 FB68     		ldr	r3, [r7, #12]
 361 0028 1B78     		ldrb	r3, [r3]
 362 002a 022B     		cmp	r3, #2
 363 002c 04D0     		beq	.L19
 255:..\..\..\..\..\..\Software\uCOS-II\Source/os_q.c ****         *perr = OS_ERR_EVENT_TYPE;
 364              		.loc 1 255 0
 365 002e 7B68     		ldr	r3, [r7, #4]
 366 0030 0122     		movs	r2, #1
 367 0032 1A70     		strb	r2, [r3]
 256:..\..\..\..\..\..\Software\uCOS-II\Source/os_q.c ****         return (pevent);
 368              		.loc 1 256 0
 369 0034 FB68     		ldr	r3, [r7, #12]
 370 0036 94E0     		b	.L18
 371              	.L19:
ARM GAS  C:\Users\ADMINI~1\AppData\Local\Temp\cc9sCsDg.s 			page 12


 257:..\..\..\..\..\..\Software\uCOS-II\Source/os_q.c ****     }
 258:..\..\..\..\..\..\Software\uCOS-II\Source/os_q.c ****     if (OSIntNesting > 0u) {                               /* See if called from ISR ...           
 372              		.loc 1 258 0
 373 0038 4C4B     		ldr	r3, .L33
 374 003a 1B78     		ldrb	r3, [r3]
 375 003c 002B     		cmp	r3, #0
 376 003e 04D0     		beq	.L20
 259:..\..\..\..\..\..\Software\uCOS-II\Source/os_q.c ****         *perr = OS_ERR_DEL_ISR;                            /* ... can't DELETE from an ISR         
 377              		.loc 1 259 0
 378 0040 7B68     		ldr	r3, [r7, #4]
 379 0042 0F22     		movs	r2, #15
 380 0044 1A70     		strb	r2, [r3]
 260:..\..\..\..\..\..\Software\uCOS-II\Source/os_q.c ****         return (pevent);
 381              		.loc 1 260 0
 382 0046 FB68     		ldr	r3, [r7, #12]
 383 0048 8BE0     		b	.L18
 384              	.L20:
 261:..\..\..\..\..\..\Software\uCOS-II\Source/os_q.c ****     }
 262:..\..\..\..\..\..\Software\uCOS-II\Source/os_q.c ****     OS_ENTER_CRITICAL();
 385              		.loc 1 262 0
 386 004a FFF7FEFF 		bl	OS_CPU_SR_Save
 387 004e 0300     		movs	r3, r0
 388 0050 7B61     		str	r3, [r7, #20]
 263:..\..\..\..\..\..\Software\uCOS-II\Source/os_q.c ****     if (pevent->OSEventGrp != 0u) {                        /* See if any tasks waiting on queue    
 389              		.loc 1 263 0
 390 0052 FB68     		ldr	r3, [r7, #12]
 391 0054 9B7A     		ldrb	r3, [r3, #10]
 392 0056 002B     		cmp	r3, #0
 393 0058 04D0     		beq	.L21
 264:..\..\..\..\..\..\Software\uCOS-II\Source/os_q.c ****         tasks_waiting = OS_TRUE;                           /* Yes                                  
 394              		.loc 1 264 0
 395 005a 1F23     		movs	r3, #31
 396 005c FB18     		adds	r3, r7, r3
 397 005e 0122     		movs	r2, #1
 398 0060 1A70     		strb	r2, [r3]
 399 0062 03E0     		b	.L22
 400              	.L21:
 265:..\..\..\..\..\..\Software\uCOS-II\Source/os_q.c ****     } else {
 266:..\..\..\..\..\..\Software\uCOS-II\Source/os_q.c ****         tasks_waiting = OS_FALSE;                          /* No                                   
 401              		.loc 1 266 0
 402 0064 1F23     		movs	r3, #31
 403 0066 FB18     		adds	r3, r7, r3
 404 0068 0022     		movs	r2, #0
 405 006a 1A70     		strb	r2, [r3]
 406              	.L22:
 267:..\..\..\..\..\..\Software\uCOS-II\Source/os_q.c ****     }
 268:..\..\..\..\..\..\Software\uCOS-II\Source/os_q.c ****     switch (opt) {
 407              		.loc 1 268 0
 408 006c 0B23     		movs	r3, #11
 409 006e FB18     		adds	r3, r7, r3
 410 0070 1B78     		ldrb	r3, [r3]
 411 0072 002B     		cmp	r3, #0
 412 0074 02D0     		beq	.L24
 413 0076 012B     		cmp	r3, #1
 414 0078 39D0     		beq	.L29
 415 007a 67E0     		b	.L32
 416              	.L24:
ARM GAS  C:\Users\ADMINI~1\AppData\Local\Temp\cc9sCsDg.s 			page 13


 269:..\..\..\..\..\..\Software\uCOS-II\Source/os_q.c ****         case OS_DEL_NO_PEND:                               /* Delete queue only if no task waiting 
 270:..\..\..\..\..\..\Software\uCOS-II\Source/os_q.c ****              if (tasks_waiting == OS_FALSE) {
 417              		.loc 1 270 0
 418 007c 1F23     		movs	r3, #31
 419 007e FB18     		adds	r3, r7, r3
 420 0080 1B78     		ldrb	r3, [r3]
 421 0082 002B     		cmp	r3, #0
 422 0084 23D1     		bne	.L26
 271:..\..\..\..\..\..\Software\uCOS-II\Source/os_q.c **** #if OS_EVENT_NAME_EN > 0u
 272:..\..\..\..\..\..\Software\uCOS-II\Source/os_q.c ****                  pevent->OSEventName    = (INT8U *)(void *)"?";
 423              		.loc 1 272 0
 424 0086 FB68     		ldr	r3, [r7, #12]
 425 0088 394A     		ldr	r2, .L33+4
 426 008a 5A61     		str	r2, [r3, #20]
 273:..\..\..\..\..\..\Software\uCOS-II\Source/os_q.c **** #endif
 274:..\..\..\..\..\..\Software\uCOS-II\Source/os_q.c ****                  pq                     = (OS_Q *)pevent->OSEventPtr;  /* Return OS_Q to free list 
 427              		.loc 1 274 0
 428 008c FB68     		ldr	r3, [r7, #12]
 429 008e 5B68     		ldr	r3, [r3, #4]
 430 0090 3B61     		str	r3, [r7, #16]
 275:..\..\..\..\..\..\Software\uCOS-II\Source/os_q.c ****                  pq->OSQPtr             = OSQFreeList;
 431              		.loc 1 275 0
 432 0092 384B     		ldr	r3, .L33+8
 433 0094 1A68     		ldr	r2, [r3]
 434 0096 3B69     		ldr	r3, [r7, #16]
 435 0098 1A60     		str	r2, [r3]
 276:..\..\..\..\..\..\Software\uCOS-II\Source/os_q.c ****                  OSQFreeList            = pq;
 436              		.loc 1 276 0
 437 009a 364B     		ldr	r3, .L33+8
 438 009c 3A69     		ldr	r2, [r7, #16]
 439 009e 1A60     		str	r2, [r3]
 277:..\..\..\..\..\..\Software\uCOS-II\Source/os_q.c ****                  pevent->OSEventType    = OS_EVENT_TYPE_UNUSED;
 440              		.loc 1 277 0
 441 00a0 FB68     		ldr	r3, [r7, #12]
 442 00a2 0022     		movs	r2, #0
 443 00a4 1A70     		strb	r2, [r3]
 278:..\..\..\..\..\..\Software\uCOS-II\Source/os_q.c ****                  pevent->OSEventPtr     = OSEventFreeList; /* Return Event Control Block to free li
 444              		.loc 1 278 0
 445 00a6 344B     		ldr	r3, .L33+12
 446 00a8 1A68     		ldr	r2, [r3]
 447 00aa FB68     		ldr	r3, [r7, #12]
 448 00ac 5A60     		str	r2, [r3, #4]
 279:..\..\..\..\..\..\Software\uCOS-II\Source/os_q.c ****                  pevent->OSEventCnt     = 0u;
 449              		.loc 1 279 0
 450 00ae FB68     		ldr	r3, [r7, #12]
 451 00b0 0022     		movs	r2, #0
 452 00b2 1A81     		strh	r2, [r3, #8]
 280:..\..\..\..\..\..\Software\uCOS-II\Source/os_q.c ****                  OSEventFreeList        = pevent;          /* Get next free event control block    
 453              		.loc 1 280 0
 454 00b4 304B     		ldr	r3, .L33+12
 455 00b6 FA68     		ldr	r2, [r7, #12]
 456 00b8 1A60     		str	r2, [r3]
 281:..\..\..\..\..\..\Software\uCOS-II\Source/os_q.c ****                  OS_EXIT_CRITICAL();
 457              		.loc 1 281 0
 458 00ba 7B69     		ldr	r3, [r7, #20]
 459 00bc 1800     		movs	r0, r3
 460 00be FFF7FEFF 		bl	OS_CPU_SR_Restore
ARM GAS  C:\Users\ADMINI~1\AppData\Local\Temp\cc9sCsDg.s 			page 14


 282:..\..\..\..\..\..\Software\uCOS-II\Source/os_q.c ****                  *perr                  = OS_ERR_NONE;
 461              		.loc 1 282 0
 462 00c2 7B68     		ldr	r3, [r7, #4]
 463 00c4 0022     		movs	r2, #0
 464 00c6 1A70     		strb	r2, [r3]
 283:..\..\..\..\..\..\Software\uCOS-II\Source/os_q.c ****                  pevent_return          = (OS_EVENT *)0;   /* Queue has been deleted               
 465              		.loc 1 283 0
 466 00c8 0023     		movs	r3, #0
 467 00ca BB61     		str	r3, [r7, #24]
 284:..\..\..\..\..\..\Software\uCOS-II\Source/os_q.c ****              } else {
 285:..\..\..\..\..\..\Software\uCOS-II\Source/os_q.c ****                  OS_EXIT_CRITICAL();
 286:..\..\..\..\..\..\Software\uCOS-II\Source/os_q.c ****                  *perr                  = OS_ERR_TASK_WAITING;
 287:..\..\..\..\..\..\Software\uCOS-II\Source/os_q.c ****                  pevent_return          = pevent;
 288:..\..\..\..\..\..\Software\uCOS-II\Source/os_q.c ****              }
 289:..\..\..\..\..\..\Software\uCOS-II\Source/os_q.c ****              break;
 468              		.loc 1 289 0
 469 00cc 48E0     		b	.L28
 470              	.L26:
 285:..\..\..\..\..\..\Software\uCOS-II\Source/os_q.c ****                  *perr                  = OS_ERR_TASK_WAITING;
 471              		.loc 1 285 0
 472 00ce 7B69     		ldr	r3, [r7, #20]
 473 00d0 1800     		movs	r0, r3
 474 00d2 FFF7FEFF 		bl	OS_CPU_SR_Restore
 286:..\..\..\..\..\..\Software\uCOS-II\Source/os_q.c ****                  pevent_return          = pevent;
 475              		.loc 1 286 0
 476 00d6 7B68     		ldr	r3, [r7, #4]
 477 00d8 4922     		movs	r2, #73
 478 00da 1A70     		strb	r2, [r3]
 287:..\..\..\..\..\..\Software\uCOS-II\Source/os_q.c ****              }
 479              		.loc 1 287 0
 480 00dc FB68     		ldr	r3, [r7, #12]
 481 00de BB61     		str	r3, [r7, #24]
 482              		.loc 1 289 0
 483 00e0 3EE0     		b	.L28
 484              	.L30:
 290:..\..\..\..\..\..\Software\uCOS-II\Source/os_q.c **** 
 291:..\..\..\..\..\..\Software\uCOS-II\Source/os_q.c ****         case OS_DEL_ALWAYS:                                /* Always delete the queue              
 292:..\..\..\..\..\..\Software\uCOS-II\Source/os_q.c ****              while (pevent->OSEventGrp != 0u) {            /* Ready ALL tasks waiting for queue    
 293:..\..\..\..\..\..\Software\uCOS-II\Source/os_q.c ****                  (void)OS_EventTaskRdy(pevent, (void *)0, OS_STAT_Q, OS_STAT_PEND_ABORT);
 485              		.loc 1 293 0
 486 00e2 F868     		ldr	r0, [r7, #12]
 487 00e4 0223     		movs	r3, #2
 488 00e6 0422     		movs	r2, #4
 489 00e8 0021     		movs	r1, #0
 490 00ea FFF7FEFF 		bl	OS_EventTaskRdy
 491              	.L29:
 292:..\..\..\..\..\..\Software\uCOS-II\Source/os_q.c ****                  (void)OS_EventTaskRdy(pevent, (void *)0, OS_STAT_Q, OS_STAT_PEND_ABORT);
 492              		.loc 1 292 0
 493 00ee FB68     		ldr	r3, [r7, #12]
 494 00f0 9B7A     		ldrb	r3, [r3, #10]
 495 00f2 002B     		cmp	r3, #0
 496 00f4 F5D1     		bne	.L30
 294:..\..\..\..\..\..\Software\uCOS-II\Source/os_q.c ****              }
 295:..\..\..\..\..\..\Software\uCOS-II\Source/os_q.c **** #if OS_EVENT_NAME_EN > 0u
 296:..\..\..\..\..\..\Software\uCOS-II\Source/os_q.c ****              pevent->OSEventName    = (INT8U *)(void *)"?";
 497              		.loc 1 296 0
 498 00f6 FB68     		ldr	r3, [r7, #12]
ARM GAS  C:\Users\ADMINI~1\AppData\Local\Temp\cc9sCsDg.s 			page 15


 499 00f8 1D4A     		ldr	r2, .L33+4
 500 00fa 5A61     		str	r2, [r3, #20]
 297:..\..\..\..\..\..\Software\uCOS-II\Source/os_q.c **** #endif
 298:..\..\..\..\..\..\Software\uCOS-II\Source/os_q.c ****              pq                     = (OS_Q *)pevent->OSEventPtr;   /* Return OS_Q to free list    
 501              		.loc 1 298 0
 502 00fc FB68     		ldr	r3, [r7, #12]
 503 00fe 5B68     		ldr	r3, [r3, #4]
 504 0100 3B61     		str	r3, [r7, #16]
 299:..\..\..\..\..\..\Software\uCOS-II\Source/os_q.c ****              pq->OSQPtr             = OSQFreeList;
 505              		.loc 1 299 0
 506 0102 1C4B     		ldr	r3, .L33+8
 507 0104 1A68     		ldr	r2, [r3]
 508 0106 3B69     		ldr	r3, [r7, #16]
 509 0108 1A60     		str	r2, [r3]
 300:..\..\..\..\..\..\Software\uCOS-II\Source/os_q.c ****              OSQFreeList            = pq;
 510              		.loc 1 300 0
 511 010a 1A4B     		ldr	r3, .L33+8
 512 010c 3A69     		ldr	r2, [r7, #16]
 513 010e 1A60     		str	r2, [r3]
 301:..\..\..\..\..\..\Software\uCOS-II\Source/os_q.c ****              pevent->OSEventType    = OS_EVENT_TYPE_UNUSED;
 514              		.loc 1 301 0
 515 0110 FB68     		ldr	r3, [r7, #12]
 516 0112 0022     		movs	r2, #0
 517 0114 1A70     		strb	r2, [r3]
 302:..\..\..\..\..\..\Software\uCOS-II\Source/os_q.c ****              pevent->OSEventPtr     = OSEventFreeList;     /* Return Event Control Block to free li
 518              		.loc 1 302 0
 519 0116 184B     		ldr	r3, .L33+12
 520 0118 1A68     		ldr	r2, [r3]
 521 011a FB68     		ldr	r3, [r7, #12]
 522 011c 5A60     		str	r2, [r3, #4]
 303:..\..\..\..\..\..\Software\uCOS-II\Source/os_q.c ****              pevent->OSEventCnt     = 0u;
 523              		.loc 1 303 0
 524 011e FB68     		ldr	r3, [r7, #12]
 525 0120 0022     		movs	r2, #0
 526 0122 1A81     		strh	r2, [r3, #8]
 304:..\..\..\..\..\..\Software\uCOS-II\Source/os_q.c ****              OSEventFreeList        = pevent;              /* Get next free event control block    
 527              		.loc 1 304 0
 528 0124 144B     		ldr	r3, .L33+12
 529 0126 FA68     		ldr	r2, [r7, #12]
 530 0128 1A60     		str	r2, [r3]
 305:..\..\..\..\..\..\Software\uCOS-II\Source/os_q.c ****              OS_EXIT_CRITICAL();
 531              		.loc 1 305 0
 532 012a 7B69     		ldr	r3, [r7, #20]
 533 012c 1800     		movs	r0, r3
 534 012e FFF7FEFF 		bl	OS_CPU_SR_Restore
 306:..\..\..\..\..\..\Software\uCOS-II\Source/os_q.c ****              if (tasks_waiting == OS_TRUE) {               /* Reschedule only if task(s) were waiti
 535              		.loc 1 306 0
 536 0132 1F23     		movs	r3, #31
 537 0134 FB18     		adds	r3, r7, r3
 538 0136 1B78     		ldrb	r3, [r3]
 539 0138 012B     		cmp	r3, #1
 540 013a 01D1     		bne	.L31
 307:..\..\..\..\..\..\Software\uCOS-II\Source/os_q.c ****                  OS_Sched();                               /* Find highest priority task ready to r
 541              		.loc 1 307 0
 542 013c FFF7FEFF 		bl	OS_Sched
 543              	.L31:
 308:..\..\..\..\..\..\Software\uCOS-II\Source/os_q.c ****              }
ARM GAS  C:\Users\ADMINI~1\AppData\Local\Temp\cc9sCsDg.s 			page 16


 309:..\..\..\..\..\..\Software\uCOS-II\Source/os_q.c ****              *perr                  = OS_ERR_NONE;
 544              		.loc 1 309 0
 545 0140 7B68     		ldr	r3, [r7, #4]
 546 0142 0022     		movs	r2, #0
 547 0144 1A70     		strb	r2, [r3]
 310:..\..\..\..\..\..\Software\uCOS-II\Source/os_q.c ****              pevent_return          = (OS_EVENT *)0;       /* Queue has been deleted               
 548              		.loc 1 310 0
 549 0146 0023     		movs	r3, #0
 550 0148 BB61     		str	r3, [r7, #24]
 311:..\..\..\..\..\..\Software\uCOS-II\Source/os_q.c ****              break;
 551              		.loc 1 311 0
 552 014a 09E0     		b	.L28
 553              	.L32:
 312:..\..\..\..\..\..\Software\uCOS-II\Source/os_q.c **** 
 313:..\..\..\..\..\..\Software\uCOS-II\Source/os_q.c ****         default:
 314:..\..\..\..\..\..\Software\uCOS-II\Source/os_q.c ****              OS_EXIT_CRITICAL();
 554              		.loc 1 314 0
 555 014c 7B69     		ldr	r3, [r7, #20]
 556 014e 1800     		movs	r0, r3
 557 0150 FFF7FEFF 		bl	OS_CPU_SR_Restore
 315:..\..\..\..\..\..\Software\uCOS-II\Source/os_q.c ****              *perr                  = OS_ERR_INVALID_OPT;
 558              		.loc 1 315 0
 559 0154 7B68     		ldr	r3, [r7, #4]
 560 0156 0722     		movs	r2, #7
 561 0158 1A70     		strb	r2, [r3]
 316:..\..\..\..\..\..\Software\uCOS-II\Source/os_q.c ****              pevent_return          = pevent;
 562              		.loc 1 316 0
 563 015a FB68     		ldr	r3, [r7, #12]
 564 015c BB61     		str	r3, [r7, #24]
 317:..\..\..\..\..\..\Software\uCOS-II\Source/os_q.c ****              break;
 565              		.loc 1 317 0
 566 015e C046     		nop
 567              	.L28:
 318:..\..\..\..\..\..\Software\uCOS-II\Source/os_q.c ****     }
 319:..\..\..\..\..\..\Software\uCOS-II\Source/os_q.c ****     return (pevent_return);
 568              		.loc 1 319 0
 569 0160 BB69     		ldr	r3, [r7, #24]
 570              	.L18:
 320:..\..\..\..\..\..\Software\uCOS-II\Source/os_q.c **** }
 571              		.loc 1 320 0
 572 0162 1800     		movs	r0, r3
 573 0164 BD46     		mov	sp, r7
 574 0166 08B0     		add	sp, sp, #32
 575              		@ sp needed
 576 0168 80BD     		pop	{r7, pc}
 577              	.L34:
 578 016a C046     		.align	2
 579              	.L33:
 580 016c 00000000 		.word	OSIntNesting
 581 0170 00000000 		.word	.LC3
 582 0174 00000000 		.word	OSQFreeList
 583 0178 00000000 		.word	OSEventFreeList
 584              		.cfi_endproc
 585              	.LFE3:
 586              		.size	OSQDel, .-OSQDel
 587              		.section	.text.OSQFlush,"ax",%progbits
 588              		.align	2
ARM GAS  C:\Users\ADMINI~1\AppData\Local\Temp\cc9sCsDg.s 			page 17


 589              		.global	OSQFlush
 590              		.code	16
 591              		.thumb_func
 592              		.type	OSQFlush, %function
 593              	OSQFlush:
 594              	.LFB4:
 321:..\..\..\..\..\..\Software\uCOS-II\Source/os_q.c **** #endif
 322:..\..\..\..\..\..\Software\uCOS-II\Source/os_q.c **** 
 323:..\..\..\..\..\..\Software\uCOS-II\Source/os_q.c **** /*$PAGE*/
 324:..\..\..\..\..\..\Software\uCOS-II\Source/os_q.c **** /*
 325:..\..\..\..\..\..\Software\uCOS-II\Source/os_q.c **** ***************************************************************************************************
 326:..\..\..\..\..\..\Software\uCOS-II\Source/os_q.c **** *                                             FLUSH QUEUE
 327:..\..\..\..\..\..\Software\uCOS-II\Source/os_q.c **** *
 328:..\..\..\..\..\..\Software\uCOS-II\Source/os_q.c **** * Description : This function is used to flush the contents of the message queue.
 329:..\..\..\..\..\..\Software\uCOS-II\Source/os_q.c **** *
 330:..\..\..\..\..\..\Software\uCOS-II\Source/os_q.c **** * Arguments   : none
 331:..\..\..\..\..\..\Software\uCOS-II\Source/os_q.c **** *
 332:..\..\..\..\..\..\Software\uCOS-II\Source/os_q.c **** * Returns     : OS_ERR_NONE         upon success
 333:..\..\..\..\..\..\Software\uCOS-II\Source/os_q.c **** *               OS_ERR_EVENT_TYPE   If you didn't pass a pointer to a queue
 334:..\..\..\..\..\..\Software\uCOS-II\Source/os_q.c **** *               OS_ERR_PEVENT_NULL  If 'pevent' is a NULL pointer
 335:..\..\..\..\..\..\Software\uCOS-II\Source/os_q.c **** *
 336:..\..\..\..\..\..\Software\uCOS-II\Source/os_q.c **** * WARNING     : You should use this function with great care because, when to flush the queue, you 
 337:..\..\..\..\..\..\Software\uCOS-II\Source/os_q.c **** *               the references to what the queue entries are pointing to and thus, you could cause
 338:..\..\..\..\..\..\Software\uCOS-II\Source/os_q.c **** *               'memory leaks'.  In other words, the data you are pointing to that's being referenc
 339:..\..\..\..\..\..\Software\uCOS-II\Source/os_q.c **** *               by the queue entries should, most likely, need to be de-allocated (i.e. freed).
 340:..\..\..\..\..\..\Software\uCOS-II\Source/os_q.c **** ***************************************************************************************************
 341:..\..\..\..\..\..\Software\uCOS-II\Source/os_q.c **** */
 342:..\..\..\..\..\..\Software\uCOS-II\Source/os_q.c **** 
 343:..\..\..\..\..\..\Software\uCOS-II\Source/os_q.c **** #if OS_Q_FLUSH_EN > 0u
 344:..\..\..\..\..\..\Software\uCOS-II\Source/os_q.c **** INT8U  OSQFlush (OS_EVENT *pevent)
 345:..\..\..\..\..\..\Software\uCOS-II\Source/os_q.c **** {
 595              		.loc 1 345 0
 596              		.cfi_startproc
 597              		@ args = 0, pretend = 0, frame = 16
 598              		@ frame_needed = 1, uses_anonymous_args = 0
 599 0000 80B5     		push	{r7, lr}
 600              		.cfi_def_cfa_offset 8
 601              		.cfi_offset 7, -8
 602              		.cfi_offset 14, -4
 603 0002 84B0     		sub	sp, sp, #16
 604              		.cfi_def_cfa_offset 24
 605 0004 00AF     		add	r7, sp, #0
 606              		.cfi_def_cfa_register 7
 607 0006 7860     		str	r0, [r7, #4]
 346:..\..\..\..\..\..\Software\uCOS-II\Source/os_q.c ****     OS_Q      *pq;
 347:..\..\..\..\..\..\Software\uCOS-II\Source/os_q.c **** #if OS_CRITICAL_METHOD == 3u                          /* Allocate storage for CPU status register  
 348:..\..\..\..\..\..\Software\uCOS-II\Source/os_q.c ****     OS_CPU_SR  cpu_sr = 0u;
 608              		.loc 1 348 0
 609 0008 0023     		movs	r3, #0
 610 000a FB60     		str	r3, [r7, #12]
 349:..\..\..\..\..\..\Software\uCOS-II\Source/os_q.c **** #endif
 350:..\..\..\..\..\..\Software\uCOS-II\Source/os_q.c **** 
 351:..\..\..\..\..\..\Software\uCOS-II\Source/os_q.c **** 
 352:..\..\..\..\..\..\Software\uCOS-II\Source/os_q.c **** 
 353:..\..\..\..\..\..\Software\uCOS-II\Source/os_q.c **** #if OS_ARG_CHK_EN > 0u
 354:..\..\..\..\..\..\Software\uCOS-II\Source/os_q.c ****     if (pevent == (OS_EVENT *)0) {                    /* Validate 'pevent'                         
 611              		.loc 1 354 0
ARM GAS  C:\Users\ADMINI~1\AppData\Local\Temp\cc9sCsDg.s 			page 18


 612 000c 7B68     		ldr	r3, [r7, #4]
 613 000e 002B     		cmp	r3, #0
 614 0010 01D1     		bne	.L36
 355:..\..\..\..\..\..\Software\uCOS-II\Source/os_q.c ****         return (OS_ERR_PEVENT_NULL);
 615              		.loc 1 355 0
 616 0012 0423     		movs	r3, #4
 617 0014 1CE0     		b	.L37
 618              	.L36:
 356:..\..\..\..\..\..\Software\uCOS-II\Source/os_q.c ****     }
 357:..\..\..\..\..\..\Software\uCOS-II\Source/os_q.c ****     if (pevent->OSEventType != OS_EVENT_TYPE_Q) {     /* Validate event block type                 
 619              		.loc 1 357 0
 620 0016 7B68     		ldr	r3, [r7, #4]
 621 0018 1B78     		ldrb	r3, [r3]
 622 001a 022B     		cmp	r3, #2
 623 001c 01D0     		beq	.L38
 358:..\..\..\..\..\..\Software\uCOS-II\Source/os_q.c ****         return (OS_ERR_EVENT_TYPE);
 624              		.loc 1 358 0
 625 001e 0123     		movs	r3, #1
 626 0020 16E0     		b	.L37
 627              	.L38:
 359:..\..\..\..\..\..\Software\uCOS-II\Source/os_q.c ****     }
 360:..\..\..\..\..\..\Software\uCOS-II\Source/os_q.c **** #endif
 361:..\..\..\..\..\..\Software\uCOS-II\Source/os_q.c ****     OS_ENTER_CRITICAL();
 628              		.loc 1 361 0
 629 0022 FFF7FEFF 		bl	OS_CPU_SR_Save
 630 0026 0300     		movs	r3, r0
 631 0028 FB60     		str	r3, [r7, #12]
 362:..\..\..\..\..\..\Software\uCOS-II\Source/os_q.c ****     pq             = (OS_Q *)pevent->OSEventPtr;      /* Point to queue storage structure          
 632              		.loc 1 362 0
 633 002a 7B68     		ldr	r3, [r7, #4]
 634 002c 5B68     		ldr	r3, [r3, #4]
 635 002e BB60     		str	r3, [r7, #8]
 363:..\..\..\..\..\..\Software\uCOS-II\Source/os_q.c ****     pq->OSQIn      = pq->OSQStart;
 636              		.loc 1 363 0
 637 0030 BB68     		ldr	r3, [r7, #8]
 638 0032 5A68     		ldr	r2, [r3, #4]
 639 0034 BB68     		ldr	r3, [r7, #8]
 640 0036 DA60     		str	r2, [r3, #12]
 364:..\..\..\..\..\..\Software\uCOS-II\Source/os_q.c ****     pq->OSQOut     = pq->OSQStart;
 641              		.loc 1 364 0
 642 0038 BB68     		ldr	r3, [r7, #8]
 643 003a 5A68     		ldr	r2, [r3, #4]
 644 003c BB68     		ldr	r3, [r7, #8]
 645 003e 1A61     		str	r2, [r3, #16]
 365:..\..\..\..\..\..\Software\uCOS-II\Source/os_q.c ****     pq->OSQEntries = 0u;
 646              		.loc 1 365 0
 647 0040 BB68     		ldr	r3, [r7, #8]
 648 0042 0022     		movs	r2, #0
 649 0044 DA82     		strh	r2, [r3, #22]
 366:..\..\..\..\..\..\Software\uCOS-II\Source/os_q.c ****     OS_EXIT_CRITICAL();
 650              		.loc 1 366 0
 651 0046 FB68     		ldr	r3, [r7, #12]
 652 0048 1800     		movs	r0, r3
 653 004a FFF7FEFF 		bl	OS_CPU_SR_Restore
 367:..\..\..\..\..\..\Software\uCOS-II\Source/os_q.c ****     return (OS_ERR_NONE);
 654              		.loc 1 367 0
 655 004e 0023     		movs	r3, #0
ARM GAS  C:\Users\ADMINI~1\AppData\Local\Temp\cc9sCsDg.s 			page 19


 656              	.L37:
 368:..\..\..\..\..\..\Software\uCOS-II\Source/os_q.c **** }
 657              		.loc 1 368 0
 658 0050 1800     		movs	r0, r3
 659 0052 BD46     		mov	sp, r7
 660 0054 04B0     		add	sp, sp, #16
 661              		@ sp needed
 662 0056 80BD     		pop	{r7, pc}
 663              		.cfi_endproc
 664              	.LFE4:
 665              		.size	OSQFlush, .-OSQFlush
 666              		.section	.text.OSQPend,"ax",%progbits
 667              		.align	2
 668              		.global	OSQPend
 669              		.code	16
 670              		.thumb_func
 671              		.type	OSQPend, %function
 672              	OSQPend:
 673              	.LFB5:
 369:..\..\..\..\..\..\Software\uCOS-II\Source/os_q.c **** #endif
 370:..\..\..\..\..\..\Software\uCOS-II\Source/os_q.c **** 
 371:..\..\..\..\..\..\Software\uCOS-II\Source/os_q.c **** /*$PAGE*/
 372:..\..\..\..\..\..\Software\uCOS-II\Source/os_q.c **** /*
 373:..\..\..\..\..\..\Software\uCOS-II\Source/os_q.c **** ***************************************************************************************************
 374:..\..\..\..\..\..\Software\uCOS-II\Source/os_q.c **** *                                    PEND ON A QUEUE FOR A MESSAGE
 375:..\..\..\..\..\..\Software\uCOS-II\Source/os_q.c **** *
 376:..\..\..\..\..\..\Software\uCOS-II\Source/os_q.c **** * Description: This function waits for a message to be sent to a queue
 377:..\..\..\..\..\..\Software\uCOS-II\Source/os_q.c **** *
 378:..\..\..\..\..\..\Software\uCOS-II\Source/os_q.c **** * Arguments  : pevent        is a pointer to the event control block associated with the desired qu
 379:..\..\..\..\..\..\Software\uCOS-II\Source/os_q.c **** *
 380:..\..\..\..\..\..\Software\uCOS-II\Source/os_q.c **** *              timeout       is an optional timeout period (in clock ticks).  If non-zero, your tas
 381:..\..\..\..\..\..\Software\uCOS-II\Source/os_q.c **** *                            wait for a message to arrive at the queue up to the amount of time
 382:..\..\..\..\..\..\Software\uCOS-II\Source/os_q.c **** *                            specified by this argument.  If you specify 0, however, your task will
 383:..\..\..\..\..\..\Software\uCOS-II\Source/os_q.c **** *                            forever at the specified queue or, until a message arrives.
 384:..\..\..\..\..\..\Software\uCOS-II\Source/os_q.c **** *
 385:..\..\..\..\..\..\Software\uCOS-II\Source/os_q.c **** *              perr          is a pointer to where an error message will be deposited.  Possible er
 386:..\..\..\..\..\..\Software\uCOS-II\Source/os_q.c **** *                            messages are:
 387:..\..\..\..\..\..\Software\uCOS-II\Source/os_q.c **** *
 388:..\..\..\..\..\..\Software\uCOS-II\Source/os_q.c **** *                            OS_ERR_NONE         The call was successful and your task received a
 389:..\..\..\..\..\..\Software\uCOS-II\Source/os_q.c **** *                                                message.
 390:..\..\..\..\..\..\Software\uCOS-II\Source/os_q.c **** *                            OS_ERR_TIMEOUT      A message was not received within the specified 't
 391:..\..\..\..\..\..\Software\uCOS-II\Source/os_q.c **** *                            OS_ERR_PEND_ABORT   The wait on the queue was aborted.
 392:..\..\..\..\..\..\Software\uCOS-II\Source/os_q.c **** *                            OS_ERR_EVENT_TYPE   You didn't pass a pointer to a queue
 393:..\..\..\..\..\..\Software\uCOS-II\Source/os_q.c **** *                            OS_ERR_PEVENT_NULL  If 'pevent' is a NULL pointer
 394:..\..\..\..\..\..\Software\uCOS-II\Source/os_q.c **** *                            OS_ERR_PEND_ISR     If you called this function from an ISR and the re
 395:..\..\..\..\..\..\Software\uCOS-II\Source/os_q.c **** *                                                would lead to a suspension.
 396:..\..\..\..\..\..\Software\uCOS-II\Source/os_q.c **** *                            OS_ERR_PEND_LOCKED  If you called this function with the scheduler is 
 397:..\..\..\..\..\..\Software\uCOS-II\Source/os_q.c **** *
 398:..\..\..\..\..\..\Software\uCOS-II\Source/os_q.c **** * Returns    : != (void *)0  is a pointer to the message received
 399:..\..\..\..\..\..\Software\uCOS-II\Source/os_q.c **** *              == (void *)0  if you received a NULL pointer message or,
 400:..\..\..\..\..\..\Software\uCOS-II\Source/os_q.c **** *                            if no message was received or,
 401:..\..\..\..\..\..\Software\uCOS-II\Source/os_q.c **** *                            if 'pevent' is a NULL pointer or,
 402:..\..\..\..\..\..\Software\uCOS-II\Source/os_q.c **** *                            if you didn't pass a pointer to a queue.
 403:..\..\..\..\..\..\Software\uCOS-II\Source/os_q.c **** *
 404:..\..\..\..\..\..\Software\uCOS-II\Source/os_q.c **** * Note(s)    : As of V2.60, this function allows you to receive NULL pointer messages.
 405:..\..\..\..\..\..\Software\uCOS-II\Source/os_q.c **** ***************************************************************************************************
 406:..\..\..\..\..\..\Software\uCOS-II\Source/os_q.c **** */
ARM GAS  C:\Users\ADMINI~1\AppData\Local\Temp\cc9sCsDg.s 			page 20


 407:..\..\..\..\..\..\Software\uCOS-II\Source/os_q.c **** 
 408:..\..\..\..\..\..\Software\uCOS-II\Source/os_q.c **** void  *OSQPend (OS_EVENT  *pevent,
 409:..\..\..\..\..\..\Software\uCOS-II\Source/os_q.c ****                 INT32U     timeout,
 410:..\..\..\..\..\..\Software\uCOS-II\Source/os_q.c ****                 INT8U     *perr)
 411:..\..\..\..\..\..\Software\uCOS-II\Source/os_q.c **** {
 674              		.loc 1 411 0
 675              		.cfi_startproc
 676              		@ args = 0, pretend = 0, frame = 32
 677              		@ frame_needed = 1, uses_anonymous_args = 0
 678 0000 80B5     		push	{r7, lr}
 679              		.cfi_def_cfa_offset 8
 680              		.cfi_offset 7, -8
 681              		.cfi_offset 14, -4
 682 0002 88B0     		sub	sp, sp, #32
 683              		.cfi_def_cfa_offset 40
 684 0004 00AF     		add	r7, sp, #0
 685              		.cfi_def_cfa_register 7
 686 0006 F860     		str	r0, [r7, #12]
 687 0008 B960     		str	r1, [r7, #8]
 688 000a 7A60     		str	r2, [r7, #4]
 412:..\..\..\..\..\..\Software\uCOS-II\Source/os_q.c ****     void      *pmsg;
 413:..\..\..\..\..\..\Software\uCOS-II\Source/os_q.c ****     OS_Q      *pq;
 414:..\..\..\..\..\..\Software\uCOS-II\Source/os_q.c **** #if OS_CRITICAL_METHOD == 3u                     /* Allocate storage for CPU status register       
 415:..\..\..\..\..\..\Software\uCOS-II\Source/os_q.c ****     OS_CPU_SR  cpu_sr = 0u;
 689              		.loc 1 415 0
 690 000c 0023     		movs	r3, #0
 691 000e BB61     		str	r3, [r7, #24]
 416:..\..\..\..\..\..\Software\uCOS-II\Source/os_q.c **** #endif
 417:..\..\..\..\..\..\Software\uCOS-II\Source/os_q.c **** 
 418:..\..\..\..\..\..\Software\uCOS-II\Source/os_q.c **** 
 419:..\..\..\..\..\..\Software\uCOS-II\Source/os_q.c **** 
 420:..\..\..\..\..\..\Software\uCOS-II\Source/os_q.c **** #ifdef OS_SAFETY_CRITICAL
 421:..\..\..\..\..\..\Software\uCOS-II\Source/os_q.c ****     if (perr == (INT8U *)0) {
 422:..\..\..\..\..\..\Software\uCOS-II\Source/os_q.c ****         OS_SAFETY_CRITICAL_EXCEPTION();
 423:..\..\..\..\..\..\Software\uCOS-II\Source/os_q.c ****         return ((void *)0);
 424:..\..\..\..\..\..\Software\uCOS-II\Source/os_q.c ****     }
 425:..\..\..\..\..\..\Software\uCOS-II\Source/os_q.c **** #endif
 426:..\..\..\..\..\..\Software\uCOS-II\Source/os_q.c **** 
 427:..\..\..\..\..\..\Software\uCOS-II\Source/os_q.c **** #if OS_ARG_CHK_EN > 0u
 428:..\..\..\..\..\..\Software\uCOS-II\Source/os_q.c ****     if (pevent == (OS_EVENT *)0) {               /* Validate 'pevent'                              
 692              		.loc 1 428 0
 693 0010 FB68     		ldr	r3, [r7, #12]
 694 0012 002B     		cmp	r3, #0
 695 0014 04D1     		bne	.L40
 429:..\..\..\..\..\..\Software\uCOS-II\Source/os_q.c ****         *perr = OS_ERR_PEVENT_NULL;
 696              		.loc 1 429 0
 697 0016 7B68     		ldr	r3, [r7, #4]
 698 0018 0422     		movs	r2, #4
 699 001a 1A70     		strb	r2, [r3]
 430:..\..\..\..\..\..\Software\uCOS-II\Source/os_q.c ****         return ((void *)0);
 700              		.loc 1 430 0
 701 001c 0023     		movs	r3, #0
 702 001e A6E0     		b	.L41
 703              	.L40:
 431:..\..\..\..\..\..\Software\uCOS-II\Source/os_q.c ****     }
 432:..\..\..\..\..\..\Software\uCOS-II\Source/os_q.c **** #endif
 433:..\..\..\..\..\..\Software\uCOS-II\Source/os_q.c ****     if (pevent->OSEventType != OS_EVENT_TYPE_Q) {/* Validate event block type                      
ARM GAS  C:\Users\ADMINI~1\AppData\Local\Temp\cc9sCsDg.s 			page 21


 704              		.loc 1 433 0
 705 0020 FB68     		ldr	r3, [r7, #12]
 706 0022 1B78     		ldrb	r3, [r3]
 707 0024 022B     		cmp	r3, #2
 708 0026 04D0     		beq	.L42
 434:..\..\..\..\..\..\Software\uCOS-II\Source/os_q.c ****         *perr = OS_ERR_EVENT_TYPE;
 709              		.loc 1 434 0
 710 0028 7B68     		ldr	r3, [r7, #4]
 711 002a 0122     		movs	r2, #1
 712 002c 1A70     		strb	r2, [r3]
 435:..\..\..\..\..\..\Software\uCOS-II\Source/os_q.c ****         return ((void *)0);
 713              		.loc 1 435 0
 714 002e 0023     		movs	r3, #0
 715 0030 9DE0     		b	.L41
 716              	.L42:
 436:..\..\..\..\..\..\Software\uCOS-II\Source/os_q.c ****     }
 437:..\..\..\..\..\..\Software\uCOS-II\Source/os_q.c ****     if (OSIntNesting > 0u) {                     /* See if called from ISR ...                     
 717              		.loc 1 437 0
 718 0032 514B     		ldr	r3, .L52
 719 0034 1B78     		ldrb	r3, [r3]
 720 0036 002B     		cmp	r3, #0
 721 0038 04D0     		beq	.L43
 438:..\..\..\..\..\..\Software\uCOS-II\Source/os_q.c ****         *perr = OS_ERR_PEND_ISR;                 /* ... can't PEND from an ISR                     
 722              		.loc 1 438 0
 723 003a 7B68     		ldr	r3, [r7, #4]
 724 003c 0222     		movs	r2, #2
 725 003e 1A70     		strb	r2, [r3]
 439:..\..\..\..\..\..\Software\uCOS-II\Source/os_q.c ****         return ((void *)0);
 726              		.loc 1 439 0
 727 0040 0023     		movs	r3, #0
 728 0042 94E0     		b	.L41
 729              	.L43:
 440:..\..\..\..\..\..\Software\uCOS-II\Source/os_q.c ****     }
 441:..\..\..\..\..\..\Software\uCOS-II\Source/os_q.c ****     if (OSLockNesting > 0u) {                    /* See if called with scheduler locked ...        
 730              		.loc 1 441 0
 731 0044 4D4B     		ldr	r3, .L52+4
 732 0046 1B78     		ldrb	r3, [r3]
 733 0048 002B     		cmp	r3, #0
 734 004a 04D0     		beq	.L44
 442:..\..\..\..\..\..\Software\uCOS-II\Source/os_q.c ****         *perr = OS_ERR_PEND_LOCKED;              /* ... can't PEND when locked                     
 735              		.loc 1 442 0
 736 004c 7B68     		ldr	r3, [r7, #4]
 737 004e 0D22     		movs	r2, #13
 738 0050 1A70     		strb	r2, [r3]
 443:..\..\..\..\..\..\Software\uCOS-II\Source/os_q.c ****         return ((void *)0);
 739              		.loc 1 443 0
 740 0052 0023     		movs	r3, #0
 741 0054 8BE0     		b	.L41
 742              	.L44:
 444:..\..\..\..\..\..\Software\uCOS-II\Source/os_q.c ****     }
 445:..\..\..\..\..\..\Software\uCOS-II\Source/os_q.c ****     OS_ENTER_CRITICAL();
 743              		.loc 1 445 0
 744 0056 FFF7FEFF 		bl	OS_CPU_SR_Save
 745 005a 0300     		movs	r3, r0
 746 005c BB61     		str	r3, [r7, #24]
 446:..\..\..\..\..\..\Software\uCOS-II\Source/os_q.c ****     pq = (OS_Q *)pevent->OSEventPtr;             /* Point at queue control block                   
 747              		.loc 1 446 0
ARM GAS  C:\Users\ADMINI~1\AppData\Local\Temp\cc9sCsDg.s 			page 22


 748 005e FB68     		ldr	r3, [r7, #12]
 749 0060 5B68     		ldr	r3, [r3, #4]
 750 0062 7B61     		str	r3, [r7, #20]
 447:..\..\..\..\..\..\Software\uCOS-II\Source/os_q.c ****     if (pq->OSQEntries > 0u) {                   /* See if any messages in the queue               
 751              		.loc 1 447 0
 752 0064 7B69     		ldr	r3, [r7, #20]
 753 0066 DB8A     		ldrh	r3, [r3, #22]
 754 0068 002B     		cmp	r3, #0
 755 006a 1FD0     		beq	.L45
 448:..\..\..\..\..\..\Software\uCOS-II\Source/os_q.c ****         pmsg = *pq->OSQOut++;                    /* Yes, extract oldest message from the queue     
 756              		.loc 1 448 0
 757 006c 7B69     		ldr	r3, [r7, #20]
 758 006e 1B69     		ldr	r3, [r3, #16]
 759 0070 191D     		adds	r1, r3, #4
 760 0072 7A69     		ldr	r2, [r7, #20]
 761 0074 1161     		str	r1, [r2, #16]
 762 0076 1B68     		ldr	r3, [r3]
 763 0078 FB61     		str	r3, [r7, #28]
 449:..\..\..\..\..\..\Software\uCOS-II\Source/os_q.c ****         pq->OSQEntries--;                        /* Update the number of entries in the queue      
 764              		.loc 1 449 0
 765 007a 7B69     		ldr	r3, [r7, #20]
 766 007c DB8A     		ldrh	r3, [r3, #22]
 767 007e 013B     		subs	r3, r3, #1
 768 0080 9AB2     		uxth	r2, r3
 769 0082 7B69     		ldr	r3, [r7, #20]
 770 0084 DA82     		strh	r2, [r3, #22]
 450:..\..\..\..\..\..\Software\uCOS-II\Source/os_q.c ****         if (pq->OSQOut == pq->OSQEnd) {          /* Wrap OUT pointer if we are at the end of the qu
 771              		.loc 1 450 0
 772 0086 7B69     		ldr	r3, [r7, #20]
 773 0088 1A69     		ldr	r2, [r3, #16]
 774 008a 7B69     		ldr	r3, [r7, #20]
 775 008c 9B68     		ldr	r3, [r3, #8]
 776 008e 9A42     		cmp	r2, r3
 777 0090 03D1     		bne	.L46
 451:..\..\..\..\..\..\Software\uCOS-II\Source/os_q.c ****             pq->OSQOut = pq->OSQStart;
 778              		.loc 1 451 0
 779 0092 7B69     		ldr	r3, [r7, #20]
 780 0094 5A68     		ldr	r2, [r3, #4]
 781 0096 7B69     		ldr	r3, [r7, #20]
 782 0098 1A61     		str	r2, [r3, #16]
 783              	.L46:
 452:..\..\..\..\..\..\Software\uCOS-II\Source/os_q.c ****         }
 453:..\..\..\..\..\..\Software\uCOS-II\Source/os_q.c ****         OS_EXIT_CRITICAL();
 784              		.loc 1 453 0
 785 009a BB69     		ldr	r3, [r7, #24]
 786 009c 1800     		movs	r0, r3
 787 009e FFF7FEFF 		bl	OS_CPU_SR_Restore
 454:..\..\..\..\..\..\Software\uCOS-II\Source/os_q.c ****         *perr = OS_ERR_NONE;
 788              		.loc 1 454 0
 789 00a2 7B68     		ldr	r3, [r7, #4]
 790 00a4 0022     		movs	r2, #0
 791 00a6 1A70     		strb	r2, [r3]
 455:..\..\..\..\..\..\Software\uCOS-II\Source/os_q.c ****         return (pmsg);                           /* Return message received                        
 792              		.loc 1 455 0
 793 00a8 FB69     		ldr	r3, [r7, #28]
 794 00aa 60E0     		b	.L41
 795              	.L45:
ARM GAS  C:\Users\ADMINI~1\AppData\Local\Temp\cc9sCsDg.s 			page 23


 456:..\..\..\..\..\..\Software\uCOS-II\Source/os_q.c ****     }
 457:..\..\..\..\..\..\Software\uCOS-II\Source/os_q.c ****     OSTCBCur->OSTCBStat     |= OS_STAT_Q;        /* Task will have to pend for a message to be post
 796              		.loc 1 457 0
 797 00ac 344B     		ldr	r3, .L52+8
 798 00ae 1A68     		ldr	r2, [r3]
 799 00b0 334B     		ldr	r3, .L52+8
 800 00b2 1B68     		ldr	r3, [r3]
 801 00b4 3421     		movs	r1, #52
 802 00b6 5B5C     		ldrb	r3, [r3, r1]
 803 00b8 0421     		movs	r1, #4
 804 00ba 0B43     		orrs	r3, r1
 805 00bc D9B2     		uxtb	r1, r3
 806 00be 3423     		movs	r3, #52
 807 00c0 D154     		strb	r1, [r2, r3]
 458:..\..\..\..\..\..\Software\uCOS-II\Source/os_q.c ****     OSTCBCur->OSTCBStatPend  = OS_STAT_PEND_OK;
 808              		.loc 1 458 0
 809 00c2 2F4B     		ldr	r3, .L52+8
 810 00c4 1B68     		ldr	r3, [r3]
 811 00c6 3522     		movs	r2, #53
 812 00c8 0021     		movs	r1, #0
 813 00ca 9954     		strb	r1, [r3, r2]
 459:..\..\..\..\..\..\Software\uCOS-II\Source/os_q.c ****     OSTCBCur->OSTCBDly       = timeout;          /* Load timeout into TCB                          
 814              		.loc 1 459 0
 815 00cc 2C4B     		ldr	r3, .L52+8
 816 00ce 1B68     		ldr	r3, [r3]
 817 00d0 BA68     		ldr	r2, [r7, #8]
 818 00d2 1A63     		str	r2, [r3, #48]
 460:..\..\..\..\..\..\Software\uCOS-II\Source/os_q.c ****     OS_EventTaskWait(pevent);                    /* Suspend task until event or timeout occurs     
 819              		.loc 1 460 0
 820 00d4 FB68     		ldr	r3, [r7, #12]
 821 00d6 1800     		movs	r0, r3
 822 00d8 FFF7FEFF 		bl	OS_EventTaskWait
 461:..\..\..\..\..\..\Software\uCOS-II\Source/os_q.c ****     OS_EXIT_CRITICAL();
 823              		.loc 1 461 0
 824 00dc BB69     		ldr	r3, [r7, #24]
 825 00de 1800     		movs	r0, r3
 826 00e0 FFF7FEFF 		bl	OS_CPU_SR_Restore
 462:..\..\..\..\..\..\Software\uCOS-II\Source/os_q.c ****     OS_Sched();                                  /* Find next highest priority task ready to run   
 827              		.loc 1 462 0
 828 00e4 FFF7FEFF 		bl	OS_Sched
 463:..\..\..\..\..\..\Software\uCOS-II\Source/os_q.c ****     OS_ENTER_CRITICAL();
 829              		.loc 1 463 0
 830 00e8 FFF7FEFF 		bl	OS_CPU_SR_Save
 831 00ec 0300     		movs	r3, r0
 832 00ee BB61     		str	r3, [r7, #24]
 464:..\..\..\..\..\..\Software\uCOS-II\Source/os_q.c ****     switch (OSTCBCur->OSTCBStatPend) {                /* See if we timed-out or aborted            
 833              		.loc 1 464 0
 834 00f0 234B     		ldr	r3, .L52+8
 835 00f2 1B68     		ldr	r3, [r3]
 836 00f4 3522     		movs	r2, #53
 837 00f6 9B5C     		ldrb	r3, [r3, r2]
 838 00f8 002B     		cmp	r3, #0
 839 00fa 02D0     		beq	.L48
 840 00fc 022B     		cmp	r3, #2
 841 00fe 08D0     		beq	.L49
 842 0100 0DE0     		b	.L51
 843              	.L48:
ARM GAS  C:\Users\ADMINI~1\AppData\Local\Temp\cc9sCsDg.s 			page 24


 465:..\..\..\..\..\..\Software\uCOS-II\Source/os_q.c ****         case OS_STAT_PEND_OK:                         /* Extract message from TCB (Put there by QPo
 466:..\..\..\..\..\..\Software\uCOS-II\Source/os_q.c ****              pmsg =  OSTCBCur->OSTCBMsg;
 844              		.loc 1 466 0
 845 0102 1F4B     		ldr	r3, .L52+8
 846 0104 1B68     		ldr	r3, [r3]
 847 0106 5B6A     		ldr	r3, [r3, #36]
 848 0108 FB61     		str	r3, [r7, #28]
 467:..\..\..\..\..\..\Software\uCOS-II\Source/os_q.c ****             *perr =  OS_ERR_NONE;
 849              		.loc 1 467 0
 850 010a 7B68     		ldr	r3, [r7, #4]
 851 010c 0022     		movs	r2, #0
 852 010e 1A70     		strb	r2, [r3]
 468:..\..\..\..\..\..\Software\uCOS-II\Source/os_q.c ****              break;
 853              		.loc 1 468 0
 854 0110 12E0     		b	.L50
 855              	.L49:
 469:..\..\..\..\..\..\Software\uCOS-II\Source/os_q.c **** 
 470:..\..\..\..\..\..\Software\uCOS-II\Source/os_q.c ****         case OS_STAT_PEND_ABORT:
 471:..\..\..\..\..\..\Software\uCOS-II\Source/os_q.c ****              pmsg = (void *)0;
 856              		.loc 1 471 0
 857 0112 0023     		movs	r3, #0
 858 0114 FB61     		str	r3, [r7, #28]
 472:..\..\..\..\..\..\Software\uCOS-II\Source/os_q.c ****             *perr =  OS_ERR_PEND_ABORT;               /* Indicate that we aborted                  
 859              		.loc 1 472 0
 860 0116 7B68     		ldr	r3, [r7, #4]
 861 0118 0E22     		movs	r2, #14
 862 011a 1A70     		strb	r2, [r3]
 473:..\..\..\..\..\..\Software\uCOS-II\Source/os_q.c ****              break;
 863              		.loc 1 473 0
 864 011c 0CE0     		b	.L50
 865              	.L51:
 474:..\..\..\..\..\..\Software\uCOS-II\Source/os_q.c **** 
 475:..\..\..\..\..\..\Software\uCOS-II\Source/os_q.c ****         case OS_STAT_PEND_TO:
 476:..\..\..\..\..\..\Software\uCOS-II\Source/os_q.c ****         default:
 477:..\..\..\..\..\..\Software\uCOS-II\Source/os_q.c ****              OS_EventTaskRemove(OSTCBCur, pevent);
 866              		.loc 1 477 0
 867 011e 184B     		ldr	r3, .L52+8
 868 0120 1B68     		ldr	r3, [r3]
 869 0122 FA68     		ldr	r2, [r7, #12]
 870 0124 1100     		movs	r1, r2
 871 0126 1800     		movs	r0, r3
 872 0128 FFF7FEFF 		bl	OS_EventTaskRemove
 478:..\..\..\..\..\..\Software\uCOS-II\Source/os_q.c ****              pmsg = (void *)0;
 873              		.loc 1 478 0
 874 012c 0023     		movs	r3, #0
 875 012e FB61     		str	r3, [r7, #28]
 479:..\..\..\..\..\..\Software\uCOS-II\Source/os_q.c ****             *perr =  OS_ERR_TIMEOUT;                  /* Indicate that we didn't get event within T
 876              		.loc 1 479 0
 877 0130 7B68     		ldr	r3, [r7, #4]
 878 0132 0A22     		movs	r2, #10
 879 0134 1A70     		strb	r2, [r3]
 480:..\..\..\..\..\..\Software\uCOS-II\Source/os_q.c ****              break;
 880              		.loc 1 480 0
 881 0136 C046     		nop
 882              	.L50:
 481:..\..\..\..\..\..\Software\uCOS-II\Source/os_q.c ****     }
 482:..\..\..\..\..\..\Software\uCOS-II\Source/os_q.c ****     OSTCBCur->OSTCBStat          =  OS_STAT_RDY;      /* Set   task  status to ready               
ARM GAS  C:\Users\ADMINI~1\AppData\Local\Temp\cc9sCsDg.s 			page 25


 883              		.loc 1 482 0
 884 0138 114B     		ldr	r3, .L52+8
 885 013a 1B68     		ldr	r3, [r3]
 886 013c 3422     		movs	r2, #52
 887 013e 0021     		movs	r1, #0
 888 0140 9954     		strb	r1, [r3, r2]
 483:..\..\..\..\..\..\Software\uCOS-II\Source/os_q.c ****     OSTCBCur->OSTCBStatPend      =  OS_STAT_PEND_OK;  /* Clear pend  status                        
 889              		.loc 1 483 0
 890 0142 0F4B     		ldr	r3, .L52+8
 891 0144 1B68     		ldr	r3, [r3]
 892 0146 3522     		movs	r2, #53
 893 0148 0021     		movs	r1, #0
 894 014a 9954     		strb	r1, [r3, r2]
 484:..\..\..\..\..\..\Software\uCOS-II\Source/os_q.c ****     OSTCBCur->OSTCBEventPtr      = (OS_EVENT  *)0;    /* Clear event pointers                      
 895              		.loc 1 484 0
 896 014c 0C4B     		ldr	r3, .L52+8
 897 014e 1B68     		ldr	r3, [r3]
 898 0150 0022     		movs	r2, #0
 899 0152 DA61     		str	r2, [r3, #28]
 485:..\..\..\..\..\..\Software\uCOS-II\Source/os_q.c **** #if (OS_EVENT_MULTI_EN > 0u)
 486:..\..\..\..\..\..\Software\uCOS-II\Source/os_q.c ****     OSTCBCur->OSTCBEventMultiPtr = (OS_EVENT **)0;
 900              		.loc 1 486 0
 901 0154 0A4B     		ldr	r3, .L52+8
 902 0156 1B68     		ldr	r3, [r3]
 903 0158 0022     		movs	r2, #0
 904 015a 1A62     		str	r2, [r3, #32]
 487:..\..\..\..\..\..\Software\uCOS-II\Source/os_q.c **** #endif
 488:..\..\..\..\..\..\Software\uCOS-II\Source/os_q.c ****     OSTCBCur->OSTCBMsg           = (void      *)0;    /* Clear  received message                   
 905              		.loc 1 488 0
 906 015c 084B     		ldr	r3, .L52+8
 907 015e 1B68     		ldr	r3, [r3]
 908 0160 0022     		movs	r2, #0
 909 0162 5A62     		str	r2, [r3, #36]
 489:..\..\..\..\..\..\Software\uCOS-II\Source/os_q.c ****     OS_EXIT_CRITICAL();
 910              		.loc 1 489 0
 911 0164 BB69     		ldr	r3, [r7, #24]
 912 0166 1800     		movs	r0, r3
 913 0168 FFF7FEFF 		bl	OS_CPU_SR_Restore
 490:..\..\..\..\..\..\Software\uCOS-II\Source/os_q.c ****     return (pmsg);                                    /* Return received message                   
 914              		.loc 1 490 0
 915 016c FB69     		ldr	r3, [r7, #28]
 916              	.L41:
 491:..\..\..\..\..\..\Software\uCOS-II\Source/os_q.c **** }
 917              		.loc 1 491 0
 918 016e 1800     		movs	r0, r3
 919 0170 BD46     		mov	sp, r7
 920 0172 08B0     		add	sp, sp, #32
 921              		@ sp needed
 922 0174 80BD     		pop	{r7, pc}
 923              	.L53:
 924 0176 C046     		.align	2
 925              	.L52:
 926 0178 00000000 		.word	OSIntNesting
 927 017c 00000000 		.word	OSLockNesting
 928 0180 00000000 		.word	OSTCBCur
 929              		.cfi_endproc
 930              	.LFE5:
ARM GAS  C:\Users\ADMINI~1\AppData\Local\Temp\cc9sCsDg.s 			page 26


 931              		.size	OSQPend, .-OSQPend
 932              		.section	.text.OSQPendAbort,"ax",%progbits
 933              		.align	2
 934              		.global	OSQPendAbort
 935              		.code	16
 936              		.thumb_func
 937              		.type	OSQPendAbort, %function
 938              	OSQPendAbort:
 939              	.LFB6:
 492:..\..\..\..\..\..\Software\uCOS-II\Source/os_q.c **** /*$PAGE*/
 493:..\..\..\..\..\..\Software\uCOS-II\Source/os_q.c **** /*
 494:..\..\..\..\..\..\Software\uCOS-II\Source/os_q.c **** ***************************************************************************************************
 495:..\..\..\..\..\..\Software\uCOS-II\Source/os_q.c **** *                                  ABORT WAITING ON A MESSAGE QUEUE
 496:..\..\..\..\..\..\Software\uCOS-II\Source/os_q.c **** *
 497:..\..\..\..\..\..\Software\uCOS-II\Source/os_q.c **** * Description: This function aborts & readies any tasks currently waiting on a queue.  This functio
 498:..\..\..\..\..\..\Software\uCOS-II\Source/os_q.c **** *              should be used to fault-abort the wait on the queue, rather than to normally signal
 499:..\..\..\..\..\..\Software\uCOS-II\Source/os_q.c **** *              the queue via OSQPost(), OSQPostFront() or OSQPostOpt().
 500:..\..\..\..\..\..\Software\uCOS-II\Source/os_q.c **** *
 501:..\..\..\..\..\..\Software\uCOS-II\Source/os_q.c **** * Arguments  : pevent        is a pointer to the event control block associated with the desired qu
 502:..\..\..\..\..\..\Software\uCOS-II\Source/os_q.c **** *
 503:..\..\..\..\..\..\Software\uCOS-II\Source/os_q.c **** *              opt           determines the type of ABORT performed:
 504:..\..\..\..\..\..\Software\uCOS-II\Source/os_q.c **** *                            OS_PEND_OPT_NONE         ABORT wait for a single task (HPT) waiting on
 505:..\..\..\..\..\..\Software\uCOS-II\Source/os_q.c **** *                                                     queue
 506:..\..\..\..\..\..\Software\uCOS-II\Source/os_q.c **** *                            OS_PEND_OPT_BROADCAST    ABORT wait for ALL tasks that are  waiting on
 507:..\..\..\..\..\..\Software\uCOS-II\Source/os_q.c **** *                                                     queue
 508:..\..\..\..\..\..\Software\uCOS-II\Source/os_q.c **** *
 509:..\..\..\..\..\..\Software\uCOS-II\Source/os_q.c **** *              perr          is a pointer to where an error message will be deposited.  Possible er
 510:..\..\..\..\..\..\Software\uCOS-II\Source/os_q.c **** *                            messages are:
 511:..\..\..\..\..\..\Software\uCOS-II\Source/os_q.c **** *
 512:..\..\..\..\..\..\Software\uCOS-II\Source/os_q.c **** *                            OS_ERR_NONE         No tasks were     waiting on the queue.
 513:..\..\..\..\..\..\Software\uCOS-II\Source/os_q.c **** *                            OS_ERR_PEND_ABORT   At least one task waiting on the queue was readied
 514:..\..\..\..\..\..\Software\uCOS-II\Source/os_q.c **** *                                                and informed of the aborted wait; check return val
 515:..\..\..\..\..\..\Software\uCOS-II\Source/os_q.c **** *                                                for the number of tasks whose wait on the queue
 516:..\..\..\..\..\..\Software\uCOS-II\Source/os_q.c **** *                                                was aborted.
 517:..\..\..\..\..\..\Software\uCOS-II\Source/os_q.c **** *                            OS_ERR_EVENT_TYPE   If you didn't pass a pointer to a queue.
 518:..\..\..\..\..\..\Software\uCOS-II\Source/os_q.c **** *                            OS_ERR_PEVENT_NULL  If 'pevent' is a NULL pointer.
 519:..\..\..\..\..\..\Software\uCOS-II\Source/os_q.c **** *
 520:..\..\..\..\..\..\Software\uCOS-II\Source/os_q.c **** * Returns    : == 0          if no tasks were waiting on the queue, or upon error.
 521:..\..\..\..\..\..\Software\uCOS-II\Source/os_q.c **** *              >  0          if one or more tasks waiting on the queue are now readied and informed
 522:..\..\..\..\..\..\Software\uCOS-II\Source/os_q.c **** ***************************************************************************************************
 523:..\..\..\..\..\..\Software\uCOS-II\Source/os_q.c **** */
 524:..\..\..\..\..\..\Software\uCOS-II\Source/os_q.c **** 
 525:..\..\..\..\..\..\Software\uCOS-II\Source/os_q.c **** #if OS_Q_PEND_ABORT_EN > 0u
 526:..\..\..\..\..\..\Software\uCOS-II\Source/os_q.c **** INT8U  OSQPendAbort (OS_EVENT  *pevent,
 527:..\..\..\..\..\..\Software\uCOS-II\Source/os_q.c ****                      INT8U      opt,
 528:..\..\..\..\..\..\Software\uCOS-II\Source/os_q.c ****                      INT8U     *perr)
 529:..\..\..\..\..\..\Software\uCOS-II\Source/os_q.c **** {
 940              		.loc 1 529 0
 941              		.cfi_startproc
 942              		@ args = 0, pretend = 0, frame = 24
 943              		@ frame_needed = 1, uses_anonymous_args = 0
 944 0000 80B5     		push	{r7, lr}
 945              		.cfi_def_cfa_offset 8
 946              		.cfi_offset 7, -8
 947              		.cfi_offset 14, -4
 948 0002 86B0     		sub	sp, sp, #24
 949              		.cfi_def_cfa_offset 32
ARM GAS  C:\Users\ADMINI~1\AppData\Local\Temp\cc9sCsDg.s 			page 27


 950 0004 00AF     		add	r7, sp, #0
 951              		.cfi_def_cfa_register 7
 952 0006 F860     		str	r0, [r7, #12]
 953 0008 7A60     		str	r2, [r7, #4]
 954 000a 0B23     		movs	r3, #11
 955 000c FB18     		adds	r3, r7, r3
 956 000e 0A1C     		adds	r2, r1, #0
 957 0010 1A70     		strb	r2, [r3]
 530:..\..\..\..\..\..\Software\uCOS-II\Source/os_q.c ****     INT8U      nbr_tasks;
 531:..\..\..\..\..\..\Software\uCOS-II\Source/os_q.c **** #if OS_CRITICAL_METHOD == 3u                               /* Allocate storage for CPU status regis
 532:..\..\..\..\..\..\Software\uCOS-II\Source/os_q.c ****     OS_CPU_SR  cpu_sr = 0u;
 958              		.loc 1 532 0
 959 0012 0023     		movs	r3, #0
 960 0014 3B61     		str	r3, [r7, #16]
 533:..\..\..\..\..\..\Software\uCOS-II\Source/os_q.c **** #endif
 534:..\..\..\..\..\..\Software\uCOS-II\Source/os_q.c **** 
 535:..\..\..\..\..\..\Software\uCOS-II\Source/os_q.c **** 
 536:..\..\..\..\..\..\Software\uCOS-II\Source/os_q.c **** 
 537:..\..\..\..\..\..\Software\uCOS-II\Source/os_q.c **** #ifdef OS_SAFETY_CRITICAL
 538:..\..\..\..\..\..\Software\uCOS-II\Source/os_q.c ****     if (perr == (INT8U *)0) {
 539:..\..\..\..\..\..\Software\uCOS-II\Source/os_q.c ****         OS_SAFETY_CRITICAL_EXCEPTION();
 540:..\..\..\..\..\..\Software\uCOS-II\Source/os_q.c ****         return (0u);
 541:..\..\..\..\..\..\Software\uCOS-II\Source/os_q.c ****     }
 542:..\..\..\..\..\..\Software\uCOS-II\Source/os_q.c **** #endif
 543:..\..\..\..\..\..\Software\uCOS-II\Source/os_q.c **** 
 544:..\..\..\..\..\..\Software\uCOS-II\Source/os_q.c **** #if OS_ARG_CHK_EN > 0u
 545:..\..\..\..\..\..\Software\uCOS-II\Source/os_q.c ****     if (pevent == (OS_EVENT *)0) {                         /* Validate 'pevent'                    
 961              		.loc 1 545 0
 962 0016 FB68     		ldr	r3, [r7, #12]
 963 0018 002B     		cmp	r3, #0
 964 001a 04D1     		bne	.L55
 546:..\..\..\..\..\..\Software\uCOS-II\Source/os_q.c ****         *perr = OS_ERR_PEVENT_NULL;
 965              		.loc 1 546 0
 966 001c 7B68     		ldr	r3, [r7, #4]
 967 001e 0422     		movs	r2, #4
 968 0020 1A70     		strb	r2, [r3]
 547:..\..\..\..\..\..\Software\uCOS-II\Source/os_q.c ****         return (0u);
 969              		.loc 1 547 0
 970 0022 0023     		movs	r3, #0
 971 0024 4FE0     		b	.L56
 972              	.L55:
 548:..\..\..\..\..\..\Software\uCOS-II\Source/os_q.c ****     }
 549:..\..\..\..\..\..\Software\uCOS-II\Source/os_q.c **** #endif
 550:..\..\..\..\..\..\Software\uCOS-II\Source/os_q.c ****     if (pevent->OSEventType != OS_EVENT_TYPE_Q) {          /* Validate event block type            
 973              		.loc 1 550 0
 974 0026 FB68     		ldr	r3, [r7, #12]
 975 0028 1B78     		ldrb	r3, [r3]
 976 002a 022B     		cmp	r3, #2
 977 002c 04D0     		beq	.L57
 551:..\..\..\..\..\..\Software\uCOS-II\Source/os_q.c ****         *perr = OS_ERR_EVENT_TYPE;
 978              		.loc 1 551 0
 979 002e 7B68     		ldr	r3, [r7, #4]
 980 0030 0122     		movs	r2, #1
 981 0032 1A70     		strb	r2, [r3]
 552:..\..\..\..\..\..\Software\uCOS-II\Source/os_q.c ****         return (0u);
 982              		.loc 1 552 0
 983 0034 0023     		movs	r3, #0
ARM GAS  C:\Users\ADMINI~1\AppData\Local\Temp\cc9sCsDg.s 			page 28


 984 0036 46E0     		b	.L56
 985              	.L57:
 553:..\..\..\..\..\..\Software\uCOS-II\Source/os_q.c ****     }
 554:..\..\..\..\..\..\Software\uCOS-II\Source/os_q.c ****     OS_ENTER_CRITICAL();
 986              		.loc 1 554 0
 987 0038 FFF7FEFF 		bl	OS_CPU_SR_Save
 988 003c 0300     		movs	r3, r0
 989 003e 3B61     		str	r3, [r7, #16]
 555:..\..\..\..\..\..\Software\uCOS-II\Source/os_q.c ****     if (pevent->OSEventGrp != 0u) {                        /* See if any task waiting on queue?    
 990              		.loc 1 555 0
 991 0040 FB68     		ldr	r3, [r7, #12]
 992 0042 9B7A     		ldrb	r3, [r3, #10]
 993 0044 002B     		cmp	r3, #0
 994 0046 36D0     		beq	.L58
 556:..\..\..\..\..\..\Software\uCOS-II\Source/os_q.c ****         nbr_tasks = 0u;
 995              		.loc 1 556 0
 996 0048 1723     		movs	r3, #23
 997 004a FB18     		adds	r3, r7, r3
 998 004c 0022     		movs	r2, #0
 999 004e 1A70     		strb	r2, [r3]
 557:..\..\..\..\..\..\Software\uCOS-II\Source/os_q.c ****         switch (opt) {
 1000              		.loc 1 557 0
 1001 0050 0B23     		movs	r3, #11
 1002 0052 FB18     		adds	r3, r7, r3
 1003 0054 1B78     		ldrb	r3, [r3]
 1004 0056 012B     		cmp	r3, #1
 1005 0058 12D1     		bne	.L64
 558:..\..\..\..\..\..\Software\uCOS-II\Source/os_q.c ****             case OS_PEND_OPT_BROADCAST:                    /* Do we need to abort ALL waiting tasks
 559:..\..\..\..\..\..\Software\uCOS-II\Source/os_q.c ****                  while (pevent->OSEventGrp != 0u) {        /* Yes, ready ALL tasks waiting on queue
 1006              		.loc 1 559 0
 1007 005a 0CE0     		b	.L61
 1008              	.L62:
 560:..\..\..\..\..\..\Software\uCOS-II\Source/os_q.c ****                      (void)OS_EventTaskRdy(pevent, (void *)0, OS_STAT_Q, OS_STAT_PEND_ABORT);
 1009              		.loc 1 560 0
 1010 005c F868     		ldr	r0, [r7, #12]
 1011 005e 0223     		movs	r3, #2
 1012 0060 0422     		movs	r2, #4
 1013 0062 0021     		movs	r1, #0
 1014 0064 FFF7FEFF 		bl	OS_EventTaskRdy
 561:..\..\..\..\..\..\Software\uCOS-II\Source/os_q.c ****                      nbr_tasks++;
 1015              		.loc 1 561 0
 1016 0068 1723     		movs	r3, #23
 1017 006a FB18     		adds	r3, r7, r3
 1018 006c 1A78     		ldrb	r2, [r3]
 1019 006e 1723     		movs	r3, #23
 1020 0070 FB18     		adds	r3, r7, r3
 1021 0072 0132     		adds	r2, r2, #1
 1022 0074 1A70     		strb	r2, [r3]
 1023              	.L61:
 559:..\..\..\..\..\..\Software\uCOS-II\Source/os_q.c ****                      (void)OS_EventTaskRdy(pevent, (void *)0, OS_STAT_Q, OS_STAT_PEND_ABORT);
 1024              		.loc 1 559 0
 1025 0076 FB68     		ldr	r3, [r7, #12]
 1026 0078 9B7A     		ldrb	r3, [r3, #10]
 1027 007a 002B     		cmp	r3, #0
 1028 007c EED1     		bne	.L62
 562:..\..\..\..\..\..\Software\uCOS-II\Source/os_q.c ****                  }
 563:..\..\..\..\..\..\Software\uCOS-II\Source/os_q.c ****                  break;
ARM GAS  C:\Users\ADMINI~1\AppData\Local\Temp\cc9sCsDg.s 			page 29


 1029              		.loc 1 563 0
 1030 007e 0DE0     		b	.L63
 1031              	.L64:
 564:..\..\..\..\..\..\Software\uCOS-II\Source/os_q.c **** 
 565:..\..\..\..\..\..\Software\uCOS-II\Source/os_q.c ****             case OS_PEND_OPT_NONE:
 566:..\..\..\..\..\..\Software\uCOS-II\Source/os_q.c ****             default:                                       /* No,  ready HPT       waiting on queue
 567:..\..\..\..\..\..\Software\uCOS-II\Source/os_q.c ****                  (void)OS_EventTaskRdy(pevent, (void *)0, OS_STAT_Q, OS_STAT_PEND_ABORT);
 1032              		.loc 1 567 0
 1033 0080 F868     		ldr	r0, [r7, #12]
 1034 0082 0223     		movs	r3, #2
 1035 0084 0422     		movs	r2, #4
 1036 0086 0021     		movs	r1, #0
 1037 0088 FFF7FEFF 		bl	OS_EventTaskRdy
 568:..\..\..\..\..\..\Software\uCOS-II\Source/os_q.c ****                  nbr_tasks++;
 1038              		.loc 1 568 0
 1039 008c 1723     		movs	r3, #23
 1040 008e FB18     		adds	r3, r7, r3
 1041 0090 1A78     		ldrb	r2, [r3]
 1042 0092 1723     		movs	r3, #23
 1043 0094 FB18     		adds	r3, r7, r3
 1044 0096 0132     		adds	r2, r2, #1
 1045 0098 1A70     		strb	r2, [r3]
 569:..\..\..\..\..\..\Software\uCOS-II\Source/os_q.c ****                  break;
 1046              		.loc 1 569 0
 1047 009a C046     		nop
 1048              	.L63:
 570:..\..\..\..\..\..\Software\uCOS-II\Source/os_q.c ****         }
 571:..\..\..\..\..\..\Software\uCOS-II\Source/os_q.c ****         OS_EXIT_CRITICAL();
 1049              		.loc 1 571 0
 1050 009c 3B69     		ldr	r3, [r7, #16]
 1051 009e 1800     		movs	r0, r3
 1052 00a0 FFF7FEFF 		bl	OS_CPU_SR_Restore
 572:..\..\..\..\..\..\Software\uCOS-II\Source/os_q.c ****         OS_Sched();                                        /* Find HPT ready to run                
 1053              		.loc 1 572 0
 1054 00a4 FFF7FEFF 		bl	OS_Sched
 573:..\..\..\..\..\..\Software\uCOS-II\Source/os_q.c ****         *perr = OS_ERR_PEND_ABORT;
 1055              		.loc 1 573 0
 1056 00a8 7B68     		ldr	r3, [r7, #4]
 1057 00aa 0E22     		movs	r2, #14
 1058 00ac 1A70     		strb	r2, [r3]
 574:..\..\..\..\..\..\Software\uCOS-II\Source/os_q.c ****         return (nbr_tasks);
 1059              		.loc 1 574 0
 1060 00ae 1723     		movs	r3, #23
 1061 00b0 FB18     		adds	r3, r7, r3
 1062 00b2 1B78     		ldrb	r3, [r3]
 1063 00b4 07E0     		b	.L56
 1064              	.L58:
 575:..\..\..\..\..\..\Software\uCOS-II\Source/os_q.c ****     }
 576:..\..\..\..\..\..\Software\uCOS-II\Source/os_q.c ****     OS_EXIT_CRITICAL();
 1065              		.loc 1 576 0
 1066 00b6 3B69     		ldr	r3, [r7, #16]
 1067 00b8 1800     		movs	r0, r3
 1068 00ba FFF7FEFF 		bl	OS_CPU_SR_Restore
 577:..\..\..\..\..\..\Software\uCOS-II\Source/os_q.c ****     *perr = OS_ERR_NONE;
 1069              		.loc 1 577 0
 1070 00be 7B68     		ldr	r3, [r7, #4]
 1071 00c0 0022     		movs	r2, #0
ARM GAS  C:\Users\ADMINI~1\AppData\Local\Temp\cc9sCsDg.s 			page 30


 1072 00c2 1A70     		strb	r2, [r3]
 578:..\..\..\..\..\..\Software\uCOS-II\Source/os_q.c ****     return (0u);                                           /* No tasks waiting on queue            
 1073              		.loc 1 578 0
 1074 00c4 0023     		movs	r3, #0
 1075              	.L56:
 579:..\..\..\..\..\..\Software\uCOS-II\Source/os_q.c **** }
 1076              		.loc 1 579 0
 1077 00c6 1800     		movs	r0, r3
 1078 00c8 BD46     		mov	sp, r7
 1079 00ca 06B0     		add	sp, sp, #24
 1080              		@ sp needed
 1081 00cc 80BD     		pop	{r7, pc}
 1082              		.cfi_endproc
 1083              	.LFE6:
 1084              		.size	OSQPendAbort, .-OSQPendAbort
 1085 00ce C046     		.section	.text.OSQPost,"ax",%progbits
 1086              		.align	2
 1087              		.global	OSQPost
 1088              		.code	16
 1089              		.thumb_func
 1090              		.type	OSQPost, %function
 1091              	OSQPost:
 1092              	.LFB7:
 580:..\..\..\..\..\..\Software\uCOS-II\Source/os_q.c **** #endif
 581:..\..\..\..\..\..\Software\uCOS-II\Source/os_q.c **** 
 582:..\..\..\..\..\..\Software\uCOS-II\Source/os_q.c **** /*$PAGE*/
 583:..\..\..\..\..\..\Software\uCOS-II\Source/os_q.c **** /*
 584:..\..\..\..\..\..\Software\uCOS-II\Source/os_q.c **** ***************************************************************************************************
 585:..\..\..\..\..\..\Software\uCOS-II\Source/os_q.c **** *                                       POST MESSAGE TO A QUEUE
 586:..\..\..\..\..\..\Software\uCOS-II\Source/os_q.c **** *
 587:..\..\..\..\..\..\Software\uCOS-II\Source/os_q.c **** * Description: This function sends a message to a queue
 588:..\..\..\..\..\..\Software\uCOS-II\Source/os_q.c **** *
 589:..\..\..\..\..\..\Software\uCOS-II\Source/os_q.c **** * Arguments  : pevent        is a pointer to the event control block associated with the desired qu
 590:..\..\..\..\..\..\Software\uCOS-II\Source/os_q.c **** *
 591:..\..\..\..\..\..\Software\uCOS-II\Source/os_q.c **** *              pmsg          is a pointer to the message to send.
 592:..\..\..\..\..\..\Software\uCOS-II\Source/os_q.c **** *
 593:..\..\..\..\..\..\Software\uCOS-II\Source/os_q.c **** * Returns    : OS_ERR_NONE           The call was successful and the message was sent
 594:..\..\..\..\..\..\Software\uCOS-II\Source/os_q.c **** *              OS_ERR_Q_FULL         If the queue cannot accept any more messages because it is ful
 595:..\..\..\..\..\..\Software\uCOS-II\Source/os_q.c **** *              OS_ERR_EVENT_TYPE     If you didn't pass a pointer to a queue.
 596:..\..\..\..\..\..\Software\uCOS-II\Source/os_q.c **** *              OS_ERR_PEVENT_NULL    If 'pevent' is a NULL pointer
 597:..\..\..\..\..\..\Software\uCOS-II\Source/os_q.c **** *
 598:..\..\..\..\..\..\Software\uCOS-II\Source/os_q.c **** * Note(s)    : As of V2.60, this function allows you to send NULL pointer messages.
 599:..\..\..\..\..\..\Software\uCOS-II\Source/os_q.c **** ***************************************************************************************************
 600:..\..\..\..\..\..\Software\uCOS-II\Source/os_q.c **** */
 601:..\..\..\..\..\..\Software\uCOS-II\Source/os_q.c **** 
 602:..\..\..\..\..\..\Software\uCOS-II\Source/os_q.c **** #if OS_Q_POST_EN > 0u
 603:..\..\..\..\..\..\Software\uCOS-II\Source/os_q.c **** INT8U  OSQPost (OS_EVENT  *pevent,
 604:..\..\..\..\..\..\Software\uCOS-II\Source/os_q.c ****                 void      *pmsg)
 605:..\..\..\..\..\..\Software\uCOS-II\Source/os_q.c **** {
 1093              		.loc 1 605 0
 1094              		.cfi_startproc
 1095              		@ args = 0, pretend = 0, frame = 16
 1096              		@ frame_needed = 1, uses_anonymous_args = 0
 1097 0000 80B5     		push	{r7, lr}
 1098              		.cfi_def_cfa_offset 8
 1099              		.cfi_offset 7, -8
 1100              		.cfi_offset 14, -4
ARM GAS  C:\Users\ADMINI~1\AppData\Local\Temp\cc9sCsDg.s 			page 31


 1101 0002 84B0     		sub	sp, sp, #16
 1102              		.cfi_def_cfa_offset 24
 1103 0004 00AF     		add	r7, sp, #0
 1104              		.cfi_def_cfa_register 7
 1105 0006 7860     		str	r0, [r7, #4]
 1106 0008 3960     		str	r1, [r7]
 606:..\..\..\..\..\..\Software\uCOS-II\Source/os_q.c ****     OS_Q      *pq;
 607:..\..\..\..\..\..\Software\uCOS-II\Source/os_q.c **** #if OS_CRITICAL_METHOD == 3u                           /* Allocate storage for CPU status register 
 608:..\..\..\..\..\..\Software\uCOS-II\Source/os_q.c ****     OS_CPU_SR  cpu_sr = 0u;
 1107              		.loc 1 608 0
 1108 000a 0023     		movs	r3, #0
 1109 000c FB60     		str	r3, [r7, #12]
 609:..\..\..\..\..\..\Software\uCOS-II\Source/os_q.c **** #endif
 610:..\..\..\..\..\..\Software\uCOS-II\Source/os_q.c **** 
 611:..\..\..\..\..\..\Software\uCOS-II\Source/os_q.c **** 
 612:..\..\..\..\..\..\Software\uCOS-II\Source/os_q.c **** 
 613:..\..\..\..\..\..\Software\uCOS-II\Source/os_q.c **** #if OS_ARG_CHK_EN > 0u
 614:..\..\..\..\..\..\Software\uCOS-II\Source/os_q.c ****     if (pevent == (OS_EVENT *)0) {                     /* Validate 'pevent'                        
 1110              		.loc 1 614 0
 1111 000e 7B68     		ldr	r3, [r7, #4]
 1112 0010 002B     		cmp	r3, #0
 1113 0012 01D1     		bne	.L66
 615:..\..\..\..\..\..\Software\uCOS-II\Source/os_q.c ****         return (OS_ERR_PEVENT_NULL);
 1114              		.loc 1 615 0
 1115 0014 0423     		movs	r3, #4
 1116 0016 46E0     		b	.L67
 1117              	.L66:
 616:..\..\..\..\..\..\Software\uCOS-II\Source/os_q.c ****     }
 617:..\..\..\..\..\..\Software\uCOS-II\Source/os_q.c **** #endif
 618:..\..\..\..\..\..\Software\uCOS-II\Source/os_q.c ****     if (pevent->OSEventType != OS_EVENT_TYPE_Q) {      /* Validate event block type                
 1118              		.loc 1 618 0
 1119 0018 7B68     		ldr	r3, [r7, #4]
 1120 001a 1B78     		ldrb	r3, [r3]
 1121 001c 022B     		cmp	r3, #2
 1122 001e 01D0     		beq	.L68
 619:..\..\..\..\..\..\Software\uCOS-II\Source/os_q.c ****         return (OS_ERR_EVENT_TYPE);
 1123              		.loc 1 619 0
 1124 0020 0123     		movs	r3, #1
 1125 0022 40E0     		b	.L67
 1126              	.L68:
 620:..\..\..\..\..\..\Software\uCOS-II\Source/os_q.c ****     }
 621:..\..\..\..\..\..\Software\uCOS-II\Source/os_q.c ****     OS_ENTER_CRITICAL();
 1127              		.loc 1 621 0
 1128 0024 FFF7FEFF 		bl	OS_CPU_SR_Save
 1129 0028 0300     		movs	r3, r0
 1130 002a FB60     		str	r3, [r7, #12]
 622:..\..\..\..\..\..\Software\uCOS-II\Source/os_q.c ****     if (pevent->OSEventGrp != 0u) {                    /* See if any task pending on queue         
 1131              		.loc 1 622 0
 1132 002c 7B68     		ldr	r3, [r7, #4]
 1133 002e 9B7A     		ldrb	r3, [r3, #10]
 1134 0030 002B     		cmp	r3, #0
 1135 0032 0DD0     		beq	.L69
 623:..\..\..\..\..\..\Software\uCOS-II\Source/os_q.c ****                                                        /* Ready highest priority task waiting on ev
 624:..\..\..\..\..\..\Software\uCOS-II\Source/os_q.c ****         (void)OS_EventTaskRdy(pevent, pmsg, OS_STAT_Q, OS_STAT_PEND_OK);
 1136              		.loc 1 624 0
 1137 0034 3968     		ldr	r1, [r7]
 1138 0036 7868     		ldr	r0, [r7, #4]
ARM GAS  C:\Users\ADMINI~1\AppData\Local\Temp\cc9sCsDg.s 			page 32


 1139 0038 0023     		movs	r3, #0
 1140 003a 0422     		movs	r2, #4
 1141 003c FFF7FEFF 		bl	OS_EventTaskRdy
 625:..\..\..\..\..\..\Software\uCOS-II\Source/os_q.c ****         OS_EXIT_CRITICAL();
 1142              		.loc 1 625 0
 1143 0040 FB68     		ldr	r3, [r7, #12]
 1144 0042 1800     		movs	r0, r3
 1145 0044 FFF7FEFF 		bl	OS_CPU_SR_Restore
 626:..\..\..\..\..\..\Software\uCOS-II\Source/os_q.c ****         OS_Sched();                                    /* Find highest priority task ready to run  
 1146              		.loc 1 626 0
 1147 0048 FFF7FEFF 		bl	OS_Sched
 627:..\..\..\..\..\..\Software\uCOS-II\Source/os_q.c ****         return (OS_ERR_NONE);
 1148              		.loc 1 627 0
 1149 004c 0023     		movs	r3, #0
 1150 004e 2AE0     		b	.L67
 1151              	.L69:
 628:..\..\..\..\..\..\Software\uCOS-II\Source/os_q.c ****     }
 629:..\..\..\..\..\..\Software\uCOS-II\Source/os_q.c ****     pq = (OS_Q *)pevent->OSEventPtr;                   /* Point to queue control block             
 1152              		.loc 1 629 0
 1153 0050 7B68     		ldr	r3, [r7, #4]
 1154 0052 5B68     		ldr	r3, [r3, #4]
 1155 0054 BB60     		str	r3, [r7, #8]
 630:..\..\..\..\..\..\Software\uCOS-II\Source/os_q.c ****     if (pq->OSQEntries >= pq->OSQSize) {               /* Make sure queue is not full              
 1156              		.loc 1 630 0
 1157 0056 BB68     		ldr	r3, [r7, #8]
 1158 0058 DA8A     		ldrh	r2, [r3, #22]
 1159 005a BB68     		ldr	r3, [r7, #8]
 1160 005c 9B8A     		ldrh	r3, [r3, #20]
 1161 005e 9A42     		cmp	r2, r3
 1162 0060 05D3     		bcc	.L70
 631:..\..\..\..\..\..\Software\uCOS-II\Source/os_q.c ****         OS_EXIT_CRITICAL();
 1163              		.loc 1 631 0
 1164 0062 FB68     		ldr	r3, [r7, #12]
 1165 0064 1800     		movs	r0, r3
 1166 0066 FFF7FEFF 		bl	OS_CPU_SR_Restore
 632:..\..\..\..\..\..\Software\uCOS-II\Source/os_q.c ****         return (OS_ERR_Q_FULL);
 1167              		.loc 1 632 0
 1168 006a 1E23     		movs	r3, #30
 1169 006c 1BE0     		b	.L67
 1170              	.L70:
 633:..\..\..\..\..\..\Software\uCOS-II\Source/os_q.c ****     }
 634:..\..\..\..\..\..\Software\uCOS-II\Source/os_q.c ****     *pq->OSQIn++ = pmsg;                               /* Insert message into queue                
 1171              		.loc 1 634 0
 1172 006e BB68     		ldr	r3, [r7, #8]
 1173 0070 DB68     		ldr	r3, [r3, #12]
 1174 0072 191D     		adds	r1, r3, #4
 1175 0074 BA68     		ldr	r2, [r7, #8]
 1176 0076 D160     		str	r1, [r2, #12]
 1177 0078 3A68     		ldr	r2, [r7]
 1178 007a 1A60     		str	r2, [r3]
 635:..\..\..\..\..\..\Software\uCOS-II\Source/os_q.c ****     pq->OSQEntries++;                                  /* Update the nbr of entries in the queue   
 1179              		.loc 1 635 0
 1180 007c BB68     		ldr	r3, [r7, #8]
 1181 007e DB8A     		ldrh	r3, [r3, #22]
 1182 0080 0133     		adds	r3, r3, #1
 1183 0082 9AB2     		uxth	r2, r3
 1184 0084 BB68     		ldr	r3, [r7, #8]
ARM GAS  C:\Users\ADMINI~1\AppData\Local\Temp\cc9sCsDg.s 			page 33


 1185 0086 DA82     		strh	r2, [r3, #22]
 636:..\..\..\..\..\..\Software\uCOS-II\Source/os_q.c ****     if (pq->OSQIn == pq->OSQEnd) {                     /* Wrap IN ptr if we are at end of queue    
 1186              		.loc 1 636 0
 1187 0088 BB68     		ldr	r3, [r7, #8]
 1188 008a DA68     		ldr	r2, [r3, #12]
 1189 008c BB68     		ldr	r3, [r7, #8]
 1190 008e 9B68     		ldr	r3, [r3, #8]
 1191 0090 9A42     		cmp	r2, r3
 1192 0092 03D1     		bne	.L71
 637:..\..\..\..\..\..\Software\uCOS-II\Source/os_q.c ****         pq->OSQIn = pq->OSQStart;
 1193              		.loc 1 637 0
 1194 0094 BB68     		ldr	r3, [r7, #8]
 1195 0096 5A68     		ldr	r2, [r3, #4]
 1196 0098 BB68     		ldr	r3, [r7, #8]
 1197 009a DA60     		str	r2, [r3, #12]
 1198              	.L71:
 638:..\..\..\..\..\..\Software\uCOS-II\Source/os_q.c ****     }
 639:..\..\..\..\..\..\Software\uCOS-II\Source/os_q.c ****     OS_EXIT_CRITICAL();
 1199              		.loc 1 639 0
 1200 009c FB68     		ldr	r3, [r7, #12]
 1201 009e 1800     		movs	r0, r3
 1202 00a0 FFF7FEFF 		bl	OS_CPU_SR_Restore
 640:..\..\..\..\..\..\Software\uCOS-II\Source/os_q.c ****     return (OS_ERR_NONE);
 1203              		.loc 1 640 0
 1204 00a4 0023     		movs	r3, #0
 1205              	.L67:
 641:..\..\..\..\..\..\Software\uCOS-II\Source/os_q.c **** }
 1206              		.loc 1 641 0
 1207 00a6 1800     		movs	r0, r3
 1208 00a8 BD46     		mov	sp, r7
 1209 00aa 04B0     		add	sp, sp, #16
 1210              		@ sp needed
 1211 00ac 80BD     		pop	{r7, pc}
 1212              		.cfi_endproc
 1213              	.LFE7:
 1214              		.size	OSQPost, .-OSQPost
 1215 00ae C046     		.section	.text.OSQPostFront,"ax",%progbits
 1216              		.align	2
 1217              		.global	OSQPostFront
 1218              		.code	16
 1219              		.thumb_func
 1220              		.type	OSQPostFront, %function
 1221              	OSQPostFront:
 1222              	.LFB8:
 642:..\..\..\..\..\..\Software\uCOS-II\Source/os_q.c **** #endif
 643:..\..\..\..\..\..\Software\uCOS-II\Source/os_q.c **** /*$PAGE*/
 644:..\..\..\..\..\..\Software\uCOS-II\Source/os_q.c **** /*
 645:..\..\..\..\..\..\Software\uCOS-II\Source/os_q.c **** ***************************************************************************************************
 646:..\..\..\..\..\..\Software\uCOS-II\Source/os_q.c **** *                                POST MESSAGE TO THE FRONT OF A QUEUE
 647:..\..\..\..\..\..\Software\uCOS-II\Source/os_q.c **** *
 648:..\..\..\..\..\..\Software\uCOS-II\Source/os_q.c **** * Description: This function sends a message to a queue but unlike OSQPost(), the message is posted
 649:..\..\..\..\..\..\Software\uCOS-II\Source/os_q.c **** *              the front instead of the end of the queue.  Using OSQPostFront() allows you to send
 650:..\..\..\..\..\..\Software\uCOS-II\Source/os_q.c **** *              'priority' messages.
 651:..\..\..\..\..\..\Software\uCOS-II\Source/os_q.c **** *
 652:..\..\..\..\..\..\Software\uCOS-II\Source/os_q.c **** * Arguments  : pevent        is a pointer to the event control block associated with the desired qu
 653:..\..\..\..\..\..\Software\uCOS-II\Source/os_q.c **** *
 654:..\..\..\..\..\..\Software\uCOS-II\Source/os_q.c **** *              pmsg          is a pointer to the message to send.
ARM GAS  C:\Users\ADMINI~1\AppData\Local\Temp\cc9sCsDg.s 			page 34


 655:..\..\..\..\..\..\Software\uCOS-II\Source/os_q.c **** *
 656:..\..\..\..\..\..\Software\uCOS-II\Source/os_q.c **** * Returns    : OS_ERR_NONE           The call was successful and the message was sent
 657:..\..\..\..\..\..\Software\uCOS-II\Source/os_q.c **** *              OS_ERR_Q_FULL         If the queue cannot accept any more messages because it is ful
 658:..\..\..\..\..\..\Software\uCOS-II\Source/os_q.c **** *              OS_ERR_EVENT_TYPE     If you didn't pass a pointer to a queue.
 659:..\..\..\..\..\..\Software\uCOS-II\Source/os_q.c **** *              OS_ERR_PEVENT_NULL    If 'pevent' is a NULL pointer
 660:..\..\..\..\..\..\Software\uCOS-II\Source/os_q.c **** *
 661:..\..\..\..\..\..\Software\uCOS-II\Source/os_q.c **** * Note(s)    : As of V2.60, this function allows you to send NULL pointer messages.
 662:..\..\..\..\..\..\Software\uCOS-II\Source/os_q.c **** ***************************************************************************************************
 663:..\..\..\..\..\..\Software\uCOS-II\Source/os_q.c **** */
 664:..\..\..\..\..\..\Software\uCOS-II\Source/os_q.c **** 
 665:..\..\..\..\..\..\Software\uCOS-II\Source/os_q.c **** #if OS_Q_POST_FRONT_EN > 0u
 666:..\..\..\..\..\..\Software\uCOS-II\Source/os_q.c **** INT8U  OSQPostFront (OS_EVENT  *pevent,
 667:..\..\..\..\..\..\Software\uCOS-II\Source/os_q.c ****                      void      *pmsg)
 668:..\..\..\..\..\..\Software\uCOS-II\Source/os_q.c **** {
 1223              		.loc 1 668 0
 1224              		.cfi_startproc
 1225              		@ args = 0, pretend = 0, frame = 16
 1226              		@ frame_needed = 1, uses_anonymous_args = 0
 1227 0000 80B5     		push	{r7, lr}
 1228              		.cfi_def_cfa_offset 8
 1229              		.cfi_offset 7, -8
 1230              		.cfi_offset 14, -4
 1231 0002 84B0     		sub	sp, sp, #16
 1232              		.cfi_def_cfa_offset 24
 1233 0004 00AF     		add	r7, sp, #0
 1234              		.cfi_def_cfa_register 7
 1235 0006 7860     		str	r0, [r7, #4]
 1236 0008 3960     		str	r1, [r7]
 669:..\..\..\..\..\..\Software\uCOS-II\Source/os_q.c ****     OS_Q      *pq;
 670:..\..\..\..\..\..\Software\uCOS-II\Source/os_q.c **** #if OS_CRITICAL_METHOD == 3u                          /* Allocate storage for CPU status register  
 671:..\..\..\..\..\..\Software\uCOS-II\Source/os_q.c ****     OS_CPU_SR  cpu_sr = 0u;
 1237              		.loc 1 671 0
 1238 000a 0023     		movs	r3, #0
 1239 000c FB60     		str	r3, [r7, #12]
 672:..\..\..\..\..\..\Software\uCOS-II\Source/os_q.c **** #endif
 673:..\..\..\..\..\..\Software\uCOS-II\Source/os_q.c **** 
 674:..\..\..\..\..\..\Software\uCOS-II\Source/os_q.c **** 
 675:..\..\..\..\..\..\Software\uCOS-II\Source/os_q.c **** 
 676:..\..\..\..\..\..\Software\uCOS-II\Source/os_q.c **** #if OS_ARG_CHK_EN > 0u
 677:..\..\..\..\..\..\Software\uCOS-II\Source/os_q.c ****     if (pevent == (OS_EVENT *)0) {                    /* Validate 'pevent'                         
 1240              		.loc 1 677 0
 1241 000e 7B68     		ldr	r3, [r7, #4]
 1242 0010 002B     		cmp	r3, #0
 1243 0012 01D1     		bne	.L73
 678:..\..\..\..\..\..\Software\uCOS-II\Source/os_q.c ****         return (OS_ERR_PEVENT_NULL);
 1244              		.loc 1 678 0
 1245 0014 0423     		movs	r3, #4
 1246 0016 48E0     		b	.L74
 1247              	.L73:
 679:..\..\..\..\..\..\Software\uCOS-II\Source/os_q.c ****     }
 680:..\..\..\..\..\..\Software\uCOS-II\Source/os_q.c **** #endif
 681:..\..\..\..\..\..\Software\uCOS-II\Source/os_q.c ****     if (pevent->OSEventType != OS_EVENT_TYPE_Q) {     /* Validate event block type                 
 1248              		.loc 1 681 0
 1249 0018 7B68     		ldr	r3, [r7, #4]
 1250 001a 1B78     		ldrb	r3, [r3]
 1251 001c 022B     		cmp	r3, #2
 1252 001e 01D0     		beq	.L75
ARM GAS  C:\Users\ADMINI~1\AppData\Local\Temp\cc9sCsDg.s 			page 35


 682:..\..\..\..\..\..\Software\uCOS-II\Source/os_q.c ****         return (OS_ERR_EVENT_TYPE);
 1253              		.loc 1 682 0
 1254 0020 0123     		movs	r3, #1
 1255 0022 42E0     		b	.L74
 1256              	.L75:
 683:..\..\..\..\..\..\Software\uCOS-II\Source/os_q.c ****     }
 684:..\..\..\..\..\..\Software\uCOS-II\Source/os_q.c ****     OS_ENTER_CRITICAL();
 1257              		.loc 1 684 0
 1258 0024 FFF7FEFF 		bl	OS_CPU_SR_Save
 1259 0028 0300     		movs	r3, r0
 1260 002a FB60     		str	r3, [r7, #12]
 685:..\..\..\..\..\..\Software\uCOS-II\Source/os_q.c ****     if (pevent->OSEventGrp != 0u) {                   /* See if any task pending on queue          
 1261              		.loc 1 685 0
 1262 002c 7B68     		ldr	r3, [r7, #4]
 1263 002e 9B7A     		ldrb	r3, [r3, #10]
 1264 0030 002B     		cmp	r3, #0
 1265 0032 0DD0     		beq	.L76
 686:..\..\..\..\..\..\Software\uCOS-II\Source/os_q.c ****                                                       /* Ready highest priority task waiting on eve
 687:..\..\..\..\..\..\Software\uCOS-II\Source/os_q.c ****         (void)OS_EventTaskRdy(pevent, pmsg, OS_STAT_Q, OS_STAT_PEND_OK);
 1266              		.loc 1 687 0
 1267 0034 3968     		ldr	r1, [r7]
 1268 0036 7868     		ldr	r0, [r7, #4]
 1269 0038 0023     		movs	r3, #0
 1270 003a 0422     		movs	r2, #4
 1271 003c FFF7FEFF 		bl	OS_EventTaskRdy
 688:..\..\..\..\..\..\Software\uCOS-II\Source/os_q.c ****         OS_EXIT_CRITICAL();
 1272              		.loc 1 688 0
 1273 0040 FB68     		ldr	r3, [r7, #12]
 1274 0042 1800     		movs	r0, r3
 1275 0044 FFF7FEFF 		bl	OS_CPU_SR_Restore
 689:..\..\..\..\..\..\Software\uCOS-II\Source/os_q.c ****         OS_Sched();                                   /* Find highest priority task ready to run   
 1276              		.loc 1 689 0
 1277 0048 FFF7FEFF 		bl	OS_Sched
 690:..\..\..\..\..\..\Software\uCOS-II\Source/os_q.c ****         return (OS_ERR_NONE);
 1278              		.loc 1 690 0
 1279 004c 0023     		movs	r3, #0
 1280 004e 2CE0     		b	.L74
 1281              	.L76:
 691:..\..\..\..\..\..\Software\uCOS-II\Source/os_q.c ****     }
 692:..\..\..\..\..\..\Software\uCOS-II\Source/os_q.c ****     pq = (OS_Q *)pevent->OSEventPtr;                  /* Point to queue control block              
 1282              		.loc 1 692 0
 1283 0050 7B68     		ldr	r3, [r7, #4]
 1284 0052 5B68     		ldr	r3, [r3, #4]
 1285 0054 BB60     		str	r3, [r7, #8]
 693:..\..\..\..\..\..\Software\uCOS-II\Source/os_q.c ****     if (pq->OSQEntries >= pq->OSQSize) {              /* Make sure queue is not full               
 1286              		.loc 1 693 0
 1287 0056 BB68     		ldr	r3, [r7, #8]
 1288 0058 DA8A     		ldrh	r2, [r3, #22]
 1289 005a BB68     		ldr	r3, [r7, #8]
 1290 005c 9B8A     		ldrh	r3, [r3, #20]
 1291 005e 9A42     		cmp	r2, r3
 1292 0060 05D3     		bcc	.L77
 694:..\..\..\..\..\..\Software\uCOS-II\Source/os_q.c ****         OS_EXIT_CRITICAL();
 1293              		.loc 1 694 0
 1294 0062 FB68     		ldr	r3, [r7, #12]
 1295 0064 1800     		movs	r0, r3
 1296 0066 FFF7FEFF 		bl	OS_CPU_SR_Restore
ARM GAS  C:\Users\ADMINI~1\AppData\Local\Temp\cc9sCsDg.s 			page 36


 695:..\..\..\..\..\..\Software\uCOS-II\Source/os_q.c ****         return (OS_ERR_Q_FULL);
 1297              		.loc 1 695 0
 1298 006a 1E23     		movs	r3, #30
 1299 006c 1DE0     		b	.L74
 1300              	.L77:
 696:..\..\..\..\..\..\Software\uCOS-II\Source/os_q.c ****     }
 697:..\..\..\..\..\..\Software\uCOS-II\Source/os_q.c ****     if (pq->OSQOut == pq->OSQStart) {                 /* Wrap OUT ptr if we are at the 1st queue en
 1301              		.loc 1 697 0
 1302 006e BB68     		ldr	r3, [r7, #8]
 1303 0070 1A69     		ldr	r2, [r3, #16]
 1304 0072 BB68     		ldr	r3, [r7, #8]
 1305 0074 5B68     		ldr	r3, [r3, #4]
 1306 0076 9A42     		cmp	r2, r3
 1307 0078 03D1     		bne	.L78
 698:..\..\..\..\..\..\Software\uCOS-II\Source/os_q.c ****         pq->OSQOut = pq->OSQEnd;
 1308              		.loc 1 698 0
 1309 007a BB68     		ldr	r3, [r7, #8]
 1310 007c 9A68     		ldr	r2, [r3, #8]
 1311 007e BB68     		ldr	r3, [r7, #8]
 1312 0080 1A61     		str	r2, [r3, #16]
 1313              	.L78:
 699:..\..\..\..\..\..\Software\uCOS-II\Source/os_q.c ****     }
 700:..\..\..\..\..\..\Software\uCOS-II\Source/os_q.c ****     pq->OSQOut--;
 1314              		.loc 1 700 0
 1315 0082 BB68     		ldr	r3, [r7, #8]
 1316 0084 1B69     		ldr	r3, [r3, #16]
 1317 0086 1A1F     		subs	r2, r3, #4
 1318 0088 BB68     		ldr	r3, [r7, #8]
 1319 008a 1A61     		str	r2, [r3, #16]
 701:..\..\..\..\..\..\Software\uCOS-II\Source/os_q.c ****     *pq->OSQOut = pmsg;                               /* Insert message into queue                 
 1320              		.loc 1 701 0
 1321 008c BB68     		ldr	r3, [r7, #8]
 1322 008e 1B69     		ldr	r3, [r3, #16]
 1323 0090 3A68     		ldr	r2, [r7]
 1324 0092 1A60     		str	r2, [r3]
 702:..\..\..\..\..\..\Software\uCOS-II\Source/os_q.c ****     pq->OSQEntries++;                                 /* Update the nbr of entries in the queue    
 1325              		.loc 1 702 0
 1326 0094 BB68     		ldr	r3, [r7, #8]
 1327 0096 DB8A     		ldrh	r3, [r3, #22]
 1328 0098 0133     		adds	r3, r3, #1
 1329 009a 9AB2     		uxth	r2, r3
 1330 009c BB68     		ldr	r3, [r7, #8]
 1331 009e DA82     		strh	r2, [r3, #22]
 703:..\..\..\..\..\..\Software\uCOS-II\Source/os_q.c ****     OS_EXIT_CRITICAL();
 1332              		.loc 1 703 0
 1333 00a0 FB68     		ldr	r3, [r7, #12]
 1334 00a2 1800     		movs	r0, r3
 1335 00a4 FFF7FEFF 		bl	OS_CPU_SR_Restore
 704:..\..\..\..\..\..\Software\uCOS-II\Source/os_q.c ****     return (OS_ERR_NONE);
 1336              		.loc 1 704 0
 1337 00a8 0023     		movs	r3, #0
 1338              	.L74:
 705:..\..\..\..\..\..\Software\uCOS-II\Source/os_q.c **** }
 1339              		.loc 1 705 0
 1340 00aa 1800     		movs	r0, r3
 1341 00ac BD46     		mov	sp, r7
 1342 00ae 04B0     		add	sp, sp, #16
ARM GAS  C:\Users\ADMINI~1\AppData\Local\Temp\cc9sCsDg.s 			page 37


 1343              		@ sp needed
 1344 00b0 80BD     		pop	{r7, pc}
 1345              		.cfi_endproc
 1346              	.LFE8:
 1347              		.size	OSQPostFront, .-OSQPostFront
 1348 00b2 C046     		.section	.text.OSQPostOpt,"ax",%progbits
 1349              		.align	2
 1350              		.global	OSQPostOpt
 1351              		.code	16
 1352              		.thumb_func
 1353              		.type	OSQPostOpt, %function
 1354              	OSQPostOpt:
 1355              	.LFB9:
 706:..\..\..\..\..\..\Software\uCOS-II\Source/os_q.c **** #endif
 707:..\..\..\..\..\..\Software\uCOS-II\Source/os_q.c **** /*$PAGE*/
 708:..\..\..\..\..\..\Software\uCOS-II\Source/os_q.c **** /*
 709:..\..\..\..\..\..\Software\uCOS-II\Source/os_q.c **** ***************************************************************************************************
 710:..\..\..\..\..\..\Software\uCOS-II\Source/os_q.c **** *                                       POST MESSAGE TO A QUEUE
 711:..\..\..\..\..\..\Software\uCOS-II\Source/os_q.c **** *
 712:..\..\..\..\..\..\Software\uCOS-II\Source/os_q.c **** * Description: This function sends a message to a queue.  This call has been added to reduce code s
 713:..\..\..\..\..\..\Software\uCOS-II\Source/os_q.c **** *              since it can replace both OSQPost() and OSQPostFront().  Also, this function adds th
 714:..\..\..\..\..\..\Software\uCOS-II\Source/os_q.c **** *              capability to broadcast a message to ALL tasks waiting on the message queue.
 715:..\..\..\..\..\..\Software\uCOS-II\Source/os_q.c **** *
 716:..\..\..\..\..\..\Software\uCOS-II\Source/os_q.c **** * Arguments  : pevent        is a pointer to the event control block associated with the desired qu
 717:..\..\..\..\..\..\Software\uCOS-II\Source/os_q.c **** *
 718:..\..\..\..\..\..\Software\uCOS-II\Source/os_q.c **** *              pmsg          is a pointer to the message to send.
 719:..\..\..\..\..\..\Software\uCOS-II\Source/os_q.c **** *
 720:..\..\..\..\..\..\Software\uCOS-II\Source/os_q.c **** *              opt           determines the type of POST performed:
 721:..\..\..\..\..\..\Software\uCOS-II\Source/os_q.c **** *                            OS_POST_OPT_NONE         POST to a single waiting task
 722:..\..\..\..\..\..\Software\uCOS-II\Source/os_q.c **** *                                                     (Identical to OSQPost())
 723:..\..\..\..\..\..\Software\uCOS-II\Source/os_q.c **** *                            OS_POST_OPT_BROADCAST    POST to ALL tasks that are waiting on the que
 724:..\..\..\..\..\..\Software\uCOS-II\Source/os_q.c **** *                            OS_POST_OPT_FRONT        POST as LIFO (Simulates OSQPostFront())
 725:..\..\..\..\..\..\Software\uCOS-II\Source/os_q.c **** *                            OS_POST_OPT_NO_SCHED     Indicates that the scheduler will NOT be invo
 726:..\..\..\..\..\..\Software\uCOS-II\Source/os_q.c **** *
 727:..\..\..\..\..\..\Software\uCOS-II\Source/os_q.c **** * Returns    : OS_ERR_NONE           The call was successful and the message was sent
 728:..\..\..\..\..\..\Software\uCOS-II\Source/os_q.c **** *              OS_ERR_Q_FULL         If the queue cannot accept any more messages because it is ful
 729:..\..\..\..\..\..\Software\uCOS-II\Source/os_q.c **** *              OS_ERR_EVENT_TYPE     If you didn't pass a pointer to a queue.
 730:..\..\..\..\..\..\Software\uCOS-II\Source/os_q.c **** *              OS_ERR_PEVENT_NULL    If 'pevent' is a NULL pointer
 731:..\..\..\..\..\..\Software\uCOS-II\Source/os_q.c **** *
 732:..\..\..\..\..\..\Software\uCOS-II\Source/os_q.c **** * Warning    : Interrupts can be disabled for a long time if you do a 'broadcast'.  In fact, the
 733:..\..\..\..\..\..\Software\uCOS-II\Source/os_q.c **** *              interrupt disable time is proportional to the number of tasks waiting on the queue.
 734:..\..\..\..\..\..\Software\uCOS-II\Source/os_q.c **** ***************************************************************************************************
 735:..\..\..\..\..\..\Software\uCOS-II\Source/os_q.c **** */
 736:..\..\..\..\..\..\Software\uCOS-II\Source/os_q.c **** 
 737:..\..\..\..\..\..\Software\uCOS-II\Source/os_q.c **** #if OS_Q_POST_OPT_EN > 0u
 738:..\..\..\..\..\..\Software\uCOS-II\Source/os_q.c **** INT8U  OSQPostOpt (OS_EVENT  *pevent,
 739:..\..\..\..\..\..\Software\uCOS-II\Source/os_q.c ****                    void      *pmsg,
 740:..\..\..\..\..\..\Software\uCOS-II\Source/os_q.c ****                    INT8U      opt)
 741:..\..\..\..\..\..\Software\uCOS-II\Source/os_q.c **** {
 1356              		.loc 1 741 0
 1357              		.cfi_startproc
 1358              		@ args = 0, pretend = 0, frame = 24
 1359              		@ frame_needed = 1, uses_anonymous_args = 0
 1360 0000 80B5     		push	{r7, lr}
 1361              		.cfi_def_cfa_offset 8
 1362              		.cfi_offset 7, -8
 1363              		.cfi_offset 14, -4
ARM GAS  C:\Users\ADMINI~1\AppData\Local\Temp\cc9sCsDg.s 			page 38


 1364 0002 86B0     		sub	sp, sp, #24
 1365              		.cfi_def_cfa_offset 32
 1366 0004 00AF     		add	r7, sp, #0
 1367              		.cfi_def_cfa_register 7
 1368 0006 F860     		str	r0, [r7, #12]
 1369 0008 B960     		str	r1, [r7, #8]
 1370 000a FB1D     		adds	r3, r7, #7
 1371 000c 1A70     		strb	r2, [r3]
 742:..\..\..\..\..\..\Software\uCOS-II\Source/os_q.c ****     OS_Q      *pq;
 743:..\..\..\..\..\..\Software\uCOS-II\Source/os_q.c **** #if OS_CRITICAL_METHOD == 3u                          /* Allocate storage for CPU status register  
 744:..\..\..\..\..\..\Software\uCOS-II\Source/os_q.c ****     OS_CPU_SR  cpu_sr = 0u;
 1372              		.loc 1 744 0
 1373 000e 0023     		movs	r3, #0
 1374 0010 7B61     		str	r3, [r7, #20]
 745:..\..\..\..\..\..\Software\uCOS-II\Source/os_q.c **** #endif
 746:..\..\..\..\..\..\Software\uCOS-II\Source/os_q.c **** 
 747:..\..\..\..\..\..\Software\uCOS-II\Source/os_q.c **** 
 748:..\..\..\..\..\..\Software\uCOS-II\Source/os_q.c **** 
 749:..\..\..\..\..\..\Software\uCOS-II\Source/os_q.c **** #if OS_ARG_CHK_EN > 0u
 750:..\..\..\..\..\..\Software\uCOS-II\Source/os_q.c ****     if (pevent == (OS_EVENT *)0) {                    /* Validate 'pevent'                         
 1375              		.loc 1 750 0
 1376 0012 FB68     		ldr	r3, [r7, #12]
 1377 0014 002B     		cmp	r3, #0
 1378 0016 01D1     		bne	.L80
 751:..\..\..\..\..\..\Software\uCOS-II\Source/os_q.c ****         return (OS_ERR_PEVENT_NULL);
 1379              		.loc 1 751 0
 1380 0018 0423     		movs	r3, #4
 1381 001a 75E0     		b	.L81
 1382              	.L80:
 752:..\..\..\..\..\..\Software\uCOS-II\Source/os_q.c ****     }
 753:..\..\..\..\..\..\Software\uCOS-II\Source/os_q.c **** #endif
 754:..\..\..\..\..\..\Software\uCOS-II\Source/os_q.c ****     if (pevent->OSEventType != OS_EVENT_TYPE_Q) {     /* Validate event block type                 
 1383              		.loc 1 754 0
 1384 001c FB68     		ldr	r3, [r7, #12]
 1385 001e 1B78     		ldrb	r3, [r3]
 1386 0020 022B     		cmp	r3, #2
 1387 0022 01D0     		beq	.L82
 755:..\..\..\..\..\..\Software\uCOS-II\Source/os_q.c ****         return (OS_ERR_EVENT_TYPE);
 1388              		.loc 1 755 0
 1389 0024 0123     		movs	r3, #1
 1390 0026 6FE0     		b	.L81
 1391              	.L82:
 756:..\..\..\..\..\..\Software\uCOS-II\Source/os_q.c ****     }
 757:..\..\..\..\..\..\Software\uCOS-II\Source/os_q.c ****     OS_ENTER_CRITICAL();
 1392              		.loc 1 757 0
 1393 0028 FFF7FEFF 		bl	OS_CPU_SR_Save
 1394 002c 0300     		movs	r3, r0
 1395 002e 7B61     		str	r3, [r7, #20]
 758:..\..\..\..\..\..\Software\uCOS-II\Source/os_q.c ****     if (pevent->OSEventGrp != 0x00u) {                /* See if any task pending on queue          
 1396              		.loc 1 758 0
 1397 0030 FB68     		ldr	r3, [r7, #12]
 1398 0032 9B7A     		ldrb	r3, [r3, #10]
 1399 0034 002B     		cmp	r3, #0
 1400 0036 23D0     		beq	.L83
 759:..\..\..\..\..\..\Software\uCOS-II\Source/os_q.c ****         if ((opt & OS_POST_OPT_BROADCAST) != 0x00u) { /* Do we need to post msg to ALL waiting task
 1401              		.loc 1 759 0
 1402 0038 FB1D     		adds	r3, r7, #7
ARM GAS  C:\Users\ADMINI~1\AppData\Local\Temp\cc9sCsDg.s 			page 39


 1403 003a 1B78     		ldrb	r3, [r3]
 1404 003c 0122     		movs	r2, #1
 1405 003e 1340     		ands	r3, r2
 1406 0040 0BD0     		beq	.L84
 760:..\..\..\..\..\..\Software\uCOS-II\Source/os_q.c ****             while (pevent->OSEventGrp != 0u) {        /* Yes, Post to ALL tasks waiting on queue   
 1407              		.loc 1 760 0
 1408 0042 05E0     		b	.L85
 1409              	.L86:
 761:..\..\..\..\..\..\Software\uCOS-II\Source/os_q.c ****                 (void)OS_EventTaskRdy(pevent, pmsg, OS_STAT_Q, OS_STAT_PEND_OK);
 1410              		.loc 1 761 0
 1411 0044 B968     		ldr	r1, [r7, #8]
 1412 0046 F868     		ldr	r0, [r7, #12]
 1413 0048 0023     		movs	r3, #0
 1414 004a 0422     		movs	r2, #4
 1415 004c FFF7FEFF 		bl	OS_EventTaskRdy
 1416              	.L85:
 760:..\..\..\..\..\..\Software\uCOS-II\Source/os_q.c ****             while (pevent->OSEventGrp != 0u) {        /* Yes, Post to ALL tasks waiting on queue   
 1417              		.loc 1 760 0
 1418 0050 FB68     		ldr	r3, [r7, #12]
 1419 0052 9B7A     		ldrb	r3, [r3, #10]
 1420 0054 002B     		cmp	r3, #0
 1421 0056 F5D1     		bne	.L86
 1422 0058 05E0     		b	.L87
 1423              	.L84:
 762:..\..\..\..\..\..\Software\uCOS-II\Source/os_q.c ****             }
 763:..\..\..\..\..\..\Software\uCOS-II\Source/os_q.c ****         } else {                                      /* No,  Post to HPT waiting on queue         
 764:..\..\..\..\..\..\Software\uCOS-II\Source/os_q.c ****             (void)OS_EventTaskRdy(pevent, pmsg, OS_STAT_Q, OS_STAT_PEND_OK);
 1424              		.loc 1 764 0
 1425 005a B968     		ldr	r1, [r7, #8]
 1426 005c F868     		ldr	r0, [r7, #12]
 1427 005e 0023     		movs	r3, #0
 1428 0060 0422     		movs	r2, #4
 1429 0062 FFF7FEFF 		bl	OS_EventTaskRdy
 1430              	.L87:
 765:..\..\..\..\..\..\Software\uCOS-II\Source/os_q.c ****         }
 766:..\..\..\..\..\..\Software\uCOS-II\Source/os_q.c ****         OS_EXIT_CRITICAL();
 1431              		.loc 1 766 0
 1432 0066 7B69     		ldr	r3, [r7, #20]
 1433 0068 1800     		movs	r0, r3
 1434 006a FFF7FEFF 		bl	OS_CPU_SR_Restore
 767:..\..\..\..\..\..\Software\uCOS-II\Source/os_q.c ****         if ((opt & OS_POST_OPT_NO_SCHED) == 0u) {     /* See if scheduler needs to be invoked      
 1435              		.loc 1 767 0
 1436 006e FB1D     		adds	r3, r7, #7
 1437 0070 1B78     		ldrb	r3, [r3]
 1438 0072 0422     		movs	r2, #4
 1439 0074 1340     		ands	r3, r2
 1440 0076 01D1     		bne	.L88
 768:..\..\..\..\..\..\Software\uCOS-II\Source/os_q.c ****             OS_Sched();                               /* Find highest priority task ready to run   
 1441              		.loc 1 768 0
 1442 0078 FFF7FEFF 		bl	OS_Sched
 1443              	.L88:
 769:..\..\..\..\..\..\Software\uCOS-II\Source/os_q.c ****         }
 770:..\..\..\..\..\..\Software\uCOS-II\Source/os_q.c ****         return (OS_ERR_NONE);
 1444              		.loc 1 770 0
 1445 007c 0023     		movs	r3, #0
 1446 007e 43E0     		b	.L81
 1447              	.L83:
ARM GAS  C:\Users\ADMINI~1\AppData\Local\Temp\cc9sCsDg.s 			page 40


 771:..\..\..\..\..\..\Software\uCOS-II\Source/os_q.c ****     }
 772:..\..\..\..\..\..\Software\uCOS-II\Source/os_q.c ****     pq = (OS_Q *)pevent->OSEventPtr;                  /* Point to queue control block              
 1448              		.loc 1 772 0
 1449 0080 FB68     		ldr	r3, [r7, #12]
 1450 0082 5B68     		ldr	r3, [r3, #4]
 1451 0084 3B61     		str	r3, [r7, #16]
 773:..\..\..\..\..\..\Software\uCOS-II\Source/os_q.c ****     if (pq->OSQEntries >= pq->OSQSize) {              /* Make sure queue is not full               
 1452              		.loc 1 773 0
 1453 0086 3B69     		ldr	r3, [r7, #16]
 1454 0088 DA8A     		ldrh	r2, [r3, #22]
 1455 008a 3B69     		ldr	r3, [r7, #16]
 1456 008c 9B8A     		ldrh	r3, [r3, #20]
 1457 008e 9A42     		cmp	r2, r3
 1458 0090 05D3     		bcc	.L89
 774:..\..\..\..\..\..\Software\uCOS-II\Source/os_q.c ****         OS_EXIT_CRITICAL();
 1459              		.loc 1 774 0
 1460 0092 7B69     		ldr	r3, [r7, #20]
 1461 0094 1800     		movs	r0, r3
 1462 0096 FFF7FEFF 		bl	OS_CPU_SR_Restore
 775:..\..\..\..\..\..\Software\uCOS-II\Source/os_q.c ****         return (OS_ERR_Q_FULL);
 1463              		.loc 1 775 0
 1464 009a 1E23     		movs	r3, #30
 1465 009c 34E0     		b	.L81
 1466              	.L89:
 776:..\..\..\..\..\..\Software\uCOS-II\Source/os_q.c ****     }
 777:..\..\..\..\..\..\Software\uCOS-II\Source/os_q.c ****     if ((opt & OS_POST_OPT_FRONT) != 0x00u) {         /* Do we post to the FRONT of the queue?     
 1467              		.loc 1 777 0
 1468 009e FB1D     		adds	r3, r7, #7
 1469 00a0 1B78     		ldrb	r3, [r3]
 1470 00a2 0222     		movs	r2, #2
 1471 00a4 1340     		ands	r3, r2
 1472 00a6 13D0     		beq	.L90
 778:..\..\..\..\..\..\Software\uCOS-II\Source/os_q.c ****         if (pq->OSQOut == pq->OSQStart) {             /* Yes, Post as LIFO, Wrap OUT pointer if we 
 1473              		.loc 1 778 0
 1474 00a8 3B69     		ldr	r3, [r7, #16]
 1475 00aa 1A69     		ldr	r2, [r3, #16]
 1476 00ac 3B69     		ldr	r3, [r7, #16]
 1477 00ae 5B68     		ldr	r3, [r3, #4]
 1478 00b0 9A42     		cmp	r2, r3
 1479 00b2 03D1     		bne	.L91
 779:..\..\..\..\..\..\Software\uCOS-II\Source/os_q.c ****             pq->OSQOut = pq->OSQEnd;                  /*      ... are at the 1st queue entry       
 1480              		.loc 1 779 0
 1481 00b4 3B69     		ldr	r3, [r7, #16]
 1482 00b6 9A68     		ldr	r2, [r3, #8]
 1483 00b8 3B69     		ldr	r3, [r7, #16]
 1484 00ba 1A61     		str	r2, [r3, #16]
 1485              	.L91:
 780:..\..\..\..\..\..\Software\uCOS-II\Source/os_q.c ****         }
 781:..\..\..\..\..\..\Software\uCOS-II\Source/os_q.c ****         pq->OSQOut--;
 1486              		.loc 1 781 0
 1487 00bc 3B69     		ldr	r3, [r7, #16]
 1488 00be 1B69     		ldr	r3, [r3, #16]
 1489 00c0 1A1F     		subs	r2, r3, #4
 1490 00c2 3B69     		ldr	r3, [r7, #16]
 1491 00c4 1A61     		str	r2, [r3, #16]
 782:..\..\..\..\..\..\Software\uCOS-II\Source/os_q.c ****         *pq->OSQOut = pmsg;                           /*      Insert message into queue            
 1492              		.loc 1 782 0
ARM GAS  C:\Users\ADMINI~1\AppData\Local\Temp\cc9sCsDg.s 			page 41


 1493 00c6 3B69     		ldr	r3, [r7, #16]
 1494 00c8 1B69     		ldr	r3, [r3, #16]
 1495 00ca BA68     		ldr	r2, [r7, #8]
 1496 00cc 1A60     		str	r2, [r3]
 1497 00ce 10E0     		b	.L92
 1498              	.L90:
 783:..\..\..\..\..\..\Software\uCOS-II\Source/os_q.c ****     } else {                                          /* No,  Post as FIFO                         
 784:..\..\..\..\..\..\Software\uCOS-II\Source/os_q.c ****         *pq->OSQIn++ = pmsg;                          /*      Insert message into queue            
 1499              		.loc 1 784 0
 1500 00d0 3B69     		ldr	r3, [r7, #16]
 1501 00d2 DB68     		ldr	r3, [r3, #12]
 1502 00d4 191D     		adds	r1, r3, #4
 1503 00d6 3A69     		ldr	r2, [r7, #16]
 1504 00d8 D160     		str	r1, [r2, #12]
 1505 00da BA68     		ldr	r2, [r7, #8]
 1506 00dc 1A60     		str	r2, [r3]
 785:..\..\..\..\..\..\Software\uCOS-II\Source/os_q.c ****         if (pq->OSQIn == pq->OSQEnd) {                /*      Wrap IN ptr if we are at end of queue
 1507              		.loc 1 785 0
 1508 00de 3B69     		ldr	r3, [r7, #16]
 1509 00e0 DA68     		ldr	r2, [r3, #12]
 1510 00e2 3B69     		ldr	r3, [r7, #16]
 1511 00e4 9B68     		ldr	r3, [r3, #8]
 1512 00e6 9A42     		cmp	r2, r3
 1513 00e8 03D1     		bne	.L92
 786:..\..\..\..\..\..\Software\uCOS-II\Source/os_q.c ****             pq->OSQIn = pq->OSQStart;
 1514              		.loc 1 786 0
 1515 00ea 3B69     		ldr	r3, [r7, #16]
 1516 00ec 5A68     		ldr	r2, [r3, #4]
 1517 00ee 3B69     		ldr	r3, [r7, #16]
 1518 00f0 DA60     		str	r2, [r3, #12]
 1519              	.L92:
 787:..\..\..\..\..\..\Software\uCOS-II\Source/os_q.c ****         }
 788:..\..\..\..\..\..\Software\uCOS-II\Source/os_q.c ****     }
 789:..\..\..\..\..\..\Software\uCOS-II\Source/os_q.c ****     pq->OSQEntries++;                                 /* Update the nbr of entries in the queue    
 1520              		.loc 1 789 0
 1521 00f2 3B69     		ldr	r3, [r7, #16]
 1522 00f4 DB8A     		ldrh	r3, [r3, #22]
 1523 00f6 0133     		adds	r3, r3, #1
 1524 00f8 9AB2     		uxth	r2, r3
 1525 00fa 3B69     		ldr	r3, [r7, #16]
 1526 00fc DA82     		strh	r2, [r3, #22]
 790:..\..\..\..\..\..\Software\uCOS-II\Source/os_q.c ****     OS_EXIT_CRITICAL();
 1527              		.loc 1 790 0
 1528 00fe 7B69     		ldr	r3, [r7, #20]
 1529 0100 1800     		movs	r0, r3
 1530 0102 FFF7FEFF 		bl	OS_CPU_SR_Restore
 791:..\..\..\..\..\..\Software\uCOS-II\Source/os_q.c ****     return (OS_ERR_NONE);
 1531              		.loc 1 791 0
 1532 0106 0023     		movs	r3, #0
 1533              	.L81:
 792:..\..\..\..\..\..\Software\uCOS-II\Source/os_q.c **** }
 1534              		.loc 1 792 0
 1535 0108 1800     		movs	r0, r3
 1536 010a BD46     		mov	sp, r7
 1537 010c 06B0     		add	sp, sp, #24
 1538              		@ sp needed
 1539 010e 80BD     		pop	{r7, pc}
ARM GAS  C:\Users\ADMINI~1\AppData\Local\Temp\cc9sCsDg.s 			page 42


 1540              		.cfi_endproc
 1541              	.LFE9:
 1542              		.size	OSQPostOpt, .-OSQPostOpt
 1543              		.section	.text.OSQQuery,"ax",%progbits
 1544              		.align	2
 1545              		.global	OSQQuery
 1546              		.code	16
 1547              		.thumb_func
 1548              		.type	OSQQuery, %function
 1549              	OSQQuery:
 1550              	.LFB10:
 793:..\..\..\..\..\..\Software\uCOS-II\Source/os_q.c **** #endif
 794:..\..\..\..\..\..\Software\uCOS-II\Source/os_q.c **** /*$PAGE*/
 795:..\..\..\..\..\..\Software\uCOS-II\Source/os_q.c **** /*
 796:..\..\..\..\..\..\Software\uCOS-II\Source/os_q.c **** ***************************************************************************************************
 797:..\..\..\..\..\..\Software\uCOS-II\Source/os_q.c **** *                                        QUERY A MESSAGE QUEUE
 798:..\..\..\..\..\..\Software\uCOS-II\Source/os_q.c **** *
 799:..\..\..\..\..\..\Software\uCOS-II\Source/os_q.c **** * Description: This function obtains information about a message queue.
 800:..\..\..\..\..\..\Software\uCOS-II\Source/os_q.c **** *
 801:..\..\..\..\..\..\Software\uCOS-II\Source/os_q.c **** * Arguments  : pevent        is a pointer to the event control block associated with the desired qu
 802:..\..\..\..\..\..\Software\uCOS-II\Source/os_q.c **** *
 803:..\..\..\..\..\..\Software\uCOS-II\Source/os_q.c **** *              p_q_data      is a pointer to a structure that will contain information about the me
 804:..\..\..\..\..\..\Software\uCOS-II\Source/os_q.c **** *                            queue.
 805:..\..\..\..\..\..\Software\uCOS-II\Source/os_q.c **** *
 806:..\..\..\..\..\..\Software\uCOS-II\Source/os_q.c **** * Returns    : OS_ERR_NONE         The call was successful and the message was sent
 807:..\..\..\..\..\..\Software\uCOS-II\Source/os_q.c **** *              OS_ERR_EVENT_TYPE   If you are attempting to obtain data from a non queue.
 808:..\..\..\..\..\..\Software\uCOS-II\Source/os_q.c **** *              OS_ERR_PEVENT_NULL  If 'pevent'   is a NULL pointer
 809:..\..\..\..\..\..\Software\uCOS-II\Source/os_q.c **** *              OS_ERR_PDATA_NULL   If 'p_q_data' is a NULL pointer
 810:..\..\..\..\..\..\Software\uCOS-II\Source/os_q.c **** ***************************************************************************************************
 811:..\..\..\..\..\..\Software\uCOS-II\Source/os_q.c **** */
 812:..\..\..\..\..\..\Software\uCOS-II\Source/os_q.c **** 
 813:..\..\..\..\..\..\Software\uCOS-II\Source/os_q.c **** #if OS_Q_QUERY_EN > 0u
 814:..\..\..\..\..\..\Software\uCOS-II\Source/os_q.c **** INT8U  OSQQuery (OS_EVENT  *pevent,
 815:..\..\..\..\..\..\Software\uCOS-II\Source/os_q.c ****                  OS_Q_DATA *p_q_data)
 816:..\..\..\..\..\..\Software\uCOS-II\Source/os_q.c **** {
 1551              		.loc 1 816 0
 1552              		.cfi_startproc
 1553              		@ args = 0, pretend = 0, frame = 32
 1554              		@ frame_needed = 1, uses_anonymous_args = 0
 1555 0000 80B5     		push	{r7, lr}
 1556              		.cfi_def_cfa_offset 8
 1557              		.cfi_offset 7, -8
 1558              		.cfi_offset 14, -4
 1559 0002 88B0     		sub	sp, sp, #32
 1560              		.cfi_def_cfa_offset 40
 1561 0004 00AF     		add	r7, sp, #0
 1562              		.cfi_def_cfa_register 7
 1563 0006 7860     		str	r0, [r7, #4]
 1564 0008 3960     		str	r1, [r7]
 817:..\..\..\..\..\..\Software\uCOS-II\Source/os_q.c ****     OS_Q       *pq;
 818:..\..\..\..\..\..\Software\uCOS-II\Source/os_q.c ****     INT8U       i;
 819:..\..\..\..\..\..\Software\uCOS-II\Source/os_q.c ****     OS_PRIO    *psrc;
 820:..\..\..\..\..\..\Software\uCOS-II\Source/os_q.c ****     OS_PRIO    *pdest;
 821:..\..\..\..\..\..\Software\uCOS-II\Source/os_q.c **** #if OS_CRITICAL_METHOD == 3u                           /* Allocate storage for CPU status register 
 822:..\..\..\..\..\..\Software\uCOS-II\Source/os_q.c ****     OS_CPU_SR   cpu_sr = 0u;
 1565              		.loc 1 822 0
 1566 000a 0023     		movs	r3, #0
ARM GAS  C:\Users\ADMINI~1\AppData\Local\Temp\cc9sCsDg.s 			page 43


 1567 000c 3B61     		str	r3, [r7, #16]
 823:..\..\..\..\..\..\Software\uCOS-II\Source/os_q.c **** #endif
 824:..\..\..\..\..\..\Software\uCOS-II\Source/os_q.c **** 
 825:..\..\..\..\..\..\Software\uCOS-II\Source/os_q.c **** 
 826:..\..\..\..\..\..\Software\uCOS-II\Source/os_q.c **** 
 827:..\..\..\..\..\..\Software\uCOS-II\Source/os_q.c **** #if OS_ARG_CHK_EN > 0u
 828:..\..\..\..\..\..\Software\uCOS-II\Source/os_q.c ****     if (pevent == (OS_EVENT *)0) {                     /* Validate 'pevent'                        
 1568              		.loc 1 828 0
 1569 000e 7B68     		ldr	r3, [r7, #4]
 1570 0010 002B     		cmp	r3, #0
 1571 0012 01D1     		bne	.L94
 829:..\..\..\..\..\..\Software\uCOS-II\Source/os_q.c ****         return (OS_ERR_PEVENT_NULL);
 1572              		.loc 1 829 0
 1573 0014 0423     		movs	r3, #4
 1574 0016 4EE0     		b	.L95
 1575              	.L94:
 830:..\..\..\..\..\..\Software\uCOS-II\Source/os_q.c ****     }
 831:..\..\..\..\..\..\Software\uCOS-II\Source/os_q.c ****     if (p_q_data == (OS_Q_DATA *)0) {                  /* Validate 'p_q_data'                      
 1576              		.loc 1 831 0
 1577 0018 3B68     		ldr	r3, [r7]
 1578 001a 002B     		cmp	r3, #0
 1579 001c 01D1     		bne	.L96
 832:..\..\..\..\..\..\Software\uCOS-II\Source/os_q.c ****         return (OS_ERR_PDATA_NULL);
 1580              		.loc 1 832 0
 1581 001e 0923     		movs	r3, #9
 1582 0020 49E0     		b	.L95
 1583              	.L96:
 833:..\..\..\..\..\..\Software\uCOS-II\Source/os_q.c ****     }
 834:..\..\..\..\..\..\Software\uCOS-II\Source/os_q.c **** #endif
 835:..\..\..\..\..\..\Software\uCOS-II\Source/os_q.c ****     if (pevent->OSEventType != OS_EVENT_TYPE_Q) {      /* Validate event block type                
 1584              		.loc 1 835 0
 1585 0022 7B68     		ldr	r3, [r7, #4]
 1586 0024 1B78     		ldrb	r3, [r3]
 1587 0026 022B     		cmp	r3, #2
 1588 0028 01D0     		beq	.L97
 836:..\..\..\..\..\..\Software\uCOS-II\Source/os_q.c ****         return (OS_ERR_EVENT_TYPE);
 1589              		.loc 1 836 0
 1590 002a 0123     		movs	r3, #1
 1591 002c 43E0     		b	.L95
 1592              	.L97:
 837:..\..\..\..\..\..\Software\uCOS-II\Source/os_q.c ****     }
 838:..\..\..\..\..\..\Software\uCOS-II\Source/os_q.c ****     OS_ENTER_CRITICAL();
 1593              		.loc 1 838 0
 1594 002e FFF7FEFF 		bl	OS_CPU_SR_Save
 1595 0032 0300     		movs	r3, r0
 1596 0034 3B61     		str	r3, [r7, #16]
 839:..\..\..\..\..\..\Software\uCOS-II\Source/os_q.c ****     p_q_data->OSEventGrp = pevent->OSEventGrp;         /* Copy message queue wait list             
 1597              		.loc 1 839 0
 1598 0036 7B68     		ldr	r3, [r7, #4]
 1599 0038 9A7A     		ldrb	r2, [r3, #10]
 1600 003a 3B68     		ldr	r3, [r7]
 1601 003c 1A74     		strb	r2, [r3, #16]
 840:..\..\..\..\..\..\Software\uCOS-II\Source/os_q.c ****     psrc                 = &pevent->OSEventTbl[0];
 1602              		.loc 1 840 0
 1603 003e 7B68     		ldr	r3, [r7, #4]
 1604 0040 0B33     		adds	r3, r3, #11
 1605 0042 BB61     		str	r3, [r7, #24]
ARM GAS  C:\Users\ADMINI~1\AppData\Local\Temp\cc9sCsDg.s 			page 44


 841:..\..\..\..\..\..\Software\uCOS-II\Source/os_q.c ****     pdest                = &p_q_data->OSEventTbl[0];
 1606              		.loc 1 841 0
 1607 0044 3B68     		ldr	r3, [r7]
 1608 0046 0833     		adds	r3, r3, #8
 1609 0048 7B61     		str	r3, [r7, #20]
 842:..\..\..\..\..\..\Software\uCOS-II\Source/os_q.c ****     for (i = 0u; i < OS_EVENT_TBL_SIZE; i++) {
 1610              		.loc 1 842 0
 1611 004a 1F23     		movs	r3, #31
 1612 004c FB18     		adds	r3, r7, r3
 1613 004e 0022     		movs	r2, #0
 1614 0050 1A70     		strb	r2, [r3]
 1615 0052 0EE0     		b	.L98
 1616              	.L99:
 843:..\..\..\..\..\..\Software\uCOS-II\Source/os_q.c ****         *pdest++ = *psrc++;
 1617              		.loc 1 843 0 discriminator 3
 1618 0054 7B69     		ldr	r3, [r7, #20]
 1619 0056 5A1C     		adds	r2, r3, #1
 1620 0058 7A61     		str	r2, [r7, #20]
 1621 005a BA69     		ldr	r2, [r7, #24]
 1622 005c 511C     		adds	r1, r2, #1
 1623 005e B961     		str	r1, [r7, #24]
 1624 0060 1278     		ldrb	r2, [r2]
 1625 0062 1A70     		strb	r2, [r3]
 842:..\..\..\..\..\..\Software\uCOS-II\Source/os_q.c ****     for (i = 0u; i < OS_EVENT_TBL_SIZE; i++) {
 1626              		.loc 1 842 0 discriminator 3
 1627 0064 1F23     		movs	r3, #31
 1628 0066 FB18     		adds	r3, r7, r3
 1629 0068 1A78     		ldrb	r2, [r3]
 1630 006a 1F23     		movs	r3, #31
 1631 006c FB18     		adds	r3, r7, r3
 1632 006e 0132     		adds	r2, r2, #1
 1633 0070 1A70     		strb	r2, [r3]
 1634              	.L98:
 842:..\..\..\..\..\..\Software\uCOS-II\Source/os_q.c ****     for (i = 0u; i < OS_EVENT_TBL_SIZE; i++) {
 1635              		.loc 1 842 0 is_stmt 0 discriminator 1
 1636 0072 1F23     		movs	r3, #31
 1637 0074 FB18     		adds	r3, r7, r3
 1638 0076 1B78     		ldrb	r3, [r3]
 1639 0078 072B     		cmp	r3, #7
 1640 007a EBD9     		bls	.L99
 844:..\..\..\..\..\..\Software\uCOS-II\Source/os_q.c ****     }
 845:..\..\..\..\..\..\Software\uCOS-II\Source/os_q.c ****     pq = (OS_Q *)pevent->OSEventPtr;
 1641              		.loc 1 845 0 is_stmt 1
 1642 007c 7B68     		ldr	r3, [r7, #4]
 1643 007e 5B68     		ldr	r3, [r3, #4]
 1644 0080 FB60     		str	r3, [r7, #12]
 846:..\..\..\..\..\..\Software\uCOS-II\Source/os_q.c ****     if (pq->OSQEntries > 0u) {
 1645              		.loc 1 846 0
 1646 0082 FB68     		ldr	r3, [r7, #12]
 1647 0084 DB8A     		ldrh	r3, [r3, #22]
 1648 0086 002B     		cmp	r3, #0
 1649 0088 05D0     		beq	.L100
 847:..\..\..\..\..\..\Software\uCOS-II\Source/os_q.c ****         p_q_data->OSMsg = *pq->OSQOut;                 /* Get next message to return if available  
 1650              		.loc 1 847 0
 1651 008a FB68     		ldr	r3, [r7, #12]
 1652 008c 1B69     		ldr	r3, [r3, #16]
 1653 008e 1A68     		ldr	r2, [r3]
ARM GAS  C:\Users\ADMINI~1\AppData\Local\Temp\cc9sCsDg.s 			page 45


 1654 0090 3B68     		ldr	r3, [r7]
 1655 0092 1A60     		str	r2, [r3]
 1656 0094 02E0     		b	.L101
 1657              	.L100:
 848:..\..\..\..\..\..\Software\uCOS-II\Source/os_q.c ****     } else {
 849:..\..\..\..\..\..\Software\uCOS-II\Source/os_q.c ****         p_q_data->OSMsg = (void *)0;
 1658              		.loc 1 849 0
 1659 0096 3B68     		ldr	r3, [r7]
 1660 0098 0022     		movs	r2, #0
 1661 009a 1A60     		str	r2, [r3]
 1662              	.L101:
 850:..\..\..\..\..\..\Software\uCOS-II\Source/os_q.c ****     }
 851:..\..\..\..\..\..\Software\uCOS-II\Source/os_q.c ****     p_q_data->OSNMsgs = pq->OSQEntries;
 1663              		.loc 1 851 0
 1664 009c FB68     		ldr	r3, [r7, #12]
 1665 009e DA8A     		ldrh	r2, [r3, #22]
 1666 00a0 3B68     		ldr	r3, [r7]
 1667 00a2 9A80     		strh	r2, [r3, #4]
 852:..\..\..\..\..\..\Software\uCOS-II\Source/os_q.c ****     p_q_data->OSQSize = pq->OSQSize;
 1668              		.loc 1 852 0
 1669 00a4 FB68     		ldr	r3, [r7, #12]
 1670 00a6 9A8A     		ldrh	r2, [r3, #20]
 1671 00a8 3B68     		ldr	r3, [r7]
 1672 00aa DA80     		strh	r2, [r3, #6]
 853:..\..\..\..\..\..\Software\uCOS-II\Source/os_q.c ****     OS_EXIT_CRITICAL();
 1673              		.loc 1 853 0
 1674 00ac 3B69     		ldr	r3, [r7, #16]
 1675 00ae 1800     		movs	r0, r3
 1676 00b0 FFF7FEFF 		bl	OS_CPU_SR_Restore
 854:..\..\..\..\..\..\Software\uCOS-II\Source/os_q.c ****     return (OS_ERR_NONE);
 1677              		.loc 1 854 0
 1678 00b4 0023     		movs	r3, #0
 1679              	.L95:
 855:..\..\..\..\..\..\Software\uCOS-II\Source/os_q.c **** }
 1680              		.loc 1 855 0
 1681 00b6 1800     		movs	r0, r3
 1682 00b8 BD46     		mov	sp, r7
 1683 00ba 08B0     		add	sp, sp, #32
 1684              		@ sp needed
 1685 00bc 80BD     		pop	{r7, pc}
 1686              		.cfi_endproc
 1687              	.LFE10:
 1688              		.size	OSQQuery, .-OSQQuery
 1689 00be C046     		.section	.text.OS_QInit,"ax",%progbits
 1690              		.align	2
 1691              		.global	OS_QInit
 1692              		.code	16
 1693              		.thumb_func
 1694              		.type	OS_QInit, %function
 1695              	OS_QInit:
 1696              	.LFB11:
 856:..\..\..\..\..\..\Software\uCOS-II\Source/os_q.c **** #endif                                                 /* OS_Q_QUERY_EN                            
 857:..\..\..\..\..\..\Software\uCOS-II\Source/os_q.c **** 
 858:..\..\..\..\..\..\Software\uCOS-II\Source/os_q.c **** /*$PAGE*/
 859:..\..\..\..\..\..\Software\uCOS-II\Source/os_q.c **** /*
 860:..\..\..\..\..\..\Software\uCOS-II\Source/os_q.c **** ***************************************************************************************************
 861:..\..\..\..\..\..\Software\uCOS-II\Source/os_q.c **** *                                     QUEUE MODULE INITIALIZATION
ARM GAS  C:\Users\ADMINI~1\AppData\Local\Temp\cc9sCsDg.s 			page 46


 862:..\..\..\..\..\..\Software\uCOS-II\Source/os_q.c **** *
 863:..\..\..\..\..\..\Software\uCOS-II\Source/os_q.c **** * Description : This function is called by uC/OS-II to initialize the message queue module.  Your
 864:..\..\..\..\..\..\Software\uCOS-II\Source/os_q.c **** *               application MUST NOT call this function.
 865:..\..\..\..\..\..\Software\uCOS-II\Source/os_q.c **** *
 866:..\..\..\..\..\..\Software\uCOS-II\Source/os_q.c **** * Arguments   :  none
 867:..\..\..\..\..\..\Software\uCOS-II\Source/os_q.c **** *
 868:..\..\..\..\..\..\Software\uCOS-II\Source/os_q.c **** * Returns     : none
 869:..\..\..\..\..\..\Software\uCOS-II\Source/os_q.c **** *
 870:..\..\..\..\..\..\Software\uCOS-II\Source/os_q.c **** * Note(s)    : This function is INTERNAL to uC/OS-II and your application should not call it.
 871:..\..\..\..\..\..\Software\uCOS-II\Source/os_q.c **** ***************************************************************************************************
 872:..\..\..\..\..\..\Software\uCOS-II\Source/os_q.c **** */
 873:..\..\..\..\..\..\Software\uCOS-II\Source/os_q.c **** 
 874:..\..\..\..\..\..\Software\uCOS-II\Source/os_q.c **** void  OS_QInit (void)
 875:..\..\..\..\..\..\Software\uCOS-II\Source/os_q.c **** {
 1697              		.loc 1 875 0
 1698              		.cfi_startproc
 1699              		@ args = 0, pretend = 0, frame = 16
 1700              		@ frame_needed = 1, uses_anonymous_args = 0
 1701 0000 80B5     		push	{r7, lr}
 1702              		.cfi_def_cfa_offset 8
 1703              		.cfi_offset 7, -8
 1704              		.cfi_offset 14, -4
 1705 0002 84B0     		sub	sp, sp, #16
 1706              		.cfi_def_cfa_offset 24
 1707 0004 00AF     		add	r7, sp, #0
 1708              		.cfi_def_cfa_register 7
 876:..\..\..\..\..\..\Software\uCOS-II\Source/os_q.c **** #if OS_MAX_QS == 1u
 877:..\..\..\..\..\..\Software\uCOS-II\Source/os_q.c ****     OSQFreeList         = &OSQTbl[0];                /* Only ONE queue!                            
 878:..\..\..\..\..\..\Software\uCOS-II\Source/os_q.c ****     OSQFreeList->OSQPtr = (OS_Q *)0;
 879:..\..\..\..\..\..\Software\uCOS-II\Source/os_q.c **** #endif
 880:..\..\..\..\..\..\Software\uCOS-II\Source/os_q.c **** 
 881:..\..\..\..\..\..\Software\uCOS-II\Source/os_q.c **** #if OS_MAX_QS >= 2u
 882:..\..\..\..\..\..\Software\uCOS-II\Source/os_q.c ****     INT16U   ix;
 883:..\..\..\..\..\..\Software\uCOS-II\Source/os_q.c ****     INT16U   ix_next;
 884:..\..\..\..\..\..\Software\uCOS-II\Source/os_q.c ****     OS_Q    *pq1;
 885:..\..\..\..\..\..\Software\uCOS-II\Source/os_q.c ****     OS_Q    *pq2;
 886:..\..\..\..\..\..\Software\uCOS-II\Source/os_q.c **** 
 887:..\..\..\..\..\..\Software\uCOS-II\Source/os_q.c **** 
 888:..\..\..\..\..\..\Software\uCOS-II\Source/os_q.c **** 
 889:..\..\..\..\..\..\Software\uCOS-II\Source/os_q.c ****     OS_MemClr((INT8U *)&OSQTbl[0], sizeof(OSQTbl));  /* Clear the queue table                      
 1709              		.loc 1 889 0
 1710 0006 244B     		ldr	r3, .L105
 1711 0008 6021     		movs	r1, #96
 1712 000a 1800     		movs	r0, r3
 1713 000c FFF7FEFF 		bl	OS_MemClr
 890:..\..\..\..\..\..\Software\uCOS-II\Source/os_q.c ****     for (ix = 0u; ix < (OS_MAX_QS - 1u); ix++) {     /* Init. list of free QUEUE control blocks    
 1714              		.loc 1 890 0
 1715 0010 0E23     		movs	r3, #14
 1716 0012 FB18     		adds	r3, r7, r3
 1717 0014 0022     		movs	r2, #0
 1718 0016 1A80     		strh	r2, [r3]
 1719 0018 24E0     		b	.L103
 1720              	.L104:
 891:..\..\..\..\..\..\Software\uCOS-II\Source/os_q.c ****         ix_next = ix + 1u;
 1721              		.loc 1 891 0 discriminator 3
 1722 001a 0C23     		movs	r3, #12
 1723 001c FB18     		adds	r3, r7, r3
ARM GAS  C:\Users\ADMINI~1\AppData\Local\Temp\cc9sCsDg.s 			page 47


 1724 001e 0E22     		movs	r2, #14
 1725 0020 BA18     		adds	r2, r7, r2
 1726 0022 1288     		ldrh	r2, [r2]
 1727 0024 0132     		adds	r2, r2, #1
 1728 0026 1A80     		strh	r2, [r3]
 892:..\..\..\..\..\..\Software\uCOS-II\Source/os_q.c ****         pq1 = &OSQTbl[ix];
 1729              		.loc 1 892 0 discriminator 3
 1730 0028 0E23     		movs	r3, #14
 1731 002a FB18     		adds	r3, r7, r3
 1732 002c 1A88     		ldrh	r2, [r3]
 1733 002e 1300     		movs	r3, r2
 1734 0030 5B00     		lsls	r3, r3, #1
 1735 0032 9B18     		adds	r3, r3, r2
 1736 0034 DB00     		lsls	r3, r3, #3
 1737 0036 184A     		ldr	r2, .L105
 1738 0038 9B18     		adds	r3, r3, r2
 1739 003a BB60     		str	r3, [r7, #8]
 893:..\..\..\..\..\..\Software\uCOS-II\Source/os_q.c ****         pq2 = &OSQTbl[ix_next];
 1740              		.loc 1 893 0 discriminator 3
 1741 003c 0C23     		movs	r3, #12
 1742 003e FB18     		adds	r3, r7, r3
 1743 0040 1A88     		ldrh	r2, [r3]
 1744 0042 1300     		movs	r3, r2
 1745 0044 5B00     		lsls	r3, r3, #1
 1746 0046 9B18     		adds	r3, r3, r2
 1747 0048 DB00     		lsls	r3, r3, #3
 1748 004a 134A     		ldr	r2, .L105
 1749 004c 9B18     		adds	r3, r3, r2
 1750 004e 7B60     		str	r3, [r7, #4]
 894:..\..\..\..\..\..\Software\uCOS-II\Source/os_q.c ****         pq1->OSQPtr = pq2;
 1751              		.loc 1 894 0 discriminator 3
 1752 0050 BB68     		ldr	r3, [r7, #8]
 1753 0052 7A68     		ldr	r2, [r7, #4]
 1754 0054 1A60     		str	r2, [r3]
 890:..\..\..\..\..\..\Software\uCOS-II\Source/os_q.c ****         ix_next = ix + 1u;
 1755              		.loc 1 890 0 discriminator 3
 1756 0056 0E23     		movs	r3, #14
 1757 0058 FB18     		adds	r3, r7, r3
 1758 005a 1A88     		ldrh	r2, [r3]
 1759 005c 0E23     		movs	r3, #14
 1760 005e FB18     		adds	r3, r7, r3
 1761 0060 0132     		adds	r2, r2, #1
 1762 0062 1A80     		strh	r2, [r3]
 1763              	.L103:
 890:..\..\..\..\..\..\Software\uCOS-II\Source/os_q.c ****         ix_next = ix + 1u;
 1764              		.loc 1 890 0 is_stmt 0 discriminator 1
 1765 0064 0E23     		movs	r3, #14
 1766 0066 FB18     		adds	r3, r7, r3
 1767 0068 1B88     		ldrh	r3, [r3]
 1768 006a 022B     		cmp	r3, #2
 1769 006c D5D9     		bls	.L104
 895:..\..\..\..\..\..\Software\uCOS-II\Source/os_q.c ****     }
 896:..\..\..\..\..\..\Software\uCOS-II\Source/os_q.c ****     pq1         = &OSQTbl[ix];
 1770              		.loc 1 896 0 is_stmt 1
 1771 006e 0E23     		movs	r3, #14
 1772 0070 FB18     		adds	r3, r7, r3
 1773 0072 1A88     		ldrh	r2, [r3]
ARM GAS  C:\Users\ADMINI~1\AppData\Local\Temp\cc9sCsDg.s 			page 48


 1774 0074 1300     		movs	r3, r2
 1775 0076 5B00     		lsls	r3, r3, #1
 1776 0078 9B18     		adds	r3, r3, r2
 1777 007a DB00     		lsls	r3, r3, #3
 1778 007c 064A     		ldr	r2, .L105
 1779 007e 9B18     		adds	r3, r3, r2
 1780 0080 BB60     		str	r3, [r7, #8]
 897:..\..\..\..\..\..\Software\uCOS-II\Source/os_q.c ****     pq1->OSQPtr = (OS_Q *)0;
 1781              		.loc 1 897 0
 1782 0082 BB68     		ldr	r3, [r7, #8]
 1783 0084 0022     		movs	r2, #0
 1784 0086 1A60     		str	r2, [r3]
 898:..\..\..\..\..\..\Software\uCOS-II\Source/os_q.c ****     OSQFreeList = &OSQTbl[0];
 1785              		.loc 1 898 0
 1786 0088 044B     		ldr	r3, .L105+4
 1787 008a 034A     		ldr	r2, .L105
 1788 008c 1A60     		str	r2, [r3]
 899:..\..\..\..\..\..\Software\uCOS-II\Source/os_q.c **** #endif
 900:..\..\..\..\..\..\Software\uCOS-II\Source/os_q.c **** }
 1789              		.loc 1 900 0
 1790 008e C046     		nop
 1791 0090 BD46     		mov	sp, r7
 1792 0092 04B0     		add	sp, sp, #16
 1793              		@ sp needed
 1794 0094 80BD     		pop	{r7, pc}
 1795              	.L106:
 1796 0096 C046     		.align	2
 1797              	.L105:
 1798 0098 00000000 		.word	OSQTbl
 1799 009c 00000000 		.word	OSQFreeList
 1800              		.cfi_endproc
 1801              	.LFE11:
 1802              		.size	OS_QInit, .-OS_QInit
 1803              		.text
 1804              	.Letext0:
 1805              		.file 2 "..\\..\\..\\..\\..\\..\\Software\\uCOS-II\\Ports\\ARM-Cortex-M0\\Generic\\GNU/os_cpu.h"
 1806              		.file 3 "..\\..\\..\\..\\..\\..\\Software\\uCOS-II\\Source/ucos_ii.h"
 1807              		.section	.debug_info,"",%progbits
 1808              	.Ldebug_info0:
 1809 0000 18090000 		.4byte	0x918
 1810 0004 0400     		.2byte	0x4
 1811 0006 00000000 		.4byte	.Ldebug_abbrev0
 1812 000a 04       		.byte	0x4
 1813 000b 01       		.uleb128 0x1
 1814 000c 32020000 		.4byte	.LASF112
 1815 0010 0C       		.byte	0xc
 1816 0011 FB030000 		.4byte	.LASF113
 1817 0015 62040000 		.4byte	.LASF114
 1818 0019 00000000 		.4byte	.Ldebug_ranges0+0
 1819 001d 00000000 		.4byte	0
 1820 0021 00000000 		.4byte	.Ldebug_line0
 1821 0025 02       		.uleb128 0x2
 1822 0026 01       		.byte	0x1
 1823 0027 06       		.byte	0x6
 1824 0028 80010000 		.4byte	.LASF0
 1825 002c 02       		.uleb128 0x2
 1826 002d 01       		.byte	0x1
ARM GAS  C:\Users\ADMINI~1\AppData\Local\Temp\cc9sCsDg.s 			page 49


 1827 002e 08       		.byte	0x8
 1828 002f D1020000 		.4byte	.LASF1
 1829 0033 02       		.uleb128 0x2
 1830 0034 02       		.byte	0x2
 1831 0035 05       		.byte	0x5
 1832 0036 86000000 		.4byte	.LASF2
 1833 003a 02       		.uleb128 0x2
 1834 003b 02       		.byte	0x2
 1835 003c 07       		.byte	0x7
 1836 003d E5040000 		.4byte	.LASF3
 1837 0041 02       		.uleb128 0x2
 1838 0042 04       		.byte	0x4
 1839 0043 05       		.byte	0x5
 1840 0044 DB010000 		.4byte	.LASF4
 1841 0048 02       		.uleb128 0x2
 1842 0049 04       		.byte	0x4
 1843 004a 07       		.byte	0x7
 1844 004b 50040000 		.4byte	.LASF5
 1845 004f 02       		.uleb128 0x2
 1846 0050 08       		.byte	0x8
 1847 0051 05       		.byte	0x5
 1848 0052 B7010000 		.4byte	.LASF6
 1849 0056 02       		.uleb128 0x2
 1850 0057 08       		.byte	0x8
 1851 0058 07       		.byte	0x7
 1852 0059 4B030000 		.4byte	.LASF7
 1853 005d 03       		.uleb128 0x3
 1854 005e 04       		.byte	0x4
 1855 005f 05       		.byte	0x5
 1856 0060 696E7400 		.ascii	"int\000"
 1857 0064 02       		.uleb128 0x2
 1858 0065 04       		.byte	0x4
 1859 0066 07       		.byte	0x7
 1860 0067 69030000 		.4byte	.LASF8
 1861 006b 02       		.uleb128 0x2
 1862 006c 08       		.byte	0x8
 1863 006d 04       		.byte	0x4
 1864 006e F0020000 		.4byte	.LASF9
 1865 0072 04       		.uleb128 0x4
 1866 0073 04       		.byte	0x4
 1867 0074 02       		.uleb128 0x2
 1868 0075 04       		.byte	0x4
 1869 0076 07       		.byte	0x7
 1870 0077 A8000000 		.4byte	.LASF10
 1871 007b 02       		.uleb128 0x2
 1872 007c 01       		.byte	0x1
 1873 007d 08       		.byte	0x8
 1874 007e B8030000 		.4byte	.LASF11
 1875 0082 05       		.uleb128 0x5
 1876 0083 4D050000 		.4byte	.LASF12
 1877 0087 02       		.byte	0x2
 1878 0088 72       		.byte	0x72
 1879 0089 2C000000 		.4byte	0x2c
 1880 008d 05       		.uleb128 0x5
 1881 008e 2C020000 		.4byte	.LASF13
 1882 0092 02       		.byte	0x2
 1883 0093 73       		.byte	0x73
ARM GAS  C:\Users\ADMINI~1\AppData\Local\Temp\cc9sCsDg.s 			page 50


 1884 0094 2C000000 		.4byte	0x2c
 1885 0098 05       		.uleb128 0x5
 1886 0099 3C030000 		.4byte	.LASF14
 1887 009d 02       		.byte	0x2
 1888 009e 75       		.byte	0x75
 1889 009f 3A000000 		.4byte	0x3a
 1890 00a3 05       		.uleb128 0x5
 1891 00a4 46050000 		.4byte	.LASF15
 1892 00a8 02       		.byte	0x2
 1893 00a9 77       		.byte	0x77
 1894 00aa 64000000 		.4byte	0x64
 1895 00ae 02       		.uleb128 0x2
 1896 00af 04       		.byte	0x4
 1897 00b0 04       		.byte	0x4
 1898 00b1 9A010000 		.4byte	.LASF16
 1899 00b5 02       		.uleb128 0x2
 1900 00b6 08       		.byte	0x8
 1901 00b7 04       		.byte	0x4
 1902 00b8 03010000 		.4byte	.LASF17
 1903 00bc 05       		.uleb128 0x5
 1904 00bd B1000000 		.4byte	.LASF18
 1905 00c1 02       		.byte	0x2
 1906 00c2 7C       		.byte	0x7c
 1907 00c3 64000000 		.4byte	0x64
 1908 00c7 05       		.uleb128 0x5
 1909 00c8 C1000000 		.4byte	.LASF19
 1910 00cc 02       		.byte	0x2
 1911 00cd 7D       		.byte	0x7d
 1912 00ce 64000000 		.4byte	0x64
 1913 00d2 06       		.uleb128 0x6
 1914 00d3 CC030000 		.4byte	.LASF20
 1915 00d7 03       		.byte	0x3
 1916 00d8 7201     		.2byte	0x172
 1917 00da 8D000000 		.4byte	0x8d
 1918 00de 07       		.uleb128 0x7
 1919 00df ED000000 		.4byte	.LASF29
 1920 00e3 18       		.byte	0x18
 1921 00e4 03       		.byte	0x3
 1922 00e5 7801     		.2byte	0x178
 1923 00e7 3A010000 		.4byte	0x13a
 1924 00eb 08       		.uleb128 0x8
 1925 00ec 2D050000 		.4byte	.LASF21
 1926 00f0 03       		.byte	0x3
 1927 00f1 7901     		.2byte	0x179
 1928 00f3 8D000000 		.4byte	0x8d
 1929 00f7 00       		.byte	0
 1930 00f8 08       		.uleb128 0x8
 1931 00f9 75010000 		.4byte	.LASF22
 1932 00fd 03       		.byte	0x3
 1933 00fe 7A01     		.2byte	0x17a
 1934 0100 72000000 		.4byte	0x72
 1935 0104 04       		.byte	0x4
 1936 0105 08       		.uleb128 0x8
 1937 0106 D4030000 		.4byte	.LASF23
 1938 010a 03       		.byte	0x3
 1939 010b 7B01     		.2byte	0x17b
 1940 010d 98000000 		.4byte	0x98
ARM GAS  C:\Users\ADMINI~1\AppData\Local\Temp\cc9sCsDg.s 			page 51


 1941 0111 08       		.byte	0x8
 1942 0112 08       		.uleb128 0x8
 1943 0113 D2040000 		.4byte	.LASF24
 1944 0117 03       		.byte	0x3
 1945 0118 7C01     		.2byte	0x17c
 1946 011a D2000000 		.4byte	0xd2
 1947 011e 0A       		.byte	0xa
 1948 011f 08       		.uleb128 0x8
 1949 0120 B2050000 		.4byte	.LASF25
 1950 0124 03       		.byte	0x3
 1951 0125 7D01     		.2byte	0x17d
 1952 0127 3A010000 		.4byte	0x13a
 1953 012b 0B       		.byte	0xb
 1954 012c 08       		.uleb128 0x8
 1955 012d 90000000 		.4byte	.LASF26
 1956 0131 03       		.byte	0x3
 1957 0132 8001     		.2byte	0x180
 1958 0134 4A010000 		.4byte	0x14a
 1959 0138 14       		.byte	0x14
 1960 0139 00       		.byte	0
 1961 013a 09       		.uleb128 0x9
 1962 013b D2000000 		.4byte	0xd2
 1963 013f 4A010000 		.4byte	0x14a
 1964 0143 0A       		.uleb128 0xa
 1965 0144 74000000 		.4byte	0x74
 1966 0148 07       		.byte	0x7
 1967 0149 00       		.byte	0
 1968 014a 0B       		.uleb128 0xb
 1969 014b 04       		.byte	0x4
 1970 014c 8D000000 		.4byte	0x8d
 1971 0150 06       		.uleb128 0x6
 1972 0151 D2010000 		.4byte	.LASF27
 1973 0155 03       		.byte	0x3
 1974 0156 8201     		.2byte	0x182
 1975 0158 DE000000 		.4byte	0xde
 1976 015c 06       		.uleb128 0x6
 1977 015d 14000000 		.4byte	.LASF28
 1978 0161 03       		.byte	0x3
 1979 0162 9301     		.2byte	0x193
 1980 0164 98000000 		.4byte	0x98
 1981 0168 07       		.uleb128 0x7
 1982 0169 6B050000 		.4byte	.LASF30
 1983 016d 14       		.byte	0x14
 1984 016e 03       		.byte	0x3
 1985 016f A601     		.2byte	0x1a6
 1986 0171 C4010000 		.4byte	0x1c4
 1987 0175 08       		.uleb128 0x8
 1988 0176 BD030000 		.4byte	.LASF31
 1989 017a 03       		.byte	0x3
 1990 017b A701     		.2byte	0x1a7
 1991 017d 72000000 		.4byte	0x72
 1992 0181 00       		.byte	0
 1993 0182 08       		.uleb128 0x8
 1994 0183 9D030000 		.4byte	.LASF32
 1995 0187 03       		.byte	0x3
 1996 0188 A801     		.2byte	0x1a8
 1997 018a 72000000 		.4byte	0x72
ARM GAS  C:\Users\ADMINI~1\AppData\Local\Temp\cc9sCsDg.s 			page 52


 1998 018e 04       		.byte	0x4
 1999 018f 08       		.uleb128 0x8
 2000 0190 06050000 		.4byte	.LASF33
 2001 0194 03       		.byte	0x3
 2002 0195 A901     		.2byte	0x1a9
 2003 0197 72000000 		.4byte	0x72
 2004 019b 08       		.byte	0x8
 2005 019c 08       		.uleb128 0x8
 2006 019d 5F000000 		.4byte	.LASF34
 2007 01a1 03       		.byte	0x3
 2008 01a2 AA01     		.2byte	0x1aa
 2009 01a4 72000000 		.4byte	0x72
 2010 01a8 0C       		.byte	0xc
 2011 01a9 08       		.uleb128 0x8
 2012 01aa 06030000 		.4byte	.LASF35
 2013 01ae 03       		.byte	0x3
 2014 01af AB01     		.2byte	0x1ab
 2015 01b1 5C010000 		.4byte	0x15c
 2016 01b5 10       		.byte	0x10
 2017 01b6 08       		.uleb128 0x8
 2018 01b7 16030000 		.4byte	.LASF36
 2019 01bb 03       		.byte	0x3
 2020 01bc AC01     		.2byte	0x1ac
 2021 01be 8D000000 		.4byte	0x8d
 2022 01c2 12       		.byte	0x12
 2023 01c3 00       		.byte	0
 2024 01c4 06       		.uleb128 0x6
 2025 01c5 39050000 		.4byte	.LASF37
 2026 01c9 03       		.byte	0x3
 2027 01ca B101     		.2byte	0x1b1
 2028 01cc 68010000 		.4byte	0x168
 2029 01d0 07       		.uleb128 0x7
 2030 01d1 7F050000 		.4byte	.LASF38
 2031 01d5 18       		.byte	0x18
 2032 01d6 03       		.byte	0x3
 2033 01d7 F801     		.2byte	0x1f8
 2034 01d9 39020000 		.4byte	0x239
 2035 01dd 08       		.uleb128 0x8
 2036 01de 62030000 		.4byte	.LASF39
 2037 01e2 03       		.byte	0x3
 2038 01e3 F901     		.2byte	0x1f9
 2039 01e5 39020000 		.4byte	0x239
 2040 01e9 00       		.byte	0
 2041 01ea 08       		.uleb128 0x8
 2042 01eb B8000000 		.4byte	.LASF40
 2043 01ef 03       		.byte	0x3
 2044 01f0 FA01     		.2byte	0x1fa
 2045 01f2 3F020000 		.4byte	0x23f
 2046 01f6 04       		.byte	0x4
 2047 01f7 08       		.uleb128 0x8
 2048 01f8 E6000000 		.4byte	.LASF41
 2049 01fc 03       		.byte	0x3
 2050 01fd FB01     		.2byte	0x1fb
 2051 01ff 3F020000 		.4byte	0x23f
 2052 0203 08       		.byte	0x8
 2053 0204 08       		.uleb128 0x8
 2054 0205 1E050000 		.4byte	.LASF42
ARM GAS  C:\Users\ADMINI~1\AppData\Local\Temp\cc9sCsDg.s 			page 53


 2055 0209 03       		.byte	0x3
 2056 020a FC01     		.2byte	0x1fc
 2057 020c 3F020000 		.4byte	0x23f
 2058 0210 0C       		.byte	0xc
 2059 0211 08       		.uleb128 0x8
 2060 0212 78050000 		.4byte	.LASF43
 2061 0216 03       		.byte	0x3
 2062 0217 FD01     		.2byte	0x1fd
 2063 0219 3F020000 		.4byte	0x23f
 2064 021d 10       		.byte	0x10
 2065 021e 08       		.uleb128 0x8
 2066 021f 4A000000 		.4byte	.LASF44
 2067 0223 03       		.byte	0x3
 2068 0224 FE01     		.2byte	0x1fe
 2069 0226 98000000 		.4byte	0x98
 2070 022a 14       		.byte	0x14
 2071 022b 08       		.uleb128 0x8
 2072 022c E5020000 		.4byte	.LASF45
 2073 0230 03       		.byte	0x3
 2074 0231 FF01     		.2byte	0x1ff
 2075 0233 98000000 		.4byte	0x98
 2076 0237 16       		.byte	0x16
 2077 0238 00       		.byte	0
 2078 0239 0B       		.uleb128 0xb
 2079 023a 04       		.byte	0x4
 2080 023b D0010000 		.4byte	0x1d0
 2081 023f 0B       		.uleb128 0xb
 2082 0240 04       		.byte	0x4
 2083 0241 72000000 		.4byte	0x72
 2084 0245 06       		.uleb128 0x6
 2085 0246 30010000 		.4byte	.LASF46
 2086 024a 03       		.byte	0x3
 2087 024b 0002     		.2byte	0x200
 2088 024d D0010000 		.4byte	0x1d0
 2089 0251 07       		.uleb128 0x7
 2090 0252 4F010000 		.4byte	.LASF47
 2091 0256 14       		.byte	0x14
 2092 0257 03       		.byte	0x3
 2093 0258 0302     		.2byte	0x203
 2094 025a A0020000 		.4byte	0x2a0
 2095 025e 08       		.uleb128 0x8
 2096 025f DF020000 		.4byte	.LASF48
 2097 0263 03       		.byte	0x3
 2098 0264 0402     		.2byte	0x204
 2099 0266 72000000 		.4byte	0x72
 2100 026a 00       		.byte	0
 2101 026b 08       		.uleb128 0x8
 2102 026c 6D010000 		.4byte	.LASF49
 2103 0270 03       		.byte	0x3
 2104 0271 0502     		.2byte	0x205
 2105 0273 98000000 		.4byte	0x98
 2106 0277 04       		.byte	0x4
 2107 0278 08       		.uleb128 0x8
 2108 0279 4A000000 		.4byte	.LASF44
 2109 027d 03       		.byte	0x3
 2110 027e 0602     		.2byte	0x206
 2111 0280 98000000 		.4byte	0x98
ARM GAS  C:\Users\ADMINI~1\AppData\Local\Temp\cc9sCsDg.s 			page 54


 2112 0284 06       		.byte	0x6
 2113 0285 08       		.uleb128 0x8
 2114 0286 B2050000 		.4byte	.LASF25
 2115 028a 03       		.byte	0x3
 2116 028b 0702     		.2byte	0x207
 2117 028d 3A010000 		.4byte	0x13a
 2118 0291 08       		.byte	0x8
 2119 0292 08       		.uleb128 0x8
 2120 0293 D2040000 		.4byte	.LASF24
 2121 0297 03       		.byte	0x3
 2122 0298 0802     		.2byte	0x208
 2123 029a D2000000 		.4byte	0xd2
 2124 029e 10       		.byte	0x10
 2125 029f 00       		.byte	0
 2126 02a0 06       		.uleb128 0x6
 2127 02a1 40000000 		.4byte	.LASF50
 2128 02a5 03       		.byte	0x3
 2129 02a6 0902     		.2byte	0x209
 2130 02a8 51020000 		.4byte	0x251
 2131 02ac 07       		.uleb128 0x7
 2132 02ad 1C020000 		.4byte	.LASF51
 2133 02b1 58       		.byte	0x58
 2134 02b2 03       		.byte	0x3
 2135 02b3 2E02     		.2byte	0x22e
 2136 02b5 33040000 		.4byte	0x433
 2137 02b9 08       		.uleb128 0x8
 2138 02ba 0F010000 		.4byte	.LASF52
 2139 02be 03       		.byte	0x3
 2140 02bf 2F02     		.2byte	0x22f
 2141 02c1 33040000 		.4byte	0x433
 2142 02c5 00       		.byte	0
 2143 02c6 08       		.uleb128 0x8
 2144 02c7 2C040000 		.4byte	.LASF53
 2145 02cb 03       		.byte	0x3
 2146 02cc 3202     		.2byte	0x232
 2147 02ce 72000000 		.4byte	0x72
 2148 02d2 04       		.byte	0x4
 2149 02d3 08       		.uleb128 0x8
 2150 02d4 41040000 		.4byte	.LASF54
 2151 02d8 03       		.byte	0x3
 2152 02d9 3302     		.2byte	0x233
 2153 02db 33040000 		.4byte	0x433
 2154 02df 08       		.byte	0x8
 2155 02e0 08       		.uleb128 0x8
 2156 02e1 0F020000 		.4byte	.LASF55
 2157 02e5 03       		.byte	0x3
 2158 02e6 3402     		.2byte	0x234
 2159 02e8 A3000000 		.4byte	0xa3
 2160 02ec 0C       		.byte	0xc
 2161 02ed 08       		.uleb128 0x8
 2162 02ee 38040000 		.4byte	.LASF56
 2163 02f2 03       		.byte	0x3
 2164 02f3 3502     		.2byte	0x235
 2165 02f5 98000000 		.4byte	0x98
 2166 02f9 10       		.byte	0x10
 2167 02fa 08       		.uleb128 0x8
 2168 02fb F2010000 		.4byte	.LASF57
ARM GAS  C:\Users\ADMINI~1\AppData\Local\Temp\cc9sCsDg.s 			page 55


 2169 02ff 03       		.byte	0x3
 2170 0300 3602     		.2byte	0x236
 2171 0302 98000000 		.4byte	0x98
 2172 0306 12       		.byte	0x12
 2173 0307 08       		.uleb128 0x8
 2174 0308 59010000 		.4byte	.LASF58
 2175 030c 03       		.byte	0x3
 2176 030d 3902     		.2byte	0x239
 2177 030f 39040000 		.4byte	0x439
 2178 0313 14       		.byte	0x14
 2179 0314 08       		.uleb128 0x8
 2180 0315 14050000 		.4byte	.LASF59
 2181 0319 03       		.byte	0x3
 2182 031a 3A02     		.2byte	0x23a
 2183 031c 39040000 		.4byte	0x439
 2184 0320 18       		.byte	0x18
 2185 0321 08       		.uleb128 0x8
 2186 0322 76030000 		.4byte	.LASF60
 2187 0326 03       		.byte	0x3
 2188 0327 4302     		.2byte	0x243
 2189 0329 3F040000 		.4byte	0x43f
 2190 032d 1C       		.byte	0x1c
 2191 032e 08       		.uleb128 0x8
 2192 032f 84030000 		.4byte	.LASF61
 2193 0333 03       		.byte	0x3
 2194 0334 4702     		.2byte	0x247
 2195 0336 45040000 		.4byte	0x445
 2196 033a 20       		.byte	0x20
 2197 033b 08       		.uleb128 0x8
 2198 033c 7D000000 		.4byte	.LASF62
 2199 0340 03       		.byte	0x3
 2200 0341 4B02     		.2byte	0x24b
 2201 0343 72000000 		.4byte	0x72
 2202 0347 24       		.byte	0x24
 2203 0348 08       		.uleb128 0x8
 2204 0349 A0010000 		.4byte	.LASF63
 2205 034d 03       		.byte	0x3
 2206 034e 5002     		.2byte	0x250
 2207 0350 4B040000 		.4byte	0x44b
 2208 0354 28       		.byte	0x28
 2209 0355 08       		.uleb128 0x8
 2210 0356 BC040000 		.4byte	.LASF64
 2211 035a 03       		.byte	0x3
 2212 035b 5202     		.2byte	0x252
 2213 035d 5C010000 		.4byte	0x15c
 2214 0361 2C       		.byte	0x2c
 2215 0362 08       		.uleb128 0x8
 2216 0363 AE010000 		.4byte	.LASF65
 2217 0367 03       		.byte	0x3
 2218 0368 5502     		.2byte	0x255
 2219 036a A3000000 		.4byte	0xa3
 2220 036e 30       		.byte	0x30
 2221 036f 08       		.uleb128 0x8
 2222 0370 61050000 		.4byte	.LASF66
 2223 0374 03       		.byte	0x3
 2224 0375 5602     		.2byte	0x256
 2225 0377 8D000000 		.4byte	0x8d
ARM GAS  C:\Users\ADMINI~1\AppData\Local\Temp\cc9sCsDg.s 			page 56


 2226 037b 34       		.byte	0x34
 2227 037c 08       		.uleb128 0x8
 2228 037d 1D000000 		.4byte	.LASF67
 2229 0381 03       		.byte	0x3
 2230 0382 5702     		.2byte	0x257
 2231 0384 8D000000 		.4byte	0x8d
 2232 0388 35       		.byte	0x35
 2233 0389 08       		.uleb128 0x8
 2234 038a 45010000 		.4byte	.LASF68
 2235 038e 03       		.byte	0x3
 2236 038f 5802     		.2byte	0x258
 2237 0391 8D000000 		.4byte	0x8d
 2238 0395 36       		.byte	0x36
 2239 0396 08       		.uleb128 0x8
 2240 0397 E4010000 		.4byte	.LASF69
 2241 039b 03       		.byte	0x3
 2242 039c 5A02     		.2byte	0x25a
 2243 039e 8D000000 		.4byte	0x8d
 2244 03a2 37       		.byte	0x37
 2245 03a3 08       		.uleb128 0x8
 2246 03a4 EB010000 		.4byte	.LASF70
 2247 03a8 03       		.byte	0x3
 2248 03a9 5B02     		.2byte	0x25b
 2249 03ab 8D000000 		.4byte	0x8d
 2250 03af 38       		.byte	0x38
 2251 03b0 08       		.uleb128 0x8
 2252 03b1 05020000 		.4byte	.LASF71
 2253 03b5 03       		.byte	0x3
 2254 03b6 5C02     		.2byte	0x25c
 2255 03b8 D2000000 		.4byte	0xd2
 2256 03bc 39       		.byte	0x39
 2257 03bd 08       		.uleb128 0x8
 2258 03be 32030000 		.4byte	.LASF72
 2259 03c2 03       		.byte	0x3
 2260 03c3 5D02     		.2byte	0x25d
 2261 03c5 D2000000 		.4byte	0xd2
 2262 03c9 3A       		.byte	0x3a
 2263 03ca 08       		.uleb128 0x8
 2264 03cb 71000000 		.4byte	.LASF73
 2265 03cf 03       		.byte	0x3
 2266 03d0 6002     		.2byte	0x260
 2267 03d2 8D000000 		.4byte	0x8d
 2268 03d6 3B       		.byte	0x3b
 2269 03d7 08       		.uleb128 0x8
 2270 03d8 8C010000 		.4byte	.LASF74
 2271 03dc 03       		.byte	0x3
 2272 03dd 6402     		.2byte	0x264
 2273 03df A3000000 		.4byte	0xa3
 2274 03e3 3C       		.byte	0x3c
 2275 03e4 08       		.uleb128 0x8
 2276 03e5 EC030000 		.4byte	.LASF75
 2277 03e9 03       		.byte	0x3
 2278 03ea 6502     		.2byte	0x265
 2279 03ec A3000000 		.4byte	0xa3
 2280 03f0 40       		.byte	0x40
 2281 03f1 08       		.uleb128 0x8
 2282 03f2 C0020000 		.4byte	.LASF76
ARM GAS  C:\Users\ADMINI~1\AppData\Local\Temp\cc9sCsDg.s 			page 57


 2283 03f6 03       		.byte	0x3
 2284 03f7 6602     		.2byte	0x266
 2285 03f9 A3000000 		.4byte	0xa3
 2286 03fd 44       		.byte	0x44
 2287 03fe 08       		.uleb128 0x8
 2288 03ff 52000000 		.4byte	.LASF77
 2289 0403 03       		.byte	0x3
 2290 0404 6702     		.2byte	0x267
 2291 0406 33040000 		.4byte	0x433
 2292 040a 48       		.byte	0x48
 2293 040b 08       		.uleb128 0x8
 2294 040c D9000000 		.4byte	.LASF78
 2295 0410 03       		.byte	0x3
 2296 0411 6802     		.2byte	0x268
 2297 0413 A3000000 		.4byte	0xa3
 2298 0417 4C       		.byte	0x4c
 2299 0418 08       		.uleb128 0x8
 2300 0419 CB000000 		.4byte	.LASF79
 2301 041d 03       		.byte	0x3
 2302 041e 6C02     		.2byte	0x26c
 2303 0420 4A010000 		.4byte	0x14a
 2304 0424 50       		.byte	0x50
 2305 0425 08       		.uleb128 0x8
 2306 0426 AC030000 		.4byte	.LASF80
 2307 042a 03       		.byte	0x3
 2308 042b 7002     		.2byte	0x270
 2309 042d 51040000 		.4byte	0x451
 2310 0431 54       		.byte	0x54
 2311 0432 00       		.byte	0
 2312 0433 0B       		.uleb128 0xb
 2313 0434 04       		.byte	0x4
 2314 0435 BC000000 		.4byte	0xbc
 2315 0439 0B       		.uleb128 0xb
 2316 043a 04       		.byte	0x4
 2317 043b AC020000 		.4byte	0x2ac
 2318 043f 0B       		.uleb128 0xb
 2319 0440 04       		.byte	0x4
 2320 0441 50010000 		.4byte	0x150
 2321 0445 0B       		.uleb128 0xb
 2322 0446 04       		.byte	0x4
 2323 0447 3F040000 		.4byte	0x43f
 2324 044b 0B       		.uleb128 0xb
 2325 044c 04       		.byte	0x4
 2326 044d C4010000 		.4byte	0x1c4
 2327 0451 09       		.uleb128 0x9
 2328 0452 A3000000 		.4byte	0xa3
 2329 0456 61040000 		.4byte	0x461
 2330 045a 0A       		.uleb128 0xa
 2331 045b 74000000 		.4byte	0x74
 2332 045f 00       		.byte	0
 2333 0460 00       		.byte	0
 2334 0461 06       		.uleb128 0x6
 2335 0462 2B000000 		.4byte	.LASF81
 2336 0466 03       		.byte	0x3
 2337 0467 7202     		.2byte	0x272
 2338 0469 AC020000 		.4byte	0x2ac
 2339 046d 0C       		.uleb128 0xc
ARM GAS  C:\Users\ADMINI~1\AppData\Local\Temp\cc9sCsDg.s 			page 58


 2340 046e A0050000 		.4byte	.LASF86
 2341 0472 01       		.byte	0x1
 2342 0473 3F       		.byte	0x3f
 2343 0474 72000000 		.4byte	0x72
 2344 0478 00000000 		.4byte	.LFB1
 2345 047c 98000000 		.4byte	.LFE1-.LFB1
 2346 0480 01       		.uleb128 0x1
 2347 0481 9C       		.byte	0x9c
 2348 0482 CC040000 		.4byte	0x4cc
 2349 0486 0D       		.uleb128 0xd
 2350 0487 DF030000 		.4byte	.LASF82
 2351 048b 01       		.byte	0x1
 2352 048c 3F       		.byte	0x3f
 2353 048d 3F040000 		.4byte	0x43f
 2354 0491 02       		.uleb128 0x2
 2355 0492 91       		.byte	0x91
 2356 0493 64       		.sleb128 -28
 2357 0494 0D       		.uleb128 0xd
 2358 0495 55050000 		.4byte	.LASF83
 2359 0499 01       		.byte	0x1
 2360 049a 40       		.byte	0x40
 2361 049b 4A010000 		.4byte	0x14a
 2362 049f 02       		.uleb128 0x2
 2363 04a0 91       		.byte	0x91
 2364 04a1 60       		.sleb128 -32
 2365 04a2 0E       		.uleb128 0xe
 2366 04a3 0A010000 		.4byte	.LASF84
 2367 04a7 01       		.byte	0x1
 2368 04a8 42       		.byte	0x42
 2369 04a9 72000000 		.4byte	0x72
 2370 04ad 02       		.uleb128 0x2
 2371 04ae 91       		.byte	0x91
 2372 04af 74       		.sleb128 -12
 2373 04b0 0F       		.uleb128 0xf
 2374 04b1 707100   		.ascii	"pq\000"
 2375 04b4 01       		.byte	0x1
 2376 04b5 43       		.byte	0x43
 2377 04b6 CC040000 		.4byte	0x4cc
 2378 04ba 02       		.uleb128 0x2
 2379 04bb 91       		.byte	0x91
 2380 04bc 6C       		.sleb128 -20
 2381 04bd 0E       		.uleb128 0xe
 2382 04be 5A050000 		.4byte	.LASF85
 2383 04c2 01       		.byte	0x1
 2384 04c3 45       		.byte	0x45
 2385 04c4 C7000000 		.4byte	0xc7
 2386 04c8 02       		.uleb128 0x2
 2387 04c9 91       		.byte	0x91
 2388 04ca 70       		.sleb128 -16
 2389 04cb 00       		.byte	0
 2390 04cc 0B       		.uleb128 0xb
 2391 04cd 04       		.byte	0x4
 2392 04ce 45020000 		.4byte	0x245
 2393 04d2 0C       		.uleb128 0xc
 2394 04d3 63010000 		.4byte	.LASF87
 2395 04d7 01       		.byte	0x1
 2396 04d8 80       		.byte	0x80
ARM GAS  C:\Users\ADMINI~1\AppData\Local\Temp\cc9sCsDg.s 			page 59


 2397 04d9 3F040000 		.4byte	0x43f
 2398 04dd 00000000 		.4byte	.LFB2
 2399 04e1 F8000000 		.4byte	.LFE2-.LFB2
 2400 04e5 01       		.uleb128 0x1
 2401 04e6 9C       		.byte	0x9c
 2402 04e7 31050000 		.4byte	0x531
 2403 04eb 0D       		.uleb128 0xd
 2404 04ec 97030000 		.4byte	.LASF88
 2405 04f0 01       		.byte	0x1
 2406 04f1 80       		.byte	0x80
 2407 04f2 3F020000 		.4byte	0x23f
 2408 04f6 02       		.uleb128 0x2
 2409 04f7 91       		.byte	0x91
 2410 04f8 64       		.sleb128 -28
 2411 04f9 0D       		.uleb128 0xd
 2412 04fa 01050000 		.4byte	.LASF89
 2413 04fe 01       		.byte	0x1
 2414 04ff 81       		.byte	0x81
 2415 0500 98000000 		.4byte	0x98
 2416 0504 02       		.uleb128 0x2
 2417 0505 91       		.byte	0x91
 2418 0506 62       		.sleb128 -30
 2419 0507 0E       		.uleb128 0xe
 2420 0508 DF030000 		.4byte	.LASF82
 2421 050c 01       		.byte	0x1
 2422 050d 83       		.byte	0x83
 2423 050e 3F040000 		.4byte	0x43f
 2424 0512 02       		.uleb128 0x2
 2425 0513 91       		.byte	0x91
 2426 0514 74       		.sleb128 -12
 2427 0515 0F       		.uleb128 0xf
 2428 0516 707100   		.ascii	"pq\000"
 2429 0519 01       		.byte	0x1
 2430 051a 84       		.byte	0x84
 2431 051b CC040000 		.4byte	0x4cc
 2432 051f 02       		.uleb128 0x2
 2433 0520 91       		.byte	0x91
 2434 0521 6C       		.sleb128 -20
 2435 0522 0E       		.uleb128 0xe
 2436 0523 5A050000 		.4byte	.LASF85
 2437 0527 01       		.byte	0x1
 2438 0528 86       		.byte	0x86
 2439 0529 C7000000 		.4byte	0xc7
 2440 052d 02       		.uleb128 0x2
 2441 052e 91       		.byte	0x91
 2442 052f 70       		.sleb128 -16
 2443 0530 00       		.byte	0
 2444 0531 0C       		.uleb128 0xc
 2445 0532 00000000 		.4byte	.LASF90
 2446 0536 01       		.byte	0x1
 2447 0537 E4       		.byte	0xe4
 2448 0538 3F040000 		.4byte	0x43f
 2449 053c 00000000 		.4byte	.LFB3
 2450 0540 7C010000 		.4byte	.LFE3-.LFB3
 2451 0544 01       		.uleb128 0x1
 2452 0545 9C       		.byte	0x9c
 2453 0546 AC050000 		.4byte	0x5ac
ARM GAS  C:\Users\ADMINI~1\AppData\Local\Temp\cc9sCsDg.s 			page 60


 2454 054a 0D       		.uleb128 0xd
 2455 054b DF030000 		.4byte	.LASF82
 2456 054f 01       		.byte	0x1
 2457 0550 E4       		.byte	0xe4
 2458 0551 3F040000 		.4byte	0x43f
 2459 0555 02       		.uleb128 0x2
 2460 0556 91       		.byte	0x91
 2461 0557 64       		.sleb128 -28
 2462 0558 10       		.uleb128 0x10
 2463 0559 6F707400 		.ascii	"opt\000"
 2464 055d 01       		.byte	0x1
 2465 055e E5       		.byte	0xe5
 2466 055f 8D000000 		.4byte	0x8d
 2467 0563 02       		.uleb128 0x2
 2468 0564 91       		.byte	0x91
 2469 0565 63       		.sleb128 -29
 2470 0566 0D       		.uleb128 0xd
 2471 0567 55050000 		.4byte	.LASF83
 2472 056b 01       		.byte	0x1
 2473 056c E6       		.byte	0xe6
 2474 056d 4A010000 		.4byte	0x14a
 2475 0571 02       		.uleb128 0x2
 2476 0572 91       		.byte	0x91
 2477 0573 5C       		.sleb128 -36
 2478 0574 0E       		.uleb128 0xe
 2479 0575 84050000 		.4byte	.LASF91
 2480 0579 01       		.byte	0x1
 2481 057a E8       		.byte	0xe8
 2482 057b 82000000 		.4byte	0x82
 2483 057f 02       		.uleb128 0x2
 2484 0580 91       		.byte	0x91
 2485 0581 77       		.sleb128 -9
 2486 0582 0E       		.uleb128 0xe
 2487 0583 32000000 		.4byte	.LASF92
 2488 0587 01       		.byte	0x1
 2489 0588 E9       		.byte	0xe9
 2490 0589 3F040000 		.4byte	0x43f
 2491 058d 02       		.uleb128 0x2
 2492 058e 91       		.byte	0x91
 2493 058f 70       		.sleb128 -16
 2494 0590 0F       		.uleb128 0xf
 2495 0591 707100   		.ascii	"pq\000"
 2496 0594 01       		.byte	0x1
 2497 0595 EA       		.byte	0xea
 2498 0596 CC040000 		.4byte	0x4cc
 2499 059a 02       		.uleb128 0x2
 2500 059b 91       		.byte	0x91
 2501 059c 68       		.sleb128 -24
 2502 059d 0E       		.uleb128 0xe
 2503 059e 5A050000 		.4byte	.LASF85
 2504 05a2 01       		.byte	0x1
 2505 05a3 EC       		.byte	0xec
 2506 05a4 C7000000 		.4byte	0xc7
 2507 05a8 02       		.uleb128 0x2
 2508 05a9 91       		.byte	0x91
 2509 05aa 6C       		.sleb128 -20
 2510 05ab 00       		.byte	0
ARM GAS  C:\Users\ADMINI~1\AppData\Local\Temp\cc9sCsDg.s 			page 61


 2511 05ac 11       		.uleb128 0x11
 2512 05ad 23020000 		.4byte	.LASF93
 2513 05b1 01       		.byte	0x1
 2514 05b2 5801     		.2byte	0x158
 2515 05b4 8D000000 		.4byte	0x8d
 2516 05b8 00000000 		.4byte	.LFB4
 2517 05bc 58000000 		.4byte	.LFE4-.LFB4
 2518 05c0 01       		.uleb128 0x1
 2519 05c1 9C       		.byte	0x9c
 2520 05c2 F3050000 		.4byte	0x5f3
 2521 05c6 12       		.uleb128 0x12
 2522 05c7 DF030000 		.4byte	.LASF82
 2523 05cb 01       		.byte	0x1
 2524 05cc 5801     		.2byte	0x158
 2525 05ce 3F040000 		.4byte	0x43f
 2526 05d2 02       		.uleb128 0x2
 2527 05d3 91       		.byte	0x91
 2528 05d4 6C       		.sleb128 -20
 2529 05d5 13       		.uleb128 0x13
 2530 05d6 707100   		.ascii	"pq\000"
 2531 05d9 01       		.byte	0x1
 2532 05da 5A01     		.2byte	0x15a
 2533 05dc CC040000 		.4byte	0x4cc
 2534 05e0 02       		.uleb128 0x2
 2535 05e1 91       		.byte	0x91
 2536 05e2 70       		.sleb128 -16
 2537 05e3 14       		.uleb128 0x14
 2538 05e4 5A050000 		.4byte	.LASF85
 2539 05e8 01       		.byte	0x1
 2540 05e9 5C01     		.2byte	0x15c
 2541 05eb C7000000 		.4byte	0xc7
 2542 05ef 02       		.uleb128 0x2
 2543 05f0 91       		.byte	0x91
 2544 05f1 74       		.sleb128 -12
 2545 05f2 00       		.byte	0
 2546 05f3 11       		.uleb128 0x11
 2547 05f4 43030000 		.4byte	.LASF94
 2548 05f8 01       		.byte	0x1
 2549 05f9 9801     		.2byte	0x198
 2550 05fb 72000000 		.4byte	0x72
 2551 05ff 00000000 		.4byte	.LFB5
 2552 0603 84010000 		.4byte	.LFE5-.LFB5
 2553 0607 01       		.uleb128 0x1
 2554 0608 9C       		.byte	0x9c
 2555 0609 67060000 		.4byte	0x667
 2556 060d 12       		.uleb128 0x12
 2557 060e DF030000 		.4byte	.LASF82
 2558 0612 01       		.byte	0x1
 2559 0613 9801     		.2byte	0x198
 2560 0615 3F040000 		.4byte	0x43f
 2561 0619 02       		.uleb128 0x2
 2562 061a 91       		.byte	0x91
 2563 061b 64       		.sleb128 -28
 2564 061c 12       		.uleb128 0x12
 2565 061d AA050000 		.4byte	.LASF95
 2566 0621 01       		.byte	0x1
 2567 0622 9901     		.2byte	0x199
ARM GAS  C:\Users\ADMINI~1\AppData\Local\Temp\cc9sCsDg.s 			page 62


 2568 0624 A3000000 		.4byte	0xa3
 2569 0628 02       		.uleb128 0x2
 2570 0629 91       		.byte	0x91
 2571 062a 60       		.sleb128 -32
 2572 062b 12       		.uleb128 0x12
 2573 062c 55050000 		.4byte	.LASF83
 2574 0630 01       		.byte	0x1
 2575 0631 9A01     		.2byte	0x19a
 2576 0633 4A010000 		.4byte	0x14a
 2577 0637 02       		.uleb128 0x2
 2578 0638 91       		.byte	0x91
 2579 0639 5C       		.sleb128 -36
 2580 063a 14       		.uleb128 0x14
 2581 063b 0A010000 		.4byte	.LASF84
 2582 063f 01       		.byte	0x1
 2583 0640 9C01     		.2byte	0x19c
 2584 0642 72000000 		.4byte	0x72
 2585 0646 02       		.uleb128 0x2
 2586 0647 91       		.byte	0x91
 2587 0648 74       		.sleb128 -12
 2588 0649 13       		.uleb128 0x13
 2589 064a 707100   		.ascii	"pq\000"
 2590 064d 01       		.byte	0x1
 2591 064e 9D01     		.2byte	0x19d
 2592 0650 CC040000 		.4byte	0x4cc
 2593 0654 02       		.uleb128 0x2
 2594 0655 91       		.byte	0x91
 2595 0656 6C       		.sleb128 -20
 2596 0657 14       		.uleb128 0x14
 2597 0658 5A050000 		.4byte	.LASF85
 2598 065c 01       		.byte	0x1
 2599 065d 9F01     		.2byte	0x19f
 2600 065f C7000000 		.4byte	0xc7
 2601 0663 02       		.uleb128 0x2
 2602 0664 91       		.byte	0x91
 2603 0665 70       		.sleb128 -16
 2604 0666 00       		.byte	0
 2605 0667 11       		.uleb128 0x11
 2606 0668 C5010000 		.4byte	.LASF96
 2607 066c 01       		.byte	0x1
 2608 066d 0E02     		.2byte	0x20e
 2609 066f 8D000000 		.4byte	0x8d
 2610 0673 00000000 		.4byte	.LFB6
 2611 0677 CE000000 		.4byte	.LFE6-.LFB6
 2612 067b 01       		.uleb128 0x1
 2613 067c 9C       		.byte	0x9c
 2614 067d CD060000 		.4byte	0x6cd
 2615 0681 12       		.uleb128 0x12
 2616 0682 DF030000 		.4byte	.LASF82
 2617 0686 01       		.byte	0x1
 2618 0687 0E02     		.2byte	0x20e
 2619 0689 3F040000 		.4byte	0x43f
 2620 068d 02       		.uleb128 0x2
 2621 068e 91       		.byte	0x91
 2622 068f 6C       		.sleb128 -20
 2623 0690 15       		.uleb128 0x15
 2624 0691 6F707400 		.ascii	"opt\000"
ARM GAS  C:\Users\ADMINI~1\AppData\Local\Temp\cc9sCsDg.s 			page 63


 2625 0695 01       		.byte	0x1
 2626 0696 0F02     		.2byte	0x20f
 2627 0698 8D000000 		.4byte	0x8d
 2628 069c 02       		.uleb128 0x2
 2629 069d 91       		.byte	0x91
 2630 069e 6B       		.sleb128 -21
 2631 069f 12       		.uleb128 0x12
 2632 06a0 55050000 		.4byte	.LASF83
 2633 06a4 01       		.byte	0x1
 2634 06a5 1002     		.2byte	0x210
 2635 06a7 4A010000 		.4byte	0x14a
 2636 06ab 02       		.uleb128 0x2
 2637 06ac 91       		.byte	0x91
 2638 06ad 64       		.sleb128 -28
 2639 06ae 14       		.uleb128 0x14
 2640 06af FC020000 		.4byte	.LASF97
 2641 06b3 01       		.byte	0x1
 2642 06b4 1202     		.2byte	0x212
 2643 06b6 8D000000 		.4byte	0x8d
 2644 06ba 02       		.uleb128 0x2
 2645 06bb 91       		.byte	0x91
 2646 06bc 77       		.sleb128 -9
 2647 06bd 14       		.uleb128 0x14
 2648 06be 5A050000 		.4byte	.LASF85
 2649 06c2 01       		.byte	0x1
 2650 06c3 1402     		.2byte	0x214
 2651 06c5 C7000000 		.4byte	0xc7
 2652 06c9 02       		.uleb128 0x2
 2653 06ca 91       		.byte	0x91
 2654 06cb 70       		.sleb128 -16
 2655 06cc 00       		.byte	0
 2656 06cd 11       		.uleb128 0x11
 2657 06ce CA040000 		.4byte	.LASF98
 2658 06d2 01       		.byte	0x1
 2659 06d3 5B02     		.2byte	0x25b
 2660 06d5 8D000000 		.4byte	0x8d
 2661 06d9 00000000 		.4byte	.LFB7
 2662 06dd AE000000 		.4byte	.LFE7-.LFB7
 2663 06e1 01       		.uleb128 0x1
 2664 06e2 9C       		.byte	0x9c
 2665 06e3 23070000 		.4byte	0x723
 2666 06e7 12       		.uleb128 0x12
 2667 06e8 DF030000 		.4byte	.LASF82
 2668 06ec 01       		.byte	0x1
 2669 06ed 5B02     		.2byte	0x25b
 2670 06ef 3F040000 		.4byte	0x43f
 2671 06f3 02       		.uleb128 0x2
 2672 06f4 91       		.byte	0x91
 2673 06f5 6C       		.sleb128 -20
 2674 06f6 12       		.uleb128 0x12
 2675 06f7 0A010000 		.4byte	.LASF84
 2676 06fb 01       		.byte	0x1
 2677 06fc 5C02     		.2byte	0x25c
 2678 06fe 72000000 		.4byte	0x72
 2679 0702 02       		.uleb128 0x2
 2680 0703 91       		.byte	0x91
 2681 0704 68       		.sleb128 -24
ARM GAS  C:\Users\ADMINI~1\AppData\Local\Temp\cc9sCsDg.s 			page 64


 2682 0705 13       		.uleb128 0x13
 2683 0706 707100   		.ascii	"pq\000"
 2684 0709 01       		.byte	0x1
 2685 070a 5E02     		.2byte	0x25e
 2686 070c CC040000 		.4byte	0x4cc
 2687 0710 02       		.uleb128 0x2
 2688 0711 91       		.byte	0x91
 2689 0712 70       		.sleb128 -16
 2690 0713 14       		.uleb128 0x14
 2691 0714 5A050000 		.4byte	.LASF85
 2692 0718 01       		.byte	0x1
 2693 0719 6002     		.2byte	0x260
 2694 071b C7000000 		.4byte	0xc7
 2695 071f 02       		.uleb128 0x2
 2696 0720 91       		.byte	0x91
 2697 0721 74       		.sleb128 -12
 2698 0722 00       		.byte	0
 2699 0723 11       		.uleb128 0x11
 2700 0724 07000000 		.4byte	.LASF99
 2701 0728 01       		.byte	0x1
 2702 0729 9A02     		.2byte	0x29a
 2703 072b 8D000000 		.4byte	0x8d
 2704 072f 00000000 		.4byte	.LFB8
 2705 0733 B2000000 		.4byte	.LFE8-.LFB8
 2706 0737 01       		.uleb128 0x1
 2707 0738 9C       		.byte	0x9c
 2708 0739 79070000 		.4byte	0x779
 2709 073d 12       		.uleb128 0x12
 2710 073e DF030000 		.4byte	.LASF82
 2711 0742 01       		.byte	0x1
 2712 0743 9A02     		.2byte	0x29a
 2713 0745 3F040000 		.4byte	0x43f
 2714 0749 02       		.uleb128 0x2
 2715 074a 91       		.byte	0x91
 2716 074b 6C       		.sleb128 -20
 2717 074c 12       		.uleb128 0x12
 2718 074d 0A010000 		.4byte	.LASF84
 2719 0751 01       		.byte	0x1
 2720 0752 9B02     		.2byte	0x29b
 2721 0754 72000000 		.4byte	0x72
 2722 0758 02       		.uleb128 0x2
 2723 0759 91       		.byte	0x91
 2724 075a 68       		.sleb128 -24
 2725 075b 13       		.uleb128 0x13
 2726 075c 707100   		.ascii	"pq\000"
 2727 075f 01       		.byte	0x1
 2728 0760 9D02     		.2byte	0x29d
 2729 0762 CC040000 		.4byte	0x4cc
 2730 0766 02       		.uleb128 0x2
 2731 0767 91       		.byte	0x91
 2732 0768 70       		.sleb128 -16
 2733 0769 14       		.uleb128 0x14
 2734 076a 5A050000 		.4byte	.LASF85
 2735 076e 01       		.byte	0x1
 2736 076f 9F02     		.2byte	0x29f
 2737 0771 C7000000 		.4byte	0xc7
 2738 0775 02       		.uleb128 0x2
ARM GAS  C:\Users\ADMINI~1\AppData\Local\Temp\cc9sCsDg.s 			page 65


 2739 0776 91       		.byte	0x91
 2740 0777 74       		.sleb128 -12
 2741 0778 00       		.byte	0
 2742 0779 11       		.uleb128 0x11
 2743 077a FA010000 		.4byte	.LASF100
 2744 077e 01       		.byte	0x1
 2745 077f E202     		.2byte	0x2e2
 2746 0781 8D000000 		.4byte	0x8d
 2747 0785 00000000 		.4byte	.LFB9
 2748 0789 10010000 		.4byte	.LFE9-.LFB9
 2749 078d 01       		.uleb128 0x1
 2750 078e 9C       		.byte	0x9c
 2751 078f DE070000 		.4byte	0x7de
 2752 0793 12       		.uleb128 0x12
 2753 0794 DF030000 		.4byte	.LASF82
 2754 0798 01       		.byte	0x1
 2755 0799 E202     		.2byte	0x2e2
 2756 079b 3F040000 		.4byte	0x43f
 2757 079f 02       		.uleb128 0x2
 2758 07a0 91       		.byte	0x91
 2759 07a1 6C       		.sleb128 -20
 2760 07a2 12       		.uleb128 0x12
 2761 07a3 0A010000 		.4byte	.LASF84
 2762 07a7 01       		.byte	0x1
 2763 07a8 E302     		.2byte	0x2e3
 2764 07aa 72000000 		.4byte	0x72
 2765 07ae 02       		.uleb128 0x2
 2766 07af 91       		.byte	0x91
 2767 07b0 68       		.sleb128 -24
 2768 07b1 15       		.uleb128 0x15
 2769 07b2 6F707400 		.ascii	"opt\000"
 2770 07b6 01       		.byte	0x1
 2771 07b7 E402     		.2byte	0x2e4
 2772 07b9 8D000000 		.4byte	0x8d
 2773 07bd 02       		.uleb128 0x2
 2774 07be 91       		.byte	0x91
 2775 07bf 67       		.sleb128 -25
 2776 07c0 13       		.uleb128 0x13
 2777 07c1 707100   		.ascii	"pq\000"
 2778 07c4 01       		.byte	0x1
 2779 07c5 E602     		.2byte	0x2e6
 2780 07c7 CC040000 		.4byte	0x4cc
 2781 07cb 02       		.uleb128 0x2
 2782 07cc 91       		.byte	0x91
 2783 07cd 70       		.sleb128 -16
 2784 07ce 14       		.uleb128 0x14
 2785 07cf 5A050000 		.4byte	.LASF85
 2786 07d3 01       		.byte	0x1
 2787 07d4 E802     		.2byte	0x2e8
 2788 07d6 C7000000 		.4byte	0xc7
 2789 07da 02       		.uleb128 0x2
 2790 07db 91       		.byte	0x91
 2791 07dc 74       		.sleb128 -12
 2792 07dd 00       		.byte	0
 2793 07de 11       		.uleb128 0x11
 2794 07df 35010000 		.4byte	.LASF101
 2795 07e3 01       		.byte	0x1
ARM GAS  C:\Users\ADMINI~1\AppData\Local\Temp\cc9sCsDg.s 			page 66


 2796 07e4 2E03     		.2byte	0x32e
 2797 07e6 8D000000 		.4byte	0x8d
 2798 07ea 00000000 		.4byte	.LFB10
 2799 07ee BE000000 		.4byte	.LFE10-.LFB10
 2800 07f2 01       		.uleb128 0x1
 2801 07f3 9C       		.byte	0x9c
 2802 07f4 5F080000 		.4byte	0x85f
 2803 07f8 12       		.uleb128 0x12
 2804 07f9 DF030000 		.4byte	.LASF82
 2805 07fd 01       		.byte	0x1
 2806 07fe 2E03     		.2byte	0x32e
 2807 0800 3F040000 		.4byte	0x43f
 2808 0804 02       		.uleb128 0x2
 2809 0805 91       		.byte	0x91
 2810 0806 5C       		.sleb128 -36
 2811 0807 12       		.uleb128 0x12
 2812 0808 F8040000 		.4byte	.LASF102
 2813 080c 01       		.byte	0x1
 2814 080d 2F03     		.2byte	0x32f
 2815 080f 5F080000 		.4byte	0x85f
 2816 0813 02       		.uleb128 0x2
 2817 0814 91       		.byte	0x91
 2818 0815 58       		.sleb128 -40
 2819 0816 13       		.uleb128 0x13
 2820 0817 707100   		.ascii	"pq\000"
 2821 081a 01       		.byte	0x1
 2822 081b 3103     		.2byte	0x331
 2823 081d CC040000 		.4byte	0x4cc
 2824 0821 02       		.uleb128 0x2
 2825 0822 91       		.byte	0x91
 2826 0823 64       		.sleb128 -28
 2827 0824 13       		.uleb128 0x13
 2828 0825 6900     		.ascii	"i\000"
 2829 0827 01       		.byte	0x1
 2830 0828 3203     		.2byte	0x332
 2831 082a 8D000000 		.4byte	0x8d
 2832 082e 02       		.uleb128 0x2
 2833 082f 91       		.byte	0x91
 2834 0830 77       		.sleb128 -9
 2835 0831 14       		.uleb128 0x14
 2836 0832 1B010000 		.4byte	.LASF103
 2837 0836 01       		.byte	0x1
 2838 0837 3303     		.2byte	0x333
 2839 0839 65080000 		.4byte	0x865
 2840 083d 02       		.uleb128 0x2
 2841 083e 91       		.byte	0x91
 2842 083f 70       		.sleb128 -16
 2843 0840 14       		.uleb128 0x14
 2844 0841 E6030000 		.4byte	.LASF104
 2845 0845 01       		.byte	0x1
 2846 0846 3403     		.2byte	0x334
 2847 0848 65080000 		.4byte	0x865
 2848 084c 02       		.uleb128 0x2
 2849 084d 91       		.byte	0x91
 2850 084e 6C       		.sleb128 -20
 2851 084f 14       		.uleb128 0x14
 2852 0850 5A050000 		.4byte	.LASF85
ARM GAS  C:\Users\ADMINI~1\AppData\Local\Temp\cc9sCsDg.s 			page 67


 2853 0854 01       		.byte	0x1
 2854 0855 3603     		.2byte	0x336
 2855 0857 C7000000 		.4byte	0xc7
 2856 085b 02       		.uleb128 0x2
 2857 085c 91       		.byte	0x91
 2858 085d 68       		.sleb128 -24
 2859 085e 00       		.byte	0
 2860 085f 0B       		.uleb128 0xb
 2861 0860 04       		.byte	0x4
 2862 0861 A0020000 		.4byte	0x2a0
 2863 0865 0B       		.uleb128 0xb
 2864 0866 04       		.byte	0x4
 2865 0867 D2000000 		.4byte	0xd2
 2866 086b 16       		.uleb128 0x16
 2867 086c 29030000 		.4byte	.LASF115
 2868 0870 01       		.byte	0x1
 2869 0871 6A03     		.2byte	0x36a
 2870 0873 00000000 		.4byte	.LFB11
 2871 0877 A0000000 		.4byte	.LFE11-.LFB11
 2872 087b 01       		.uleb128 0x1
 2873 087c 9C       		.byte	0x9c
 2874 087d BD080000 		.4byte	0x8bd
 2875 0881 13       		.uleb128 0x13
 2876 0882 697800   		.ascii	"ix\000"
 2877 0885 01       		.byte	0x1
 2878 0886 7203     		.2byte	0x372
 2879 0888 98000000 		.4byte	0x98
 2880 088c 02       		.uleb128 0x2
 2881 088d 91       		.byte	0x91
 2882 088e 76       		.sleb128 -10
 2883 088f 14       		.uleb128 0x14
 2884 0890 DD040000 		.4byte	.LASF105
 2885 0894 01       		.byte	0x1
 2886 0895 7303     		.2byte	0x373
 2887 0897 98000000 		.4byte	0x98
 2888 089b 02       		.uleb128 0x2
 2889 089c 91       		.byte	0x91
 2890 089d 74       		.sleb128 -12
 2891 089e 13       		.uleb128 0x13
 2892 089f 70713100 		.ascii	"pq1\000"
 2893 08a3 01       		.byte	0x1
 2894 08a4 7403     		.2byte	0x374
 2895 08a6 CC040000 		.4byte	0x4cc
 2896 08aa 02       		.uleb128 0x2
 2897 08ab 91       		.byte	0x91
 2898 08ac 70       		.sleb128 -16
 2899 08ad 13       		.uleb128 0x13
 2900 08ae 70713200 		.ascii	"pq2\000"
 2901 08b2 01       		.byte	0x1
 2902 08b3 7503     		.2byte	0x375
 2903 08b5 CC040000 		.4byte	0x4cc
 2904 08b9 02       		.uleb128 0x2
 2905 08ba 91       		.byte	0x91
 2906 08bb 6C       		.sleb128 -20
 2907 08bc 00       		.byte	0
 2908 08bd 17       		.uleb128 0x17
 2909 08be 20010000 		.4byte	.LASF106
ARM GAS  C:\Users\ADMINI~1\AppData\Local\Temp\cc9sCsDg.s 			page 68


 2910 08c2 03       		.byte	0x3
 2911 08c3 B302     		.2byte	0x2b3
 2912 08c5 3F040000 		.4byte	0x43f
 2913 08c9 17       		.uleb128 0x17
 2914 08ca F6000000 		.4byte	.LASF107
 2915 08ce 03       		.byte	0x3
 2916 08cf C402     		.2byte	0x2c4
 2917 08d1 8D000000 		.4byte	0x8d
 2918 08d5 17       		.uleb128 0x17
 2919 08d6 92050000 		.4byte	.LASF108
 2920 08da 03       		.byte	0x3
 2921 08db C602     		.2byte	0x2c6
 2922 08dd 8D000000 		.4byte	0x8d
 2923 08e1 17       		.uleb128 0x17
 2924 08e2 24050000 		.4byte	.LASF109
 2925 08e6 03       		.byte	0x3
 2926 08e7 DB02     		.2byte	0x2db
 2927 08e9 ED080000 		.4byte	0x8ed
 2928 08ed 0B       		.uleb128 0xb
 2929 08ee 04       		.byte	0x4
 2930 08ef 61040000 		.4byte	0x461
 2931 08f3 17       		.uleb128 0x17
 2932 08f4 9C000000 		.4byte	.LASF110
 2933 08f8 03       		.byte	0x3
 2934 08f9 EC02     		.2byte	0x2ec
 2935 08fb CC040000 		.4byte	0x4cc
 2936 08ff 09       		.uleb128 0x9
 2937 0900 45020000 		.4byte	0x245
 2938 0904 0F090000 		.4byte	0x90f
 2939 0908 0A       		.uleb128 0xa
 2940 0909 74000000 		.4byte	0x74
 2941 090d 03       		.byte	0x3
 2942 090e 00       		.byte	0
 2943 090f 17       		.uleb128 0x17
 2944 0910 3E010000 		.4byte	.LASF111
 2945 0914 03       		.byte	0x3
 2946 0915 ED02     		.2byte	0x2ed
 2947 0917 FF080000 		.4byte	0x8ff
 2948 091b 00       		.byte	0
 2949              		.section	.debug_abbrev,"",%progbits
 2950              	.Ldebug_abbrev0:
 2951 0000 01       		.uleb128 0x1
 2952 0001 11       		.uleb128 0x11
 2953 0002 01       		.byte	0x1
 2954 0003 25       		.uleb128 0x25
 2955 0004 0E       		.uleb128 0xe
 2956 0005 13       		.uleb128 0x13
 2957 0006 0B       		.uleb128 0xb
 2958 0007 03       		.uleb128 0x3
 2959 0008 0E       		.uleb128 0xe
 2960 0009 1B       		.uleb128 0x1b
 2961 000a 0E       		.uleb128 0xe
 2962 000b 55       		.uleb128 0x55
 2963 000c 17       		.uleb128 0x17
 2964 000d 11       		.uleb128 0x11
 2965 000e 01       		.uleb128 0x1
 2966 000f 10       		.uleb128 0x10
ARM GAS  C:\Users\ADMINI~1\AppData\Local\Temp\cc9sCsDg.s 			page 69


 2967 0010 17       		.uleb128 0x17
 2968 0011 00       		.byte	0
 2969 0012 00       		.byte	0
 2970 0013 02       		.uleb128 0x2
 2971 0014 24       		.uleb128 0x24
 2972 0015 00       		.byte	0
 2973 0016 0B       		.uleb128 0xb
 2974 0017 0B       		.uleb128 0xb
 2975 0018 3E       		.uleb128 0x3e
 2976 0019 0B       		.uleb128 0xb
 2977 001a 03       		.uleb128 0x3
 2978 001b 0E       		.uleb128 0xe
 2979 001c 00       		.byte	0
 2980 001d 00       		.byte	0
 2981 001e 03       		.uleb128 0x3
 2982 001f 24       		.uleb128 0x24
 2983 0020 00       		.byte	0
 2984 0021 0B       		.uleb128 0xb
 2985 0022 0B       		.uleb128 0xb
 2986 0023 3E       		.uleb128 0x3e
 2987 0024 0B       		.uleb128 0xb
 2988 0025 03       		.uleb128 0x3
 2989 0026 08       		.uleb128 0x8
 2990 0027 00       		.byte	0
 2991 0028 00       		.byte	0
 2992 0029 04       		.uleb128 0x4
 2993 002a 0F       		.uleb128 0xf
 2994 002b 00       		.byte	0
 2995 002c 0B       		.uleb128 0xb
 2996 002d 0B       		.uleb128 0xb
 2997 002e 00       		.byte	0
 2998 002f 00       		.byte	0
 2999 0030 05       		.uleb128 0x5
 3000 0031 16       		.uleb128 0x16
 3001 0032 00       		.byte	0
 3002 0033 03       		.uleb128 0x3
 3003 0034 0E       		.uleb128 0xe
 3004 0035 3A       		.uleb128 0x3a
 3005 0036 0B       		.uleb128 0xb
 3006 0037 3B       		.uleb128 0x3b
 3007 0038 0B       		.uleb128 0xb
 3008 0039 49       		.uleb128 0x49
 3009 003a 13       		.uleb128 0x13
 3010 003b 00       		.byte	0
 3011 003c 00       		.byte	0
 3012 003d 06       		.uleb128 0x6
 3013 003e 16       		.uleb128 0x16
 3014 003f 00       		.byte	0
 3015 0040 03       		.uleb128 0x3
 3016 0041 0E       		.uleb128 0xe
 3017 0042 3A       		.uleb128 0x3a
 3018 0043 0B       		.uleb128 0xb
 3019 0044 3B       		.uleb128 0x3b
 3020 0045 05       		.uleb128 0x5
 3021 0046 49       		.uleb128 0x49
 3022 0047 13       		.uleb128 0x13
 3023 0048 00       		.byte	0
ARM GAS  C:\Users\ADMINI~1\AppData\Local\Temp\cc9sCsDg.s 			page 70


 3024 0049 00       		.byte	0
 3025 004a 07       		.uleb128 0x7
 3026 004b 13       		.uleb128 0x13
 3027 004c 01       		.byte	0x1
 3028 004d 03       		.uleb128 0x3
 3029 004e 0E       		.uleb128 0xe
 3030 004f 0B       		.uleb128 0xb
 3031 0050 0B       		.uleb128 0xb
 3032 0051 3A       		.uleb128 0x3a
 3033 0052 0B       		.uleb128 0xb
 3034 0053 3B       		.uleb128 0x3b
 3035 0054 05       		.uleb128 0x5
 3036 0055 01       		.uleb128 0x1
 3037 0056 13       		.uleb128 0x13
 3038 0057 00       		.byte	0
 3039 0058 00       		.byte	0
 3040 0059 08       		.uleb128 0x8
 3041 005a 0D       		.uleb128 0xd
 3042 005b 00       		.byte	0
 3043 005c 03       		.uleb128 0x3
 3044 005d 0E       		.uleb128 0xe
 3045 005e 3A       		.uleb128 0x3a
 3046 005f 0B       		.uleb128 0xb
 3047 0060 3B       		.uleb128 0x3b
 3048 0061 05       		.uleb128 0x5
 3049 0062 49       		.uleb128 0x49
 3050 0063 13       		.uleb128 0x13
 3051 0064 38       		.uleb128 0x38
 3052 0065 0B       		.uleb128 0xb
 3053 0066 00       		.byte	0
 3054 0067 00       		.byte	0
 3055 0068 09       		.uleb128 0x9
 3056 0069 01       		.uleb128 0x1
 3057 006a 01       		.byte	0x1
 3058 006b 49       		.uleb128 0x49
 3059 006c 13       		.uleb128 0x13
 3060 006d 01       		.uleb128 0x1
 3061 006e 13       		.uleb128 0x13
 3062 006f 00       		.byte	0
 3063 0070 00       		.byte	0
 3064 0071 0A       		.uleb128 0xa
 3065 0072 21       		.uleb128 0x21
 3066 0073 00       		.byte	0
 3067 0074 49       		.uleb128 0x49
 3068 0075 13       		.uleb128 0x13
 3069 0076 2F       		.uleb128 0x2f
 3070 0077 0B       		.uleb128 0xb
 3071 0078 00       		.byte	0
 3072 0079 00       		.byte	0
 3073 007a 0B       		.uleb128 0xb
 3074 007b 0F       		.uleb128 0xf
 3075 007c 00       		.byte	0
 3076 007d 0B       		.uleb128 0xb
 3077 007e 0B       		.uleb128 0xb
 3078 007f 49       		.uleb128 0x49
 3079 0080 13       		.uleb128 0x13
 3080 0081 00       		.byte	0
ARM GAS  C:\Users\ADMINI~1\AppData\Local\Temp\cc9sCsDg.s 			page 71


 3081 0082 00       		.byte	0
 3082 0083 0C       		.uleb128 0xc
 3083 0084 2E       		.uleb128 0x2e
 3084 0085 01       		.byte	0x1
 3085 0086 3F       		.uleb128 0x3f
 3086 0087 19       		.uleb128 0x19
 3087 0088 03       		.uleb128 0x3
 3088 0089 0E       		.uleb128 0xe
 3089 008a 3A       		.uleb128 0x3a
 3090 008b 0B       		.uleb128 0xb
 3091 008c 3B       		.uleb128 0x3b
 3092 008d 0B       		.uleb128 0xb
 3093 008e 27       		.uleb128 0x27
 3094 008f 19       		.uleb128 0x19
 3095 0090 49       		.uleb128 0x49
 3096 0091 13       		.uleb128 0x13
 3097 0092 11       		.uleb128 0x11
 3098 0093 01       		.uleb128 0x1
 3099 0094 12       		.uleb128 0x12
 3100 0095 06       		.uleb128 0x6
 3101 0096 40       		.uleb128 0x40
 3102 0097 18       		.uleb128 0x18
 3103 0098 9642     		.uleb128 0x2116
 3104 009a 19       		.uleb128 0x19
 3105 009b 01       		.uleb128 0x1
 3106 009c 13       		.uleb128 0x13
 3107 009d 00       		.byte	0
 3108 009e 00       		.byte	0
 3109 009f 0D       		.uleb128 0xd
 3110 00a0 05       		.uleb128 0x5
 3111 00a1 00       		.byte	0
 3112 00a2 03       		.uleb128 0x3
 3113 00a3 0E       		.uleb128 0xe
 3114 00a4 3A       		.uleb128 0x3a
 3115 00a5 0B       		.uleb128 0xb
 3116 00a6 3B       		.uleb128 0x3b
 3117 00a7 0B       		.uleb128 0xb
 3118 00a8 49       		.uleb128 0x49
 3119 00a9 13       		.uleb128 0x13
 3120 00aa 02       		.uleb128 0x2
 3121 00ab 18       		.uleb128 0x18
 3122 00ac 00       		.byte	0
 3123 00ad 00       		.byte	0
 3124 00ae 0E       		.uleb128 0xe
 3125 00af 34       		.uleb128 0x34
 3126 00b0 00       		.byte	0
 3127 00b1 03       		.uleb128 0x3
 3128 00b2 0E       		.uleb128 0xe
 3129 00b3 3A       		.uleb128 0x3a
 3130 00b4 0B       		.uleb128 0xb
 3131 00b5 3B       		.uleb128 0x3b
 3132 00b6 0B       		.uleb128 0xb
 3133 00b7 49       		.uleb128 0x49
 3134 00b8 13       		.uleb128 0x13
 3135 00b9 02       		.uleb128 0x2
 3136 00ba 18       		.uleb128 0x18
 3137 00bb 00       		.byte	0
ARM GAS  C:\Users\ADMINI~1\AppData\Local\Temp\cc9sCsDg.s 			page 72


 3138 00bc 00       		.byte	0
 3139 00bd 0F       		.uleb128 0xf
 3140 00be 34       		.uleb128 0x34
 3141 00bf 00       		.byte	0
 3142 00c0 03       		.uleb128 0x3
 3143 00c1 08       		.uleb128 0x8
 3144 00c2 3A       		.uleb128 0x3a
 3145 00c3 0B       		.uleb128 0xb
 3146 00c4 3B       		.uleb128 0x3b
 3147 00c5 0B       		.uleb128 0xb
 3148 00c6 49       		.uleb128 0x49
 3149 00c7 13       		.uleb128 0x13
 3150 00c8 02       		.uleb128 0x2
 3151 00c9 18       		.uleb128 0x18
 3152 00ca 00       		.byte	0
 3153 00cb 00       		.byte	0
 3154 00cc 10       		.uleb128 0x10
 3155 00cd 05       		.uleb128 0x5
 3156 00ce 00       		.byte	0
 3157 00cf 03       		.uleb128 0x3
 3158 00d0 08       		.uleb128 0x8
 3159 00d1 3A       		.uleb128 0x3a
 3160 00d2 0B       		.uleb128 0xb
 3161 00d3 3B       		.uleb128 0x3b
 3162 00d4 0B       		.uleb128 0xb
 3163 00d5 49       		.uleb128 0x49
 3164 00d6 13       		.uleb128 0x13
 3165 00d7 02       		.uleb128 0x2
 3166 00d8 18       		.uleb128 0x18
 3167 00d9 00       		.byte	0
 3168 00da 00       		.byte	0
 3169 00db 11       		.uleb128 0x11
 3170 00dc 2E       		.uleb128 0x2e
 3171 00dd 01       		.byte	0x1
 3172 00de 3F       		.uleb128 0x3f
 3173 00df 19       		.uleb128 0x19
 3174 00e0 03       		.uleb128 0x3
 3175 00e1 0E       		.uleb128 0xe
 3176 00e2 3A       		.uleb128 0x3a
 3177 00e3 0B       		.uleb128 0xb
 3178 00e4 3B       		.uleb128 0x3b
 3179 00e5 05       		.uleb128 0x5
 3180 00e6 27       		.uleb128 0x27
 3181 00e7 19       		.uleb128 0x19
 3182 00e8 49       		.uleb128 0x49
 3183 00e9 13       		.uleb128 0x13
 3184 00ea 11       		.uleb128 0x11
 3185 00eb 01       		.uleb128 0x1
 3186 00ec 12       		.uleb128 0x12
 3187 00ed 06       		.uleb128 0x6
 3188 00ee 40       		.uleb128 0x40
 3189 00ef 18       		.uleb128 0x18
 3190 00f0 9642     		.uleb128 0x2116
 3191 00f2 19       		.uleb128 0x19
 3192 00f3 01       		.uleb128 0x1
 3193 00f4 13       		.uleb128 0x13
 3194 00f5 00       		.byte	0
ARM GAS  C:\Users\ADMINI~1\AppData\Local\Temp\cc9sCsDg.s 			page 73


 3195 00f6 00       		.byte	0
 3196 00f7 12       		.uleb128 0x12
 3197 00f8 05       		.uleb128 0x5
 3198 00f9 00       		.byte	0
 3199 00fa 03       		.uleb128 0x3
 3200 00fb 0E       		.uleb128 0xe
 3201 00fc 3A       		.uleb128 0x3a
 3202 00fd 0B       		.uleb128 0xb
 3203 00fe 3B       		.uleb128 0x3b
 3204 00ff 05       		.uleb128 0x5
 3205 0100 49       		.uleb128 0x49
 3206 0101 13       		.uleb128 0x13
 3207 0102 02       		.uleb128 0x2
 3208 0103 18       		.uleb128 0x18
 3209 0104 00       		.byte	0
 3210 0105 00       		.byte	0
 3211 0106 13       		.uleb128 0x13
 3212 0107 34       		.uleb128 0x34
 3213 0108 00       		.byte	0
 3214 0109 03       		.uleb128 0x3
 3215 010a 08       		.uleb128 0x8
 3216 010b 3A       		.uleb128 0x3a
 3217 010c 0B       		.uleb128 0xb
 3218 010d 3B       		.uleb128 0x3b
 3219 010e 05       		.uleb128 0x5
 3220 010f 49       		.uleb128 0x49
 3221 0110 13       		.uleb128 0x13
 3222 0111 02       		.uleb128 0x2
 3223 0112 18       		.uleb128 0x18
 3224 0113 00       		.byte	0
 3225 0114 00       		.byte	0
 3226 0115 14       		.uleb128 0x14
 3227 0116 34       		.uleb128 0x34
 3228 0117 00       		.byte	0
 3229 0118 03       		.uleb128 0x3
 3230 0119 0E       		.uleb128 0xe
 3231 011a 3A       		.uleb128 0x3a
 3232 011b 0B       		.uleb128 0xb
 3233 011c 3B       		.uleb128 0x3b
 3234 011d 05       		.uleb128 0x5
 3235 011e 49       		.uleb128 0x49
 3236 011f 13       		.uleb128 0x13
 3237 0120 02       		.uleb128 0x2
 3238 0121 18       		.uleb128 0x18
 3239 0122 00       		.byte	0
 3240 0123 00       		.byte	0
 3241 0124 15       		.uleb128 0x15
 3242 0125 05       		.uleb128 0x5
 3243 0126 00       		.byte	0
 3244 0127 03       		.uleb128 0x3
 3245 0128 08       		.uleb128 0x8
 3246 0129 3A       		.uleb128 0x3a
 3247 012a 0B       		.uleb128 0xb
 3248 012b 3B       		.uleb128 0x3b
 3249 012c 05       		.uleb128 0x5
 3250 012d 49       		.uleb128 0x49
 3251 012e 13       		.uleb128 0x13
ARM GAS  C:\Users\ADMINI~1\AppData\Local\Temp\cc9sCsDg.s 			page 74


 3252 012f 02       		.uleb128 0x2
 3253 0130 18       		.uleb128 0x18
 3254 0131 00       		.byte	0
 3255 0132 00       		.byte	0
 3256 0133 16       		.uleb128 0x16
 3257 0134 2E       		.uleb128 0x2e
 3258 0135 01       		.byte	0x1
 3259 0136 3F       		.uleb128 0x3f
 3260 0137 19       		.uleb128 0x19
 3261 0138 03       		.uleb128 0x3
 3262 0139 0E       		.uleb128 0xe
 3263 013a 3A       		.uleb128 0x3a
 3264 013b 0B       		.uleb128 0xb
 3265 013c 3B       		.uleb128 0x3b
 3266 013d 05       		.uleb128 0x5
 3267 013e 27       		.uleb128 0x27
 3268 013f 19       		.uleb128 0x19
 3269 0140 11       		.uleb128 0x11
 3270 0141 01       		.uleb128 0x1
 3271 0142 12       		.uleb128 0x12
 3272 0143 06       		.uleb128 0x6
 3273 0144 40       		.uleb128 0x40
 3274 0145 18       		.uleb128 0x18
 3275 0146 9642     		.uleb128 0x2116
 3276 0148 19       		.uleb128 0x19
 3277 0149 01       		.uleb128 0x1
 3278 014a 13       		.uleb128 0x13
 3279 014b 00       		.byte	0
 3280 014c 00       		.byte	0
 3281 014d 17       		.uleb128 0x17
 3282 014e 34       		.uleb128 0x34
 3283 014f 00       		.byte	0
 3284 0150 03       		.uleb128 0x3
 3285 0151 0E       		.uleb128 0xe
 3286 0152 3A       		.uleb128 0x3a
 3287 0153 0B       		.uleb128 0xb
 3288 0154 3B       		.uleb128 0x3b
 3289 0155 05       		.uleb128 0x5
 3290 0156 49       		.uleb128 0x49
 3291 0157 13       		.uleb128 0x13
 3292 0158 3F       		.uleb128 0x3f
 3293 0159 19       		.uleb128 0x19
 3294 015a 3C       		.uleb128 0x3c
 3295 015b 19       		.uleb128 0x19
 3296 015c 00       		.byte	0
 3297 015d 00       		.byte	0
 3298 015e 00       		.byte	0
 3299              		.section	.debug_aranges,"",%progbits
 3300 0000 6C000000 		.4byte	0x6c
 3301 0004 0200     		.2byte	0x2
 3302 0006 00000000 		.4byte	.Ldebug_info0
 3303 000a 04       		.byte	0x4
 3304 000b 00       		.byte	0
 3305 000c 0000     		.2byte	0
 3306 000e 0000     		.2byte	0
 3307 0010 00000000 		.4byte	.LFB1
 3308 0014 98000000 		.4byte	.LFE1-.LFB1
ARM GAS  C:\Users\ADMINI~1\AppData\Local\Temp\cc9sCsDg.s 			page 75


 3309 0018 00000000 		.4byte	.LFB2
 3310 001c F8000000 		.4byte	.LFE2-.LFB2
 3311 0020 00000000 		.4byte	.LFB3
 3312 0024 7C010000 		.4byte	.LFE3-.LFB3
 3313 0028 00000000 		.4byte	.LFB4
 3314 002c 58000000 		.4byte	.LFE4-.LFB4
 3315 0030 00000000 		.4byte	.LFB5
 3316 0034 84010000 		.4byte	.LFE5-.LFB5
 3317 0038 00000000 		.4byte	.LFB6
 3318 003c CE000000 		.4byte	.LFE6-.LFB6
 3319 0040 00000000 		.4byte	.LFB7
 3320 0044 AE000000 		.4byte	.LFE7-.LFB7
 3321 0048 00000000 		.4byte	.LFB8
 3322 004c B2000000 		.4byte	.LFE8-.LFB8
 3323 0050 00000000 		.4byte	.LFB9
 3324 0054 10010000 		.4byte	.LFE9-.LFB9
 3325 0058 00000000 		.4byte	.LFB10
 3326 005c BE000000 		.4byte	.LFE10-.LFB10
 3327 0060 00000000 		.4byte	.LFB11
 3328 0064 A0000000 		.4byte	.LFE11-.LFB11
 3329 0068 00000000 		.4byte	0
 3330 006c 00000000 		.4byte	0
 3331              		.section	.debug_ranges,"",%progbits
 3332              	.Ldebug_ranges0:
 3333 0000 00000000 		.4byte	.LFB1
 3334 0004 98000000 		.4byte	.LFE1
 3335 0008 00000000 		.4byte	.LFB2
 3336 000c F8000000 		.4byte	.LFE2
 3337 0010 00000000 		.4byte	.LFB3
 3338 0014 7C010000 		.4byte	.LFE3
 3339 0018 00000000 		.4byte	.LFB4
 3340 001c 58000000 		.4byte	.LFE4
 3341 0020 00000000 		.4byte	.LFB5
 3342 0024 84010000 		.4byte	.LFE5
 3343 0028 00000000 		.4byte	.LFB6
 3344 002c CE000000 		.4byte	.LFE6
 3345 0030 00000000 		.4byte	.LFB7
 3346 0034 AE000000 		.4byte	.LFE7
 3347 0038 00000000 		.4byte	.LFB8
 3348 003c B2000000 		.4byte	.LFE8
 3349 0040 00000000 		.4byte	.LFB9
 3350 0044 10010000 		.4byte	.LFE9
 3351 0048 00000000 		.4byte	.LFB10
 3352 004c BE000000 		.4byte	.LFE10
 3353 0050 00000000 		.4byte	.LFB11
 3354 0054 A0000000 		.4byte	.LFE11
 3355 0058 00000000 		.4byte	0
 3356 005c 00000000 		.4byte	0
 3357              		.section	.debug_line,"",%progbits
 3358              	.Ldebug_line0:
 3359 0000 C0020000 		.section	.debug_str,"MS",%progbits,1
 3359      0200A300 
 3359      00000201 
 3359      FB0E0D00 
 3359      01010101 
 3360              	.LASF90:
 3361 0000 4F535144 		.ascii	"OSQDel\000"
ARM GAS  C:\Users\ADMINI~1\AppData\Local\Temp\cc9sCsDg.s 			page 76


 3361      656C00
 3362              	.LASF99:
 3363 0007 4F535150 		.ascii	"OSQPostFront\000"
 3363      6F737446 
 3363      726F6E74 
 3363      00
 3364              	.LASF28:
 3365 0014 4F535F46 		.ascii	"OS_FLAGS\000"
 3365      4C414753 
 3365      00
 3366              	.LASF67:
 3367 001d 4F535443 		.ascii	"OSTCBStatPend\000"
 3367      42537461 
 3367      7450656E 
 3367      6400
 3368              	.LASF81:
 3369 002b 4F535F54 		.ascii	"OS_TCB\000"
 3369      434200
 3370              	.LASF92:
 3371 0032 70657665 		.ascii	"pevent_return\000"
 3371      6E745F72 
 3371      65747572 
 3371      6E00
 3372              	.LASF50:
 3373 0040 4F535F51 		.ascii	"OS_Q_DATA\000"
 3373      5F444154 
 3373      4100
 3374              	.LASF44:
 3375 004a 4F535153 		.ascii	"OSQSize\000"
 3375      697A6500 
 3376              	.LASF77:
 3377 0052 4F535443 		.ascii	"OSTCBStkBase\000"
 3377      4253746B 
 3377      42617365 
 3377      00
 3378              	.LASF34:
 3379 005f 4F53466C 		.ascii	"OSFlagNodeFlagGrp\000"
 3379      61674E6F 
 3379      6465466C 
 3379      61674772 
 3379      7000
 3380              	.LASF73:
 3381 0071 4F535443 		.ascii	"OSTCBDelReq\000"
 3381      4244656C 
 3381      52657100 
 3382              	.LASF62:
 3383 007d 4F535443 		.ascii	"OSTCBMsg\000"
 3383      424D7367 
 3383      00
 3384              	.LASF2:
 3385 0086 73686F72 		.ascii	"short int\000"
 3385      7420696E 
 3385      7400
 3386              	.LASF26:
 3387 0090 4F534576 		.ascii	"OSEventName\000"
 3387      656E744E 
 3387      616D6500 
ARM GAS  C:\Users\ADMINI~1\AppData\Local\Temp\cc9sCsDg.s 			page 77


 3388              	.LASF110:
 3389 009c 4F535146 		.ascii	"OSQFreeList\000"
 3389      7265654C 
 3389      69737400 
 3390              	.LASF10:
 3391 00a8 73697A65 		.ascii	"sizetype\000"
 3391      74797065 
 3391      00
 3392              	.LASF18:
 3393 00b1 4F535F53 		.ascii	"OS_STK\000"
 3393      544B00
 3394              	.LASF40:
 3395 00b8 4F535153 		.ascii	"OSQStart\000"
 3395      74617274 
 3395      00
 3396              	.LASF19:
 3397 00c1 4F535F43 		.ascii	"OS_CPU_SR\000"
 3397      50555F53 
 3397      5200
 3398              	.LASF79:
 3399 00cb 4F535443 		.ascii	"OSTCBTaskName\000"
 3399      42546173 
 3399      6B4E616D 
 3399      6500
 3400              	.LASF78:
 3401 00d9 4F535443 		.ascii	"OSTCBStkUsed\000"
 3401      4253746B 
 3401      55736564 
 3401      00
 3402              	.LASF41:
 3403 00e6 4F535145 		.ascii	"OSQEnd\000"
 3403      6E6400
 3404              	.LASF29:
 3405 00ed 6F735F65 		.ascii	"os_event\000"
 3405      76656E74 
 3405      00
 3406              	.LASF107:
 3407 00f6 4F53496E 		.ascii	"OSIntNesting\000"
 3407      744E6573 
 3407      74696E67 
 3407      00
 3408              	.LASF17:
 3409 0103 646F7562 		.ascii	"double\000"
 3409      6C6500
 3410              	.LASF84:
 3411 010a 706D7367 		.ascii	"pmsg\000"
 3411      00
 3412              	.LASF52:
 3413 010f 4F535443 		.ascii	"OSTCBStkPtr\000"
 3413      4253746B 
 3413      50747200 
 3414              	.LASF103:
 3415 011b 70737263 		.ascii	"psrc\000"
 3415      00
 3416              	.LASF106:
 3417 0120 4F534576 		.ascii	"OSEventFreeList\000"
 3417      656E7446 
ARM GAS  C:\Users\ADMINI~1\AppData\Local\Temp\cc9sCsDg.s 			page 78


 3417      7265654C 
 3417      69737400 
 3418              	.LASF46:
 3419 0130 4F535F51 		.ascii	"OS_Q\000"
 3419      00
 3420              	.LASF101:
 3421 0135 4F535151 		.ascii	"OSQQuery\000"
 3421      75657279 
 3421      00
 3422              	.LASF111:
 3423 013e 4F535154 		.ascii	"OSQTbl\000"
 3423      626C00
 3424              	.LASF68:
 3425 0145 4F535443 		.ascii	"OSTCBPrio\000"
 3425      42507269 
 3425      6F00
 3426              	.LASF47:
 3427 014f 6F735F71 		.ascii	"os_q_data\000"
 3427      5F646174 
 3427      6100
 3428              	.LASF58:
 3429 0159 4F535443 		.ascii	"OSTCBNext\000"
 3429      424E6578 
 3429      7400
 3430              	.LASF87:
 3431 0163 4F535143 		.ascii	"OSQCreate\000"
 3431      72656174 
 3431      6500
 3432              	.LASF49:
 3433 016d 4F534E4D 		.ascii	"OSNMsgs\000"
 3433      73677300 
 3434              	.LASF22:
 3435 0175 4F534576 		.ascii	"OSEventPtr\000"
 3435      656E7450 
 3435      747200
 3436              	.LASF0:
 3437 0180 7369676E 		.ascii	"signed char\000"
 3437      65642063 
 3437      68617200 
 3438              	.LASF74:
 3439 018c 4F535443 		.ascii	"OSTCBCtxSwCtr\000"
 3439      42437478 
 3439      53774374 
 3439      7200
 3440              	.LASF16:
 3441 019a 666C6F61 		.ascii	"float\000"
 3441      7400
 3442              	.LASF63:
 3443 01a0 4F535443 		.ascii	"OSTCBFlagNode\000"
 3443      42466C61 
 3443      674E6F64 
 3443      6500
 3444              	.LASF65:
 3445 01ae 4F535443 		.ascii	"OSTCBDly\000"
 3445      42446C79 
 3445      00
 3446              	.LASF6:
ARM GAS  C:\Users\ADMINI~1\AppData\Local\Temp\cc9sCsDg.s 			page 79


 3447 01b7 6C6F6E67 		.ascii	"long long int\000"
 3447      206C6F6E 
 3447      6720696E 
 3447      7400
 3448              	.LASF96:
 3449 01c5 4F535150 		.ascii	"OSQPendAbort\000"
 3449      656E6441 
 3449      626F7274 
 3449      00
 3450              	.LASF27:
 3451 01d2 4F535F45 		.ascii	"OS_EVENT\000"
 3451      56454E54 
 3451      00
 3452              	.LASF4:
 3453 01db 6C6F6E67 		.ascii	"long int\000"
 3453      20696E74 
 3453      00
 3454              	.LASF69:
 3455 01e4 4F535443 		.ascii	"OSTCBX\000"
 3455      425800
 3456              	.LASF70:
 3457 01eb 4F535443 		.ascii	"OSTCBY\000"
 3457      425900
 3458              	.LASF57:
 3459 01f2 4F535443 		.ascii	"OSTCBId\000"
 3459      42496400 
 3460              	.LASF100:
 3461 01fa 4F535150 		.ascii	"OSQPostOpt\000"
 3461      6F73744F 
 3461      707400
 3462              	.LASF71:
 3463 0205 4F535443 		.ascii	"OSTCBBitX\000"
 3463      42426974 
 3463      5800
 3464              	.LASF55:
 3465 020f 4F535443 		.ascii	"OSTCBStkSize\000"
 3465      4253746B 
 3465      53697A65 
 3465      00
 3466              	.LASF51:
 3467 021c 6F735F74 		.ascii	"os_tcb\000"
 3467      636200
 3468              	.LASF93:
 3469 0223 4F535146 		.ascii	"OSQFlush\000"
 3469      6C757368 
 3469      00
 3470              	.LASF13:
 3471 022c 494E5438 		.ascii	"INT8U\000"
 3471      5500
 3472              	.LASF112:
 3473 0232 474E5520 		.ascii	"GNU C11 5.4.1 20160609 (release) [ARM/embedded-5-br"
 3473      43313120 
 3473      352E342E 
 3473      31203230 
 3473      31363036 
 3474 0265 616E6368 		.ascii	"anch revision 237715] -mcpu=cortex-m0 -mthumb -g -O"
 3474      20726576 
ARM GAS  C:\Users\ADMINI~1\AppData\Local\Temp\cc9sCsDg.s 			page 80


 3474      6973696F 
 3474      6E203233 
 3474      37373135 
 3475 0298 30202D66 		.ascii	"0 -ffunction-sections -ffat-lto-objects\000"
 3475      66756E63 
 3475      74696F6E 
 3475      2D736563 
 3475      74696F6E 
 3476              	.LASF76:
 3477 02c0 4F535443 		.ascii	"OSTCBCyclesStart\000"
 3477      42437963 
 3477      6C657353 
 3477      74617274 
 3477      00
 3478              	.LASF1:
 3479 02d1 756E7369 		.ascii	"unsigned char\000"
 3479      676E6564 
 3479      20636861 
 3479      7200
 3480              	.LASF48:
 3481 02df 4F534D73 		.ascii	"OSMsg\000"
 3481      6700
 3482              	.LASF45:
 3483 02e5 4F535145 		.ascii	"OSQEntries\000"
 3483      6E747269 
 3483      657300
 3484              	.LASF9:
 3485 02f0 6C6F6E67 		.ascii	"long double\000"
 3485      20646F75 
 3485      626C6500 
 3486              	.LASF97:
 3487 02fc 6E62725F 		.ascii	"nbr_tasks\000"
 3487      7461736B 
 3487      7300
 3488              	.LASF35:
 3489 0306 4F53466C 		.ascii	"OSFlagNodeFlags\000"
 3489      61674E6F 
 3489      6465466C 
 3489      61677300 
 3490              	.LASF36:
 3491 0316 4F53466C 		.ascii	"OSFlagNodeWaitType\000"
 3491      61674E6F 
 3491      64655761 
 3491      69745479 
 3491      706500
 3492              	.LASF115:
 3493 0329 4F535F51 		.ascii	"OS_QInit\000"
 3493      496E6974 
 3493      00
 3494              	.LASF72:
 3495 0332 4F535443 		.ascii	"OSTCBBitY\000"
 3495      42426974 
 3495      5900
 3496              	.LASF14:
 3497 033c 494E5431 		.ascii	"INT16U\000"
 3497      365500
 3498              	.LASF94:
ARM GAS  C:\Users\ADMINI~1\AppData\Local\Temp\cc9sCsDg.s 			page 81


 3499 0343 4F535150 		.ascii	"OSQPend\000"
 3499      656E6400 
 3500              	.LASF7:
 3501 034b 6C6F6E67 		.ascii	"long long unsigned int\000"
 3501      206C6F6E 
 3501      6720756E 
 3501      7369676E 
 3501      65642069 
 3502              	.LASF39:
 3503 0362 4F535150 		.ascii	"OSQPtr\000"
 3503      747200
 3504              	.LASF8:
 3505 0369 756E7369 		.ascii	"unsigned int\000"
 3505      676E6564 
 3505      20696E74 
 3505      00
 3506              	.LASF60:
 3507 0376 4F535443 		.ascii	"OSTCBEventPtr\000"
 3507      42457665 
 3507      6E745074 
 3507      7200
 3508              	.LASF61:
 3509 0384 4F535443 		.ascii	"OSTCBEventMultiPtr\000"
 3509      42457665 
 3509      6E744D75 
 3509      6C746950 
 3509      747200
 3510              	.LASF88:
 3511 0397 73746172 		.ascii	"start\000"
 3511      7400
 3512              	.LASF32:
 3513 039d 4F53466C 		.ascii	"OSFlagNodePrev\000"
 3513      61674E6F 
 3513      64655072 
 3513      657600
 3514              	.LASF80:
 3515 03ac 4F535443 		.ascii	"OSTCBRegTbl\000"
 3515      42526567 
 3515      54626C00 
 3516              	.LASF11:
 3517 03b8 63686172 		.ascii	"char\000"
 3517      00
 3518              	.LASF31:
 3519 03bd 4F53466C 		.ascii	"OSFlagNodeNext\000"
 3519      61674E6F 
 3519      64654E65 
 3519      787400
 3520              	.LASF20:
 3521 03cc 4F535F50 		.ascii	"OS_PRIO\000"
 3521      52494F00 
 3522              	.LASF23:
 3523 03d4 4F534576 		.ascii	"OSEventCnt\000"
 3523      656E7443 
 3523      6E7400
 3524              	.LASF82:
 3525 03df 70657665 		.ascii	"pevent\000"
 3525      6E7400
ARM GAS  C:\Users\ADMINI~1\AppData\Local\Temp\cc9sCsDg.s 			page 82


 3526              	.LASF104:
 3527 03e6 70646573 		.ascii	"pdest\000"
 3527      7400
 3528              	.LASF75:
 3529 03ec 4F535443 		.ascii	"OSTCBCyclesTot\000"
 3529      42437963 
 3529      6C657354 
 3529      6F7400
 3530              	.LASF113:
 3531 03fb 2E2E5C2E 		.ascii	"..\\..\\..\\..\\..\\..\\Software\\uCOS-II\\Source\\"
 3531      2E5C2E2E 
 3531      5C2E2E5C 
 3531      2E2E5C2E 
 3531      2E5C536F 
 3532 0425 6F735F71 		.ascii	"os_q.c\000"
 3532      2E6300
 3533              	.LASF53:
 3534 042c 4F535443 		.ascii	"OSTCBExtPtr\000"
 3534      42457874 
 3534      50747200 
 3535              	.LASF56:
 3536 0438 4F535443 		.ascii	"OSTCBOpt\000"
 3536      424F7074 
 3536      00
 3537              	.LASF54:
 3538 0441 4F535443 		.ascii	"OSTCBStkBottom\000"
 3538      4253746B 
 3538      426F7474 
 3538      6F6D00
 3539              	.LASF5:
 3540 0450 6C6F6E67 		.ascii	"long unsigned int\000"
 3540      20756E73 
 3540      69676E65 
 3540      6420696E 
 3540      7400
 3541              	.LASF114:
 3542 0462 443A5C43 		.ascii	"D:\\CYTEST\\Micrium_CY8CKIT-044_OS2\\Micrium\\Examp"
 3542      59544553 
 3542      545C4D69 
 3542      63726975 
 3542      6D5F4359 
 3543 0491 6C65735C 		.ascii	"les\\Cypress\\CY8CKIT-044\\OS2\\PSoC\\OS2.cydsn\000"
 3543      43797072 
 3543      6573735C 
 3543      43593843 
 3543      4B49542D 
 3544              	.LASF64:
 3545 04bc 4F535443 		.ascii	"OSTCBFlagsRdy\000"
 3545      42466C61 
 3545      67735264 
 3545      7900
 3546              	.LASF98:
 3547 04ca 4F535150 		.ascii	"OSQPost\000"
 3547      6F737400 
 3548              	.LASF24:
 3549 04d2 4F534576 		.ascii	"OSEventGrp\000"
 3549      656E7447 
ARM GAS  C:\Users\ADMINI~1\AppData\Local\Temp\cc9sCsDg.s 			page 83


 3549      727000
 3550              	.LASF105:
 3551 04dd 69785F6E 		.ascii	"ix_next\000"
 3551      65787400 
 3552              	.LASF3:
 3553 04e5 73686F72 		.ascii	"short unsigned int\000"
 3553      7420756E 
 3553      7369676E 
 3553      65642069 
 3553      6E7400
 3554              	.LASF102:
 3555 04f8 705F715F 		.ascii	"p_q_data\000"
 3555      64617461 
 3555      00
 3556              	.LASF89:
 3557 0501 73697A65 		.ascii	"size\000"
 3557      00
 3558              	.LASF33:
 3559 0506 4F53466C 		.ascii	"OSFlagNodeTCB\000"
 3559      61674E6F 
 3559      64655443 
 3559      4200
 3560              	.LASF59:
 3561 0514 4F535443 		.ascii	"OSTCBPrev\000"
 3561      42507265 
 3561      7600
 3562              	.LASF42:
 3563 051e 4F535149 		.ascii	"OSQIn\000"
 3563      6E00
 3564              	.LASF109:
 3565 0524 4F535443 		.ascii	"OSTCBCur\000"
 3565      42437572 
 3565      00
 3566              	.LASF21:
 3567 052d 4F534576 		.ascii	"OSEventType\000"
 3567      656E7454 
 3567      79706500 
 3568              	.LASF37:
 3569 0539 4F535F46 		.ascii	"OS_FLAG_NODE\000"
 3569      4C41475F 
 3569      4E4F4445 
 3569      00
 3570              	.LASF15:
 3571 0546 494E5433 		.ascii	"INT32U\000"
 3571      325500
 3572              	.LASF12:
 3573 054d 424F4F4C 		.ascii	"BOOLEAN\000"
 3573      45414E00 
 3574              	.LASF83:
 3575 0555 70657272 		.ascii	"perr\000"
 3575      00
 3576              	.LASF85:
 3577 055a 6370755F 		.ascii	"cpu_sr\000"
 3577      737200
 3578              	.LASF66:
 3579 0561 4F535443 		.ascii	"OSTCBStat\000"
 3579      42537461 
ARM GAS  C:\Users\ADMINI~1\AppData\Local\Temp\cc9sCsDg.s 			page 84


 3579      7400
 3580              	.LASF30:
 3581 056b 6F735F66 		.ascii	"os_flag_node\000"
 3581      6C61675F 
 3581      6E6F6465 
 3581      00
 3582              	.LASF43:
 3583 0578 4F53514F 		.ascii	"OSQOut\000"
 3583      757400
 3584              	.LASF38:
 3585 057f 6F735F71 		.ascii	"os_q\000"
 3585      00
 3586              	.LASF91:
 3587 0584 7461736B 		.ascii	"tasks_waiting\000"
 3587      735F7761 
 3587      6974696E 
 3587      6700
 3588              	.LASF108:
 3589 0592 4F534C6F 		.ascii	"OSLockNesting\000"
 3589      636B4E65 
 3589      7374696E 
 3589      6700
 3590              	.LASF86:
 3591 05a0 4F535141 		.ascii	"OSQAccept\000"
 3591      63636570 
 3591      7400
 3592              	.LASF95:
 3593 05aa 74696D65 		.ascii	"timeout\000"
 3593      6F757400 
 3594              	.LASF25:
 3595 05b2 4F534576 		.ascii	"OSEventTbl\000"
 3595      656E7454 
 3595      626C00
 3596              		.ident	"GCC: (GNU Tools for ARM Embedded Processors) 5.4.1 20160609 (release) [ARM/embedded-5-bran
