ARM GAS  C:\Users\ADMINI~1\AppData\Local\Temp\cc9sCsDg.s 			page 1


   1              		.syntax unified
   2              		.cpu cortex-m0
   3              		.fpu softvfp
   4              		.eabi_attribute 20, 1
   5              		.eabi_attribute 21, 1
   6              		.eabi_attribute 23, 3
   7              		.eabi_attribute 24, 1
   8              		.eabi_attribute 25, 1
   9              		.eabi_attribute 26, 1
  10              		.eabi_attribute 30, 6
  11              		.eabi_attribute 34, 0
  12              		.eabi_attribute 18, 4
  13              		.thumb
  14              		.syntax unified
  15              		.file	"os_q.c"
  16              		.text
  17              	.Ltext0:
  18              		.cfi_sections	.debug_frame
  19              		.section	.text.OSQAccept,"ax",%progbits
  20              		.align	2
  21              		.global	OSQAccept
  22              		.code	16
  23              		.thumb_func
  24              		.type	OSQAccept, %function
  25              	OSQAccept:
  26              	.LFB1:
  27              		.file 1 "..\\..\\..\\..\\..\\..\\Software\\uCOS-II\\Source\\os_q.c"
   1:..\..\..\..\..\..\Software\uCOS-II\Source/os_q.c **** /*
   2:..\..\..\..\..\..\Software\uCOS-II\Source/os_q.c **** ***************************************************************************************************
   3:..\..\..\..\..\..\Software\uCOS-II\Source/os_q.c **** *                                                uC/OS-II
   4:..\..\..\..\..\..\Software\uCOS-II\Source/os_q.c **** *                                          The Real-Time Kernel
   5:..\..\..\..\..\..\Software\uCOS-II\Source/os_q.c **** *                                        MESSAGE QUEUE MANAGEMENT
   6:..\..\..\..\..\..\Software\uCOS-II\Source/os_q.c **** *
   7:..\..\..\..\..\..\Software\uCOS-II\Source/os_q.c **** *                              (c) Copyright 1992-2013, Micrium, Weston, FL
   8:..\..\..\..\..\..\Software\uCOS-II\Source/os_q.c **** *                                           All Rights Reserved
   9:..\..\..\..\..\..\Software\uCOS-II\Source/os_q.c **** *
  10:..\..\..\..\..\..\Software\uCOS-II\Source/os_q.c **** * File    : OS_Q.C
  11:..\..\..\..\..\..\Software\uCOS-II\Source/os_q.c **** * By      : Jean J. Labrosse
  12:..\..\..\..\..\..\Software\uCOS-II\Source/os_q.c **** * Version : V2.92.11
  13:..\..\..\..\..\..\Software\uCOS-II\Source/os_q.c **** *
  14:..\..\..\..\..\..\Software\uCOS-II\Source/os_q.c **** * LICENSING TERMS:
  15:..\..\..\..\..\..\Software\uCOS-II\Source/os_q.c **** * ---------------
  16:..\..\..\..\..\..\Software\uCOS-II\Source/os_q.c **** *   uC/OS-II is provided in source form for FREE evaluation, for educational use or for peaceful re
  17:..\..\..\..\..\..\Software\uCOS-II\Source/os_q.c **** * If you plan on using  uC/OS-II  in a commercial product you need to contact Micrium to properly l
  18:..\..\..\..\..\..\Software\uCOS-II\Source/os_q.c **** * its use in your product. We provide ALL the source code for your convenience and to help you expe
  19:..\..\..\..\..\..\Software\uCOS-II\Source/os_q.c **** * uC/OS-II.   The fact that the  source is provided does  NOT  mean that you can use it without  pa
  20:..\..\..\..\..\..\Software\uCOS-II\Source/os_q.c **** * licensing fee.
  21:..\..\..\..\..\..\Software\uCOS-II\Source/os_q.c **** ***************************************************************************************************
  22:..\..\..\..\..\..\Software\uCOS-II\Source/os_q.c **** */
  23:..\..\..\..\..\..\Software\uCOS-II\Source/os_q.c **** 
  24:..\..\..\..\..\..\Software\uCOS-II\Source/os_q.c **** #define  MICRIUM_SOURCE
  25:..\..\..\..\..\..\Software\uCOS-II\Source/os_q.c **** 
  26:..\..\..\..\..\..\Software\uCOS-II\Source/os_q.c **** #ifndef  OS_MASTER_FILE
  27:..\..\..\..\..\..\Software\uCOS-II\Source/os_q.c **** #include <ucos_ii.h>
  28:..\..\..\..\..\..\Software\uCOS-II\Source/os_q.c **** #endif
  29:..\..\..\..\..\..\Software\uCOS-II\Source/os_q.c **** 
  30:..\..\..\..\..\..\Software\uCOS-II\Source/os_q.c **** #if (OS_Q_EN > 0u) && (OS_MAX_QS > 0u)
ARM GAS  C:\Users\ADMINI~1\AppData\Local\Temp\cc9sCsDg.s 			page 2


  31:..\..\..\..\..\..\Software\uCOS-II\Source/os_q.c **** /*
  32:..\..\..\..\..\..\Software\uCOS-II\Source/os_q.c **** ***************************************************************************************************
  33:..\..\..\..\..\..\Software\uCOS-II\Source/os_q.c **** *                                      ACCEPT MESSAGE FROM QUEUE
  34:..\..\..\..\..\..\Software\uCOS-II\Source/os_q.c **** *
  35:..\..\..\..\..\..\Software\uCOS-II\Source/os_q.c **** * Description: This function checks the queue to see if a message is available.  Unlike OSQPend(),
  36:..\..\..\..\..\..\Software\uCOS-II\Source/os_q.c **** *              OSQAccept() does not suspend the calling task if a message is not available.
  37:..\..\..\..\..\..\Software\uCOS-II\Source/os_q.c **** *
  38:..\..\..\..\..\..\Software\uCOS-II\Source/os_q.c **** * Arguments  : pevent        is a pointer to the event control block
  39:..\..\..\..\..\..\Software\uCOS-II\Source/os_q.c **** *
  40:..\..\..\..\..\..\Software\uCOS-II\Source/os_q.c **** *              perr          is a pointer to where an error message will be deposited.  Possible er
  41:..\..\..\..\..\..\Software\uCOS-II\Source/os_q.c **** *                            messages are:
  42:..\..\..\..\..\..\Software\uCOS-II\Source/os_q.c **** *
  43:..\..\..\..\..\..\Software\uCOS-II\Source/os_q.c **** *                            OS_ERR_NONE         The call was successful and your task received a
  44:..\..\..\..\..\..\Software\uCOS-II\Source/os_q.c **** *                                                message.
  45:..\..\..\..\..\..\Software\uCOS-II\Source/os_q.c **** *                            OS_ERR_EVENT_TYPE   You didn't pass a pointer to a queue
  46:..\..\..\..\..\..\Software\uCOS-II\Source/os_q.c **** *                            OS_ERR_PEVENT_NULL  If 'pevent' is a NULL pointer
  47:..\..\..\..\..\..\Software\uCOS-II\Source/os_q.c **** *                            OS_ERR_Q_EMPTY      The queue did not contain any messages
  48:..\..\..\..\..\..\Software\uCOS-II\Source/os_q.c **** *
  49:..\..\..\..\..\..\Software\uCOS-II\Source/os_q.c **** * Returns    : != (void *)0  is the message in the queue if one is available.  The message is remov
  50:..\..\..\..\..\..\Software\uCOS-II\Source/os_q.c **** *                            from the so the next time OSQAccept() is called, the queue will contai
  51:..\..\..\..\..\..\Software\uCOS-II\Source/os_q.c **** *                            one less entry.
  52:..\..\..\..\..\..\Software\uCOS-II\Source/os_q.c **** *              == (void *)0  if you received a NULL pointer message
  53:..\..\..\..\..\..\Software\uCOS-II\Source/os_q.c **** *                            if the queue is empty or,
  54:..\..\..\..\..\..\Software\uCOS-II\Source/os_q.c **** *                            if 'pevent' is a NULL pointer or,
  55:..\..\..\..\..\..\Software\uCOS-II\Source/os_q.c **** *                            if you passed an invalid event type
  56:..\..\..\..\..\..\Software\uCOS-II\Source/os_q.c **** *
  57:..\..\..\..\..\..\Software\uCOS-II\Source/os_q.c **** * Note(s)    : As of V2.60, you can now pass NULL pointers through queues.  Because of this, the ar
  58:..\..\..\..\..\..\Software\uCOS-II\Source/os_q.c **** *              'perr' has been added to the API to tell you about the outcome of the call.
  59:..\..\..\..\..\..\Software\uCOS-II\Source/os_q.c **** ***************************************************************************************************
  60:..\..\..\..\..\..\Software\uCOS-II\Source/os_q.c **** */
  61:..\..\..\..\..\..\Software\uCOS-II\Source/os_q.c **** 
  62:..\..\..\..\..\..\Software\uCOS-II\Source/os_q.c **** #if OS_Q_ACCEPT_EN > 0u
  63:..\..\..\..\..\..\Software\uCOS-II\Source/os_q.c **** void  *OSQAccept (OS_EVENT  *pevent,
  64:..\..\..\..\..\..\Software\uCOS-II\Source/os_q.c ****                   INT8U     *perr)
  65:..\..\..\..\..\..\Software\uCOS-II\Source/os_q.c **** {
  28              		.loc 1 65 0
  29              		.cfi_startproc
  30              		@ args = 0, pretend = 0, frame = 24
  31              		@ frame_needed = 1, uses_anonymous_args = 0
  32 0000 80B5     		push	{r7, lr}
  33              		.cfi_def_cfa_offset 8
  34              		.cfi_offset 7, -8
  35              		.cfi_offset 14, -4
  36 0002 86B0     		sub	sp, sp, #24
  37              		.cfi_def_cfa_offset 32
  38 0004 00AF     		add	r7, sp, #0
  39              		.cfi_def_cfa_register 7
  40 0006 7860     		str	r0, [r7, #4]
  41 0008 3960     		str	r1, [r7]
  66:..\..\..\..\..\..\Software\uCOS-II\Source/os_q.c ****     void      *pmsg;
  67:..\..\..\..\..\..\Software\uCOS-II\Source/os_q.c ****     OS_Q      *pq;
  68:..\..\..\..\..\..\Software\uCOS-II\Source/os_q.c **** #if OS_CRITICAL_METHOD == 3u                     /* Allocate storage for CPU status register       
  69:..\..\..\..\..\..\Software\uCOS-II\Source/os_q.c ****     OS_CPU_SR  cpu_sr = 0u;
  42              		.loc 1 69 0
  43 000a 0023     		movs	r3, #0
  44 000c 3B61     		str	r3, [r7, #16]
  70:..\..\..\..\..\..\Software\uCOS-II\Source/os_q.c **** #endif
ARM GAS  C:\Users\ADMINI~1\AppData\Local\Temp\cc9sCsDg.s 			page 3


  71:..\..\..\..\..\..\Software\uCOS-II\Source/os_q.c **** 
  72:..\..\..\..\..\..\Software\uCOS-II\Source/os_q.c **** 
  73:..\..\..\..\..\..\Software\uCOS-II\Source/os_q.c **** 
  74:..\..\..\..\..\..\Software\uCOS-II\Source/os_q.c **** #ifdef OS_SAFETY_CRITICAL
  75:..\..\..\..\..\..\Software\uCOS-II\Source/os_q.c ****     if (perr == (INT8U *)0) {
  76:..\..\..\..\..\..\Software\uCOS-II\Source/os_q.c ****         OS_SAFETY_CRITICAL_EXCEPTION();
  77:..\..\..\..\..\..\Software\uCOS-II\Source/os_q.c ****         return ((void *)0);
  78:..\..\..\..\..\..\Software\uCOS-II\Source/os_q.c ****     }
  79:..\..\..\..\..\..\Software\uCOS-II\Source/os_q.c **** #endif
  80:..\..\..\..\..\..\Software\uCOS-II\Source/os_q.c **** 
  81:..\..\..\..\..\..\Software\uCOS-II\Source/os_q.c **** #if OS_ARG_CHK_EN > 0u
  82:..\..\..\..\..\..\Software\uCOS-II\Source/os_q.c ****     if (pevent == (OS_EVENT *)0) {               /* Validate 'pevent'                              
  45              		.loc 1 82 0
  46 000e 7B68     		ldr	r3, [r7, #4]
  47 0010 002B     		cmp	r3, #0
  48 0012 04D1     		bne	.L2
  83:..\..\..\..\..\..\Software\uCOS-II\Source/os_q.c ****         *perr = OS_ERR_PEVENT_NULL;
  49              		.loc 1 83 0
  50 0014 3B68     		ldr	r3, [r7]
  51 0016 0422     		movs	r2, #4
  52 0018 1A70     		strb	r2, [r3]
  84:..\..\..\..\..\..\Software\uCOS-II\Source/os_q.c ****         return ((void *)0);
  53              		.loc 1 84 0
  54 001a 0023     		movs	r3, #0
  55 001c 38E0     		b	.L3
  56              	.L2:
  85:..\..\..\..\..\..\Software\uCOS-II\Source/os_q.c ****     }
  86:..\..\..\..\..\..\Software\uCOS-II\Source/os_q.c **** #endif
  87:..\..\..\..\..\..\Software\uCOS-II\Source/os_q.c ****     if (pevent->OSEventType != OS_EVENT_TYPE_Q) {/* Validate event block type                      
  57              		.loc 1 87 0
  58 001e 7B68     		ldr	r3, [r7, #4]
  59 0020 1B78     		ldrb	r3, [r3]
  60 0022 022B     		cmp	r3, #2
  61 0024 04D0     		beq	.L4
  88:..\..\..\..\..\..\Software\uCOS-II\Source/os_q.c ****         *perr = OS_ERR_EVENT_TYPE;
  62              		.loc 1 88 0
  63 0026 3B68     		ldr	r3, [r7]
  64 0028 0122     		movs	r2, #1
  65 002a 1A70     		strb	r2, [r3]
  89:..\..\..\..\..\..\Software\uCOS-II\Source/os_q.c ****         return ((void *)0);
  66              		.loc 1 89 0
  67 002c 0023     		movs	r3, #0
  68 002e 2FE0     		b	.L3
  69              	.L4:
  90:..\..\..\..\..\..\Software\uCOS-II\Source/os_q.c ****     }
  91:..\..\..\..\..\..\Software\uCOS-II\Source/os_q.c ****     OS_ENTER_CRITICAL();
  70              		.loc 1 91 0
  71 0030 FFF7FEFF 		bl	OS_CPU_SR_Save
  72 0034 0300     		movs	r3, r0
  73 0036 3B61     		str	r3, [r7, #16]
  92:..\..\..\..\..\..\Software\uCOS-II\Source/os_q.c ****     pq = (OS_Q *)pevent->OSEventPtr;             /* Point at queue control block                   
  74              		.loc 1 92 0
  75 0038 7B68     		ldr	r3, [r7, #4]
  76 003a 5B68     		ldr	r3, [r3, #4]
  77 003c FB60     		str	r3, [r7, #12]
  93:..\..\..\..\..\..\Software\uCOS-II\Source/os_q.c ****     if (pq->OSQEntries > 0u) {                   /* See if any messages in the queue               
  78              		.loc 1 93 0
ARM GAS  C:\Users\ADMINI~1\AppData\Local\Temp\cc9sCsDg.s 			page 4


  79 003e FB68     		ldr	r3, [r7, #12]
  80 0040 DB8A     		ldrh	r3, [r3, #22]
  81 0042 002B     		cmp	r3, #0
  82 0044 1AD0     		beq	.L5
  94:..\..\..\..\..\..\Software\uCOS-II\Source/os_q.c ****         pmsg = *pq->OSQOut++;                    /* Yes, extract oldest message from the queue     
  83              		.loc 1 94 0
  84 0046 FB68     		ldr	r3, [r7, #12]
  85 0048 1B69     		ldr	r3, [r3, #16]
  86 004a 191D     		adds	r1, r3, #4
  87 004c FA68     		ldr	r2, [r7, #12]
  88 004e 1161     		str	r1, [r2, #16]
  89 0050 1B68     		ldr	r3, [r3]
  90 0052 7B61     		str	r3, [r7, #20]
  95:..\..\..\..\..\..\Software\uCOS-II\Source/os_q.c ****         pq->OSQEntries--;                        /* Update the number of entries in the queue      
  91              		.loc 1 95 0
  92 0054 FB68     		ldr	r3, [r7, #12]
  93 0056 DB8A     		ldrh	r3, [r3, #22]
  94 0058 013B     		subs	r3, r3, #1
  95 005a 9AB2     		uxth	r2, r3
  96 005c FB68     		ldr	r3, [r7, #12]
  97 005e DA82     		strh	r2, [r3, #22]
  96:..\..\..\..\..\..\Software\uCOS-II\Source/os_q.c ****         if (pq->OSQOut == pq->OSQEnd) {          /* Wrap OUT pointer if we are at the end of the qu
  98              		.loc 1 96 0
  99 0060 FB68     		ldr	r3, [r7, #12]
 100 0062 1A69     		ldr	r2, [r3, #16]
 101 0064 FB68     		ldr	r3, [r7, #12]
 102 0066 9B68     		ldr	r3, [r3, #8]
 103 0068 9A42     		cmp	r2, r3
 104 006a 03D1     		bne	.L6
  97:..\..\..\..\..\..\Software\uCOS-II\Source/os_q.c ****             pq->OSQOut = pq->OSQStart;
 105              		.loc 1 97 0
 106 006c FB68     		ldr	r3, [r7, #12]
 107 006e 5A68     		ldr	r2, [r3, #4]
 108 0070 FB68     		ldr	r3, [r7, #12]
 109 0072 1A61     		str	r2, [r3, #16]
 110              	.L6:
  98:..\..\..\..\..\..\Software\uCOS-II\Source/os_q.c ****         }
  99:..\..\..\..\..\..\Software\uCOS-II\Source/os_q.c ****         *perr = OS_ERR_NONE;
 111              		.loc 1 99 0
 112 0074 3B68     		ldr	r3, [r7]
 113 0076 0022     		movs	r2, #0
 114 0078 1A70     		strb	r2, [r3]
 115 007a 04E0     		b	.L7
 116              	.L5:
 100:..\..\..\..\..\..\Software\uCOS-II\Source/os_q.c ****     } else {
 101:..\..\..\..\..\..\Software\uCOS-II\Source/os_q.c ****         *perr = OS_ERR_Q_EMPTY;
 117              		.loc 1 101 0
 118 007c 3B68     		ldr	r3, [r7]
 119 007e 1F22     		movs	r2, #31
 120 0080 1A70     		strb	r2, [r3]
 102:..\..\..\..\..\..\Software\uCOS-II\Source/os_q.c ****         pmsg  = (void *)0;                       /* Queue is empty                                 
 121              		.loc 1 102 0
 122 0082 0023     		movs	r3, #0
 123 0084 7B61     		str	r3, [r7, #20]
 124              	.L7:
 103:..\..\..\..\..\..\Software\uCOS-II\Source/os_q.c ****     }
 104:..\..\..\..\..\..\Software\uCOS-II\Source/os_q.c ****     OS_EXIT_CRITICAL();
ARM GAS  C:\Users\ADMINI~1\AppData\Local\Temp\cc9sCsDg.s 			page 5


 125              		.loc 1 104 0
 126 0086 3B69     		ldr	r3, [r7, #16]
 127 0088 1800     		movs	r0, r3
 128 008a FFF7FEFF 		bl	OS_CPU_SR_Restore
 105:..\..\..\..\..\..\Software\uCOS-II\Source/os_q.c ****     return (pmsg);                               /* Return message received (or NULL)              
 129              		.loc 1 105 0
 130 008e 7B69     		ldr	r3, [r7, #20]
 131              	.L3:
 106:..\..\..\..\..\..\Software\uCOS-II\Source/os_q.c **** }
 132              		.loc 1 106 0
 133 0090 1800     		movs	r0, r3
 134 0092 BD46     		mov	sp, r7
 135 0094 06B0     		add	sp, sp, #24
 136              		@ sp needed
 137 0096 80BD     		pop	{r7, pc}
 138              		.cfi_endproc
 139              	.LFE1:
 140              		.size	OSQAccept, .-OSQAccept
 141              		.section	.rodata
 142              		.align	2
 143              	.LC3:
 144 0000 3F00     		.ascii	"?\000"
 145              		.section	.text.OSQCreate,"ax",%progbits
 146              		.align	2
 147              		.global	OSQCreate
 148              		.code	16
 149              		.thumb_func
 150              		.type	OSQCreate, %function
 151              	OSQCreate:
 152              	.LFB2:
 107:..\..\..\..\..\..\Software\uCOS-II\Source/os_q.c **** #endif
 108:..\..\..\..\..\..\Software\uCOS-II\Source/os_q.c **** /*$PAGE*/
 109:..\..\..\..\..\..\Software\uCOS-II\Source/os_q.c **** /*
 110:..\..\..\..\..\..\Software\uCOS-II\Source/os_q.c **** ***************************************************************************************************
 111:..\..\..\..\..\..\Software\uCOS-II\Source/os_q.c **** *                                       CREATE A MESSAGE QUEUE
 112:..\..\..\..\..\..\Software\uCOS-II\Source/os_q.c **** *
 113:..\..\..\..\..\..\Software\uCOS-II\Source/os_q.c **** * Description: This function creates a message queue if free event control blocks are available.
 114:..\..\..\..\..\..\Software\uCOS-II\Source/os_q.c **** *
 115:..\..\..\..\..\..\Software\uCOS-II\Source/os_q.c **** * Arguments  : start         is a pointer to the base address of the message queue storage area.  T
 116:..\..\..\..\..\..\Software\uCOS-II\Source/os_q.c **** *                            storage area MUST be declared as an array of pointers to 'void' as fol
 117:..\..\..\..\..\..\Software\uCOS-II\Source/os_q.c **** *
 118:..\..\..\..\..\..\Software\uCOS-II\Source/os_q.c **** *                            void *MessageStorage[size]
 119:..\..\..\..\..\..\Software\uCOS-II\Source/os_q.c **** *
 120:..\..\..\..\..\..\Software\uCOS-II\Source/os_q.c **** *              size          is the number of elements in the storage area
 121:..\..\..\..\..\..\Software\uCOS-II\Source/os_q.c **** *
 122:..\..\..\..\..\..\Software\uCOS-II\Source/os_q.c **** * Returns    : != (OS_EVENT *)0  is a pointer to the event control clock (OS_EVENT) associated with
 123:..\..\..\..\..\..\Software\uCOS-II\Source/os_q.c **** *                                created queue
 124:..\..\..\..\..\..\Software\uCOS-II\Source/os_q.c **** *              == (OS_EVENT *)0  if no event control blocks were available or an error was detected
 125:..\..\..\..\..\..\Software\uCOS-II\Source/os_q.c **** ***************************************************************************************************
 126:..\..\..\..\..\..\Software\uCOS-II\Source/os_q.c **** */
 127:..\..\..\..\..\..\Software\uCOS-II\Source/os_q.c **** 
 128:..\..\..\..\..\..\Software\uCOS-II\Source/os_q.c **** OS_EVENT  *OSQCreate (void    **start,
 129:..\..\..\..\..\..\Software\uCOS-II\Source/os_q.c ****                       INT16U    size)
 130:..\..\..\..\..\..\Software\uCOS-II\Source/os_q.c **** {
 153              		.loc 1 130 0
 154              		.cfi_startproc
 155              		@ args = 0, pretend = 0, frame = 24
ARM GAS  C:\Users\ADMINI~1\AppData\Local\Temp\cc9sCsDg.s 			page 6


 156              		@ frame_needed = 1, uses_anonymous_args = 0
 157 0000 80B5     		push	{r7, lr}
 158              		.cfi_def_cfa_offset 8
 159              		.cfi_offset 7, -8
 160              		.cfi_offset 14, -4
 161 0002 86B0     		sub	sp, sp, #24
 162              		.cfi_def_cfa_offset 32
 163 0004 00AF     		add	r7, sp, #0
 164              		.cfi_def_cfa_register 7
 165 0006 7860     		str	r0, [r7, #4]
 166 0008 0A00     		movs	r2, r1
 167 000a BB1C     		adds	r3, r7, #2
 168 000c 1A80     		strh	r2, [r3]
 131:..\..\..\..\..\..\Software\uCOS-II\Source/os_q.c ****     OS_EVENT  *pevent;
 132:..\..\..\..\..\..\Software\uCOS-II\Source/os_q.c ****     OS_Q      *pq;
 133:..\..\..\..\..\..\Software\uCOS-II\Source/os_q.c **** #if OS_CRITICAL_METHOD == 3u                     /* Allocate storage for CPU status register       
 134:..\..\..\..\..\..\Software\uCOS-II\Source/os_q.c ****     OS_CPU_SR  cpu_sr = 0u;
 169              		.loc 1 134 0
 170 000e 0023     		movs	r3, #0
 171 0010 3B61     		str	r3, [r7, #16]
 135:..\..\..\..\..\..\Software\uCOS-II\Source/os_q.c **** #endif
 136:..\..\..\..\..\..\Software\uCOS-II\Source/os_q.c **** 
 137:..\..\..\..\..\..\Software\uCOS-II\Source/os_q.c **** 
 138:..\..\..\..\..\..\Software\uCOS-II\Source/os_q.c **** 
 139:..\..\..\..\..\..\Software\uCOS-II\Source/os_q.c **** #ifdef OS_SAFETY_CRITICAL_IEC61508
 140:..\..\..\..\..\..\Software\uCOS-II\Source/os_q.c ****     if (OSSafetyCriticalStartFlag == OS_TRUE) {
 141:..\..\..\..\..\..\Software\uCOS-II\Source/os_q.c ****         OS_SAFETY_CRITICAL_EXCEPTION();
 142:..\..\..\..\..\..\Software\uCOS-II\Source/os_q.c ****         return ((OS_EVENT *)0);
 143:..\..\..\..\..\..\Software\uCOS-II\Source/os_q.c ****     }
 144:..\..\..\..\..\..\Software\uCOS-II\Source/os_q.c **** #endif
 145:..\..\..\..\..\..\Software\uCOS-II\Source/os_q.c **** 
 146:..\..\..\..\..\..\Software\uCOS-II\Source/os_q.c ****     if (OSIntNesting > 0u) {                     /* See if called from ISR ...                     
 172              		.loc 1 146 0
 173 0012 354B     		ldr	r3, .L14
 174 0014 1B78     		ldrb	r3, [r3]
 175 0016 002B     		cmp	r3, #0
 176 0018 01D0     		beq	.L9
 147:..\..\..\..\..\..\Software\uCOS-II\Source/os_q.c ****         return ((OS_EVENT *)0);                  /* ... can't CREATE from an ISR                   
 177              		.loc 1 147 0
 178 001a 0023     		movs	r3, #0
 179 001c 5FE0     		b	.L10
 180              	.L9:
 148:..\..\..\..\..\..\Software\uCOS-II\Source/os_q.c ****     }
 149:..\..\..\..\..\..\Software\uCOS-II\Source/os_q.c ****     OS_ENTER_CRITICAL();
 181              		.loc 1 149 0
 182 001e FFF7FEFF 		bl	OS_CPU_SR_Save
 183 0022 0300     		movs	r3, r0
 184 0024 3B61     		str	r3, [r7, #16]
 150:..\..\..\..\..\..\Software\uCOS-II\Source/os_q.c ****     pevent = OSEventFreeList;                    /* Get next free event control block              
 185              		.loc 1 150 0
 186 0026 314B     		ldr	r3, .L14+4
 187 0028 1B68     		ldr	r3, [r3]
 188 002a 7B61     		str	r3, [r7, #20]
 151:..\..\..\..\..\..\Software\uCOS-II\Source/os_q.c ****     if (OSEventFreeList != (OS_EVENT *)0) {      /* See if pool of free ECB pool was empty         
 189              		.loc 1 151 0
 190 002c 2F4B     		ldr	r3, .L14+4
 191 002e 1B68     		ldr	r3, [r3]
ARM GAS  C:\Users\ADMINI~1\AppData\Local\Temp\cc9sCsDg.s 			page 7


 192 0030 002B     		cmp	r3, #0
 193 0032 04D0     		beq	.L11
 152:..\..\..\..\..\..\Software\uCOS-II\Source/os_q.c ****         OSEventFreeList = (OS_EVENT *)OSEventFreeList->OSEventPtr;
 194              		.loc 1 152 0
 195 0034 2D4B     		ldr	r3, .L14+4
 196 0036 1B68     		ldr	r3, [r3]
 197 0038 5A68     		ldr	r2, [r3, #4]
 198 003a 2C4B     		ldr	r3, .L14+4
 199 003c 1A60     		str	r2, [r3]
 200              	.L11:
 153:..\..\..\..\..\..\Software\uCOS-II\Source/os_q.c ****     }
 154:..\..\..\..\..\..\Software\uCOS-II\Source/os_q.c ****     OS_EXIT_CRITICAL();
 201              		.loc 1 154 0
 202 003e 3B69     		ldr	r3, [r7, #16]
 203 0040 1800     		movs	r0, r3
 204 0042 FFF7FEFF 		bl	OS_CPU_SR_Restore
 155:..\..\..\..\..\..\Software\uCOS-II\Source/os_q.c ****     if (pevent != (OS_EVENT *)0) {               /* See if we have an event control block          
 205              		.loc 1 155 0
 206 0046 7B69     		ldr	r3, [r7, #20]
 207 0048 002B     		cmp	r3, #0
 208 004a 47D0     		beq	.L12
 156:..\..\..\..\..\..\Software\uCOS-II\Source/os_q.c ****         OS_ENTER_CRITICAL();
 209              		.loc 1 156 0
 210 004c FFF7FEFF 		bl	OS_CPU_SR_Save
 211 0050 0300     		movs	r3, r0
 212 0052 3B61     		str	r3, [r7, #16]
 157:..\..\..\..\..\..\Software\uCOS-II\Source/os_q.c ****         pq = OSQFreeList;                        /* Get a free queue control block                 
 213              		.loc 1 157 0
 214 0054 264B     		ldr	r3, .L14+8
 215 0056 1B68     		ldr	r3, [r3]
 216 0058 FB60     		str	r3, [r7, #12]
 158:..\..\..\..\..\..\Software\uCOS-II\Source/os_q.c ****         if (pq != (OS_Q *)0) {                   /* Were we able to get a queue control block ?    
 217              		.loc 1 158 0
 218 005a FB68     		ldr	r3, [r7, #12]
 219 005c 002B     		cmp	r3, #0
 220 005e 30D0     		beq	.L13
 159:..\..\..\..\..\..\Software\uCOS-II\Source/os_q.c ****             OSQFreeList            = OSQFreeList->OSQPtr; /* Yes, Adjust free list pointer to next 
 221              		.loc 1 159 0
 222 0060 234B     		ldr	r3, .L14+8
 223 0062 1B68     		ldr	r3, [r3]
 224 0064 1A68     		ldr	r2, [r3]
 225 0066 224B     		ldr	r3, .L14+8
 226 0068 1A60     		str	r2, [r3]
 160:..\..\..\..\..\..\Software\uCOS-II\Source/os_q.c ****             OS_EXIT_CRITICAL();
 227              		.loc 1 160 0
 228 006a 3B69     		ldr	r3, [r7, #16]
 229 006c 1800     		movs	r0, r3
 230 006e FFF7FEFF 		bl	OS_CPU_SR_Restore
 161:..\..\..\..\..\..\Software\uCOS-II\Source/os_q.c ****             pq->OSQStart           = start;               /*      Initialize the queue             
 231              		.loc 1 161 0
 232 0072 FB68     		ldr	r3, [r7, #12]
 233 0074 7A68     		ldr	r2, [r7, #4]
 234 0076 5A60     		str	r2, [r3, #4]
 162:..\..\..\..\..\..\Software\uCOS-II\Source/os_q.c ****             pq->OSQEnd             = &start[size];
 235              		.loc 1 162 0
 236 0078 BB1C     		adds	r3, r7, #2
 237 007a 1B88     		ldrh	r3, [r3]
ARM GAS  C:\Users\ADMINI~1\AppData\Local\Temp\cc9sCsDg.s 			page 8


 238 007c 9B00     		lsls	r3, r3, #2
 239 007e 7A68     		ldr	r2, [r7, #4]
 240 0080 D218     		adds	r2, r2, r3
 241 0082 FB68     		ldr	r3, [r7, #12]
 242 0084 9A60     		str	r2, [r3, #8]
 163:..\..\..\..\..\..\Software\uCOS-II\Source/os_q.c ****             pq->OSQIn              = start;
 243              		.loc 1 163 0
 244 0086 FB68     		ldr	r3, [r7, #12]
 245 0088 7A68     		ldr	r2, [r7, #4]
 246 008a DA60     		str	r2, [r3, #12]
 164:..\..\..\..\..\..\Software\uCOS-II\Source/os_q.c ****             pq->OSQOut             = start;
 247              		.loc 1 164 0
 248 008c FB68     		ldr	r3, [r7, #12]
 249 008e 7A68     		ldr	r2, [r7, #4]
 250 0090 1A61     		str	r2, [r3, #16]
 165:..\..\..\..\..\..\Software\uCOS-II\Source/os_q.c ****             pq->OSQSize            = size;
 251              		.loc 1 165 0
 252 0092 FB68     		ldr	r3, [r7, #12]
 253 0094 BA1C     		adds	r2, r7, #2
 254 0096 1288     		ldrh	r2, [r2]
 255 0098 9A82     		strh	r2, [r3, #20]
 166:..\..\..\..\..\..\Software\uCOS-II\Source/os_q.c ****             pq->OSQEntries         = 0u;
 256              		.loc 1 166 0
 257 009a FB68     		ldr	r3, [r7, #12]
 258 009c 0022     		movs	r2, #0
 259 009e DA82     		strh	r2, [r3, #22]
 167:..\..\..\..\..\..\Software\uCOS-II\Source/os_q.c ****             pevent->OSEventType    = OS_EVENT_TYPE_Q;
 260              		.loc 1 167 0
 261 00a0 7B69     		ldr	r3, [r7, #20]
 262 00a2 0222     		movs	r2, #2
 263 00a4 1A70     		strb	r2, [r3]
 168:..\..\..\..\..\..\Software\uCOS-II\Source/os_q.c ****             pevent->OSEventCnt     = 0u;
 264              		.loc 1 168 0
 265 00a6 7B69     		ldr	r3, [r7, #20]
 266 00a8 0022     		movs	r2, #0
 267 00aa 1A81     		strh	r2, [r3, #8]
 169:..\..\..\..\..\..\Software\uCOS-II\Source/os_q.c ****             pevent->OSEventPtr     = pq;
 268              		.loc 1 169 0
 269 00ac 7B69     		ldr	r3, [r7, #20]
 270 00ae FA68     		ldr	r2, [r7, #12]
 271 00b0 5A60     		str	r2, [r3, #4]
 170:..\..\..\..\..\..\Software\uCOS-II\Source/os_q.c **** #if OS_EVENT_NAME_EN > 0u
 171:..\..\..\..\..\..\Software\uCOS-II\Source/os_q.c ****             pevent->OSEventName    = (INT8U *)(void *)"?";
 272              		.loc 1 171 0
 273 00b2 7B69     		ldr	r3, [r7, #20]
 274 00b4 0F4A     		ldr	r2, .L14+12
 275 00b6 5A61     		str	r2, [r3, #20]
 172:..\..\..\..\..\..\Software\uCOS-II\Source/os_q.c **** #endif
 173:..\..\..\..\..\..\Software\uCOS-II\Source/os_q.c ****             OS_EventWaitListInit(pevent);                 /*      Initialize the wait list         
 276              		.loc 1 173 0
 277 00b8 7B69     		ldr	r3, [r7, #20]
 278 00ba 1800     		movs	r0, r3
 279 00bc FFF7FEFF 		bl	OS_EventWaitListInit
 280 00c0 0CE0     		b	.L12
 281              	.L13:
 174:..\..\..\..\..\..\Software\uCOS-II\Source/os_q.c ****         } else {
 175:..\..\..\..\..\..\Software\uCOS-II\Source/os_q.c ****             pevent->OSEventPtr = (void *)OSEventFreeList; /* No,  Return event control block on err
ARM GAS  C:\Users\ADMINI~1\AppData\Local\Temp\cc9sCsDg.s 			page 9


 282              		.loc 1 175 0
 283 00c2 0A4B     		ldr	r3, .L14+4
 284 00c4 1A68     		ldr	r2, [r3]
 285 00c6 7B69     		ldr	r3, [r7, #20]
 286 00c8 5A60     		str	r2, [r3, #4]
 176:..\..\..\..\..\..\Software\uCOS-II\Source/os_q.c ****             OSEventFreeList    = pevent;
 287              		.loc 1 176 0
 288 00ca 084B     		ldr	r3, .L14+4
 289 00cc 7A69     		ldr	r2, [r7, #20]
 290 00ce 1A60     		str	r2, [r3]
 177:..\..\..\..\..\..\Software\uCOS-II\Source/os_q.c ****             OS_EXIT_CRITICAL();
 291              		.loc 1 177 0
 292 00d0 3B69     		ldr	r3, [r7, #16]
 293 00d2 1800     		movs	r0, r3
 294 00d4 FFF7FEFF 		bl	OS_CPU_SR_Restore
 178:..\..\..\..\..\..\Software\uCOS-II\Source/os_q.c ****             pevent = (OS_EVENT *)0;
 295              		.loc 1 178 0
 296 00d8 0023     		movs	r3, #0
 297 00da 7B61     		str	r3, [r7, #20]
 298              	.L12:
 179:..\..\..\..\..\..\Software\uCOS-II\Source/os_q.c ****         }
 180:..\..\..\..\..\..\Software\uCOS-II\Source/os_q.c ****     }
 181:..\..\..\..\..\..\Software\uCOS-II\Source/os_q.c ****     return (pevent);
 299              		.loc 1 181 0
 300 00dc 7B69     		ldr	r3, [r7, #20]
 301              	.L10:
 182:..\..\..\..\..\..\Software\uCOS-II\Source/os_q.c **** }
 302              		.loc 1 182 0
 303 00de 1800     		movs	r0, r3
 304 00e0 BD46     		mov	sp, r7
 305 00e2 06B0     		add	sp, sp, #24
 306              		@ sp needed
 307 00e4 80BD     		pop	{r7, pc}
 308              	.L15:
 309 00e6 C046     		.align	2
 310              	.L14:
 311 00e8 00000000 		.word	OSIntNesting
 312 00ec 00000000 		.word	OSEventFreeList
 313 00f0 00000000 		.word	OSQFreeList
 314 00f4 00000000 		.word	.LC3
 315              		.cfi_endproc
 316              	.LFE2:
 317              		.size	OSQCreate, .-OSQCreate
 318              		.section	.text.OSQDel,"ax",%progbits
 319              		.align	2
 320              		.global	OSQDel
 321              		.code	16
 322              		.thumb_func
 323              		.type	OSQDel, %function
 324              	OSQDel:
 325              	.LFB3:
 183:..\..\..\..\..\..\Software\uCOS-II\Source/os_q.c **** /*$PAGE*/
 184:..\..\..\..\..\..\Software\uCOS-II\Source/os_q.c **** /*
 185:..\..\..\..\..\..\Software\uCOS-II\Source/os_q.c **** ***************************************************************************************************
 186:..\..\..\..\..\..\Software\uCOS-II\Source/os_q.c **** *                                       DELETE A MESSAGE QUEUE
 187:..\..\..\..\..\..\Software\uCOS-II\Source/os_q.c **** *
 188:..\..\..\..\..\..\Software\uCOS-II\Source/os_q.c **** * Description: This function deletes a message queue and readies all tasks pending on the queue.
ARM GAS  C:\Users\ADMINI~1\AppData\Local\Temp\cc9sCsDg.s 			page 10


 189:..\..\..\..\..\..\Software\uCOS-II\Source/os_q.c **** *
 190:..\..\..\..\..\..\Software\uCOS-II\Source/os_q.c **** * Arguments  : pevent        is a pointer to the event control block associated with the desired
 191:..\..\..\..\..\..\Software\uCOS-II\Source/os_q.c **** *                            queue.
 192:..\..\..\..\..\..\Software\uCOS-II\Source/os_q.c **** *
 193:..\..\..\..\..\..\Software\uCOS-II\Source/os_q.c **** *              opt           determines delete options as follows:
 194:..\..\..\..\..\..\Software\uCOS-II\Source/os_q.c **** *                            opt == OS_DEL_NO_PEND   Delete the queue ONLY if no task pending
 195:..\..\..\..\..\..\Software\uCOS-II\Source/os_q.c **** *                            opt == OS_DEL_ALWAYS    Deletes the queue even if tasks are waiting.
 196:..\..\..\..\..\..\Software\uCOS-II\Source/os_q.c **** *                                                    In this case, all the tasks pending will be re
 197:..\..\..\..\..\..\Software\uCOS-II\Source/os_q.c **** *
 198:..\..\..\..\..\..\Software\uCOS-II\Source/os_q.c **** *              perr          is a pointer to an error code that can contain one of the following va
 199:..\..\..\..\..\..\Software\uCOS-II\Source/os_q.c **** *                            OS_ERR_NONE             The call was successful and the queue was dele
 200:..\..\..\..\..\..\Software\uCOS-II\Source/os_q.c **** *                            OS_ERR_DEL_ISR          If you tried to delete the queue from an ISR
 201:..\..\..\..\..\..\Software\uCOS-II\Source/os_q.c **** *                            OS_ERR_INVALID_OPT      An invalid option was specified
 202:..\..\..\..\..\..\Software\uCOS-II\Source/os_q.c **** *                            OS_ERR_TASK_WAITING     One or more tasks were waiting on the queue
 203:..\..\..\..\..\..\Software\uCOS-II\Source/os_q.c **** *                            OS_ERR_EVENT_TYPE       If you didn't pass a pointer to a queue
 204:..\..\..\..\..\..\Software\uCOS-II\Source/os_q.c **** *                            OS_ERR_PEVENT_NULL      If 'pevent' is a NULL pointer.
 205:..\..\..\..\..\..\Software\uCOS-II\Source/os_q.c **** *
 206:..\..\..\..\..\..\Software\uCOS-II\Source/os_q.c **** * Returns    : pevent        upon error
 207:..\..\..\..\..\..\Software\uCOS-II\Source/os_q.c **** *              (OS_EVENT *)0 if the queue was successfully deleted.
 208:..\..\..\..\..\..\Software\uCOS-II\Source/os_q.c **** *
 209:..\..\..\..\..\..\Software\uCOS-II\Source/os_q.c **** * Note(s)    : 1) This function must be used with care.  Tasks that would normally expect the prese
 210:..\..\..\..\..\..\Software\uCOS-II\Source/os_q.c **** *                 the queue MUST check the return code of OSQPend().
 211:..\..\..\..\..\..\Software\uCOS-II\Source/os_q.c **** *              2) OSQAccept() callers will not know that the intended queue has been deleted unless
 212:..\..\..\..\..\..\Software\uCOS-II\Source/os_q.c **** *                 they check 'pevent' to see that it's a NULL pointer.
 213:..\..\..\..\..\..\Software\uCOS-II\Source/os_q.c **** *              3) This call can potentially disable interrupts for a long time.  The interrupt disa
 214:..\..\..\..\..\..\Software\uCOS-II\Source/os_q.c **** *                 time is directly proportional to the number of tasks waiting on the queue.
 215:..\..\..\..\..\..\Software\uCOS-II\Source/os_q.c **** *              4) Because ALL tasks pending on the queue will be readied, you MUST be careful in
 216:..\..\..\..\..\..\Software\uCOS-II\Source/os_q.c **** *                 applications where the queue is used for mutual exclusion because the resource(s)
 217:..\..\..\..\..\..\Software\uCOS-II\Source/os_q.c **** *                 will no longer be guarded by the queue.
 218:..\..\..\..\..\..\Software\uCOS-II\Source/os_q.c **** *              5) If the storage for the message queue was allocated dynamically (i.e. using a mall
 219:..\..\..\..\..\..\Software\uCOS-II\Source/os_q.c **** *                 type call) then your application MUST release the memory storage by call the coun
 220:..\..\..\..\..\..\Software\uCOS-II\Source/os_q.c **** *                 call of the dynamic allocation scheme used.  If the queue storage was created sta
 221:..\..\..\..\..\..\Software\uCOS-II\Source/os_q.c **** *                 then, the storage can be reused.
 222:..\..\..\..\..\..\Software\uCOS-II\Source/os_q.c **** *              6) All tasks that were waiting for the queue will be readied and returned an 
 223:..\..\..\..\..\..\Software\uCOS-II\Source/os_q.c **** *                 OS_ERR_PEND_ABORT if OSQDel() was called with OS_DEL_ALWAYS
 224:..\..\..\..\..\..\Software\uCOS-II\Source/os_q.c **** ***************************************************************************************************
 225:..\..\..\..\..\..\Software\uCOS-II\Source/os_q.c **** */
 226:..\..\..\..\..\..\Software\uCOS-II\Source/os_q.c **** 
 227:..\..\..\..\..\..\Software\uCOS-II\Source/os_q.c **** #if OS_Q_DEL_EN > 0u
 228:..\..\..\..\..\..\Software\uCOS-II\Source/os_q.c **** OS_EVENT  *OSQDel (OS_EVENT  *pevent,
 229:..\..\..\..\..\..\Software\uCOS-II\Source/os_q.c ****                    INT8U      opt,
 230:..\..\..\..\..\..\Software\uCOS-II\Source/os_q.c ****                    INT8U     *perr)
 231:..\..\..\..\..\..\Software\uCOS-II\Source/os_q.c **** {
 326              		.loc 1 231 0
 327              		.cfi_startproc
 328              		@ args = 0, pretend = 0, frame = 32
 329              		@ frame_needed = 1, uses_anonymous_args = 0
 330 0000 80B5     		push	{r7, lr}
 331              		.cfi_def_cfa_offset 8
 332              		.cfi_offset 7, -8
 333              		.cfi_offset 14, -4
 334 0002 88B0     		sub	sp, sp, #32
 335              		.cfi_def_cfa_offset 40
 336 0004 00AF     		add	r7, sp, #0
 337              		.cfi_def_cfa_register 7
 338 0006 F860     		str	r0, [r7, #12]
 339 0008 7A60     		str	r2, [r7, #4]
ARM GAS  C:\Users\ADMINI~1\AppData\Local\Temp\cc9sCsDg.s 			page 11


 340 000a 0B23     		movs	r3, #11
 341 000c FB18     		adds	r3, r7, r3
 342 000e 0A1C     		adds	r2, r1, #0
 343 0010 1A70     		strb	r2, [r3]
 232:..\..\..\..\..\..\Software\uCOS-II\Source/os_q.c ****     BOOLEAN    tasks_waiting;
 233:..\..\..\..\..\..\Software\uCOS-II\Source/os_q.c ****     OS_EVENT  *pevent_return;
 234:..\..\..\..\..\..\Software\uCOS-II\Source/os_q.c ****     OS_Q      *pq;
 235:..\..\..\..\..\..\Software\uCOS-II\Source/os_q.c **** #if OS_CRITICAL_METHOD == 3u                               /* Allocate storage for CPU status regis
 236:..\..\..\..\..\..\Software\uCOS-II\Source/os_q.c ****     OS_CPU_SR  cpu_sr = 0u;
 344              		.loc 1 236 0
 345 0012 0023     		movs	r3, #0
 346 0014 7B61     		str	r3, [r7, #20]
 237:..\..\..\..\..\..\Software\uCOS-II\Source/os_q.c **** #endif
 238:..\..\..\..\..\..\Software\uCOS-II\Source/os_q.c **** 
 239:..\..\..\..\..\..\Software\uCOS-II\Source/os_q.c **** 
 240:..\..\..\..\..\..\Software\uCOS-II\Source/os_q.c **** 
 241:..\..\..\..\..\..\Software\uCOS-II\Source/os_q.c **** #ifdef OS_SAFETY_CRITICAL
 242:..\..\..\..\..\..\Software\uCOS-II\Source/os_q.c ****     if (perr == (INT8U *)0) {
 243:..\..\..\..\..\..\Software\uCOS-II\Source/os_q.c ****         OS_SAFETY_CRITICAL_EXCEPTION();
 244:..\..\..\..\..\..\Software\uCOS-II\Source/os_q.c ****         return ((OS_EVENT *)0);
 245:..\..\..\..\..\..\Software\uCOS-II\Source/os_q.c ****     }
 246:..\..\..\..\..\..\Software\uCOS-II\Source/os_q.c **** #endif
 247:..\..\..\..\..\..\Software\uCOS-II\Source/os_q.c **** 
 248:..\..\..\..\..\..\Software\uCOS-II\Source/os_q.c **** #if OS_ARG_CHK_EN > 0u
 249:..\..\..\..\..\..\Software\uCOS-II\Source/os_q.c ****     if (pevent == (OS_EVENT *)0) {                         /* Validate 'pevent'                    
 347              		.loc 1 249 0
 348 0016 FB68     		ldr	r3, [r7, #12]
 349 0018 002B     		cmp	r3, #0
 350 001a 04D1     		bne	.L17
 250:..\..\..\..\..\..\Software\uCOS-II\Source/os_q.c ****         *perr = OS_ERR_PEVENT_NULL;
 351              		.loc 1 250 0
 352 001c 7B68     		ldr	r3, [r7, #4]
 353 001e 0422     		movs	r2, #4
 354 0020 1A70     		strb	r2, [r3]
 251:..\..\..\..\..\..\Software\uCOS-II\Source/os_q.c ****         return (pevent);
 355              		.loc 1 251 0
 356 0022 FB68     		ldr	r3, [r7, #12]
 357 0024 9DE0     		b	.L18
 358              	.L17:
 252:..\..\..\..\..\..\Software\uCOS-II\Source/os_q.c ****     }
 253:..\..\..\..\..\..\Software\uCOS-II\Source/os_q.c **** #endif
 254:..\..\..\..\..\..\Software\uCOS-II\Source/os_q.c ****     if (pevent->OSEventType != OS_EVENT_TYPE_Q) {          /* Validate event block type            
 359              		.loc 1 254 0
 360 0026 FB68     		ldr	r3, [r7, #12]
 361 0028 1B78     		ldrb	r3, [r3]
 362 002a 022B     		cmp	r3, #2
 363 002c 04D0     		beq	.L19
 255:..\..\..\..\..\..\Software\uCOS-II\Source/os_q.c ****         *perr = OS_ERR_EVENT_TYPE;
 364              		.loc 1 255 0
 365 002e 7B68     		ldr	r3, [r7, #4]
 366 0030 0122     		movs	r2, #1
 367 0032 1A70     		strb	r2, [r3]
 256:..\..\..\..\..\..\Software\uCOS-II\Source/os_q.c ****         return (pevent);
 368              		.loc 1 256 0
 369 0034 FB68     		ldr	r3, [r7, #12]
 370 0036 94E0     		b	.L18
 371              	.L19:
ARM GAS  C:\Users\ADMINI~1\AppData\Local\Temp\cc9sCsDg.s 			page 12


 257:..\..\..\..\..\..\Software\uCOS-II\Source/os_q.c ****     }
 258:..\..\..\..\..\..\Software\uCOS-II\Source/os_q.c ****     if (OSIntNesting > 0u) {                               /* See if called from ISR ...           
 372              		.loc 1 258 0
 373 0038 4C4B     		ldr	r3, .L33
 374 003a 1B78     		ldrb	r3, [r3]
 375 003c 002B     		cmp	r3, #0
 376 003e 04D0     		beq	.L20
 259:..\..\..\..\..\..\Software\uCOS-II\Source/os_q.c ****         *perr = OS_ERR_DEL_ISR;                            /* ... can't DELETE from an ISR         
 377              		.loc 1 259 0
 378 0040 7B68     		ldr	r3, [r7, #4]
 379 0042 0F22     		movs	r2, #15
 380 0044 1A70     		strb	r2, [r3]
 260:..\..\..\..\..\..\Software\uCOS-II\Source/os_q.c ****         return (pevent);
 381              		.loc 1 260 0
 382 0046 FB68     		ldr	r3, [r7, #12]
 383 0048 8BE0     		b	.L18
 384              	.L20:
 261:..\..\..\..\..\..\Software\uCOS-II\Source/os_q.c ****     }
 262:..\..\..\..\..\..\Software\uCOS-II\Source/os_q.c ****     OS_ENTER_CRITICAL();
 385              		.loc 1 262 0
 386 004a FFF7FEFF 		bl	OS_CPU_SR_Save
 387 004e 0300     		movs	r3, r0
 388 0050 7B61     		str	r3, [r7, #20]
 263:..\..\..\..\..\..\Software\uCOS-II\Source/os_q.c ****     if (pevent->OSEventGrp != 0u) {                        /* See if any tasks waiting on queue    
 389              		.loc 1 263 0
 390 0052 FB68     		ldr	r3, [r7, #12]
 391 0054 9B7A     		ldrb	r3, [r3, #10]
 392 0056 002B     		cmp	r3, #0
 393 0058 04D0     		beq	.L21
 264:..\..\..\..\..\..\Software\uCOS-II\Source/os_q.c ****         tasks_waiting = OS_TRUE;                           /* Yes                                  
 394              		.loc 1 264 0
 395 005a 1F23     		movs	r3, #31
 396 005c FB18     		adds	r3, r7, r3
 397 005e 0122     		movs	r2, #1
 398 0060 1A70     		strb	r2, [r3]
 399 0062 03E0     		b	.L22
 400              	.L21:
 265:..\..\..\..\..\..\Software\uCOS-II\Source/os_q.c ****     } else {
 266:..\..\..\..\..\..\Software\uCOS-II\Source/os_q.c ****         tasks_waiting = OS_FALSE;                          /* No                                   
 401              		.loc 1 266 0
 402 0064 1F23     		movs	r3, #31
 403 0066 FB18     		adds	r3, r7, r3
 404 0068 0022     		movs	r2, #0
 405 006a 1A70     		strb	r2, [r3]
 406              	.L22:
 267:..\..\..\..\..\..\Software\uCOS-II\Source/os_q.c ****     }
 268:..\..\..\..\..\..\Software\uCOS-II\Source/os_q.c ****     switch (opt) {
 407              		.loc 1 268 0
 408 006c 0B23     		movs	r3, #11
 409 006e FB18     		adds	r3, r7, r3
 410 0070 1B78     		ldrb	r3, [r3]
 411 0072 002B     		cmp	r3, #0
 412 0074 02D0     		beq	.L24
 413 0076 012B     		cmp	r3, #1
 414 0078 39D0     		beq	.L29
 415 007a 67E0     		b	.L32
 416              	.L24:
ARM GAS  C:\Users\ADMINI~1\AppData\Local\Temp\cc9sCsDg.s 			page 13


 269:..\..\..\..\..\..\Software\uCOS-II\Source/os_q.c ****         case OS_DEL_NO_PEND:                               /* Delete queue only if no task waiting 
 270:..\..\..\..\..\..\Software\uCOS-II\Source/os_q.c ****              if (tasks_waiting == OS_FALSE) {
 417              		.loc 1 270 0
 418 007c 1F23     		movs	r3, #31
 419 007e FB18     		adds	r3, r7, r3
 420 0080 1B78     		ldrb	r3, [r3]
 421 0082 002B     		cmp	r3, #0
 422 0084 23D1     		bne	.L26
 271:..\..\..\..\..\..\Software\uCOS-II\Source/os_q.c **** #if OS_EVENT_NAME_EN > 0u
 272:..\..\..\..\..\..\Software\uCOS-II\Source/os_q.c ****                  pevent->OSEventName    = (INT8U *)(void *)"?";
 423              		.loc 1 272 0
 424 0086 FB68     		ldr	r3, [r7, #12]
 425 0088 394A     		ldr	r2, .L33+4
 426 008a 5A61     		str	r2, [r3, #20]
 273:..\..\..\..\..\..\Software\uCOS-II\Source/os_q.c **** #endif
 274:..\..\..\..\..\..\Software\uCOS-II\Source/os_q.c ****                  pq                     = (OS_Q *)pevent->OSEventPtr;  /* Return OS_Q to free list 
 427              		.loc 1 274 0
 428 008c FB68     		ldr	r3, [r7, #12]
 429 008e 5B68     		ldr	r3, [r3, #4]
 430 0090 3B61     		str	r3, [r7, #16]
 275:..\..\..\..\..\..\Software\uCOS-II\Source/os_q.c ****                  pq->OSQPtr             = OSQFreeList;
 431              		.loc 1 275 0
 432 0092 384B     		ldr	r3, .L33+8
 433 0094 1A68     		ldr	r2, [r3]
 434 0096 3B69     		ldr	r3, [r7, #16]
 435 0098 1A60     		str	r2, [r3]
 276:..\..\..\..\..\..\Software\uCOS-II\Source/os_q.c ****                  OSQFreeList            = pq;
 436              		.loc 1 276 0
 437 009a 364B     		ldr	r3, .L33+8
 438 009c 3A69     		ldr	r2, [r7, #16]
 439 009e 1A60     		str	r2, [r3]
 277:..\..\..\..\..\..\Software\uCOS-II\Source/os_q.c ****                  pevent->OSEventType    = OS_EVENT_TYPE_UNUSED;
 440              		.loc 1 277 0
 441 00a0 FB68     		ldr	r3, [r7, #12]
 442 00a2 0022     		movs	r2, #0
 443 00a4 1A70     		strb	r2, [r3]
 278:..\..\..\..\..\..\Software\uCOS-II\Source/os_q.c ****                  pevent->OSEventPtr     = OSEventFreeList; /* Return Event Control Block to free li
 444              		.loc 1 278 0
 445 00a6 344B     		ldr	r3, .L33+12
 446 00a8 1A68     		ldr	r2, [r3]
 447 00aa FB68     		ldr	r3, [r7, #12]
 448 00ac 5A60     		str	r2, [r3, #4]
 279:..\..\..\..\..\..\Software\uCOS-II\Source/os_q.c ****                  pevent->OSEventCnt     = 0u;
 449              		.loc 1 279 0
 450 00ae FB68     		ldr	r3, [r7, #12]
 451 00b0 0022     		movs	r2, #0
 452 00b2 1A81     		strh	r2, [r3, #8]
 280:..\..\..\..\..\..\Software\uCOS-II\Source/os_q.c ****                  OSEventFreeList        = pevent;          /* Get next free event control block    
 453              		.loc 1 280 0
 454 00b4 304B     		ldr	r3, .L33+12
 455 00b6 FA68     		ldr	r2, [r7, #12]
 456 00b8 1A60     		str	r2, [r3]
 281:..\..\..\..\..\..\Software\uCOS-II\Source/os_q.c ****                  OS_EXIT_CRITICAL();
 457              		.loc 1 281 0
 458 00ba 7B69     		ldr	r3, [r7, #20]
 459 00bc 1800     		movs	r0, r3
 460 00be FFF7FEFF 		bl	OS_CPU_SR_Restore
ARM GAS  C:\Users\ADMINI~1\AppData\Local\Temp\cc9sCsDg.s 			page 14


 282:..\..\..\..\..\..\Software\uCOS-II\Source/os_q.c ****                  *perr                  = OS_ERR_NONE;
 461              		.loc 1 282 0
 462 00c2 7B68     		ldr	r3, [r7, #4]
 463 00c4 0022     		movs	r2, #0
 464 00c6 1A70     		strb	r2, [r3]
 283:..\..\..\..\..\..\Software\uCOS-II\Source/os_q.c ****                  pevent_return          = (OS_EVENT *)0;   /* Queue has been deleted               
 465              		.loc 1 283 0
 466 00c8 0023     		movs	r3, #0
 467 00ca BB61     		str	r3, [r7, #24]
 284:..\..\..\..\..\..\Software\uCOS-II\Source/os_q.c ****              } else {
 285:..\..\..\..\..\..\Software\uCOS-II\Source/os_q.c ****                  OS_EXIT_CRITICAL();
 286:..\..\..\..\..\..\Software\uCOS-II\Source/os_q.c ****                  *perr                  = OS_ERR_TASK_WAITING;
 287:..\..\..\..\..\..\Software\uCOS-II\Source/os_q.c ****                  pevent_return          = pevent;
 288:..\..\..\..\..\..\Software\uCOS-II\Source/os_q.c ****              }
 289:..\..\..\..\..\..\Software\uCOS-II\Source/os_q.c ****              break;
 468              		.loc 1 289 0
 469 00cc 48E0     		b	.L28
 470              	.L26:
 285:..\..\..\..\..\..\Software\uCOS-II\Source/os_q.c ****                  *perr                  = OS_ERR_TASK_WAITING;
 471              		.loc 1 285 0
 472 00ce 7B69     		ldr	r3, [r7, #20]
 473 00d0 1800     		movs	r0, r3
 474 00d2 FFF7FEFF 		bl	OS_CPU_SR_Restore
 286:..\..\..\..\..\..\Software\uCOS-II\Source/os_q.c ****                  pevent_return          = pevent;
 475              		.loc 1 286 0
 476 00d6 7B68     		ldr	r3, [r7, #4]
 477 00d8 4922     		movs	r2, #73
 478 00da 1A70     		strb	r2, [r3]
 287:..\..\..\..\..\..\Software\uCOS-II\Source/os_q.c ****              }
 479              		.loc 1 287 0
 480 00dc FB68     		ldr	r3, [r7, #12]
 481 00de BB61     		str	r3, [r7, #24]
 482              		.loc 1 289 0
 483 00e0 3EE0     		b	.L28
 484              	.L30:
 290:..\..\..\..\..\..\Software\uCOS-II\Source/os_q.c **** 
 291:..\..\..\..\..\..\Software\uCOS-II\Source/os_q.c ****         case OS_DEL_ALWAYS:                                /* Always delete the queue              
 292:..\..\..\..\..\..\Software\uCOS-II\Source/os_q.c ****              while (pevent->OSEventGrp != 0u) {            /* Ready ALL tasks waiting for queue    
 293:..\..\..\..\..\..\Software\uCOS-II\Source/os_q.c ****                  (void)OS_EventTaskRdy(pevent, (void *)0, OS_STAT_Q, OS_STAT_PEND_ABORT);
 485              		.loc 1 293 0
 486 00e2 F868     		ldr	r0, [r7, #12]
 487 00e4 0223     		movs	r3, #2
 488 00e6 0422     		movs	r2, #4
 489 00e8 0021     		movs	r1, #0
 490 00ea FFF7FEFF 		bl	OS_EventTaskRdy
 491              	.L29:
 292:..\..\..\..\..\..\Software\uCOS-II\Source/os_q.c ****                  (void)OS_EventTaskRdy(pevent, (void *)0, OS_STAT_Q, OS_STAT_PEND_ABORT);
 492              		.loc 1 292 0
 493 00ee FB68     		ldr	r3, [r7, #12]
 494 00f0 9B7A     		ldrb	r3, [r3, #10]
 495 00f2 002B     		cmp	r3, #0
 496 00f4 F5D1     		bne	.L30
 294:..\..\..\..\..\..\Software\uCOS-II\Source/os_q.c ****              }
 295:..\..\..\..\..\..\Software\uCOS-II\Source/os_q.c **** #if OS_EVENT_NAME_EN > 0u
 296:..\..\..\..\..\..\Software\uCOS-II\Source/os_q.c ****              pevent->OSEventName    = (INT8U *)(void *)"?";
 497              		.loc 1 296 0
 498 00f6 FB68     		ldr	r3, [r7, #12]
ARM GAS  C:\Users\ADMINI~1\AppData\Local\Temp\cc9sCsDg.s 			page 15


 499 00f8 1D4A     		ldr	r2, .L33+4
 500 00fa 5A61     		str	r2, [r3, #20]
 297:..\..\..\..\..\..\Software\uCOS-II\Source/os_q.c **** #endif
 298:..\..\..\..\..\..\Software\uCOS-II\Source/os_q.c ****              pq                     = (OS_Q *)pevent->OSEventPtr;   /* Return OS_Q to free list    
 501              		.loc 1 298 0
 502 00fc FB68     		ldr	r3, [r7, #12]
 503 00fe 5B68     		ldr	r3, [r3, #4]
 504 0100 3B61     		str	r3, [r7, #16]
 299:..\..\..\..\..\..\Software\uCOS-II\Source/os_q.c ****              pq->OSQPtr             = OSQFreeList;
 505              		.loc 1 299 0
 506 0102 1C4B     		ldr	r3, .L33+8
 507 0104 1A68     		ldr	r2, [r3]
 508 0106 3B69     		ldr	r3, [r7, #16]
 509 0108 1A60     		str	r2, [r3]
 300:..\..\..\..\..\..\Software\uCOS-II\Source/os_q.c ****              OSQFreeList            = pq;
 510              		.loc 1 300 0
 511 010a 1A4B     		ldr	r3, .L33+8
 512 010c 3A69     		ldr	r2, [r7, #16]
 513 010e 1A60     		str	r2, [r3]
 301:..\..\..\..\..\..\Software\uCOS-II\Source/os_q.c ****              pevent->OSEventType    = OS_EVENT_TYPE_UNUSED;
 514              		.loc 1 301 0
 515 0110 FB68     		ldr	r3, [r7, #12]
 516 0112 0022     		movs	r2, #0
 517 0114 1A70     		strb	r2, [r3]
 302:..\..\..\..\..\..\Software\uCOS-II\Source/os_q.c ****              pevent->OSEventPtr     = OSEventFreeList;     /* Return Event Control Block to free li
 518              		.loc 1 302 0
 519 0116 184B     		ldr	r3, .L33+12
 520 0118 1A68     		ldr	r2, [r3]
 521 011a FB68     		ldr	r3, [r7, #12]
 522 011c 5A60     		str	r2, [r3, #4]
 303:..\..\..\..\..\..\Software\uCOS-II\Source/os_q.c ****              pevent->OSEventCnt     = 0u;
 523              		.loc 1 303 0
 524 011e FB68     		ldr	r3, [r7, #12]
 525 0120 0022     		movs	r2, #0
 526 0122 1A81     		strh	r2, [r3, #8]
 304:..\..\..\..\..\..\Software\uCOS-II\Source/os_q.c ****              OSEventFreeList        = pevent;              /* Get next free event control block    
 527              		.loc 1 304 0
 528 0124 144B     		ldr	r3, .L33+12
 529 0126 FA68     		ldr	r2, [r7, #12]
 530 0128 1A60     		str	r2, [r3]
 305:..\..\..\..\..\..\Software\uCOS-II\Source/os_q.c ****              OS_EXIT_CRITICAL();
 531              		.loc 1 305 0
 532 012a 7B69     		ldr	r3, [r7, #20]
 533 012c 1800     		movs	r0, r3
 534 012e FFF7FEFF 		bl	OS_CPU_SR_Restore
 306:..\..\..\..\..\..\Software\uCOS-II\Source/os_q.c ****              if (tasks_waiting == OS_TRUE) {               /* Reschedule only if task(s) were waiti
 535              		.loc 1 306 0
 536 0132 1F23     		movs	r3, #31
 537 0134 FB18     		adds	r3, r7, r3
 538 0136 1B78     		ldrb	r3, [r3]
 539 0138 012B     		cmp	r3, #1
 540 013a 01D1     		bne	.L31
 307:..\..\..\..\..\..\Software\uCOS-II\Source/os_q.c ****                  OS_Sched();                               /* Find highest priority task ready to r
 541              		.loc 1 307 0
 542 013c FFF7FEFF 		bl	OS_Sched
 543              	.L31:
 308:..\..\..\..\..\..\Software\uCOS-II\Source/os_q.c ****              }
ARM GAS  C:\Users\ADMINI~1\AppData\Local\Temp\cc9sCsDg.s 			page 16


 309:..\..\..\..\..\..\Software\uCOS-II\Source/os_q.c ****              *perr                  = OS_ERR_NONE;
 544              		.loc 1 309 0
 545 0140 7B68     		ldr	r3, [r7, #4]
 546 0142 0022     		movs	r2, #0
 547 0144 1A70     		strb	r2, [r3]
 310:..\..\..\..\..\..\Software\uCOS-II\Source/os_q.c ****              pevent_return          = (OS_EVENT *)0;       /* Queue has been deleted               
 548              		.loc 1 310 0
 549 0146 0023     		movs	r3, #0
 550 0148 BB61     		str	r3, [r7, #24]
 311:..\..\..\..\..\..\Software\uCOS-II\Source/os_q.c ****              break;
 551              		.loc 1 311 0
 552 014a 09E0     		b	.L28
 553              	.L32:
 312:..\..\..\..\..\..\Software\uCOS-II\Source/os_q.c **** 
 313:..\..\..\..\..\..\Software\uCOS-II\Source/os_q.c ****         default:
 314:..\..\..\..\..\..\Software\uCOS-II\Source/os_q.c ****              OS_EXIT_CRITICAL();
 554              		.loc 1 314 0
 555 014c 7B69     		ldr	r3, [r7, #20]
 556 014e 1800     		movs	r0, r3
 557 0150 FFF7FEFF 		bl	OS_CPU_SR_Restore
 315:..\..\..\..\..\..\Software\uCOS-II\Source/os_q.c ****              *perr                  = OS_ERR_INVALID_OPT;
 558              		.loc 1 315 0
 559 0154 7B68     		ldr	r3, [r7, #4]
 560 0156 0722     		movs	r2, #7
 561 0158 1A70     		strb	r2, [r3]
 316:..\..\..\..\..\..\Software\uCOS-II\Source/os_q.c ****              pevent_return          = pevent;
 562              		.loc 1 316 0
 563 015a FB68     		ldr	r3, [r7, #12]
 564 015c BB61     		str	r3, [r7, #24]
 317:..\..\..\..\..\..\Software\uCOS-II\Source/os_q.c ****              break;
 565              		.loc 1 317 0
 566 015e C046     		nop
 567              	.L28:
 318:..\..\..\..\..\..\Software\uCOS-II\Source/os_q.c ****     }
 319:..\..\..\..\..\..\Software\uCOS-II\Source/os_q.c ****     return (pevent_return);
 568              		.loc 1 319 0
 569 0160 BB69     		ldr	r3, [r7, #24]
 570              	.L18:
 320:..\..\..\..\..\..\Software\uCOS-II\Source/os_q.c **** }
 571              		.loc 1 320 0
 572 0162 1800     		movs	r0, r3
 573 0164 BD46     		mov	sp, r7
 574 0166 08B0     		add	sp, sp, #32
 575              		@ sp needed
 576 0168 80BD     		pop	{r7, pc}
 577              	.L34:
 578 016a C046     		.align	2
 579              	.L33:
 580 016c 00000000 		.word	OSIntNesting
 581 0170 00000000 		.word	.LC3
 582 0174 00000000 		.word	OSQFreeList
 583 0178 00000000 		.word	OSEventFreeList
 584              		.cfi_endproc
 585              	.LFE3:
 586              		.size	OSQDel, .-OSQDel
 587              		.section	.text.OSQFlush,"ax",%progbits
 588              		.align	2
ARM GAS  C:\Users\ADMINI~1\AppData\Local\Temp\cc9sCsDg.s 			page 17


 589              		.global	OSQFlush
 590              		.code	16
 591              		.thumb_func
 592              		.type	OSQFlush, %function
 593              	OSQFlush:
 594              	.LFB4:
 321:..\..\..\..\..\..\Software\uCOS-II\Source/os_q.c **** #endif
 322:..\..\..\..\..\..\Software\uCOS-II\Source/os_q.c **** 
 323:..\..\..\..\..\..\Software\uCOS-II\Source/os_q.c **** /*$PAGE*/
 324:..\..\..\..\..\..\Software\uCOS-II\Source/os_q.c **** /*
 325:..\..\..\..\..\..\Software\uCOS-II\Source/os_q.c **** ***************************************************************************************************
 326:..\..\..\..\..\..\Software\uCOS-II\Source/os_q.c **** *                                             FLUSH QUEUE
 327:..\..\..\..\..\..\Software\uCOS-II\Source/os_q.c **** *
 328:..\..\..\..\..\..\Software\uCOS-II\Source/os_q.c **** * Description : This function is used to flush the contents of the message queue.
 329:..\..\..\..\..\..\Software\uCOS-II\Source/os_q.c **** *
 330:..\..\..\..\..\..\Software\uCOS-II\Source/os_q.c **** * Arguments   : none
 331:..\..\..\..\..\..\Software\uCOS-II\Source/os_q.c **** *
 332:..\..\..\..\..\..\Software\uCOS-II\Source/os_q.c **** * Returns     : OS_ERR_NONE         upon success
 333:..\..\..\..\..\..\Software\uCOS-II\Source/os_q.c **** *               OS_ERR_EVENT_TYPE   If you didn't pass a pointer to a queue
 334:..\..\..\..\..\..\Software\uCOS-II\Source/os_q.c **** *               OS_ERR_PEVENT_NULL  If 'pevent' is a NULL pointer
 335:..\..\..\..\..\..\Software\uCOS-II\Source/os_q.c **** *
 336:..\..\..\..\..\..\Software\uCOS-II\Source/os_q.c **** * WARNING     : You should use this function with great care because, when to flush the queue, you 
 337:..\..\..\..\..\..\Software\uCOS-II\Source/os_q.c **** *               the references to what the queue entries are pointing to and thus, you could cause
 338:..\..\..\..\..\..\Software\uCOS-II\Source/os_q.c **** *               'memory leaks'.  In other words, the data you are pointing to that's being referenc
 339:..\..\..\..\..\..\Software\uCOS-II\Source/os_q.c **** *               by the queue entries should, most likely, need to be de-allocated (i.e. freed).
 340:..\..\..\..\..\..\Software\uCOS-II\Source/os_q.c **** ***************************************************************************************************
 341:..\..\..\..\..\..\Software\uCOS-II\Source/os_q.c **** */
 342:..\..\..\..\..\..\Software\uCOS-II\Source/os_q.c **** 
 343:..\..\..\..\..\..\Software\uCOS-II\Source/os_q.c **** #if OS_Q_FLUSH_EN > 0u
 344:..\..\..\..\..\..\Software\uCOS-II\Source/os_q.c **** INT8U  OSQFlush (OS_EVENT *pevent)
 345:..\..\..\..\..\..\Software\uCOS-II\Source/os_q.c **** {
 595              		.loc 1 345 0
 596              		.cfi_startproc
 597              		@ args = 0, pretend = 0, frame = 16
 598              		@ frame_needed = 1, uses_anonymous_args = 0
 599 0000 80B5     		push	{r7, lr}
 600              		.cfi_def_cfa_offset 8
 601              		.cfi_offset 7, -8
 602              		.cfi_offset 14, -4
 603 0002 84B0     		sub	sp, sp, #16
 604              		.cfi_def_cfa_offset 24
 605 0004 00AF     		add	r7, sp, #0
 606              		.cfi_def_cfa_register 7
 607 0006 7860     		str	r0, [r7, #4]
 346:..\..\..\..\..\..\Software\uCOS-II\Source/os_q.c ****     OS_Q      *pq;
 347:..\..\..\..\..\..\Software\uCOS-II\Source/os_q.c **** #if OS_CRITICAL_METHOD == 3u                          /* Allocate storage for CPU status register  
 348:..\..\..\..\..\..\Software\uCOS-II\Source/os_q.c ****     OS_CPU_SR  cpu_sr = 0u;
 608              		.loc 1 348 0
 609 0008 0023     		movs	r3, #0
 610 000a FB60     		str	r3, [r7, #12]
 349:..\..\..\..\..\..\Software\uCOS-II\Source/os_q.c **** #endif
 350:..\..\..\..\..\..\Software\uCOS-II\Source/os_q.c **** 
 351:..\..\..\..\..\..\Software\uCOS-II\Source/os_q.c **** 
 352:..\..\..\..\..\..\Software\uCOS-II\Source/os_q.c **** 
 353:..\..\..\..\..\..\Software\uCOS-II\Source/os_q.c **** #if OS_ARG_CHK_EN > 0u
 354:..\..\..\..\..\..\Software\uCOS-II\Source/os_q.c ****     if (pevent == (OS_EVENT *)0) {                    /* Validate 'pevent'                         
 611              		.loc 1 354 0
ARM GAS  C:\Users\ADMINI~1\AppData\Local\Temp\cc9sCsDg.s 			page 18


 612 000c 7B68     		ldr	r3, [r7, #4]
 613 000e 002B     		cmp	r3, #0
 614 0010 01D1     		bne	.L36
 355:..\..\..\..\..\..\Software\uCOS-II\Source/os_q.c ****         return (OS_ERR_PEVENT_NULL);
 615              		.loc 1 355 0
 616 0012 0423     		movs	r3, #4
 617 0014 1CE0     		b	.L37
 618              	.L36:
 356:..\..\..\..\..\..\Software\uCOS-II\Source/os_q.c ****     }
 357:..\..\..\..\..\..\Software\uCOS-II\Source/os_q.c ****     if (pevent->OSEventType != OS_EVENT_TYPE_Q) {     /* Validate event block type                 
 619              		.loc 1 357 0
 620 0016 7B68     		ldr	r3, [r7, #4]
 621 0018 1B78     		ldrb	r3, [r3]
 622 001a 022B     		cmp	r3, #2
 623 001c 01D0     		beq	.L38
 358:..\..\..\..\..\..\Software\uCOS-II\Source/os_q.c ****         return (OS_ERR_EVENT_TYPE);
 624              		.loc 1 358 0
 625 001e 0123     		movs	r3, #1
 626 0020 16E0     		b	.L37
 627              	.L38:
 359:..\..\..\..\..\..\Software\uCOS-II\Source/os_q.c ****     }
 360:..\..\..\..\..\..\Software\uCOS-II\Source/os_q.c **** #endif
 361:..\..\..\..\..\..\Software\uCOS-II\Source/os_q.c ****     OS_ENTER_CRITICAL();
 628              		.loc 1 361 0
 629 0022 FFF7FEFF 		bl	OS_CPU_SR_Save
 630 0026 0300     		movs	r3, r0
 631 0028 FB60     		str	r3, [r7, #12]
 362:..\..\..\..\..\..\Software\uCOS-II\Source/os_q.c ****     pq             = (OS_Q *)pevent->OSEventPtr;      /* Point to queue storage structure          
 632              		.loc 1 362 0
 633 002a 7B68     		ldr	r3, [r7, #4]
 634 002c 5B68     		ldr	r3, [r3, #4]
 635 002e BB60     		str	r3, [r7, #8]
 363:..\..\..\..\..\..\Software\uCOS-II\Source/os_q.c ****     pq->OSQIn      = pq->OSQStart;
 636              		.loc 1 363 0
 637 0030 BB68     		ldr	r3, [r7, #8]
 638 0032 5A68     		ldr	r2, [r3, #4]
 639 0034 BB68     		ldr	r3, [r7, #8]
 640 0036 DA60     		str	r2, [r3, #12]
 364:..\..\..\..\..\..\Software\uCOS-II\Source/os_q.c ****     pq->OSQOut     = pq->OSQStart;
 641              		.loc 1 364 0
 642 0038 BB68     		ldr	r3, [r7, #8]
 643 003a 5A68     		ldr	r2, [r3, #4]
 644 003c BB68     		ldr	r3, [r7, #8]
 645 003e 1A61     		str	r2, [r3, #16]
 365:..\..\..\..\..\..\Software\uCOS-II\Source/os_q.c ****     pq->OSQEntries = 0u;
 646              		.loc 1 365 0
 647 0040 BB68     		ldr	r3, [r7, #8]
 648 0042 0022     		movs	r2, #0
 649 0044 DA82     		strh	r2, [r3, #22]
 366:..\..\..\..\..\..\Software\uCOS-II\Source/os_q.c ****     OS_EXIT_CRITICAL();
 650              		.loc 1 366 0
 651 0046 FB68     		ldr	r3, [r7, #12]
 652 0048 1800     		movs	r0, r3
 653 004a FFF7FEFF 		bl	OS_CPU_SR_Restore
 367:..\..\..\..\..\..\Software\uCOS-II\Source/os_q.c ****     return (OS_ERR_NONE);
 654              		.loc 1 367 0
 655 004e 0023     		movs	r3, #0
ARM GAS  C:\Users\ADMINI~1\AppData\Local\Temp\cc9sCsDg.s 			page 19


 656              	.L37:
 368:..\..\..\..\..\..\Software\uCOS-II\Source/os_q.c **** }
 657              		.loc 1 368 0
 658 0050 1800     		movs	r0, r3
 659 0052 BD46     		mov	sp, r7
 660 0054 04B0     		add	sp, sp, #16
 661              		@ sp needed
 662 0056 80BD     		pop	{r7, pc}
 663              		.cfi_endproc
 664              	.LFE4:
 665              		.size	OSQFlush, .-OSQFlush
 666              		.section	.text.OSQPend,"ax",%progbits
 667              		.align	2
 668              		.global	OSQPend
 669              		.code	16
 670              		.thumb_func
 671              		.type	OSQPend, %function
 672              	OSQPend:
 673              	.LFB5:
 369:..\..\..\..\..\..\Software\uCOS-II\Source/os_q.c **** #endif
 370:..\..\..\..\..\..\Software\uCOS-II\Source/os_q.c **** 
 371:..\..\..\..\..\..\Software\uCOS-II\Source/os_q.c **** /*$PAGE*/
 372:..\..\..\..\..\..\Software\uCOS-II\Source/os_q.c **** /*
 373:..\..\..\..\..\..\Software\uCOS-II\Source/os_q.c **** ***************************************************************************************************
 374:..\..\..\..\..\..\Software\uCOS-II\Source/os_q.c **** *                                    PEND ON A QUEUE FOR A MESSAGE
 375:..\..\..\..\..\..\Software\uCOS-II\Source/os_q.c **** *
 376:..\..\..\..\..\..\Software\uCOS-II\Source/os_q.c **** * Description: This function waits for a message to be sent to a queue
 377:..\..\..\..\..\..\Software\uCOS-II\Source/os_q.c **** *
 378:..\..\..\..\..\..\Software\uCOS-II\Source/os_q.c **** * Arguments  : pevent        is a pointer to the event control block associated with the desired qu
 379:..\..\..\..\..\..\Software\uCOS-II\Source/os_q.c **** *
 380:..\..\..\..\..\..\Software\uCOS-II\Source/os_q.c **** *              timeout       is an optional timeout period (in clock ticks).  If non-zero, your tas
 381:..\..\..\..\..\..\Software\uCOS-II\Source/os_q.c **** *                            wait for a message to arrive at the queue up to the amount of time
 382:..\..\..\..\..\..\Software\uCOS-II\Source/os_q.c **** *                            specified by this argument.  If you specify 0, however, your task will
 383:..\..\..\..\..\..\Software\uCOS-II\Source/os_q.c **** *                            forever at the specified queue or, until a message arrives.
 384:..\..\..\..\..\..\Software\uCOS-II\Source/os_q.c **** *
 385:..\..\..\..\..\..\Software\uCOS-II\Source/os_q.c **** *              perr          is a pointer to where an error message will be deposited.  Possible er
 386:..\..\..\..\..\..\Software\uCOS-II\Source/os_q.c **** *                            messages are:
 387:..\..\..\..\..\..\Software\uCOS-II\Source/os_q.c **** *
 388:..\..\..\..\..\..\Software\uCOS-II\Source/os_q.c **** *                            OS_ERR_NONE         The call was successful and your task received a
 389:..\..\..\..\..\..\Software\uCOS-II\Source/os_q.c **** *                                                message.
 390:..\..\..\..\..\..\Software\uCOS-II\Source/os_q.c **** *                            OS_ERR_TIMEOUT      A message was not received within the specified 't
 391:..\..\..\..\..\..\Software\uCOS-II\Source/os_q.c **** *                            OS_ERR_PEND_ABORT   The wait on the queue was aborted.
 392:..\..\..\..\..\..\Software\uCOS-II\Source/os_q.c **** *                            OS_ERR_EVENT_TYPE   You didn't pass a pointer to a queue
 393:..\..\..\..\..\..\Software\uCOS-II\Source/os_q.c **** *                            OS_ERR_PEVENT_NULL  If 'pevent' is a NULL pointer
 394:..\..\..\..\..\..\Software\uCOS-II\Source/os_q.c **** *                            OS_ERR_PEND_ISR     If you called this function from an ISR and the re
 395:..\..\..\..\..\..\Software\uCOS-II\Source/os_q.c **** *                                                would lead to a suspension.
 396:..\..\..\..\..\..\Software\uCOS-II\Source/os_q.c **** *                            OS_ERR_PEND_LOCKED  If you called this function with the scheduler is 
 397:..\..\..\..\..\..\Software\uCOS-II\Source/os_q.c **** *
 398:..\..\..\..\..\..\Software\uCOS-II\Source/os_q.c **** * Returns    : != (void *)0  is a pointer to the message received
 399:..\..\..\..\..\..\Software\uCOS-II\Source/os_q.c **** *              == (void *)0  if you received a NULL pointer message or,
 400:..\..\..\..\..\..\Software\uCOS-II\Source/os_q.c **** *                            if no message was received or,
 401:..\..\..\..\..\..\Software\uCOS-II\Source/os_q.c **** *                            if 'pevent' is a NULL pointer or,
 402:..\..\..\..\..\..\Software\uCOS-II\Source/os_q.c **** *                            if you didn't pass a pointer to a queue.
 403:..\..\..\..\..\..\Software\uCOS-II\Source/os_q.c **** *
 404:..\..\..\..\..\..\Software\uCOS-II\Source/os_q.c **** * Note(s)    : As of V2.60, this function allows you to receive NULL pointer messages.
 405:..\..\..\..\..\..\Software\uCOS-II\Source/os_q.c **** ***************************************************************************************************
 406:..\..\..\..\..\..\Software\uCOS-II\Source/os_q.c **** */
ARM GAS  C:\Users\ADMINI~1\AppData\Local\Temp\cc9sCsDg.s 			page 20


 407:..\..\..\..\..\..\Software\uCOS-II\Source/os_q.c **** 
 408:..\..\..\..\..\..\Software\uCOS-II\Source/os_q.c **** void  *OSQPend (OS_EVENT  *pevent,
 409:..\..\..\..\..\..\Software\uCOS-II\Source/os_q.c ****                 INT32U     timeout,
 410:..\..\..\..\..\..\Software\uCOS-II\Source/os_q.c ****                 INT8U     *perr)
 411:..\..\..\..\..\..\Software\uCOS-II\Source/os_q.c **** {
 674              		.loc 1 411 0
 675              		.cfi_startproc
 676              		@ args = 0, pretend = 0, frame = 32
 677              		@ frame_needed = 1, uses_anonymous_args = 0
 678 0000 80B5     		push	{r7, lr}
 679              		.cfi_def_cfa_offset 8
 680              		.cfi_offset 7, -8
 681              		.cfi_offset 14, -4
 682 0002 88B0     		sub	sp, sp, #32
 683              		.cfi_def_cfa_offset 40
 684 0004 00AF     		add	r7, sp, #0
 685              		.cfi_def_cfa_register 7
 686 0006 F860     		str	r0, [r7, #12]
 687 0008 B960     		str	r1, [r7, #8]
 688 000a 7A60     		str	r2, [r7, #4]
 412:..\..\..\..\..\..\Software\uCOS-II\Source/os_q.c ****     void      *pmsg;
 413:..\..\..\..\..\..\Software\uCOS-II\Source/os_q.c ****     OS_Q      *pq;
 414:..\..\..\..\..\..\Software\uCOS-II\Source/os_q.c **** #if OS_CRITICAL_METHOD == 3u                     /* Allocate storage for CPU status register       
 415:..\..\..\..\..\..\Software\uCOS-II\Source/os_q.c ****     OS_CPU_SR  cpu_sr = 0u;
 689              		.loc 1 415 0
 690 000c 0023     		movs	r3, #0
 691 000e BB61     		str	r3, [r7, #24]
 416:..\..\..\..\..\..\Software\uCOS-II\Source/os_q.c **** #endif
 417:..\..\..\..\..\..\Software\uCOS-II\Source/os_q.c **** 
 418:..\..\..\..\..\..\Software\uCOS-II\Source/os_q.c **** 
 419:..\..\..\..\..\..\Software\uCOS-II\Source/os_q.c **** 
 420:..\..\..\..\..\..\Software\uCOS-II\Source/os_q.c **** #ifdef OS_SAFETY_CRITICAL
 421:..\..\..\..\..\..\Software\uCOS-II\Source/os_q.c ****     if (perr == (INT8U *)0) {
 422:..\..\..\..\..\..\Software\uCOS-II\Source/os_q.c ****         OS_SAFETY_CRITICAL_EXCEPTION();
 423:..\..\..\..\..\..\Software\uCOS-II\Source/os_q.c ****         return ((void *)0);
 424:..\..\..\..\..\..\Software\uCOS-II\Source/os_q.c ****     }
 425:..\..\..\..\..\..\Software\uCOS-II\Source/os_q.c **** #endif
 426:..\..\..\..\..\..\Software\uCOS-II\Source/os_q.c **** 
 427:..\..\..\..\..\..\Software\uCOS-II\Source/os_q.c **** #if OS_ARG_CHK_EN > 0u
 428:..\..\..\..\..\..\Software\uCOS-II\Source/os_q.c ****     if (pevent == (OS_EVENT *)0) {               /* Validate 'pevent'                              
 692              		.loc 1 428 0
 693 0010 FB68     		ldr	r3, [r7, #12]
 694 0012 002B     		cmp	r3, #0
 695 0014 04D1     		bne	.L40
 429:..\..\..\..\..\..\Software\uCOS-II\Source/os_q.c ****         *perr = OS_ERR_PEVENT_NULL;
 696              		.loc 1 429 0
 697 0016 7B68     		ldr	r3, [r7, #4]
 698 0018 0422     		movs	r2, #4
 699 001a 1A70     		strb	r2, [r3]
 430:..\..\..\..\..\..\Software\uCOS-II\Source/os_q.c ****         return ((void *)0);
 700              		.loc 1 430 0
 701 001c 0023     		movs	r3, #0
 702 001e A6E0     		b	.L41
 703              	.L40:
 431:..\..\..\..\..\..\Software\uCOS-II\Source/os_q.c ****     }
 432:..\..\..\..\..\..\Software\uCOS-II\Source/os_q.c **** #endif
 433:..\..\..\..\..\..\Software\uCOS-II\Source/os_q.c ****     if (pevent->OSEventType != OS_EVENT_TYPE_Q) {/* Validate event block type                      
ARM GAS  C:\Users\ADMINI~1\AppData\Local\Temp\cc9sCsDg.s 			page 21


 704              		.loc 1 433 0
 705 0020 FB68     		ldr	r3, [r7, #12]
 706 0022 1B78     		ldrb	r3, [r3]
 707 0024 022B     		cmp	r3, #2
 708 0026 04D0     		beq	.L42
 434:..\..\..\..\..\..\Software\uCOS-II\Source/os_q.c ****         *perr = OS_ERR_EVENT_TYPE;
 709              		.loc 1 434 0
 710 0028 7B68     		ldr	r3, [r7, #4]
 711 002a 0122     		movs	r2, #1
 712 002c 1A70     		strb	r2, [r3]
 435:..\..\..\..\..\..\Software\uCOS-II\Source/os_q.c ****         return ((void *)0);
 713              		.loc 1 435 0
 714 002e 0023     		movs	r3, #0
 715 0030 9DE0     		b	.L41
 716              	.L42:
 436:..\..\..\..\..\..\Software\uCOS-II\Source/os_q.c ****     }
 437:..\..\..\..\..\..\Software\uCOS-II\Source/os_q.c ****     if (OSIntNesting > 0u) {                     /* See if called from ISR ...                     
 717              		.loc 1 437 0
 718 0032 514B     		ldr	r3, .L52
 719 0034 1B78     		ldrb	r3, [r3]
 720 0036 002B     		cmp	r3, #0
 721 0038 04D0     		beq	.L43
 438:..\..\..\..\..\..\Software\uCOS-II\Source/os_q.c ****         *perr = OS_ERR_PEND_ISR;                 /* ... can't PEND from an ISR                     
 722              		.loc 1 438 0
 723 003a 7B68     		ldr	r3, [r7, #4]
 724 003c 0222     		movs	r2, #2
 725 003e 1A70     		strb	r2, [r3]
 439:..\..\..\..\..\..\Software\uCOS-II\Source/os_q.c ****         return ((void *)0);
 726              		.loc 1 439 0
 727 0040 0023     		movs	r3, #0
 728 0042 94E0     		b	.L41
 729              	.L43:
 440:..\..\..\..\..\..\Software\uCOS-II\Source/os_q.c ****     }
 441:..\..\..\..\..\..\Software\uCOS-II\Source/os_q.c ****     if (OSLockNesting > 0u) {                    /* See if called with scheduler locked ...        
 730              		.loc 1 441 0
 731 0044 4D4B     		ldr	r3, .L52+4
 732 0046 1B78     		ldrb	r3, [r3]
 733 0048 002B     		cmp	r3, #0
 734 004a 04D0     		beq	.L44
 442:..\..\..\..\..\..\Software\uCOS-II\Source/os_q.c ****         *perr = OS_ERR_PEND_LOCKED;              /* ... can't PEND when locked                     
 735              		.loc 1 442 0
 736 004c 7B68     		ldr	r3, [r7, #4]
 737 004e 0D22     		movs	r2, #13
 738 0050 1A70     		strb	r2, [r3]
 443:..\..\..\..\..\..\Software\uCOS-II\Source/os_q.c ****         return ((void *)0);
 739              		.loc 1 443 0
 740 0052 0023     		movs	r3, #0
 741 0054 8BE0     		b	.L41
 742              	.L44:
 444:..\..\..\..\..\..\Software\uCOS-II\Source/os_q.c ****     }
 445:..\..\..\..\..\..\Software\uCOS-II\Source/os_q.c ****     OS_ENTER_CRITICAL();
 743              		.loc 1 445 0
 744 0056 FFF7FEFF 		bl	OS_CPU_SR_Save
 745 005a 0300     		movs	r3, r0
 746 005c BB61     		str	r3, [r7, #24]
 446:..\..\..\..\..\..\Software\uCOS-II\Source/os_q.c ****     pq = (OS_Q *)pevent->OSEventPtr;             /* Point at queue control block                   
 747              		.loc 1 446 0
ARM GAS  C:\Users\ADMINI~1\AppData\Local\Temp\cc9sCsDg.s 			page 22


 748 005e FB68     		ldr	r3, [r7, #12]
 749 0060 5B68     		ldr	r3, [r3, #4]
 750 0062 7B61     		str	r3, [r7, #20]
 447:..\..\..\..\..\..\Software\uCOS-II\Source/os_q.c ****     if (pq->OSQEntries > 0u) {                   /* See if any messages in the queue               
 751              		.loc 1 447 0
 752 0064 7B69     		ldr	r3, [r7, #20]
 753 0066 DB8A     		ldrh	r3, [r3, #22]
 754 0068 002B     		cmp	r3, #0
 755 006a 1FD0     		beq	.L45
 448:..\..\..\..\..\..\Software\uCOS-II\Source/os_q.c ****         pmsg = *pq->OSQOut++;                    /* Yes, extract oldest message from the queue     
 756              		.loc 1 448 0
 757 006c 7B69     		ldr	r3, [r7, #20]
 758 006e 1B69     		ldr	r3, [r3, #16]
 759 0070 191D     		adds	r1, r3, #4
 760 0072 7A69     		ldr	r2, [r7, #20]
 761 0074 1161     		str	r1, [r2, #16]
 762 0076 1B68     		ldr	r3, [r3]
 763 0078 FB61     		str	r3, [r7, #28]
 449:..\..\..\..\..\..\Software\uCOS-II\Source/os_q.c ****         pq->OSQEntries--;                        /* Update the number of entries in the queue      
 764              		.loc 1 449 0
 765 007a 7B69     		ldr	r3, [r7, #20]
 766 007c DB8A     		ldrh	r3, [r3, #22]
 767 007e 013B     		subs	r3, r3, #1
 768 0080 9AB2     		uxth	r2, r3
 769 0082 7B69     		ldr	r3, [r7, #20]
 770 0084 DA82     		strh	r2, [r3, #22]
 450:..\..\..\..\..\..\Software\uCOS-II\Source/os_q.c ****         if (pq->OSQOut == pq->OSQEnd) {          /* Wrap OUT pointer if we are at the end of the qu
 771              		.loc 1 450 0
 772 0086 7B69     		ldr	r3, [r7, #20]
 773 0088 1A69     		ldr	r2, [r3, #16]
 774 008a 7B69     		ldr	r3, [r7, #20]
 775 008c 9B68     		ldr	r3, [r3, #8]
 776 008e 9A42     		cmp	r2, r3
 777 0090 03D1     		bne	.L46
 451:..\..\..\..\..\..\Software\uCOS-II\Source/os_q.c ****             pq->OSQOut = pq->OSQStart;
 778              		.loc 1 451 0
 779 0092 7B69     		ldr	r3, [r7, #20]
 780 0094 5A68     		ldr	r2, [r3, #4]
 781 0096 7B69     		ldr	r3, [r7, #20]
 782 0098 1A61     		str	r2, [r3, #16]
 783              	.L46:
 452:..\..\..\..\..\..\Software\uCOS-II\Source/os_q.c ****         }
 453:..\..\..\..\..\..\Software\uCOS-II\Source/os_q.c ****         OS_EXIT_CRITICAL();
 784              		.loc 1 453 0
 785 009a BB69     		ldr	r3, [r7, #24]
 786 009c 1800     		movs	r0, r3
 787 009e FFF7FEFF 		bl	OS_CPU_SR_Restore
 454:..\..\..\..\..\..\Software\uCOS-II\Source/os_q.c ****         *perr = OS_ERR_NONE;
 788              		.loc 1 454 0
 789 00a2 7B68     		ldr	r3, [r7, #4]
 790 00a4 0022     		movs	r2, #0
 791 00a6 1A70     		strb	r2, [r3]
 455:..\..\..\..\..\..\Software\uCOS-II\Source/os_q.c ****         return (pmsg);                           /* Return message received                        
 792              		.loc 1 455 0
 793 00a8 FB69     		ldr	r3, [r7, #28]
 794 00aa 60E0     		b	.L41
 795              	.L45:
ARM GAS  C:\Users\ADMINI~1\AppData\Local\Temp\cc9sCsDg.s 			page 23


 456:..\..\..\..\..\..\Software\uCOS-II\Source/os_q.c ****     }
 457:..\..\..\..\..\..\Software\uCOS-II\Source/os_q.c ****     OSTCBCur->OSTCBStat     |= OS_STAT_Q;        /* Task will have to pend for a message to be post
 796              		.loc 1 457 0
 797 00ac 344B     		ldr	r3, .L52+8
 798 00ae 1A68     		ldr	r2, [r3]
 799 00b0 334B     		ldr	r3, .L52+8
 800 00b2 1B68     		ldr	r3, [r3]
 801 00b4 3421     		movs	r1, #52
 802 00b6 5B5C     		ldrb	r3, [r3, r1]
 803 00b8 0421     		movs	r1, #4
 804 00ba 0B43     		orrs	r3, r1
 805 00bc D9B2     		uxtb	r1, r3
 806 00be 3423     		movs	r3, #52
 807 00c0 D154     		strb	r1, [r2, r3]
 458:..\..\..\..\..\..\Software\uCOS-II\Source/os_q.c ****     OSTCBCur->OSTCBStatPend  = OS_STAT_PEND_OK;
 808              		.loc 1 458 0
 809 00c2 2F4B     		ldr	r3, .L52+8
 810 00c4 1B68     		ldr	r3, [r3]
 811 00c6 3522     		movs	r2, #53
 812 00c8 0021     		movs	r1, #0
 813 00ca 9954     		strb	r1, [r3, r2]
 459:..\..\..\..\..\..\Software\uCOS-II\Source/os_q.c ****     OSTCBCur->OSTCBDly       = timeout;          /* Load timeout into TCB                          
 814              		.loc 1 459 0
 815 00cc 2C4B     		ldr	r3, .L52+8
 816 00ce 1B68     		ldr	r3, [r3]
 817 00d0 BA68     		ldr	r2, [r7, #8]
 818 00d2 1A63     		str	r2, [r3, #48]
 460:..\..\..\..\..\..\Software\uCOS-II\Source/os_q.c ****     OS_EventTaskWait(pevent);                    /* Suspend task until event or timeout occurs     
 819              		.loc 1 460 0
 820 00d4 FB68     		ldr	r3, [r7, #12]
 821 00d6 1800     		movs	r0, r3
 822 00d8 FFF7FEFF 		bl	OS_EventTaskWait
 461:..\..\..\..\..\..\Software\uCOS-II\Source/os_q.c ****     OS_EXIT_CRITICAL();
 823              		.loc 1 461 0
 824 00dc BB69     		ldr	r3, [r7, #24]
 825 00de 1800     		movs	r0, r3
 826 00e0 FFF7FEFF 		bl	OS_CPU_SR_Restore
 462:..\..\..\..\..\..\Software\uCOS-II\Source/os_q.c ****     OS_Sched();                                  /* Find next highest priority task ready to run   
 827              		.loc 1 462 0
 828 00e4 FFF7FEFF 		bl	OS_Sched
 463:..\..\..\..\..\..\Software\uCOS-II\Source/os_q.c ****     OS_ENTER_CRITICAL();
 829              		.loc 1 463 0
 830 00e8 FFF7FEFF 		bl	OS_CPU_SR_Save
 831 00ec 0300     		movs	r3, r0
 832 00ee BB61     		str	r3, [r7, #24]
 464:..\..\..\..\..\..\Software\uCOS-II\Source/os_q.c ****     switch (OSTCBCur->OSTCBStatPend) {                /* See if we timed-out or aborted            
 833              		.loc 1 464 0
 834 00f0 234B     		ldr	r3, .L52+8
 835 00f2 1B68     		ldr	r3, [r3]
 836 00f4 3522     		movs	r2, #53
 837 00f6 9B5C     		ldrb	r3, [r3, r2]
 838 00f8 002B     		cmp	r3, #0
 839 00fa 02D0     		beq	.L48
 840 00fc 022B     		cmp	r3, #2
 841 00fe 08D0     		beq	.L49
 842 0100 0DE0     		b	.L51
 843              	.L48:
ARM GAS  C:\Users\ADMINI~1\AppData\Local\Temp\cc9sCsDg.s 			page 24


 465:..\..\..\..\..\..\Software\uCOS-II\Source/os_q.c ****         case OS_STAT_PEND_OK:                         /* Extract message from TCB (Put there by QPo
 466:..\..\..\..\..\..\Software\uCOS-II\Source/os_q.c ****              pmsg =  OSTCBCur->OSTCBMsg;
 844              		.loc 1 466 0
 845 0102 1F4B     		ldr	r3, .L52+8
 846 0104 1B68     		ldr	r3, [r3]
 847 0106 5B6A     		ldr	r3, [r3, #36]
 848 0108 FB61     		str	r3, [r7, #28]
 467:..\..\..\..\..\..\Software\uCOS-II\Source/os_q.c ****             *perr =  OS_ERR_NONE;
 849              		.loc 1 467 0
 850 010a 7B68     		ldr	r3, [r7, #4]
 851 010c 0022     		movs	r2, #0
 852 010e 1A70     		strb	r2, [r3]
 468:..\..\..\..\..\..\Software\uCOS-II\Source/os_q.c ****              break;
 853              		.loc 1 468 0
 854 0110 12E0     		b	.L50
 855              	.L49:
 469:..\..\..\..\..\..\Software\uCOS-II\Source/os_q.c **** 
 470:..\..\..\..\..\..\Software\uCOS-II\Source/os_q.c ****         case OS_STAT_PEND_ABORT:
 471:..\..\..\..\..\..\Software\uCOS-II\Source/os_q.c ****              pmsg = (void *)0;
 856              		.loc 1 471 0
 857 0112 0023     		movs	r3, #0
 858 0114 FB61     		str	r3, [r7, #28]
 472:..\..\..\..\..\..\Software\uCOS-II\Source/os_q.c ****             *perr =  OS_ERR_PEND_ABORT;               /* Indicate that we aborted                  
 859              		.loc 1 472 0
 860 0116 7B68     		ldr	r3, [r7, #4]
 861 0118 0E22     		movs	r2, #14
 862 011a 1A70     		strb	r2, [r3]
 473:..\..\..\..\..\..\Software\uCOS-II\Source/os_q.c ****              break;
 863              		.loc 1 473 0
 864 011c 0CE0     		b	.L50
 865              	.L51:
 474:..\..\..\..\..\..\Software\uCOS-II\Source/os_q.c **** 
 475:..\..\..\..\..\..\Software\uCOS-II\Source/os_q.c ****         case OS_STAT_PEND_TO:
 476:..\..\..\..\..\..\Software\uCOS-II\Source/os_q.c ****         default:
 477:..\..\..\..\..\..\Software\uCOS-II\Source/os_q.c ****              OS_EventTaskRemove(OSTCBCur, pevent);
 866              		.loc 1 477 0
 867 011e 184B     		ldr	r3, .L52+8
 868 0120 1B68     		ldr	r3, [r3]
 869 0122 FA68     		ldr	r2, [r7, #12]
 870 0124 1100     		movs	r1, r2
 871 0126 1800     		movs	r0, r3
 872 0128 FFF7FEFF 		bl	OS_EventTaskRemove
 478:..\..\..\..\..\..\Software\uCOS-II\Source/os_q.c ****              pmsg = (void *)0;
 873              		.loc 1 478 0
 874 012c 0023     		movs	r3, #0
 875 012e FB61     		str	r3, [r7, #28]
 479:..\..\..\..\..\..\Software\uCOS-II\Source/os_q.c ****             *perr =  OS_ERR_TIMEOUT;                  /* Indicate that we didn't get event within T
 876              		.loc 1 479 0
 877 0130 7B68     		ldr	r3, [r7, #4]
 878 0132 0A22     		movs	r2, #10
 879 0134 1A70     		strb	r2, [r3]
 480:..\..\..\..\..\..\Software\uCOS-II\Source/os_q.c ****              break;
 880              		.loc 1 480 0
 881 0136 C046     		nop
 882              	.L50:
 481:..\..\..\..\..\..\Software\uCOS-II\Source/os_q.c ****     }
 482:..\..\..\..\..\..\Software\uCOS-II\Source/os_q.c ****     OSTCBCur->OSTCBStat          =  OS_STAT_RDY;      /* Set   task  status to ready               
ARM GAS  C:\Users\ADMINI~1\AppData\Local\Temp\cc9sCsDg.s 			page 25


 883              		.loc 1 482 0
 884 0138 114B     		ldr	r3, .L52+8
 885 013a 1B68     		ldr	r3, [r3]
 886 013c 3422     		movs	r2, #52
 887 013e 0021     		movs	r1, #0
 888 0140 9954     		strb	r1, [r3, r2]
 483:..\..\..\..\..\..\Software\uCOS-II\Source/os_q.c ****     OSTCBCur->OSTCBStatPend      =  OS_STAT_PEND_OK;  /* Clear pend  status                        
 889              		.loc 1 483 0
 890 0142 0F4B     		ldr	r3, .L52+8
 891 0144 1B68     		ldr	r3, [r3]
 892 0146 3522     		movs	r2, #53
 893 0148 0021     		movs	r1, #0
 894 014a 9954     		strb	r1, [r3, r2]
 484:..\..\..\..\..\..\Software\uCOS-II\Source/os_q.c ****     OSTCBCur->OSTCBEventPtr      = (OS_EVENT  *)0;    /* Clear event pointers                      
 895              		.loc 1 484 0
 896 014c 0C4B     		ldr	r3, .L52+8
 897 014e 1B68     		ldr	r3, [r3]
 898 0150 0022     		movs	r2, #0
 899 0152 DA61     		str	r2, [r3, #28]
 485:..\..\..\..\..\..\Software\uCOS-II\Source/os_q.c **** #if (OS_EVENT_MULTI_EN > 0u)
 486:..\..\..\..\..\..\Software\uCOS-II\Source/os_q.c ****     OSTCBCur->OSTCBEventMultiPtr = (OS_EVENT **)0;
 900              		.loc 1 486 0
 901 0154 0A4B     		ldr	r3, .L52+8
 902 0156 1B68     		ldr	r3, [r3]
 903 0158 0022     		movs	r2, #0
 904 015a 1A62     		str	r2, [r3, #32]
 487:..\..\..\..\..\..\Software\uCOS-II\Source/os_q.c **** #endif
 488:..\..\..\..\..\..\Software\uCOS-II\Source/os_q.c ****     OSTCBCur->OSTCBMsg           = (void      *)0;    /* Clear  received message                   
 905              		.loc 1 488 0
 906 015c 084B     		ldr	r3, .L52+8
 907 015e 1B68     		ldr	r3, [r3]
 908 0160 0022     		movs	r2, #0
 909 0162 5A62     		str	r2, [r3, #36]
 489:..\..\..\..\..\..\Software\uCOS-II\Source/os_q.c ****     OS_EXIT_CRITICAL();
 910              		.loc 1 489 0
 911 0164 BB69     		ldr	r3, [r7, #24]
 912 0166 1800     		movs	r0, r3
 913 0168 FFF7FEFF 		bl	OS_CPU_SR_Restore
 490:..\..\..\..\..\..\Software\uCOS-II\Source/os_q.c ****     return (pmsg);                                    /* Return received message                   
 914              		.loc 1 490 0
 915 016c FB69     		ldr	r3, [r7, #28]
 916              	.L41:
 491:..\..\..\..\..\..\Software\uCOS-II\Source/os_q.c **** }
 917              		.loc 1 491 0
 918 016e 1800     		movs	r0, r3
 919 0170 BD46     		mov	sp, r7
 920 0172 08B0     		add	sp, sp, #32
 921              		@ sp needed
 922 0174 80BD     		pop	{r7, pc}
 923              	.L53:
 924 0176 C046     		.align	2
 925              	.L52:
 926 0178 00000000 		.word	OSIntNesting
 927 017c 00000000 		.word	OSLockNesting
 928 0180 00000000 		.word	OSTCBCur
 929              		.cfi_endproc
 930              	.LFE5:
ARM GAS  C:\Users\ADMINI~1\AppData\Local\Temp\cc9sCsDg.s 			page 26


 931              		.size	OSQPend, .-OSQPend
 932              		.section	.text.OSQPendAbort,"ax",%progbits
 933              		.align	2
 934              		.global	OSQPendAbort
 935              		.code	16
 936              		.thumb_func
 937              		.type	OSQPendAbort, %function
 938              	OSQPendAbort:
 939              	.LFB6:
 492:..\..\..\..\..\..\Software\uCOS-II\Source/os_q.c **** /*$PAGE*/
 493:..\..\..\..\..\..\Software\uCOS-II\Source/os_q.c **** /*
 494:..\..\..\..\..\..\Software\uCOS-II\Source/os_q.c **** ***************************************************************************************************
 495:..\..\..\..\..\..\Software\uCOS-II\Source/os_q.c **** *                                  ABORT WAITING ON A MESSAGE QUEUE
 496:..\..\..\..\..\..\Software\uCOS-II\Source/os_q.c **** *
 497:..\..\..\..\..\..\Software\uCOS-II\Source/os_q.c **** * Description: This function aborts & readies any tasks currently waiting on a queue.  This functio
 498:..\..\..\..\..\..\Software\uCOS-II\Source/os_q.c **** *              should be used to fault-abort the wait on the queue, rather than to normally signal
 499:..\..\..\..\..\..\Software\uCOS-II\Source/os_q.c **** *              the queue via OSQPost(), OSQPostFront() or OSQPostOpt().
 500:..\..\..\..\..\..\Software\uCOS-II\Source/os_q.c **** *
 501:..\..\..\..\..\..\Software\uCOS-II\Source/os_q.c **** * Arguments  : pevent        is a pointer to the event control block associated with the desired qu
 502:..\..\..\..\..\..\Software\uCOS-II\Source/os_q.c **** *
 503:..\..\..\..\..\..\Software\uCOS-II\Source/os_q.c **** *              opt           determines the type of ABORT performed:
 504:..\..\..\..\..\..\Software\uCOS-II\Source/os_q.c **** *                            OS_PEND_OPT_NONE         ABORT wait for a single task (HPT) waiting on
 505:..\..\..\..\..\..\Software\uCOS-II\Source/os_q.c **** *                                                     queue
 506:..\..\..\..\..\..\Software\uCOS-II\Source/os_q.c **** *                            OS_PEND_OPT_BROADCAST    ABORT wait for ALL tasks that are  waiting on
 507:..\..\..\..\..\..\Software\uCOS-II\Source/os_q.c **** *                                                     queue
 508:..\..\..\..\..\..\Software\uCOS-II\Source/os_q.c **** *
 509:..\..\..\..\..\..\Software\uCOS-II\Source/os_q.c **** *              perr          is a pointer to where an error message will be deposited.  Possible er
 510:..\..\..\..\..\..\Software\uCOS-II\Source/os_q.c **** *                            messages are:
 511:..\..\..\..\..\..\Software\uCOS-II\Source/os_q.c **** *
 512:..\..\..\..\..\..\Software\uCOS-II\Source/os_q.c **** *                            OS_ERR_NONE         No tasks were     waiting on the queue.
 513:..\..\..\..\..\..\Software\uCOS-II\Source/os_q.c **** *                            OS_ERR_PEND_ABORT   At least one task waiting on the queue was readied
 514:..\..\..\..\..\..\Software\uCOS-II\Source/os_q.c **** *                                                and informed of the aborted wait; check return val
 515:..\..\..\..\..\..\Software\uCOS-II\Source/os_q.c **** *                                                for the number of tasks whose wait on the queue
 516:..\..\..\..\..\..\Software\uCOS-II\Source/os_q.c **** *                                                was aborted.
 517:..\..\..\..\..\..\Software\uCOS-II\Source/os_q.c **** *                            OS_ERR_EVENT_TYPE   If you didn't pass a pointer to a queue.
 518:..\..\..\..\..\..\Software\uCOS-II\Source/os_q.c **** *                            OS_ERR_PEVENT_NULL  If 'pevent' is a NULL pointer.
 519:..\..\..\..\..\..\Software\uCOS-II\Source/os_q.c **** *
 520:..\..\..\..\..\..\Software\uCOS-II\Source/os_q.c **** * Returns    : == 0          if no tasks were waiting on the queue, or upon error.
 521:..\..\..\..\..\..\Software\uCOS-II\Source/os_q.c **** *              >  0          if one or more tasks waiting on the queue are now readied and informed
 522:..\..\..\..\..\..\Software\uCOS-II\Source/os_q.c **** ***************************************************************************************************
 523:..\..\..\..\..\..\Software\uCOS-II\Source/os_q.c **** */
 524:..\..\..\..\..\..\Software\uCOS-II\Source/os_q.c **** 
 525:..\..\..\..\..\..\Software\uCOS-II\Source/os_q.c **** #if OS_Q_PEND_ABORT_EN > 0u
 526:..\..\..\..\..\..\Software\uCOS-II\Source/os_q.c **** INT8U  OSQPendAbort (OS_EVENT  *pevent,
 527:..\..\..\..\..\..\Software\uCOS-II\Source/os_q.c ****                      INT8U      opt,
 528:..\..\..\..\..\..\Software\uCOS-II\Source/os_q.c ****                      INT8U     *perr)
 529:..\..\..\..\..\..\Software\uCOS-II\Source/os_q.c **** {
 940              		.loc 1 529 0
 941              		.cfi_startproc
 942              		@ args = 0, pretend = 0, frame = 24
 943              		@ frame_needed = 1, uses_anonymous_args = 0
 944 0000 80B5     		push	{r7, lr}
 945              		.cfi_def_cfa_offset 8
 946              		.cfi_offset 7, -8
 947              		.cfi_offset 14, -4
 948 0002 86B0     		sub	sp, sp, #24
 949              		.cfi_def_cfa_offset 32
ARM GAS  C:\Users\ADMINI~1\AppData\Local\Temp\cc9sCsDg.s 			page 27


 950 0004 00AF     		add	r7, sp, #0
 951              		.cfi_def_cfa_register 7
 952 0006 F860     		str	r0, [r7, #12]
 953 0008 7A60     		str	r2, [r7, #4]
 954 000a 0B23     		movs	r3, #11
 955 000c FB18     		adds	r3, r7, r3
 956 000e 0A1C     		adds	r2, r1, #0
 957 0010 1A70     		strb	r2, [r3]
 530:..\..\..\..\..\..\Software\uCOS-II\Source/os_q.c ****     INT8U      nbr_tasks;
 531:..\..\..\..\..\..\Software\uCOS-II\Source/os_q.c **** #if OS_CRITICAL_METHOD == 3u                               /* Allocate storage for CPU status regis
 532:..\..\..\..\..\..\Software\uCOS-II\Source/os_q.c ****     OS_CPU_SR  cpu_sr = 0u;
 958              		.loc 1 532 0
 959 0012 0023     		movs	r3, #0
 960 0014 3B61     		str	r3, [r7, #16]
 533:..\..\..\..\..\..\Software\uCOS-II\Source/os_q.c **** #endif
 534:..\..\..\..\..\..\Software\uCOS-II\Source/os_q.c **** 
 535:..\..\..\..\..\..\Software\uCOS-II\Source/os_q.c **** 
 536:..\..\..\..\..\..\Software\uCOS-II\Source/os_q.c **** 
 537:..\..\..\..\..\..\Software\uCOS-II\Source/os_q.c **** #ifdef OS_SAFETY_CRITICAL
 538:..\..\..\..\..\..\Software\uCOS-II\Source/os_q.c ****     if (perr == (INT8U *)0) {
 539:..\..\..\..\..\..\Software\uCOS-II\Source/os_q.c ****         OS_SAFETY_CRITICAL_EXCEPTION();
 540:..\..\..\..\..\..\Software\uCOS-II\Source/os_q.c ****         return (0u);
 541:..\..\..\..\..\..\Software\uCOS-II\Source/os_q.c ****     }
 542:..\..\..\..\..\..\Software\uCOS-II\Source/os_q.c **** #endif
 543:..\..\..\..\..\..\Software\uCOS-II\Source/os_q.c **** 
 544:..\..\..\..\..\..\Software\uCOS-II\Source/os_q.c **** #if OS_ARG_CHK_EN > 0u
 545:..\..\..\..\..\..\Software\uCOS-II\Source/os_q.c ****     if (pevent == (OS_EVENT *)0) {                         /* Validate 'pevent'                    
 961              		.loc 1 545 0
 962 0016 FB68     		ldr	r3, [r7, #12]
 963 0018 002B     		cmp	r3, #0
 964 001a 04D1     		bne	.L55
 546:..\..\..\..\..\..\Software\uCOS-II\Source/os_q.c ****         *perr = OS_ERR_PEVENT_NULL;
 965              		.loc 1 546 0
 966 001c 7B68     		ldr	r3, [r7, #4]
 967 001e 0422     		movs	r2, #4
 968 0020 1A70     		strb	r2, [r3]
 547:..\..\..\..\..\..\Software\uCOS-II\Source/os_q.c ****         return (0u);
 969              		.loc 1 547 0
 970 0022 0023     		movs	r3, #0
 971 0024 4FE0     		b	.L56
 972              	.L55:
 548:..\..\..\..\..\..\Software\uCOS-II\Source/os_q.c ****     }
 549:..\..\..\..\..\..\Software\uCOS-II\Source/os_q.c **** #endif
 550:..\..\..\..\..\..\Software\uCOS-II\Source/os_q.c ****     if (pevent->OSEventType != OS_EVENT_TYPE_Q) {          /* Validate event block type            
 973              		.loc 1 550 0
 974 0026 FB68     		ldr	r3, [r7, #12]
 975 0028 1B78     		ldrb	r3, [r3]
 976 002a 022B     		cmp	r3, #2
 977 002c 04D0     		beq	.L57
 551:..\..\..\..\..\..\Software\uCOS-II\Source/os_q.c ****         *perr = OS_ERR_EVENT_TYPE;
 978              		.loc 1 551 0
 979 002e 7B68     		ldr	r3, [r7, #4]
 980 0030 0122     		movs	r2, #1
 981 0032 1A70     		strb	r2, [r3]
 552:..\..\..\..\..\..\Software\uCOS-II\Source/os_q.c ****         return (0u);
 982              		.loc 1 552 0
 983 0034 0023     		movs	r3, #0
ARM GAS  C:\Users\ADMINI~1\AppData\Local\Temp\cc9sCsDg.s 			page 28


 984 0036 46E0     		b	.L56
 985              	.L57:
 553:..\..\..\..\..\..\Software\uCOS-II\Source/os_q.c ****     }
 554:..\..\..\..\..\..\Software\uCOS-II\Source/os_q.c ****     OS_ENTER_CRITICAL();
 986              		.loc 1 554 0
 987 0038 FFF7FEFF 		bl	OS_CPU_SR_Save
 988 003c 0300     		movs	r3, r0
 989 003e 3B61     		str	r3, [r7, #16]
 555:..\..\..\..\..\..\Software\uCOS-II\Source/os_q.c ****     if (pevent->OSEventGrp != 0u) {                        /* See if any task waiting on queue?    
 990              		.loc 1 555 0
 991 0040 FB68     		ldr	r3, [r7, #12]
 992 0042 9B7A     		ldrb	r3, [r3, #10]
 993 0044 002B     		cmp	r3, #0
 994 0046 36D0     		beq	.L58
 556:..\..\..\..\..\..\Software\uCOS-II\Source/os_q.c ****         nbr_tasks = 0u;
 995              		.loc 1 556 0
 996 0048 1723     		movs	r3, #23
 997 004a FB18     		adds	r3, r7, r3
 998 004c 0022     		movs	r2, #0
 999 004e 1A70     		strb	r2, [r3]
 557:..\..\..\..\..\..\Software\uCOS-II\Source/os_q.c ****         switch (opt) {
 1000              		.loc 1 557 0
 1001 0050 0B23     		movs	r3, #11
 1002 0052 FB18     		adds	r3, r7, r3
 1003 0054 1B78     		ldrb	r3, [r3]
 1004 0056 012B     		cmp	r3, #1
 1005 0058 12D1     		bne	.L64
 558:..\..\..\..\..\..\Software\uCOS-II\Source/os_q.c ****             case OS_PEND_OPT_BROADCAST:                    /* Do we need to abort ALL waiting tasks
 559:..\..\..\..\..\..\Software\uCOS-II\Source/os_q.c ****                  while (pevent->OSEventGrp != 0u) {        /* Yes, ready ALL tasks waiting on queue
 1006              		.loc 1 559 0
 1007 005a 0CE0     		b	.L61
 1008              	.L62:
 560:..\..\..\..\..\..\Software\uCOS-II\Source/os_q.c ****                      (void)OS_EventTaskRdy(pevent, (void *)0, OS_STAT_Q, OS_STAT_PEND_ABORT);
 1009              		.loc 1 560 0
 1010 005c F868     		ldr	r0, [r7, #12]
 1011 005e 0223     		movs	r3, #2
 1012 0060 0422     		movs	r2, #4
 1013 0062 0021     		movs	r1, #0
 1014 0064 FFF7FEFF 		bl	OS_EventTaskRdy
 561:..\..\..\..\..\..\Software\uCOS-II\Source/os_q.c ****                      nbr_tasks++;
 1015              		.loc 1 561 0
 1016 0068 1723     		movs	r3, #23
 1017 006a FB18     		adds	r3, r7, r3
 1018 006c 1A78     		ldrb	r2, [r3]
 1019 006e 1723     		movs	r3, #23
 1020 0070 FB18     		adds	r3, r7, r3
 1021 0072 0132     		adds	r2, r2, #1
 1022 0074 1A70     		strb	r2, [r3]
 1023              	.L61:
 559:..\..\..\..\..\..\Software\uCOS-II\Source/os_q.c ****                      (void)OS_EventTaskRdy(pevent, (void *)0, OS_STAT_Q, OS_STAT_PEND_ABORT);
 1024              		.loc 1 559 0
 1025 0076 FB68     		ldr	r3, [r7, #12]
 1026 0078 9B7A     		ldrb	r3, [r3, #10]
 1027 007a 002B     		cmp	r3, #0
 1028 007c EED1     		bne	.L62
 562:..\..\..\..\..\..\Software\uCOS-II\Source/os_q.c ****                  }
 563:..\..\..\..\..\..\Software\uCOS-II\Source/os_q.c ****                  break;
ARM GAS  C:\Users\ADMINI~1\AppData\Local\Temp\cc9sCsDg.s 			page 29


 1029              		.loc 1 563 0
 1030 007e 0DE0     		b	.L63
 1031              	.L64:
 564:..\..\..\..\..\..\Software\uCOS-II\Source/os_q.c **** 
 565:..\..\..\..\..\..\Software\uCOS-II\Source/os_q.c ****             case OS_PEND_OPT_NONE:
 566:..\..\..\..\..\..\Software\uCOS-II\Source/os_q.c ****             default:                                       /* No,  ready HPT       waiting on queue
 567:..\..\..\..\..\..\Software\uCOS-II\Source/os_q.c ****                  (void)OS_EventTaskRdy(pevent, (void *)0, OS_STAT_Q, OS_STAT_PEND_ABORT);
 1032              		.loc 1 567 0
 1033 0080 F868     		ldr	r0, [r7, #12]
 1034 0082 0223     		movs	r3, #2
 1035 0084 0422     		movs	r2, #4
 1036 0086 0021     		movs	r1, #0
 1037 0088 FFF7FEFF 		bl	OS_EventTaskRdy
 568:..\..\..\..\..\..\Software\uCOS-II\Source/os_q.c ****                  nbr_tasks++;
 1038              		.loc 1 568 0
 1039 008c 1723     		movs	r3, #23
 1040 008e FB18     		adds	r3, r7, r3
 1041 0090 1A78     		ldrb	r2, [r3]
 1042 0092 1723     		movs	r3, #23
 1043 0094 FB18     		adds	r3, r7, r3
 1044 0096 0132     		adds	r2, r2, #1
 1045 0098 1A70     		strb	r2, [r3]
 569:..\..\..\..\..\..\Software\uCOS-II\Source/os_q.c ****                  break;
 1046              		.loc 1 569 0
 1047 009a C046     		nop
 1048              	.L63:
 570:..\..\..\..\..\..\Software\uCOS-II\Source/os_q.c ****         }
 571:..\..\..\..\..\..\Software\uCOS-II\Source/os_q.c ****         OS_EXIT_CRITICAL();
 1049              		.loc 1 571 0
 1050 009c 3B69     		ldr	r3, [r7, #16]
 1051 009e 1800     		movs	r0, r3
 1052 00a0 FFF7FEFF 		bl	OS_CPU_SR_Restore
 572:..\..\..\..\..\..\Software\uCOS-II\Source/os_q.c ****         OS_Sched();                                        /* Find HPT ready to run                
 1053              		.loc 1 572 0
 1054 00a4 FFF7FEFF 		bl	OS_Sched
 573:..\..\..\..\..\..\Software\uCOS-II\Source/os_q.c ****         *perr = OS_ERR_PEND_ABORT;
 1055              		.loc 1 573 0
 1056 00a8 7B68     		ldr	r3, [r7, #4]
 1057 00aa 0E22     		movs	r2, #14
 1058 00ac 1A70     		strb	r2, [r3]
 574:..\..\..\..\..\..\Software\uCOS-II\Source/os_q.c ****         return (nbr_tasks);
 1059              		.loc 1 574 0
 1060 00ae 1723     		movs	r3, #23
 1061 00b0 FB18     		adds	r3, r7, r3
 1062 00b2 1B78     		ldrb	r3, [r3]
 1063 00b4 07E0     		b	.L56
 1064              	.L58:
 575:..\..\..\..\..\..\Software\uCOS-II\Source/os_q.c ****     }
 576:..\..\..\..\..\..\Software\uCOS-II\Source/os_q.c ****     OS_EXIT_CRITICAL();
 1065              		.loc 1 576 0
 1066 00b6 3B69     		ldr	r3, [r7, #16]
 1067 00b8 1800     		movs	r0, r3
 1068 00ba FFF7FEFF 		bl	OS_CPU_SR_Restore
 577:..\..\..\..\..\..\Software\uCOS-II\Source/os_q.c ****     *perr = OS_ERR_NONE;
 1069              		.loc 1 577 0
 1070 00be 7B68     		ldr	r3, [r7, #4]
 1071 00c0 0022     		movs	r2, #0
ARM GAS  C:\Users\ADMINI~1\AppData\Local\Temp\cc9sCsDg.s 			page 30


 1072 00c2 1A70     		strb	r2, [r3]
 578:..\..\..\..\..\..\Software\uCOS-II\Source/os_q.c ****     return (0u);                                           /* No tasks waiting on queue            
 1073              		.loc 1 578 0
 1074 00c4 0023     		movs	r3, #0
 1075              	.L56:
 579:..\..\..\..\..\..\Software\uCOS-II\Source/os_q.c **** }
 1076              		.loc 1 579 0
 1077 00c6 1800     		movs	r0, r3
 1078 00c8 BD46     		mov	sp, r7
 1079 00ca 06B0     		add	sp, sp, #24
 1080              		@ sp needed
 1081 00cc 80BD     		pop	{r7, pc}
 1082              		.cfi_endproc
 1083              	.LFE6:
 1084              		.size	OSQPendAbort, .-OSQPendAbort
 1085 00ce C046     		.section	.text.OSQPost,"ax",%progbits
 1086              		.align	2
 1087              		.global	OSQPost
 1088              		.code	16
 1089              		.thumb_func
 1090              		.type	OSQPost, %function
 1091              	OSQPost:
 1092              	.LFB7:
 580:..\..\..\..\..\..\Software\uCOS-II\Source/os_q.c **** #endif
 581:..\..\..\..\..\..\Software\uCOS-II\Source/os_q.c **** 
 582:..\..\..\..\..\..\Software\uCOS-II\Source/os_q.c **** /*$PAGE*/
 583:..\..\..\..\..\..\Software\uCOS-II\Source/os_q.c **** /*
 584:..\..\..\..\..\..\Software\uCOS-II\Source/os_q.c **** ***************************************************************************************************
 585:..\..\..\..\..\..\Software\uCOS-II\Source/os_q.c **** *                                       POST MESSAGE TO A QUEUE
 586:..\..\..\..\..\..\Software\uCOS-II\Source/os_q.c **** *
 587:..\..\..\..\..\..\Software\uCOS-II\Source/os_q.c **** * Description: This function sends a message to a queue
 588:..\..\..\..\..\..\Software\uCOS-II\Source/os_q.c **** *
 589:..\..\..\..\..\..\Software\uCOS-II\Source/os_q.c **** * Arguments  : pevent        is a pointer to the event control block associated with the desired qu
 590:..\..\..\..\..\..\Software\uCOS-II\Source/os_q.c **** *
 591:..\..\..\..\..\..\Software\uCOS-II\Source/os_q.c **** *              pmsg          is a pointer to the message to send.
 592:..\..\..\..\..\..\Software\uCOS-II\Source/os_q.c **** *
 593:..\..\..\..\..\..\Software\uCOS-II\Source/os_q.c **** * Returns    : OS_ERR_NONE           The call was successful and the message was sent
 594:..\..\..\..\..\..\Software\uCOS-II\Source/os_q.c **** *              OS_ERR_Q_FULL         If the queue cannot accept any more messages because it is ful
 595:..\..\..\..\..\..\Software\uCOS-II\Source/os_q.c **** *              OS_ERR_EVENT_TYPE     If you didn't pass a pointer to a queue.
 596:..\..\..\..\..\..\Software\uCOS-II\Source/os_q.c **** *              OS_ERR_PEVENT_NULL    If 'pevent' is a NULL pointer
 597:..\..\..\..\..\..\Software\uCOS-II\Source/os_q.c **** *
 598:..\..\..\..\..\..\Software\uCOS-II\Source/os_q.c **** * Note(s)    : As of V2.60, this function allows you to send NULL pointer messages.
 599:..\..\..\..\..\..\Software\uCOS-II\Source/os_q.c **** ***************************************************************************************************
 600:..\..\..\..\..\..\Software\uCOS-II\Source/os_q.c **** */
 601:..\..\..\..\..\..\Software\uCOS-II\Source/os_q.c **** 
 602:..\..\..\..\..\..\Software\uCOS-II\Source/os_q.c **** #if OS_Q_POST_EN > 0u
 603:..\..\..\..\..\..\Software\uCOS-II\Source/os_q.c **** INT8U  OSQPost (OS_EVENT  *pevent,
 604:..\..\..\..\..\..\Software\uCOS-II\Source/os_q.c ****                 void      *pmsg)
 605:..\..\..\..\..\..\Software\uCOS-II\Source/os_q.c **** {
 1093              		.loc 1 605 0
 1094              		.cfi_startproc
 1095              		@ args = 0, pretend = 0, frame = 16
 1096              		@ frame_needed = 1, uses_anonymous_args = 0
 1097 0000 80B5     		push	{r7, lr}
 1098              		.cfi_def_cfa_offset 8
 1099              		.cfi_offset 7, -8
 1100              		.cfi_offset 14, -4
ARM GAS  C:\Users\ADMINI~1\AppData\Local\Temp\cc9sCsDg.s 			page 31


 1101 0002 84B0     		sub	sp, sp, #16
 1102              		.cfi_def_cfa_offset 24
 1103 0004 00AF     		add	r7, sp, #0
 1104              		.cfi_def_cfa_register 7
 1105 0006 7860     		str	r0, [r7, #4]
 1106 0008 3960     		str	r1, [r7]
 606:..\..\..\..\..\..\Software\uCOS-II\Source/os_q.c ****     OS_Q      *pq;
 607:..\..\..\..\..\..\Software\uCOS-II\Source/os_q.c **** #if OS_CRITICAL_METHOD == 3u                           /* Allocate storage for CPU status register 
 608:..\..\..\..\..\..\Software\uCOS-II\Source/os_q.c ****     OS_CPU_SR  cpu_sr = 0u;
 1107              		.loc 1 608 0
 1108 000a 0023     		movs	r3, #0
 1109 000c FB60     		str	r3, [r7, #12]
 609:..\..\..\..\..\..\Software\uCOS-II\Source/os_q.c **** #endif
 610:..\..\..\..\..\..\Software\uCOS-II\Source/os_q.c **** 
 611:..\..\..\..\..\..\Software\uCOS-II\Source/os_q.c **** 
 612:..\..\..\..\..\..\Software\uCOS-II\Source/os_q.c **** 
 613:..\..\..\..\..\..\Software\uCOS-II\Source/os_q.c **** #if OS_ARG_CHK_EN > 0u
 614:..\..\..\..\..\..\Software\uCOS-II\Source/os_q.c ****     if (pevent == (OS_EVENT *)0) {                     /* Validate 'pevent'                        
 1110              		.loc 1 614 0
 1111 000e 7B68     		ldr	r3, [r7, #4]
 1112 0010 002B     		cmp	r3, #0
 1113 0012 01D1     		bne	.L66
 615:..\..\..\..\..\..\Software\uCOS-II\Source/os_q.c ****         return (OS_ERR_PEVENT_NULL);
 1114              		.loc 1 615 0
 1115 0014 0423     		movs	r3, #4
 1116 0016 46E0     		b	.L67
 1117              	.L66:
 616:..\..\..\..\..\..\Software\uCOS-II\Source/os_q.c ****     }
 617:..\..\..\..\..\..\Software\uCOS-II\Source/os_q.c **** #endif
 618:..\..\..\..\..\..\Software\uCOS-II\Source/os_q.c ****     if (pevent->OSEventType != OS_EVENT_TYPE_Q) {      /* Validate event block type                
 1118              		.loc 1 618 0
 1119 0018 7B68     		ldr	r3, [r7, #4]
 1120 001a 1B78     		ldrb	r3, [r3]
 1121 001c 022B     		cmp	r3, #2
 1122 001e 01D0     		beq	.L68
 619:..\..\..\..\..\..\Software\uCOS-II\Source/os_q.c ****         return (OS_ERR_EVENT_TYPE);
 1123              		.loc 1 619 0
 1124 0020 0123     		movs	r3, #1
 1125 0022 40E0     		b	.L67
 1126              	.L68:
 620:..\..\..\..\..\..\Software\uCOS-II\Source/os_q.c ****     }
 621:..\..\..\..\..\..\Software\uCOS-II\Source/os_q.c ****     OS_ENTER_CRITICAL();
 1127              		.loc 1 621 0
 1128 0024 FFF7FEFF 		bl	OS_CPU_SR_Save
 1129 0028 0300     		movs	r3, r0
 1130 002a FB60     		str	r3, [r7, #12]
 622:..\..\..\..\..\..\Software\uCOS-II\Source/os_q.c ****     if (pevent->OSEventGrp != 0u) {                    /* See if any task pending on queue         
 1131              		.loc 1 622 0
 1132 002c 7B68     		ldr	r3, [r7, #4]
 1133 002e 9B7A     		ldrb	r3, [r3, #10]
 1134 0030 002B     		cmp	r3, #0
 1135 0032 0DD0     		beq	.L69
 623:..\..\..\..\..\..\Software\uCOS-II\Source/os_q.c ****                                                        /* Ready highest priority task waiting on ev
 624:..\..\..\..\..\..\Software\uCOS-II\Source/os_q.c ****         (void)OS_EventTaskRdy(pevent, pmsg, OS_STAT_Q, OS_STAT_PEND_OK);
 1136              		.loc 1 624 0
 1137 0034 3968     		ldr	r1, [r7]
 1138 0036 7868     		ldr	r0, [r7, #4]
ARM GAS  C:\Users\ADMINI~1\AppData\Local\Temp\cc9sCsDg.s 			page 32


 1139 0038 0023     		movs	r3, #0
 1140 003a 0422     		movs	r2, #4
 1141 003c FFF7FEFF 		bl	OS_EventTaskRdy
 625:..\..\..\..\..\..\Software\uCOS-II\Source/os_q.c ****         OS_EXIT_CRITICAL();
 1142              		.loc 1 625 0
 1143 0040 FB68     		ldr	r3, [r7, #12]
 1144 0042 1800     		movs	r0, r3
 1145 0044 FFF7FEFF 		bl	OS_CPU_SR_Restore
 626:..\..\..\..\..\..\Software\uCOS-II\Source/os_q.c ****         OS_Sched();                                    /* Find highest priority task ready to run  
 1146              		.loc 1 626 0
 1147 0048 FFF7FEFF 		bl	OS_Sched
 627:..\..\..\..\..\..\Software\uCOS-II\Source/os_q.c ****         return (OS_ERR_NONE);
 1148              		.loc 1 627 0
 1149 004c 0023     		movs	r3, #0
 1150 004e 2AE0     		b	.L67
 1151              	.L69:
 628:..\..\..\..\..\..\Software\uCOS-II\Source/os_q.c ****     }
 629:..\..\..\..\..\..\Software\uCOS-II\Source/os_q.c ****     pq = (OS_Q *)pevent->OSEventPtr;                   /* Point to queue control block             
 1152              		.loc 1 629 0
 1153 0050 7B68     		ldr	r3, [r7, #4]
 1154 0052 5B68     		ldr	r3, [r3, #4]
 1155 0054 BB60     		str	r3, [r7, #8]
 630:..\..\..\..\..\..\Software\uCOS-II\Source/os_q.c ****     if (pq->OSQEntries >= pq->OSQSize) {               /* Make sure queue is not full              
 1156              		.loc 1 630 0
 1157 0056 BB68     		ldr	r3, [r7, #8]
 1158 0058 DA8A     		ldrh	r2, [r3, #22]
 1159 005a BB68     		ldr	r3, [r7, #8]
 1160 005c 9B8A     		ldrh	r3, [r3, #20]
 1161 005e 9A42     		cmp	r2, r3
 1162 0060 05D3     		bcc	.L70
 631:..\..\..\..\..\..\Software\uCOS-II\Source/os_q.c ****         OS_EXIT_CRITICAL();
 1163              		.loc 1 631 0
 1164 0062 FB68     		ldr	r3, [r7, #12]
 1165 0064 1800     		movs	r0, r3
 1166 0066 FFF7FEFF 		bl	OS_CPU_SR_Restore
 632:..\..\..\..\..\..\Software\uCOS-II\Source/os_q.c ****         return (OS_ERR_Q_FULL);
 1167              		.loc 1 632 0
 1168 006a 1E23     		movs	r3, #30
 1169 006c 1BE0     		b	.L67
 1170              	.L70:
 633:..\..\..\..\..\..\Software\uCOS-II\Source/os_q.c ****     }
 634:..\..\..\..\..\..\Software\uCOS-II\Source/os_q.c ****     *pq->OSQIn++ = pmsg;                               /* Insert message into queue                
 1171              		.loc 1 634 0
 1172 006e BB68     		ldr	r3, [r7, #8]
 1173 0070 DB68     		ldr	r3, [r3, #12]
 1174 0072 191D     		adds	r1, r3, #4
 1175 0074 BA68     		ldr	r2, [r7, #8]
 1176 0076 D160     		str	r1, [r2, #12]
 1177 0078 3A68     		ldr	r2, [r7]
 1178 007a 1A60     		str	r2, [r3]
 635:..\..\..\..\..\..\Software\uCOS-II\Source/os_q.c ****     pq->OSQEntries++;                                  /* Update the nbr of entries in the queue   
 1179              		.loc 1 635 0
 1180 007c BB68     		ldr	r3, [r7, #8]
 1181 007e DB8A     		ldrh	r3, [r3, #22]
 1182 0080 0133     		adds	r3, r3, #1
 1183 0082 9AB2     		uxth	r2, r3
 1184 0084 BB68     		ldr	r3, [r7, #8]
ARM GAS  C:\Users\ADMINI~1\AppData\Local\Temp\cc9sCsDg.s 			page 33


 1185 0086 DA82     		strh	r2, [r3, #22]
 636:..\..\..\..\..\..\Software\uCOS-II\Source/os_q.c ****     if (pq->OSQIn == pq->OSQEnd) {                     /* Wrap IN ptr if we are at end of queue    
 1186              		.loc 1 636 0
 1187 0088 BB68     		ldr	r3, [r7, #8]
 1188 008a DA68     		ldr	r2, [r3, #12]
 1189 008c BB68     		ldr	r3, [r7, #8]
 1190 008e 9B68     		ldr	r3, [r3, #8]
 1191 0090 9A42     		cmp	r2, r3
 1192 0092 03D1     		bne	.L71
 637:..\..\..\..\..\..\Software\uCOS-II\Source/os_q.c ****         pq->OSQIn = pq->OSQStart;
 1193              		.loc 1 637 0
 1194 0094 BB68     		ldr	r3, [r7, #8]
 1195 0096 5A68     		ldr	r2, [r3, #4]
 1196 0098 BB68     		ldr	r3, [r7, #8]
 1197 009a DA60     		str	r2, [r3, #12]
 1198              	.L71:
 638:..\..\..\..\..\..\Software\uCOS-II\Source/os_q.c ****     }
 639:..\..\..\..\..\..\Software\uCOS-II\Source/os_q.c ****     OS_EXIT_CRITICAL();
 1199              		.loc 1 639 0
 1200 009c FB68     		ldr	r3, [r7, #12]
 1201 009e 1800     		movs	r0, r3
 1202 00a0 FFF7FEFF 		bl	OS_CPU_SR_Restore
 640:..\..\..\..\..\..\Software\uCOS-II\Source/os_q.c ****     return (OS_ERR_NONE);
 1203              		.loc 1 640 0
 1204 00a4 0023     		movs	r3, #0
 1205              	.L67:
 641:..\..\..\..\..\..\Software\uCOS-II\Source/os_q.c **** }
 1206              		.loc 1 641 0
 1207 00a6 1800     		movs	r0, r3
 1208 00a8 BD46     		mov	sp, r7
 1209 00aa 04B0     		add	sp, sp, #16
 1210              		@ sp needed
 1211 00ac 80BD     		pop	{r7, pc}
 1212              		.cfi_endproc
 1213              	.LFE7:
 1214              		.size	OSQPost, .-OSQPost
 1215 00ae C046     		.section	.text.OSQPostFront,"ax",%progbits
 1216              		.align	2
 1217              		.global	OSQPostFront
 1218              		.code	16
 1219              		.thumb_func
 1220              		.type	OSQPostFront, %function
 1221              	OSQPostFront:
 1222              	.LFB8:
 642:..\..\..\..\..\..\Software\uCOS-II\Source/os_q.c **** #endif
 643:..\..\..\..\..\..\Software\uCOS-II\Source/os_q.c **** /*$PAGE*/
 644:..\..\..\..\..\..\Software\uCOS-II\Source/os_q.c **** /*
 645:..\..\..\..\..\..\Software\uCOS-II\Source/os_q.c **** ***************************************************************************************************
 646:..\..\..\..\..\..\Software\uCOS-II\Source/os_q.c **** *                                POST MESSAGE TO THE FRONT OF A QUEUE
 647:..\..\..\..\..\..\Software\uCOS-II\Source/os_q.c **** *
 648:..\..\..\..\..\..\Software\uCOS-II\Source/os_q.c **** * Description: This function sends a message to a queue but unlike OSQPost(), the message is posted
 649:..\..\..\..\..\..\Software\uCOS-II\Source/os_q.c **** *              the front instead of the end of the queue.  Using OSQPostFront() allows you to send
 650:..\..\..\..\..\..\Software\uCOS-II\Source/os_q.c **** *              'priority' messages.
 651:..\..\..\..\..\..\Software\uCOS-II\Source/os_q.c **** *
 652:..\..\..\..\..\..\Software\uCOS-II\Source/os_q.c **** * Arguments  : pevent        is a pointer to the event control block associated with the desired qu
 653:..\..\..\..\..\..\Software\uCOS-II\Source/os_q.c **** *
 654:..\..\..\..\..\..\Software\uCOS-II\Source/os_q.c **** *              pmsg          is a pointer to the message to send.
ARM GAS  C:\Users\ADMINI~1\AppData\Local\Temp\cc9sCsDg.s 			page 34


 655:..\..\..\..\..\..\Software\uCOS-II\Source/os_q.c **** *
 656:..\..\..\..\..\..\Software\uCOS-II\Source/os_q.c **** * Returns    : OS_ERR_NONE           The call was successful and the message was sent
 657:..\..\..\..\..\..\Software\uCOS-II\Source/os_q.c **** *              OS_ERR_Q_FULL         If the queue cannot accept any more messages because it is ful
 658:..\..\..\..\..\..\Software\uCOS-II\Source/os_q.c **** *              OS_ERR_EVENT_TYPE     If you didn't pass a pointer to a queue.
 659:..\..\..\..\..\..\Software\uCOS-II\Source/os_q.c **** *              OS_ERR_PEVENT_NULL    If 'pevent' is a NULL pointer
 660:..\..\..\..\..\..\Software\uCOS-II\Source/os_q.c **** *
 661:..\..\..\..\..\..\Software\uCOS-II\Source/os_q.c **** * Note(s)    : As of V2.60, this function allows you to send NULL pointer messages.
 662:..\..\..\..\..\..\Software\uCOS-II\Source/os_q.c **** ***************************************************************************************************
 663:..\..\..\..\..\..\Software\uCOS-II\Source/os_q.c **** */
 664:..\..\..\..\..\..\Software\uCOS-II\Source/os_q.c **** 
 665:..\..\..\..\..\..\Software\uCOS-II\Source/os_q.c **** #if OS_Q_POST_FRONT_EN > 0u
 666:..\..\..\..\..\..\Software\uCOS-II\Source/os_q.c **** INT8U  OSQPostFront (OS_EVENT  *pevent,
 667:..\..\..\..\..\..\Software\uCOS-II\Source/os_q.c ****                      void      *pmsg)
 668:..\..\..\..\..\..\Software\uCOS-II\Source/os_q.c **** {
 1223              		.loc 1 668 0
 1224              		.cfi_startproc
 1225              		@ args = 0, pretend = 0, frame = 16
 1226              		@ frame_needed = 1, uses_anonymous_args = 0
 1227 0000 80B5     		push	{r7, lr}
 1228              		.cfi_def_cfa_offset 8
 1229              		.cfi_offset 7, -8
 1230              		.cfi_offset 14, -4
 1231 0002 84B0     		sub	sp, sp, #16
 1232              		.cfi_def_cfa_offset 24
 1233 0004 00AF     		add	r7, sp, #0
 1234              		.cfi_def_cfa_register 7
 1235 0006 7860     		str	r0, [r7, #4]
 1236 0008 3960     		str	r1, [r7]
 669:..\..\..\..\..\..\Software\uCOS-II\Source/os_q.c ****     OS_Q      *pq;
 670:..\..\..\..\..\..\Software\uCOS-II\Source/os_q.c **** #if OS_CRITICAL_METHOD == 3u                          /* Allocate storage for CPU status register  
 671:..\..\..\..\..\..\Software\uCOS-II\Source/os_q.c ****     OS_CPU_SR  cpu_sr = 0u;
 1237              		.loc 1 671 0
 1238 000a 0023     		movs	r3, #0
 1239 000c FB60     		str	r3, [r7, #12]
 672:..\..\..\..\..\..\Software\uCOS-II\Source/os_q.c **** #endif
 673:..\..\..\..\..\..\Software\uCOS-II\Source/os_q.c **** 
 674:..\..\..\..\..\..\Software\uCOS-II\Source/os_q.c **** 
 675:..\..\..\..\..\..\Software\uCOS-II\Source/os_q.c **** 
 676:..\..\..\..\..\..\Software\uCOS-II\Source/os_q.c **** #if OS_ARG_CHK_EN > 0u
 677:..\..\..\..\..\..\Software\uCOS-II\Source/os_q.c ****     if (pevent == (OS_EVENT *)0) {                    /* Validate 'pevent'                         
 1240              		.loc 1 677 0
 1241 000e 7B68     		ldr	r3, [r7, #4]
 1242 0010 002B     		cmp	r3, #0
 1243 0012 01D1     		bne	.L73
 678:..\..\..\..\..\..\Software\uCOS-II\Source/os_q.c ****         return (OS_ERR_PEVENT_NULL);
 1244              		.loc 1 678 0
 1245 0014 0423     		movs	r3, #4
 1246 0016 48E0     		b	.L74
 1247              	.L73:
 679:..\..\..\..\..\..\Software\uCOS-II\Source/os_q.c ****     }
 680:..\..\..\..\..\..\Software\uCOS-II\Source/os_q.c **** #endif
 681:..\..\..\..\..\..\Software\uCOS-II\Source/os_q.c ****     if (pevent->OSEventType != OS_EVENT_TYPE_Q) {     /* Validate event block type                 
 1248              		.loc 1 681 0
 1249 0018 7B68     		ldr	r3, [r7, #4]
 1250 001a 1B78     		ldrb	r3, [r3]
 1251 001c 022B     		cmp	r3, #2
 1252 001e 01D0     		beq	.L75
ARM GAS  C:\Users\ADMINI~1\AppData\Local\Temp\cc9sCsDg.s 			page 35


 682:..\..\..\..\..\..\Software\uCOS-II\Source/os_q.c ****         return (OS_ERR_EVENT_TYPE);
 1253              		.loc 1 682 0
 1254 0020 0123     		movs	r3, #1
 1255 0022 42E0     		b	.L74
 1256              	.L75:
 683:..\..\..\..\..\..\Software\uCOS-II\Source/os_q.c ****     }
 684:..\..\..\..\..\..\Software\uCOS-II\Source/os_q.c ****     OS_ENTER_CRITICAL();
 1257              		.loc 1 684 0
 1258 0024 FFF7FEFF 		bl	OS_CPU_SR_Save
 1259 0028 0300     		movs	r3, r0
 1260 002a FB60     		str	r3, [r7, #12]
 685:..\..\..\..\..\..\Software\uCOS-II\Source/os_q.c ****     if (pevent->OSEventGrp != 0u) {                   /* See if any task pending on queue          
 1261              		.loc 1 685 0
 1262 002c 7B68     		ldr	r3, [r7, #4]
 1263 002e 9B7A     		ldrb	r3, [r3, #10]
 1264 0030 002B     		cmp	r3, #0
 1265 0032 0DD0     		beq	.L76
 686:..\..\..\..\..\..\Software\uCOS-II\Source/os_q.c ****                                                       /* Ready highest priority task waiting on eve
 687:..\..\..\..\..\..\Software\uCOS-II\Source/os_q.c ****         (void)OS_EventTaskRdy(pevent, pmsg, OS_STAT_Q, OS_STAT_PEND_OK);
 1266              		.loc 1 687 0
 1267 0034 3968     		ldr	r1, [r7]
 1268 0036 7868     		ldr	r0, [r7, #4]
 1269 0038 0023     		movs	r3, #0
 1270 003a 0422     		movs	r2, #4
 1271 003c FFF7FEFF 		bl	OS_EventTaskRdy
 688:..\..\..\..\..\..\Software\uCOS-II\Source/os_q.c ****         OS_EXIT_CRITICAL();
 1272              		.loc 1 688 0
 1273 0040 FB68     		ldr	r3, [r7, #12]
 1274 0042 1800     		movs	r0, r3
 1275 0044 FFF7FEFF 		bl	OS_CPU_SR_Restore
 689:..\..\..\..\..\..\Software\uCOS-II\Source/os_q.c ****         OS_Sched();                                   /* Find highest priority task ready to run   
 1276              		.loc 1 689 0
 1277 0048 FFF7FEFF 		bl	OS_Sched
 690:..\..\..\..\..\..\Software\uCOS-II\Source/os_q.c ****         return (OS_ERR_NONE);
 1278              		.loc 1 690 0
 1279 004c 0023     		movs	r3, #0
 1280 004e 2CE0     		b	.L74
 1281              	.L76:
 691:..\..\..\..\..\..\Software\uCOS-II\Source/os_q.c ****     }
 692:..\..\..\..\..\..\Software\uCOS-II\Source/os_q.c ****     pq = (OS_Q *)pevent->OSEventPtr;                  /* Point to queue control block              
 1282              		.loc 1 692 0
 1283 0050 7B68     		ldr	r3, [r7, #4]
 1284 0052 5B68     		ldr	r3, [r3, #4]
 1285 0054 BB60     		str	r3, [r7, #8]
 693:..\..\..\..\..\..\Software\uCOS-II\Source/os_q.c ****     if (pq->OSQEntries >= pq->OSQSize) {              /* Make sure queue is not full               
 1286              		.loc 1 693 0
 1287 0056 BB68     		ldr	r3, [r7, #8]
 1288 0058 DA8A     		ldrh	r2, [r3, #22]
 1289 005a BB68     		ldr	r3, [r7, #8]
 1290 005c 9B8A     		ldrh	r3, [r3, #20]
 1291 005e 9A42     		cmp	r2, r3
 1292 0060 05D3     		bcc	.L77
 694:..\..\..\..\..\..\Software\uCOS-II\Source/os_q.c ****         OS_EXIT_CRITICAL();
 1293              		.loc 1 694 0
 1294 0062 FB68     		ldr	r3, [r7, #12]
 1295 0064 1800     		movs	r0, r3
 1296 0066 FFF7FEFF 		bl	OS_CPU_SR_Restore
ARM GAS  C:\Users\ADMINI~1\AppData\Local\Temp\cc9sCsDg.s 			page 36


 695:..\..\..\..\..\..\Software\uCOS-II\Source/os_q.c ****         return (OS_ERR_Q_FULL);
 1297              		.loc 1 695 0
 1298 006a 1E23     		movs	r3, #30
 1299 006c 1DE0     		b	.L74
 1300              	.L77:
 696:..\..\..\..\..\..\Software\uCOS-II\Source/os_q.c ****     }
 697:..\..\..\..\..\..\Software\uCOS-II\Source/os_q.c ****     if (pq->OSQOut == pq->OSQStart) {                 /* Wrap OUT ptr if we are at the 1st queue en
 1301              		.loc 1 697 0
 1302 006e BB68     		ldr	r3, [r7, #8]
 1303 0070 1A69     		ldr	r2, [r3, #16]
 1304 0072 BB68     		ldr	r3, [r7, #8]
 1305 0074 5B68     		ldr	r3, [r3, #4]
 1306 0076 9A42     		cmp	r2, r3
 1307 0078 03D1     		bne	.L78
 698:..\..\..\..\..\..\Software\uCOS-II\Source/os_q.c ****         pq->OSQOut = pq->OSQEnd;
 1308              		.loc 1 698 0
 1309 007a BB68     		ldr	r3, [r7, #8]
 1310 007c 9A68     		ldr	r2, [r3, #8]
 1311 007e BB68     		ldr	r3, [r7, #8]
 1312 0080 1A61     		str	r2, [r3, #16]
 1313              	.L78:
 699:..\..\..\..\..\..\Software\uCOS-II\Source/os_q.c ****     }
 700:..\..\..\..\..\..\Software\uCOS-II\Source/os_q.c ****     pq->OSQOut--;
 1314              		.loc 1 700 0
 1315 0082 BB68     		ldr	r3, [r7, #8]
 1316 0084 1B69     		ldr	r3, [r3, #16]
 1317 0086 1A1F     		subs	r2, r3, #4
 1318 0088 BB68     		ldr	r3, [r7, #8]
 1319 008a 1A61     		str	r2, [r3, #16]
 701:..\..\..\..\..\..\Software\uCOS-II\Source/os_q.c ****     *pq->OSQOut = pmsg;                               /* Insert message into queue                 
 1320              		.loc 1 701 0
 1321 008c BB68     		ldr	r3, [r7, #8]
 1322 008e 1B69     		ldr	r3, [r3, #16]
 1323 0090 3A68     		ldr	r2, [r7]
 1324 0092 1A60     		str	r2, [r3]
 702:..\..\..\..\..\..\Software\uCOS-II\Source/os_q.c ****     pq->OSQEntries++;                                 /* Update the nbr of entries in the queue    
 1325              		.loc 1 702 0
 1326 0094 BB68     		ldr	r3, [r7, #8]
 1327 0096 DB8A     		ldrh	r3, [r3, #22]
 1328 0098 0133     		adds	r3, r3, #1
 1329 009a 9AB2     		uxth	r2, r3
 1330 009c BB68     		ldr	r3, [r7, #8]
 1331 009e DA82     		strh	r2, [r3, #22]
 703:..\..\..\..\..\..\Software\uCOS-II\Source/os_q.c ****     OS_EXIT_CRITICAL();
 1332              		.loc 1 703 0
 1333 00a0 FB68     		ldr	r3, [r7, #12]
 1334 00a2 1800     		movs	r0, r3
 1335 00a4 FFF7FEFF 		bl	OS_CPU_SR_Restore
 704:..\..\..\..\..\..\Software\uCOS-II\Source/os_q.c ****     return (OS_ERR_NONE);
 1336              		.loc 1 704 0
 1337 00a8 0023     		movs	r3, #0
 1338              	.L74:
 705:..\..\..\..\..\..\Software\uCOS-II\Source/os_q.c **** }
 1339              		.loc 1 705 0
 1340 00aa 1800     		movs	r0, r3
 1341 00ac BD46     		mov	sp, r7
 1342 00ae 04B0     		add	sp, sp, #16
ARM GAS  C:\Users\ADMINI~1\AppData\Local\Temp\cc9sCsDg.s 			page 37


 1343              		@ sp needed
 1344 00b0 80BD     		pop	{r7, pc}
 1345              		.cfi_endproc
 1346              	.LFE8:
 1347              		.size	OSQPostFront, .-OSQPostFront
 1348 00b2 C046     		.section	.text.OSQPostOpt,"ax",%progbits
 1349              		.align	2
 1350              		.global	OSQPostOpt
 1351              		.code	16
 1352              		.thumb_func
 1353              		.type	OSQPostOpt, %function
 1354              	OSQPostOpt:
 1355              	.LFB9:
 706:..\..\..\..\..\..\Software\uCOS-II\Source/os_q.c **** #endif
 707:..\..\..\..\..\..\Software\uCOS-II\Source/os_q.c **** /*$PAGE*/
 708:..\..\..\..\..\..\Software\uCOS-II\Source/os_q.c **** /*
 709:..\..\..\..\..\..\Software\uCOS-II\Source/os_q.c **** ***************************************************************************************************
 710:..\..\..\..\..\..\Software\uCOS-II\Source/os_q.c **** *                                       POST MESSAGE TO A QUEUE
 711:..\..\..\..\..\..\Software\uCOS-II\Source/os_q.c **** *
 712:..\..\..\..\..\..\Software\uCOS-II\Source/os_q.c **** * Description: This function sends a message to a queue.  This call has been added to reduce code s
 713:..\..\..\..\..\..\Software\uCOS-II\Source/os_q.c **** *              since it can replace both OSQPost() and OSQPostFront().  Also, this function adds th
 714:..\..\..\..\..\..\Software\uCOS-II\Source/os_q.c **** *              capability to broadcast a message to ALL tasks waiting on the message queue.
 715:..\..\..\..\..\..\Software\uCOS-II\Source/os_q.c **** *
 716:..\..\..\..\..\..\Software\uCOS-II\Source/os_q.c **** * Arguments  : pevent        is a pointer to the event control block associated with the desired qu
 717:..\..\..\..\..\..\Software\uCOS-II\Source/os_q.c **** *
 718:..\..\..\..\..\..\Software\uCOS-II\Source/os_q.c **** *              pmsg          is a pointer to the message to send.
 719:..\..\..\..\..\..\Software\uCOS-II\Source/os_q.c **** *
 720:..\..\..\..\..\..\Software\uCOS-II\Source/os_q.c **** *              opt           determines the type of POST performed:
 721:..\..\..\..\..\..\Software\uCOS-II\Source/os_q.c **** *                            OS_POST_OPT_NONE         POST to a single waiting task
 722:..\..\..\..\..\..\Software\uCOS-II\Source/os_q.c **** *                                                     (Identical to OSQPost())
 723:..\..\..\..\..\..\Software\uCOS-II\Source/os_q.c **** *                            OS_POST_OPT_BROADCAST    POST to ALL tasks that are waiting on the que
 724:..\..\..\..\..\..\Software\uCOS-II\Source/os_q.c **** *                            OS_POST_OPT_FRONT        POST as LIFO (Simulates OSQPostFront())
 725:..\..\..\..\..\..\Software\uCOS-II\Source/os_q.c **** *                            OS_POST_OPT_NO_SCHED     Indicates that the scheduler will NOT be invo
 726:..\..\..\..\..\..\Software\uCOS-II\Source/os_q.c **** *
 727:..\..\..\..\..\..\Software\uCOS-II\Source/os_q.c **** * Returns    : OS_ERR_NONE           The call was successful and the message was sent
 728:..\..\..\..\..\..\Software\uCOS-II\Source/os_q.c **** *              OS_ERR_Q_FULL         If the queue cannot accept any more messages because it is ful
 729:..\..\..\..\..\..\Software\uCOS-II\Source/os_q.c **** *              OS_ERR_EVENT_TYPE     If you didn't pass a pointer to a queue.
 730:..\..\..\..\..\..\Software\uCOS-II\Source/os_q.c **** *              OS_ERR_PEVENT_NULL    If 'pevent' is a NULL pointer
 731:..\..\..\..\..\..\Software\uCOS-II\Source/os_q.c **** *
 732:..\..\..\..\..\..\Software\uCOS-II\Source/os_q.c **** * Warning    : Interrupts can be disabled for a long time if you do a 'broadcast'.  In fact, the
 733:..\..\..\..\..\..\Software\uCOS-II\Source/os_q.c **** *              interrupt disable time is proportional to the number of tasks waiting on the queue.
 734:..\..\..\..\..\..\Software\uCOS-II\Source/os_q.c **** ***************************************************************************************************
 735:..\..\..\..\..\..\Software\uCOS-II\Source/os_q.c **** */
 736:..\..\..\..\..\..\Software\uCOS-II\Source/os_q.c **** 
 737:..\..\..\..\..\..\Software\uCOS-II\Source/os_q.c **** #if OS_Q_POST_OPT_EN > 0u
 738:..\..\..\..\..\..\Software\uCOS-II\Source/os_q.c **** INT8U  OSQPostOpt (OS_EVENT  *pevent,
 739:..\..\..\..\..\..\Software\uCOS-II\Source/os_q.c ****                    void      *pmsg,
 740:..\..\..\..\..\..\Software\uCOS-II\Source/os_q.c ****                    INT8U      opt)
 741:..\..\..\..\..\..\Software\uCOS-II\Source/os_q.c **** {
 1356              		.loc 1 741 0
 1357              		.cfi_startproc
 1358              		@ args = 0, pretend = 0, frame = 24
 1359              		@ frame_needed = 1, uses_anonymous_args = 0
 1360 0000 80B5     		push	{r7, lr}
 1361              		.cfi_def_cfa_offset 8
 1362              		.cfi_offset 7, -8
 1363              		.cfi_offset 14, -4
ARM GAS  C:\Users\ADMINI~1\AppData\Local\Temp\cc9sCsDg.s 			page 38


 1364 0002 86B0     		sub	sp, sp, #24
 1365              		.cfi_def_cfa_offset 32
 1366 0004 00AF     		add	r7, sp, #0
 1367              		.cfi_def_cfa_register 7
 1368 0006 F860     		str	r0, [r7, #12]
 1369 0008 B960     		str	r1, [r7, #8]
 1370 000a FB1D     		adds	r3, r7, #7
 1371 000c 1A70     		strb	r2, [r3]
 742:..\..\..\..\..\..\Software\uCOS-II\Source/os_q.c ****     OS_Q      *pq;
 743:..\..\..\..\..\..\Software\uCOS-II\Source/os_q.c **** #if OS_CRITICAL_METHOD == 3u                          /* Allocate storage for CPU status register  
 744:..\..\..\..\..\..\Software\uCOS-II\Source/os_q.c ****     OS_CPU_SR  cpu_sr = 0u;
 1372              		.loc 1 744 0
 1373 000e 0023     		movs	r3, #0
 1374 0010 7B61     		str	r3, [r7, #20]
 745:..\..\..\..\..\..\Software\uCOS-II\Source/os_q.c **** #endif
 746:..\..\..\..\..\..\Software\uCOS-II\Source/os_q.c **** 
 747:..\..\..\..\..\..\Software\uCOS-II\Source/os_q.c **** 
 748:..\..\..\..\..\..\Software\uCOS-II\Source/os_q.c **** 
 749:..\..\..\..\..\..\Software\uCOS-II\Source/os_q.c **** #if OS_ARG_CHK_EN > 0u
 750:..\..\..\..\..\..\Software\uCOS-II\Source/os_q.c ****     if (pevent == (OS_EVENT *)0) {                    /* Validate 'pevent'                         
 1375              		.loc 1 750 0
 1376 0012 FB68     		ldr	r3, [r7, #12]
 1377 0014 002B     		cmp	r3, #0
 1378 0016 01D1     		bne	.L80
 751:..\..\..\..\..\..\Software\uCOS-II\Source/os_q.c ****         return (OS_ERR_PEVENT_NULL);
 1379              		.loc 1 751 0
 1380 0018 0423     		movs	r3, #4
 1381 001a 75E0     		b	.L81
 1382              	.L80:
 752:..\..\..\..\..\..\Software\uCOS-II\Source/os_q.c ****     }
 753:..\..\..\..\..\..\Software\uCOS-II\Source/os_q.c **** #endif
 754:..\..\..\..\..\..\Software\uCOS-II\Source/os_q.c ****     if (pevent->OSEventType != OS_EVENT_TYPE_Q) {     /* Validate event block type                 
 1383              		.loc 1 754 0
 1384 001c FB68     		ldr	r3, [r7, #12]
 1385 001e 1B78     		ldrb	r3, [r3]
 1386 0020 022B     		cmp	r3, #2
 1387 0022 01D0     		beq	.L82
 755:..\..\..\..\..\..\Software\uCOS-II\Source/os_q.c ****         return (OS_ERR_EVENT_TYPE);
 1388              		.loc 1 755 0
 1389 0024 0123     		movs	r3, #1
 1390 0026 6FE0     		b	.L81
 1391              	.L82:
 756:..\..\..\..\..\..\Software\uCOS-II\Source/os_q.c ****     }
 757:..\..\..\..\..\..\Software\uCOS-II\Source/os_q.c ****     OS_ENTER_CRITICAL();
 1392              		.loc 1 757 0
 1393 0028 FFF7FEFF 		bl	OS_CPU_SR_Save
 1394 002c 0300     		movs	r3, r0
 1395 002e 7B61     		str	r3, [r7, #20]
 758:..\..\..\..\..\..\Software\uCOS-II\Source/os_q.c ****     if (pevent->OSEventGrp != 0x00u) {                /* See if any task pending on queue          
 1396              		.loc 1 758 0
 1397 0030 FB68     		ldr	r3, [r7, #12]
 1398 0032 9B7A     		ldrb	r3, [r3, #10]
 1399 0034 002B     		cmp	r3, #0
 1400 0036 23D0     		beq	.L83
 759:..\..\..\..\..\..\Software\uCOS-II\Source/os_q.c ****         if ((opt & OS_POST_OPT_BROADCAST) != 0x00u) { /* Do we need to post msg to ALL waiting task
 1401              		.loc 1 759 0
 1402 0038 FB1D     		adds	r3, r7, #7
ARM GAS  C:\Users\ADMINI~1\AppData\Local\Temp\cc9sCsDg.s 			page 39


 1403 003a 1B78     		ldrb	r3, [r3]
 1404 003c 0122     		movs	r2, #1
 1405 003e 1340     		ands	r3, r2
 1406 0040 0BD0     		beq	.L84
 760:..\..\..\..\..\..\Software\uCOS-II\Source/os_q.c ****             while (pevent->OSEventGrp != 0u) {        /* Yes, Post to ALL tasks waiting on queue   
 1407              		.loc 1 760 0
 1408 0042 05E0     		b	.L85
 1409              	.L86:
 761:..\..\..\..\..\..\Software\uCOS-II\Source/os_q.c ****                 (void)OS_EventTaskRdy(pevent, pmsg, OS_STAT_Q, OS_STAT_PEND_OK);
 1410              		.loc 1 761 0
 1411 0044 B968     		ldr	r1, [r7, #8]
 1412 0046 F868     		ldr	r0, [r7, #12]
 1413 0048 0023     		movs	r3, #0
 1414 004a 0422     		movs	r2, #4
 1415 004c FFF7FEFF 		bl	OS_EventTaskRdy
 1416              	.L85:
 760:..\..\..\..\..\..\Software\uCOS-II\Source/os_q.c ****             while (pevent->OSEventGrp != 0u) {        /* Yes, Post to ALL tasks waiting on queue   
 1417              		.loc 1 760 0
 1418 0050 FB68     		ldr	r3, [r7, #12]
 1419 0052 9B7A     		ldrb	r3, [r3, #10]
 1420 0054 002B     		cmp	r3, #0
 1421 0056 F5D1     		bne	.L86
 1422 0058 05E0     		b	.L87
 1423              	.L84:
 762:..\..\..\..\..\..\Software\uCOS-II\Source/os_q.c ****             }
 763:..\..\..\..\..\..\Software\uCOS-II\Source/os_q.c ****         } else {                                      /* No,  Post to HPT waiting on queue         
 764:..\..\..\..\..\..\Software\uCOS-II\Source/os_q.c ****             (void)OS_EventTaskRdy(pevent, pmsg, OS_STAT_Q, OS_STAT_PEND_OK);
 1424              		.loc 1 764 0
 1425 005a B968     		ldr	r1, [r7, #8]
 1426 005c F868     		ldr	r0, [r7, #12]
 1427 005e 0023     		movs	r3, #0
 1428 0060 0422     		movs	r2, #4
 1429 0062 FFF7FEFF 		bl	OS_EventTaskRdy
 1430              	.L87:
 765:..\..\..\..\..\..\Software\uCOS-II\Source/os_q.c ****         }
 766:..\..\..\..\..\..\Software\uCOS-II\Source/os_q.c ****         OS_EXIT_CRITICAL();
 1431              		.loc 1 766 0
 1432 0066 7B69     		ldr	r3, [r7, #20]
 1433 0068 1800     		movs	r0, r3
 1434 006a FFF7FEFF 		bl	OS_CPU_SR_Restore
 767:..\..\..\..\..\..\Software\uCOS-II\Source/os_q.c ****         if ((opt & OS_POST_OPT_NO_SCHED) == 0u) {     /* See if scheduler needs to be invoked      
 1435              		.loc 1 767 0
 1436 006e FB1D     		adds	r3, r7, #7
 1437 0070 1B78     		ldrb	r3, [r3]
 1438 0072 0422     		movs	r2, #4
 1439 0074 1340     		ands	r3, r2
 1440 0076 01D1     		bne	.L88
 768:..\..\..\..\..\..\Software\uCOS-II\Source/os_q.c ****             OS_Sched();                               /* Find highest priority task ready to run   
 1441              		.loc 1 768 0
 1442 0078 FFF7FEFF 		bl	OS_Sched
 1443              	.L88:
 769:..\..\..\..\..\..\Software\uCOS-II\Source/os_q.c ****         }
 770:..\..\..\..\..\..\Software\uCOS-II\Source/os_q.c ****         return (OS_ERR_NONE);
 1444              		.loc 1 770 0
 1445 007c 0023     		movs	r3, #0
 1446 007e 43E0     		b	.L81
 1447              	.L83:
ARM GAS  C:\Users\ADMINI~1\AppData\Local\Temp\cc9sCsDg.s 			page 40


 771:..\..\..\..\..\..\Software\uCOS-II\Source/os_q.c ****     }
 772:..\..\..\..\..\..\Software\uCOS-II\Source/os_q.c ****     pq = (OS_Q *)pevent->OSEventPtr;                  /* Point to queue control block              
 1448              		.loc 1 772 0
 1449 0080 FB68     		ldr	r3, [r7, #12]
 1450 0082 5B68     		ldr	r3, [r3, #4]
 1451 0084 3B61     		str	r3, [r7, #16]
 773:..\..\..\..\..\..\Software\uCOS-II\Source/os_q.c ****     if (pq->OSQEntries >= pq->OSQSize) {              /* Make sure queue is not full               
 1452              		.loc 1 773 0
 1453 0086 3B69     		ldr	r3, [r7, #16]
 1454 0088 DA8A     		ldrh	r2, [r3, #22]
 1455 008a 3B69     		ldr	r3, [r7, #16]
 1456 008c 9B8A     		ldrh	r3, [r3, #20]
 1457 008e 9A42     		cmp	r2, r3
 1458 0090 05D3     		bcc	.L89
 774:..\..\..\..\..\..\Software\uCOS-II\Source/os_q.c ****         OS_EXIT_CRITICAL();
 1459              		.loc 1 774 0
 1460 0092 7B69     		ldr	r3, [r7, #20]
 1461 0094 1800     		movs	r0, r3
 1462 0096 FFF7FEFF 		bl	OS_CPU_SR_Restore
 775:..\..\..\..\..\..\Software\uCOS-II\Source/os_q.c ****         return (OS_ERR_Q_FULL);
 1463              		.loc 1 775 0
 1464 009a 1E23     		movs	r3, #30
 1465 009c 34E0     		b	.L81
 1466              	.L89:
 776:..\..\..\..\..\..\Software\uCOS-II\Source/os_q.c ****     }
 777:..\..\..\..\..\..\Software\uCOS-II\Source/os_q.c ****     if ((opt & OS_POST_OPT_FRONT) != 0x00u) {         /* Do we post to the FRONT of the queue?     
 1467              		.loc 1 777 0
 1468 009e FB1D     		adds	r3, r7, #7
 1469 00a0 1B78     		ldrb	r3, [r3]
 1470 00a2 0222     		movs	r2, #2
 1471 00a4 1340     		ands	r3, r2
 1472 00a6 13D0     		beq	.L90
 778:..\..\..\..\..\..\Software\uCOS-II\Source/os_q.c ****         if (pq->OSQOut == pq->OSQStart) {             /* Yes, Post as LIFO, Wrap OUT pointer if we 
 1473              		.loc 1 778 0
 1474 00a8 3B69     		ldr	r3, [r7, #16]
 1475 00aa 1A69     		ldr	r2, [r3, #16]
 1476 00ac 3B69     		ldr	r3, [r7, #16]
 1477 00ae 5B68     		ldr	r3, [r3, #4]
 1478 00b0 9A42     		cmp	r2, r3
 1479 00b2 03D1     		bne	.L91
 779:..\..\..\..\..\..\Software\uCOS-II\Source/os_q.c ****             pq->OSQOut = pq->OSQEnd;                  /*      ... are at the 1st queue entry       
 1480              		.loc 1 779 0
 1481 00b4 3B69     		ldr	r3, [r7, #16]
 1482 00b6 9A68     		ldr	r2, [r3, #8]
 1483 00b8 3B69     		ldr	r3, [r7, #16]
 1484 00ba 1A61     		str	r2, [r3, #16]
 1485              	.L91:
 780:..\..\..\..\..\..\Software\uCOS-II\Source/os_q.c ****         }
 781:..\..\..\..\..\..\Software\uCOS-II\Source/os_q.c ****         pq->OSQOut--;
 1486              		.loc 1 781 0
 1487 00bc 3B69     		ldr	r3, [r7, #16]
 1488 00be 1B69     		ldr	r3, [r3, #16]
 1489 00c0 1A1F     		subs	r2, r3, #4
 1490 00c2 3B69     		ldr	r3, [r7, #16]
 1491 00c4 1A61     		str	r2, [r3, #16]
 782:..\..\..\..\..\..\Software\uCOS-II\Source/os_q.c ****         *pq->OSQOut = pmsg;                           /*      Insert message into queue            
 1492              		.loc 1 782 0
ARM GAS  C:\Users\ADMINI~1\AppData\Local\Temp\cc9sCsDg.s 			page 41


 1493 00c6 3B69     		ldr	r3, [r7, #16]
 1494 00c8 1B69     		ldr	r3, [r3, #16]
 1495 00ca BA68     		ldr	r2, [r7, #8]
 1496 00cc 1A60     		str	r2, [r3]
 1497 00ce 10E0     		b	.L92
 1498              	.L90:
 783:..\..\..\..\..\..\Software\uCOS-II\Source/os_q.c ****     } else {                                          /* No,  Post as FIFO                         
 784:..\..\..\..\..\..\Software\uCOS-II\Source/os_q.c ****         *pq->OSQIn++ = pmsg;                          /*      Insert message into queue            
 1499              		.loc 1 784 0
 1500 00d0 3B69     		ldr	r3, [r7, #16]
 1501 00d2 DB68     		ldr	r3, [r3, #12]
 1502 00d4 191D     		adds	r1, r3, #4
 1503 00d6 3A69     		ldr	r2, [r7, #16]
 1504 00d8 D160     		str	r1, [r2, #12]
 1505 00da BA68     		ldr	r2, [r7, #8]
 1506 00dc 1A60     		str	r2, [r3]
 785:..\..\..\..\..\..\Software\uCOS-II\Source/os_q.c ****         if (pq->OSQIn == pq->OSQEnd) {                /*      Wrap IN ptr if we are at end of queue
 1507              		.loc 1 785 0
 1508 00de 3B69     		ldr	r3, [r7, #16]
 1509 00e0 DA68     		ldr	r2, [r3, #12]
 1510 00e2 3B69     		ldr	r3, [r7, #16]
 1511 00e4 9B68     		ldr	r3, [r3, #8]
 1512 00e6 9A42     		cmp	r2, r3
 1513 00e8 03D1     		bne	.L92
 786:..\..\..\..\..\..\Software\uCOS-II\Source/os_q.c ****             pq->OSQIn = pq->OSQStart;
 1514              		.loc 1 786 0
 1515 00ea 3B69     		ldr	r3, [r7, #16]
 1516 00ec 5A68     		ldr	r2, [r3, #4]
 1517 00ee 3B69     		ldr	r3, [r7, #16]
 1518 00f0 DA60     		str	r2, [r3, #12]
 1519              	.L92:
 787:..\..\..\..\..\..\Software\uCOS-II\Source/os_q.c ****         }
 788:..\..\..\..\..\..\Software\uCOS-II\Source/os_q.c ****     }
 789:..\..\..\..\..\..\Software\uCOS-II\Source/os_q.c ****     pq->OSQEntries++;                                 /* Update the nbr of entries in the queue    
 1520              		.loc 1 789 0
 1521 00f2 3B69     		ldr	r3, [r7, #16]
 1522 00f4 DB8A     		ldrh	r3, [r3, #22]
 1523 00f6 0133     		adds	r3, r3, #1
 1524 00f8 9AB2     		uxth	r2, r3
 1525 00fa 3B69     		ldr	r3, [r7, #16]
 1526 00fc DA82     		strh	r2, [r3, #22]
 790:..\..\..\..\..\..\Software\uCOS-II\Source/os_q.c ****     OS_EXIT_CRITICAL();
 1527              		.loc 1 790 0
 1528 00fe 7B69     		ldr	r3, [r7, #20]
 1529 0100 1800     		movs	r0, r3
 1530 0102 FFF7FEFF 		bl	OS_CPU_SR_Restore
 791:..\..\..\..\..\..\Software\uCOS-II\Source/os_q.c ****     return (OS_ERR_NONE);
 1531              		.loc 1 791 0
 1532 0106 0023     		movs	r3, #0
 1533              	.L81:
 792:..\..\..\..\..\..\Software\uCOS-II\Source/os_q.c **** }
 1534              		.loc 1 792 0
 1535 0108 1800     		movs	r0, r3
 1536 010a BD46     		mov	sp, r7
 1537 010c 06B0     		add	sp, sp, #24
 1538              		@ sp needed
 1539 010e 80BD     		pop	{r7, pc}
ARM GAS  C:\Users\ADMINI~1\AppData\Local\Temp\cc9sCsDg.s 			page 42


 1540              		.cfi_endproc
 1541              	.LFE9:
 1542              		.size	OSQPostOpt, .-OSQPostOpt
 1543              		.section	.text.OSQQuery,"ax",%progbits
 1544              		.align	2
 1545              		.global	OSQQuery
 1546              		.code	16
 1547              		.thumb_func
 1548              		.type	OSQQuery, %function
 1549              	OSQQuery:
 1550              	.LFB10:
 793:..\..\..\..\..\..\Software\uCOS-II\Source/os_q.c **** #endif
 794:..\..\..\..\..\..\Software\uCOS-II\Source/os_q.c **** /*$PAGE*/
 795:..\..\..\..\..\..\Software\uCOS-II\Source/os_q.c **** /*
 796:..\..\..\..\..\..\Software\uCOS-II\Source/os_q.c **** ***************************************************************************************************
 797:..\..\..\..\..\..\Software\uCOS-II\Source/os_q.c **** *                                        QUERY A MESSAGE QUEUE
 798:..\..\..\..\..\..\Software\uCOS-II\Source/os_q.c **** *
 799:..\..\..\..\..\..\Software\uCOS-II\Source/os_q.c **** * Description: This function obtains information about a message queue.
 800:..\..\..\..\..\..\Software\uCOS-II\Source/os_q.c **** *
 801:..\..\..\..\..\..\Software\uCOS-II\Source/os_q.c **** * Arguments  : pevent        is a pointer to the event control block associated with the desired qu
 802:..\..\..\..\..\..\Software\uCOS-II\Source/os_q.c **** *
 803:..\..\..\..\..\..\Software\uCOS-II\Source/os_q.c **** *              p_q_data      is a pointer to a structure that will contain information about the me
 804:..\..\..\..\..\..\Software\uCOS-II\Source/os_q.c **** *                            queue.
 805:..\..\..\..\..\..\Software\uCOS-II\Source/os_q.c **** *
 806:..\..\..\..\..\..\Software\uCOS-II\Source/os_q.c **** * Returns    : OS_ERR_NONE         The call was successful and the message was sent
 807:..\..\..\..\..\..\Software\uCOS-II\Source/os_q.c **** *              OS_ERR_EVENT_TYPE   If you are attempting to obtain data from a non queue.
 808:..\..\..\..\..\..\Software\uCOS-II\Source/os_q.c **** *              OS_ERR_PEVENT_NULL  If 'pevent'   is a NULL pointer
 809:..\..\..\..\..\..\Software\uCOS-II\Source/os_q.c **** *              OS_ERR_PDATA_NULL   If 'p_q_data' is a NULL pointer
 810:..\..\..\..\..\..\Software\uCOS-II\Source/os_q.c **** ***************************************************************************************************
 811:..\..\..\..\..\..\Software\uCOS-II\Source/os_q.c **** */
 812:..\..\..\..\..\..\Software\uCOS-II\Source/os_q.c **** 
 813:..\..\..\..\..\..\Software\uCOS-II\Source/os_q.c **** #if OS_Q_QUERY_EN > 0u
 814:..\..\..\..\..\..\Software\uCOS-II\Source/os_q.c **** INT8U  OSQQuery (OS_EVENT  *pevent,
 815:..\..\..\..\..\..\Software\uCOS-II\Source/os_q.c ****                  OS_Q_DATA *p_q_data)
 816:..\..\..\..\..\..\Software\uCOS-II\Source/os_q.c **** {
 1551              		.loc 1 816 0
 1552              		.cfi_startproc
 1553              		@ args = 0, pretend = 0, frame = 32
 1554              		@ frame_needed = 1, uses_anonymous_args = 0
 1555 0000 80B5     		push	{r7, lr}
 1556              		.cfi_def_cfa_offset 8
 1557              		.cfi_offset 7, -8
 1558              		.cfi_offset 14, -4
 1559 0002 88B0     		sub	sp, sp, #32
 1560              		.cfi_def_cfa_offset 40
 1561 0004 00AF     		add	r7, sp, #0
 1562              		.cfi_def_cfa_register 7
 1563 0006 7860     		str	r0, [r7, #4]
 1564 0008 3960     		str	r1, [r7]
 817:..\..\..\..\..\..\Software\uCOS-II\Source/os_q.c ****     OS_Q       *pq;
 818:..\..\..\..\..\..\Software\uCOS-II\Source/os_q.c ****     INT8U       i;
 819:..\..\..\..\..\..\Software\uCOS-II\Source/os_q.c ****     OS_PRIO    *psrc;
 820:..\..\..\..\..\..\Software\uCOS-II\Source/os_q.c ****     OS_PRIO    *pdest;
 821:..\..\..\..\..\..\Software\uCOS-II\Source/os_q.c **** #if OS_CRITICAL_METHOD == 3u                           /* Allocate storage for CPU status register 
 822:..\..\..\..\..\..\Software\uCOS-II\Source/os_q.c ****     OS_CPU_SR   cpu_sr = 0u;
 1565              		.loc 1 822 0
 1566 000a 0023     		movs	r3, #0
ARM GAS  C:\Users\ADMINI~1\AppData\Local\Temp\cc9sCsDg.s 			page 43


 1567 000c 3B61     		str	r3, [r7, #16]
 823:..\..\..\..\..\..\Software\uCOS-II\Source/os_q.c **** #endif
 824:..\..\..\..\..\..\Software\uCOS-II\Source/os_q.c **** 
 825:..\..\..\..\..\..\Software\uCOS-II\Source/os_q.c **** 
 826:..\..\..\..\..\..\Software\uCOS-II\Source/os_q.c **** 
 827:..\..\..\..\..\..\Software\uCOS-II\Source/os_q.c **** #if OS_ARG_CHK_EN > 0u
 828:..\..\..\..\..\..\Software\uCOS-II\Source/os_q.c ****     if (pevent == (OS_EVENT *)0) {                     /* Validate 'pevent'                        
 1568              		.loc 1 828 0
 1569 000e 7B68     		ldr	r3, [r7, #4]
 1570 0010 002B     		cmp	r3, #0
 1571 0012 01D1     		bne	.L94
 829:..\..\..\..\..\..\Software\uCOS-II\Source/os_q.c ****         return (OS_ERR_PEVENT_NULL);
 1572              		.loc 1 829 0
 1573 0014 0423     		movs	r3, #4
 1574 0016 4EE0     		b	.L95
 1575              	.L94:
 830:..\..\..\..\..\..\Software\uCOS-II\Source/os_q.c ****     }
 831:..\..\..\..\..\..\Software\uCOS-II\Source/os_q.c ****     if (p_q_data == (OS_Q_DATA *)0) {                  /* Validate 'p_q_data'                      
 1576              		.loc 1 831 0
 1577 0018 3B68     		ldr	r3, [r7]
 1578 001a 002B     		cmp	r3, #0
 1579 001c 01D1     		bne	.L96
 832:..\..\..\..\..\..\Software\uCOS-II\Source/os_q.c ****         return (OS_ERR_PDATA_NULL);
 1580              		.loc 1 832 0
 1581 001e 0923     		movs	r3, #9
 1582 0020 49E0     		b	.L95
 1583              	.L96:
 833:..\..\..\..\..\..\Software\uCOS-II\Source/os_q.c ****     }
 834:..\..\..\..\..\..\Software\uCOS-II\Source/os_q.c **** #endif
 835:..\..\..\..\..\..\Software\uCOS-II\Source/os_q.c ****     if (pevent->OSEventType != OS_EVENT_TYPE_Q) {      /* Validate event block type                
 1584              		.loc 1 835 0
 1585 0022 7B68     		ldr	r3, [r7, #4]
 1586 0024 1B78     		ldrb	r3, [r3]
 1587 0026 022B     		cmp	r3, #2
 1588 0028 01D0     		beq	.L97
 836:..\..\..\..\..\..\Software\uCOS-II\Source/os_q.c ****         return (OS_ERR_EVENT_TYPE);
 1589              		.loc 1 836 0
 1590 002a 0123     		movs	r3, #1
 1591 002c 43E0     		b	.L95
 1592              	.L97:
 837:..\..\..\..\..\..\Software\uCOS-II\Source/os_q.c ****     }
 838:..\..\..\..\..\..\Software\uCOS-II\Source/os_q.c ****     OS_ENTER_CRITICAL();
 1593              		.loc 1 838 0
 1594 002e FFF7FEFF 		bl	OS_CPU_SR_Save
 1595 0032 0300     		movs	r3, r0
 1596 0034 3B61     		str	r3, [r7, #16]
 839:..\..\..\..\..\..\Software\uCOS-II\Source/os_q.c ****     p_q_data->OSEventGrp = pevent->OSEventGrp;         /* Copy message queue wait list             
 1597              		.loc 1 839 0
 1598 0036 7B68     		ldr	r3, [r7, #4]
 1599 0038 9A7A     		ldrb	r2, [r3, #10]
 1600 003a 3B68     		ldr	r3, [r7]
 1601 003c 1A74     		strb	r2, [r3, #16]
 840:..\..\..\..\..\..\Software\uCOS-II\Source/os_q.c ****     psrc                 = &pevent->OSEventTbl[0];
 1602              		.loc 1 840 0
 1603 003e 7B68     		ldr	r3, [r7, #4]
 1604 0040 0B33     		adds	r3, r3, #11
 1605 0042 BB61     		str	r3, [r7, #24]
ARM GAS  C:\Users\ADMINI~1\AppData\Local\Temp\cc9sCsDg.s 			page 44


 841:..\..\..\..\..\..\Software\uCOS-II\Source/os_q.c ****     pdest                = &p_q_data->OSEventTbl[0];
 1606              		.loc 1 841 0
 1607 0044 3B68     		ldr	r3, [r7]
 1608 0046 0833     		adds	r3, r3, #8
 1609 0048 7B61     		str	r3, [r7, #20]
 842:..\..\..\..\..\..\Software\uCOS-II\Source/os_q.c ****     for (i = 0u; i < OS_EVENT_TBL_SIZE; i++) {
 1610              		.loc 1 842 0
 1611 004a 1F23     		movs	r3, #31
 1612 004c FB18     		adds	r3, r7, r3
 1613 004e 0022     		movs	r2, #0
 1614 0050 1A70     		strb	r2, [r3]
 1615 0052 0EE0     		b	.L98
 1616              	.L99:
 843:..\..\..\..\..\..\Software\uCOS-II\Source/os_q.c ****         *pdest++ = *psrc++;
 1617              		.loc 1 843 0 discriminator 3
 1618 0054 7B69     		ldr	r3, [r7, #20]
 1619 0056 5A1C     		adds	r2, r3, #1
 1620 0058 7A61     		str	r2, [r7, #20]
 1621 005a BA69     		ldr	r2, [r7, #24]
 1622 005c 511C     		adds	r1, r2, #1
 1623 005e B961     		str	r1, [r7, #24]
 1624 0060 1278     		ldrb	r2, [r2]
 1625 0062 1A70     		strb	r2, [r3]
 842:..\..\..\..\..\..\Software\uCOS-II\Source/os_q.c ****     for (i = 0u; i < OS_EVENT_TBL_SIZE; i++) {
 1626              		.loc 1 842 0 discriminator 3
 1627 0064 1F23     		movs	r3, #31
 1628 0066 FB18     		adds	r3, r7, r3
 1629 0068 1A78     		ldrb	r2, [r3]
 1630 006a 1F23     		movs	r3, #31
 1631 006c FB18     		adds	r3, r7, r3
 1632 006e 0132     		adds	r2, r2, #1
 1633 0070 1A70     		strb	r2, [r3]
 1634              	.L98:
 842:..\..\..\..\..\..\Software\uCOS-II\Source/os_q.c ****     for (i = 0u; i < OS_EVENT_TBL_SIZE; i++) {
 1635              		.loc 1 842 0 is_stmt 0 discriminator 1
 1636 0072 1F23     		movs	r3, #31
 1637 0074 FB18     		adds	r3, r7, r3
 1638 0076 1B78     		ldrb	r3, [r3]
 1639 0078 072B     		cmp	r3, #7
 1640 007a EBD9     		bls	.L99
 844:..\..\..\..\..\..\Software\uCOS-II\Source/os_q.c ****     }
 845:..\..\..\..\..\..\Software\uCOS-II\Source/os_q.c ****     pq = (OS_Q *)pevent->OSEventPtr;
 1641              		.loc 1 845 0 is_stmt 1
 1642 007c 7B68     		ldr	r3, [r7, #4]
 1643 007e 5B68     		ldr	r3, [r3, #4]
 1644 0080 FB60     		str	r3, [r7, #12]
 846:..\..\..\..\..\..\Software\uCOS-II\Source/os_q.c ****     if (pq->OSQEntries > 0u) {
 1645              		.loc 1 846 0
 1646 0082 FB68     		ldr	r3, [r7, #12]
 1647 0084 DB8A     		ldrh	r3, [r3, #22]
 1648 0086 002B     		cmp	r3, #0
 1649 0088 05D0     		beq	.L100
 847:..\..\..\..\..\..\Software\uCOS-II\Source/os_q.c ****         p_q_data->OSMsg = *pq->OSQOut;                 /* Get next message to return if available  
 1650              		.loc 1 847 0
 1651 008a FB68     		ldr	r3, [r7, #12]
 1652 008c 1B69     		ldr	r3, [r3, #16]
 1653 008e 1A68     		ldr	r2, [r3]
ARM GAS  C:\Users\ADMINI~1\AppData\Local\Temp\cc9sCsDg.s 			page 45


 1654 0090 3B68     		ldr	r3, [r7]
 1655 0092 1A60     		str	r2, [r3]
 1656 0094 02E0     		b	.L101
 1657              	.L100:
 848:..\..\..\..\..\..\Software\uCOS-II\Source/os_q.c ****     } else {
 849:..\..\..\..\..\..\Software\uCOS-II\Source/os_q.c ****         p_q_data->OSMsg = (void *)0;
 1658              		.loc 1 849 0
 1659 0096 3B68     		ldr	r3, [r7]
 1660 0098 0022     		movs	r2, #0
 1661 009a 1A60     		str	r2, [r3]
 1662              	.L101:
 850:..\..\..\..\..\..\Software\uCOS-II\Source/os_q.c ****     }
 851:..\..\..\..\..\..\Software\uCOS-II\Source/os_q.c ****     p_q_data->OSNMsgs = pq->OSQEntries;
 1663              		.loc 1 851 0
 1664 009c FB68     		ldr	r3, [r7, #12]
 1665 009e DA8A     		ldrh	r2, [r3, #22]
 1666 00a0 3B68     		ldr	r3, [r7]
 1667 00a2 9A80     		strh	r2, [r3, #4]
 852:..\..\..\..\..\..\Software\uCOS-II\Source/os_q.c ****     p_q_data->OSQSize = pq->OSQSize;
 1668              		.loc 1 852 0
 1669 00a4 FB68     		ldr	r3, [r7, #12]
 1670 00a6 9A8A     		ldrh	r2, [r3, #20]
 1671 00a8 3B68     		ldr	r3, [r7]
 1672 00aa DA80     		strh	r2, [r3, #6]
 853:..\..\..\..\..\..\Software\uCOS-II\Source/os_q.c ****     OS_EXIT_CRITICAL();
 1673              		.loc 1 853 0
 1674 00ac 3B69     		ldr	r3, [r7, #16]
 1675 00ae 1800     		movs	r0, r3
 1676 00b0 FFF7FEFF 		bl	OS_CPU_SR_Restore
 854:..\..\..\..\..\..\Software\uCOS-II\Source/os_q.c ****     return (OS_ERR_NONE);
 1677              		.loc 1 854 0
 1678 00b4 0023     		movs	r3, #0
 1679              	.L95:
 855:..\..\..\..\..\..\Software\uCOS-II\Source/os_q.c **** }
 1680              		.loc 1 855 0
 1681 00b6 1800     		movs	r0, r3
 1682 00b8 BD46     		mov	sp, r7
 1683 00ba 08B0     		add	sp, sp, #32
 1684              		@ sp needed
 1685 00bc 80BD     		pop	{r7, pc}
 1686              		.cfi_endproc
 1687              	.LFE10:
 1688              		.size	OSQQuery, .-OSQQuery
 1689 00be C046     		.section	.text.OS_QInit,"ax",%progbits
 1690              		.align	2
 1691              		.global	OS_QInit
 1692              		.code	16
 1693              		.thumb_func
 1694              		.type	OS_QInit, %function
 1695              	OS_QInit:
 1696              	.LFB11:
 856:..\..\..\..\..\..\Software\uCOS-II\Source/os_q.c **** #endif                                                 /* OS_Q_QUERY_EN                            
 857:..\..\..\..\..\..\Software\uCOS-II\Source/os_q.c **** 
 858:..\..\..\..\..\..\Software\uCOS-II\Source/os_q.c **** /*$PAGE*/
 859:..\..\..\..\..\..\Software\uCOS-II\Source/os_q.c **** /*
 860:..\..\..\..\..\..\Software\uCOS-II\Source/os_q.c **** ***************************************************************************************************
 861:..\..\..\..\..\..\Software\uCOS-II\Source/os_q.c **** *                                     QUEUE MODULE INITIALIZATION
ARM GAS  C:\Users\ADMINI~1\AppData\Local\Temp\cc9sCsDg.s 			page 46


 862:..\..\..\..\..\..\Software\uCOS-II\Source/os_q.c **** *
 863:..\..\..\..\..\..\Software\uCOS-II\Source/os_q.c **** * Description : This function is called by uC/OS-II to initialize the message queue module.  Your
 864:..\..\..\..\..\..\Software\uCOS-II\Source/os_q.c **** *               application MUST NOT call this function.
 865:..\..\..\..\..\..\Software\uCOS-II\Source/os_q.c **** *
 866:..\..\..\..\..\..\Software\uCOS-II\Source/os_q.c **** * Arguments   :  none
 867:..\..\..\..\..\..\Software\uCOS-II\Source/os_q.c **** *
 868:..\..\..\..\..\..\Software\uCOS-II\Source/os_q.c **** * Returns     : none
 869:..\..\..\..\..\..\Software\uCOS-II\Source/os_q.c **** *
 870:..\..\..\..\..\..\Software\uCOS-II\Source/os_q.c **** * Note(s)    : This function is INTERNAL to uC/OS-II and your application should not call it.
 871:..\..\..\..\..\..\Software\uCOS-II\Source/os_q.c **** ***************************************************************************************************
 872:..\..\..\..\..\..\Software\uCOS-II\Source/os_q.c **** */
 873:..\..\..\..\..\..\Software\uCOS-II\Source/os_q.c **** 
 874:..\..\..\..\..\..\Software\uCOS-II\Source/os_q.c **** void  OS_QInit (void)
 875:..\..\..\..\..\..\Software\uCOS-II\Source/os_q.c **** {
 1697              		.loc 1 875 0
 1698              		.cfi_startproc
 1699              		@ args = 0, pretend = 0, frame = 16
 1700              		@ frame_needed = 1, uses_anonymous_args = 0
 1701 0000 80B5     		push	{r7, lr}
 1702              		.cfi_def_cfa_offset 8
 1703              		.cfi_offset 7, -8
 1704              		.cfi_offset 14, -4
 1705 0002 84B0     		sub	sp, sp, #16
 1706              		.cfi_def_cfa_offset 24
 1707 0004 00AF     		add	r7, sp, #0
 1708              		.cfi_def_cfa_register 7
 876:..\..\..\..\..\..\Software\uCOS-II\Source/os_q.c **** #if OS_MAX_QS == 1u
 877:..\..\..\..\..\..\Software\uCOS-II\Source/os_q.c ****     OSQFreeList         = &OSQTbl[0];                /* Only ONE queue!                            
 878:..\..\..\..\..\..\Software\uCOS-II\Source/os_q.c ****     OSQFreeList->OSQPtr = (OS_Q *)0;
 879:..\..\..\..\..\..\Software\uCOS-II\Source/os_q.c **** #endif
 880:..\..\..\..\..\..\Software\uCOS-II\Source/os_q.c **** 
 881:..\..\..\..\..\..\Software\uCOS-II\Source/os_q.c **** #if OS_MAX_QS >= 2u
 882:..\..\..\..\..\..\Software\uCOS-II\Source/os_q.c ****     INT16U   ix;
 883:..\..\..\..\..\..\Software\uCOS-II\Source/os_q.c ****     INT16U   ix_next;
 884:..\..\..\..\..\..\Software\uCOS-II\Source/os_q.c ****     OS_Q    *pq1;
 885:..\..\..\..\..\..\Software\uCOS-II\Source/os_q.c ****     OS_Q    *pq2;
 886:..\..\..\..\..\..\Software\uCOS-II\Source/os_q.c **** 
 887:..\..\..\..\..\..\Software\uCOS-II\Source/os_q.c **** 
 888:..\..\..\..\..\..\Software\uCOS-II\Source/os_q.c **** 
 889:..\..\..\..\..\..\Software\uCOS-II\Source/os_q.c ****     OS_MemClr((INT8U *)&OSQTbl[0], sizeof(OSQTbl));  /* Clear the queue table                      
 1709              		.loc 1 889 0
 1710 0006 244B     		ldr	r3, .L105
 1711 0008 6021     		movs	r1, #96
 1712 000a 1800     		movs	r0, r3
 1713 000c FFF7FEFF 		bl	OS_MemClr
 890:..\..\..\..\..\..\Software\uCOS-II\Source/os_q.c ****     for (ix = 0u; ix < (OS_MAX_QS - 1u); ix++) {     /* Init. list of free QUEUE control blocks    
 1714              		.loc 1 890 0
 1715 0010 0E23     		movs	r3, #14
 1716 0012 FB18     		adds	r3, r7, r3
 1717 0014 0022     		movs	r2, #0
 1718 0016 1A80     		strh	r2, [r3]
 1719 0018 24E0     		b	.L103
 1720              	.L104:
 891:..\..\..\..\..\..\Software\uCOS-II\Source/os_q.c ****         ix_next = ix + 1u;
 1721              		.loc 1 891 0 discriminator 3
 1722 001a 0C23     		movs	r3, #12
 1723 001c FB18     		adds	r3, r7, r3
ARM GAS  C:\Users\ADMINI~1\AppData\Local\Temp\cc9sCsDg.s 			page 47


 1724 001e 0E22     		movs	r2, #14
 1725 0020 BA18     		adds	r2, r7, r2
 1726 0022 1288     		ldrh	r2, [r2]
 1727 0024 0132     		adds	r2, r2, #1
 1728 0026 1A80     		strh	r2, [r3]
 892:..\..\..\..\..\..\Software\uCOS-II\Source/os_q.c ****         pq1 = &OSQTbl[ix];
 1729              		.loc 1 892 0 discriminator 3
 1730 0028 0E23     		movs	r3, #14
 1731 002a FB18     		adds	r3, r7, r3
 1732 002c 1A88     		ldrh	r2, [r3]
 1733 002e 1300     		movs	r3, r2
 1734 0030 5B00     		lsls	r3, r3, #1
 1735 0032 9B18     		adds	r3, r3, r2
 1736 0034 DB00     		lsls	r3, r3, #3
 1737 0036 184A     		ldr	r2, .L105
 1738 0038 9B18     		adds	r3, r3, r2
 1739 003a BB60     		str	r3, [r7, #8]
 893:..\..\..\..\..\..\Software\uCOS-II\Source/os_q.c ****         pq2 = &OSQTbl[ix_next];
 1740              		.loc 1 893 0 discriminator 3
 1741 003c 0C23     		movs	r3, #12
 1742 003e FB18     		adds	r3, r7, r3
 1743 0040 1A88     		ldrh	r2, [r3]
 1744 0042 1300     		movs	r3, r2
 1745 0044 5B00     		lsls	r3, r3, #1
 1746 0046 9B18     		adds	r3, r3, r2
 1747 0048 DB00     		lsls	r3, r3, #3
 1748 004a 134A     		ldr	r2, .L105
 1749 004c 9B18     		adds	r3, r3, r2
 1750 004e 7B60     		str	r3, [r7, #4]
 894:..\..\..\..\..\..\Software\uCOS-II\Source/os_q.c ****         pq1->OSQPtr = pq2;
 1751              		.loc 1 894 0 discriminator 3
 1752 0050 BB68     		ldr	r3, [r7, #8]
 1753 0052 7A68     		ldr	r2, [r7, #4]
 1754 0054 1A60     		str	r2, [r3]
 890:..\..\..\..\..\..\Software\uCOS-II\Source/os_q.c ****         ix_next = ix + 1u;
 1755              		.loc 1 890 0 discriminator 3
 1756 0056 0E23     		movs	r3, #14
 1757 0058 FB18     		adds	r3, r7, r3
 1758 005a 1A88     		ldrh	r2, [r3]
 1759 005c 0E23     		movs	r3, #14
 1760 005e FB18     		adds	r3, r7, r3
 1761 0060 0132     		adds	r2, r2, #1
 1762 0062 1A80     		strh	r2, [r3]
 1763              	.L103:
 890:..\..\..\..\..\..\Software\uCOS-II\Source/os_q.c ****         ix_next = ix + 1u;
 1764              		.loc 1 890 0 is_stmt 0 discriminator 1
 1765 0064 0E23     		movs	r3, #14
 1766 0066 FB18     		adds	r3, r7, r3
 1767 0068 1B88     		ldrh	r3, [r3]
 1768 006a 022B     		cmp	r3, #2
 1769 006c D5D9     		bls	.L104
 895:..\..\..\..\..\..\Software\uCOS-II\Source/os_q.c ****     }
 896:..\..\..\..\..\..\Software\uCOS-II\Source/os_q.c ****     pq1         = &OSQTbl[ix];
 1770              		.loc 1 896 0 is_stmt 1
 1771 006e 0E23     		movs	r3, #14
 1772 0070 FB18     		adds	r3, r7, r3
 1773 0072 1A88     		ldrh	r2, [r3]
ARM GAS  C:\Users\ADMINI~1\AppData\Local\Temp\cc9sCsDg.s 			page 48


 1774 0074 1300     		movs	r3, r2
 1775 0076 5B00     		lsls	r3, r3, #1
 1776 0078 9B18     		adds	r3, r3, r2
 1777 007a DB00     		lsls	r3, r3, #3
 1778 007c 064A     		ldr	r2, .L105
 1779 007e 9B18     		adds	r3, r3, r2
 1780 0080 BB60     		str	r3, [r7, #8]
 897:..\..\..\..\..\..\Software\uCOS-II\Source/os_q.c ****     pq1->OSQPtr = (OS_Q *)0;
 1781              		.loc 1 897 0
 1782 0082 BB68     		ldr	r3, [r7, #8]
 1783 0084 0022     		movs	r2, #0
 1784 0086 1A60     		str	r2, [r3]
 898:..\..\..\..\..\..\Software\uCOS-II\Source/os_q.c ****     OSQFreeList = &OSQTbl[0];
 1785              		.loc 1 898 0
 1786 0088 044B     		ldr	r3, .L105+4
 1787 008a 034A     		ldr	r2, .L105
 1788 008c 1A60     		str	r2, [r3]
 899:..\..\..\..\..\..\Software\uCOS-II\Source/os_q.c **** #endif
 900:..\..\..\..\..\..\Software\uCOS-II\Source/os_q.c **** }
 1789              		.loc 1 900 0
 1790 008e C046     		nop
 1791 0090 BD46     		mov	sp, r7
 1792 0092 04B0     		add	sp, sp, #16
 1793              		@ sp needed
 1794 0094 80BD     		pop	{r7, pc}
 1795              	.L106:
 1796 0096 C046     		.align	2
 1797              	.L105:
 1798 0098 00000000 		.word	OSQTbl
 1799 009c 00000000 		.word	OSQFreeList
 1800              		.cfi_endproc
 1801              	.LFE11:
 1802              		.size	OS_QInit, .-OS_QInit
 1803              		.text
 1804              	.Letext0:
 1805              		.file 2 "..\\..\\..\\..\\..\\..\\Software\\uCOS-II\\Ports\\ARM-Cortex-M0\\Generic\\GNU/os_cpu.h"
 1806              		.file 3 "..\\..\\..\\..\\..\\..\\Software\\uCOS-II\\Source/ucos_ii.h"