ARM GAS  C:\Users\ADMINI~1\AppData\Local\Temp\cck0OouC.s 			page 1


   1              		.syntax unified
   2              		.cpu cortex-m0
   3              		.fpu softvfp
   4              		.eabi_attribute 20, 1
   5              		.eabi_attribute 21, 1
   6              		.eabi_attribute 23, 3
   7              		.eabi_attribute 24, 1
   8              		.eabi_attribute 25, 1
   9              		.eabi_attribute 26, 1
  10              		.eabi_attribute 30, 6
  11              		.eabi_attribute 34, 0
  12              		.eabi_attribute 18, 4
  13              		.thumb
  14              		.syntax unified
  15              		.file	"os_sem.c"
  16              		.text
  17              	.Ltext0:
  18              		.cfi_sections	.debug_frame
  19              		.section	.text.OSSemAccept,"ax",%progbits
  20              		.align	2
  21              		.global	OSSemAccept
  22              		.code	16
  23              		.thumb_func
  24              		.type	OSSemAccept, %function
  25              	OSSemAccept:
  26              	.LFB1:
  27              		.file 1 "..\\..\\..\\..\\..\\..\\Software\\uCOS-II\\Source\\os_sem.c"
   1:..\..\..\..\..\..\Software\uCOS-II\Source/os_sem.c **** /*
   2:..\..\..\..\..\..\Software\uCOS-II\Source/os_sem.c **** ***************************************************************************************************
   3:..\..\..\..\..\..\Software\uCOS-II\Source/os_sem.c **** *                                                uC/OS-II
   4:..\..\..\..\..\..\Software\uCOS-II\Source/os_sem.c **** *                                          The Real-Time Kernel
   5:..\..\..\..\..\..\Software\uCOS-II\Source/os_sem.c **** *                                          SEMAPHORE MANAGEMENT
   6:..\..\..\..\..\..\Software\uCOS-II\Source/os_sem.c **** *
   7:..\..\..\..\..\..\Software\uCOS-II\Source/os_sem.c **** *                              (c) Copyright 1992-2013, Micrium, Weston, FL
   8:..\..\..\..\..\..\Software\uCOS-II\Source/os_sem.c **** *                                           All Rights Reserved
   9:..\..\..\..\..\..\Software\uCOS-II\Source/os_sem.c **** *
  10:..\..\..\..\..\..\Software\uCOS-II\Source/os_sem.c **** * File    : OS_SEM.C
  11:..\..\..\..\..\..\Software\uCOS-II\Source/os_sem.c **** * By      : Jean J. Labrosse
  12:..\..\..\..\..\..\Software\uCOS-II\Source/os_sem.c **** * Version : V2.92.11
  13:..\..\..\..\..\..\Software\uCOS-II\Source/os_sem.c **** *
  14:..\..\..\..\..\..\Software\uCOS-II\Source/os_sem.c **** * LICENSING TERMS:
  15:..\..\..\..\..\..\Software\uCOS-II\Source/os_sem.c **** * ---------------
  16:..\..\..\..\..\..\Software\uCOS-II\Source/os_sem.c **** *   uC/OS-II is provided in source form for FREE evaluation, for educational use or for peaceful re
  17:..\..\..\..\..\..\Software\uCOS-II\Source/os_sem.c **** * If you plan on using  uC/OS-II  in a commercial product you need to contact Micrium to properly l
  18:..\..\..\..\..\..\Software\uCOS-II\Source/os_sem.c **** * its use in your product. We provide ALL the source code for your convenience and to help you expe
  19:..\..\..\..\..\..\Software\uCOS-II\Source/os_sem.c **** * uC/OS-II.   The fact that the  source is provided does  NOT  mean that you can use it without  pa
  20:..\..\..\..\..\..\Software\uCOS-II\Source/os_sem.c **** * licensing fee.
  21:..\..\..\..\..\..\Software\uCOS-II\Source/os_sem.c **** ***************************************************************************************************
  22:..\..\..\..\..\..\Software\uCOS-II\Source/os_sem.c **** */
  23:..\..\..\..\..\..\Software\uCOS-II\Source/os_sem.c **** 
  24:..\..\..\..\..\..\Software\uCOS-II\Source/os_sem.c **** #define  MICRIUM_SOURCE
  25:..\..\..\..\..\..\Software\uCOS-II\Source/os_sem.c **** 
  26:..\..\..\..\..\..\Software\uCOS-II\Source/os_sem.c **** #ifndef  OS_MASTER_FILE
  27:..\..\..\..\..\..\Software\uCOS-II\Source/os_sem.c **** #include <ucos_ii.h>
  28:..\..\..\..\..\..\Software\uCOS-II\Source/os_sem.c **** #endif
  29:..\..\..\..\..\..\Software\uCOS-II\Source/os_sem.c **** 
  30:..\..\..\..\..\..\Software\uCOS-II\Source/os_sem.c **** #if OS_SEM_EN > 0u
ARM GAS  C:\Users\ADMINI~1\AppData\Local\Temp\cck0OouC.s 			page 2


  31:..\..\..\..\..\..\Software\uCOS-II\Source/os_sem.c **** /*$PAGE*/
  32:..\..\..\..\..\..\Software\uCOS-II\Source/os_sem.c **** /*
  33:..\..\..\..\..\..\Software\uCOS-II\Source/os_sem.c **** ***************************************************************************************************
  34:..\..\..\..\..\..\Software\uCOS-II\Source/os_sem.c **** *                                          ACCEPT SEMAPHORE
  35:..\..\..\..\..\..\Software\uCOS-II\Source/os_sem.c **** *
  36:..\..\..\..\..\..\Software\uCOS-II\Source/os_sem.c **** * Description: This function checks the semaphore to see if a resource is available or, if an event
  37:..\..\..\..\..\..\Software\uCOS-II\Source/os_sem.c **** *              occurred.  Unlike OSSemPend(), OSSemAccept() does not suspend the calling task if th
  38:..\..\..\..\..\..\Software\uCOS-II\Source/os_sem.c **** *              resource is not available or the event did not occur.
  39:..\..\..\..\..\..\Software\uCOS-II\Source/os_sem.c **** *
  40:..\..\..\..\..\..\Software\uCOS-II\Source/os_sem.c **** * Arguments  : pevent     is a pointer to the event control block
  41:..\..\..\..\..\..\Software\uCOS-II\Source/os_sem.c **** *
  42:..\..\..\..\..\..\Software\uCOS-II\Source/os_sem.c **** * Returns    : >  0       if the resource is available or the event did not occur the semaphore is
  43:..\..\..\..\..\..\Software\uCOS-II\Source/os_sem.c **** *                         decremented to obtain the resource.
  44:..\..\..\..\..\..\Software\uCOS-II\Source/os_sem.c **** *              == 0       if the resource is not available or the event did not occur or,
  45:..\..\..\..\..\..\Software\uCOS-II\Source/os_sem.c **** *                         if 'pevent' is a NULL pointer or,
  46:..\..\..\..\..\..\Software\uCOS-II\Source/os_sem.c **** *                         if you didn't pass a pointer to a semaphore
  47:..\..\..\..\..\..\Software\uCOS-II\Source/os_sem.c **** ***************************************************************************************************
  48:..\..\..\..\..\..\Software\uCOS-II\Source/os_sem.c **** */
  49:..\..\..\..\..\..\Software\uCOS-II\Source/os_sem.c **** 
  50:..\..\..\..\..\..\Software\uCOS-II\Source/os_sem.c **** #if OS_SEM_ACCEPT_EN > 0u
  51:..\..\..\..\..\..\Software\uCOS-II\Source/os_sem.c **** INT16U  OSSemAccept (OS_EVENT *pevent)
  52:..\..\..\..\..\..\Software\uCOS-II\Source/os_sem.c **** {
  28              		.loc 1 52 0
  29              		.cfi_startproc
  30              		@ args = 0, pretend = 0, frame = 16
  31              		@ frame_needed = 1, uses_anonymous_args = 0
  32 0000 80B5     		push	{r7, lr}
  33              		.cfi_def_cfa_offset 8
  34              		.cfi_offset 7, -8
  35              		.cfi_offset 14, -4
  36 0002 84B0     		sub	sp, sp, #16
  37              		.cfi_def_cfa_offset 24
  38 0004 00AF     		add	r7, sp, #0
  39              		.cfi_def_cfa_register 7
  40 0006 7860     		str	r0, [r7, #4]
  53:..\..\..\..\..\..\Software\uCOS-II\Source/os_sem.c ****     INT16U     cnt;
  54:..\..\..\..\..\..\Software\uCOS-II\Source/os_sem.c **** #if OS_CRITICAL_METHOD == 3u                          /* Allocate storage for CPU status register  
  55:..\..\..\..\..\..\Software\uCOS-II\Source/os_sem.c ****     OS_CPU_SR  cpu_sr = 0u;
  41              		.loc 1 55 0
  42 0008 0023     		movs	r3, #0
  43 000a FB60     		str	r3, [r7, #12]
  56:..\..\..\..\..\..\Software\uCOS-II\Source/os_sem.c **** #endif
  57:..\..\..\..\..\..\Software\uCOS-II\Source/os_sem.c **** 
  58:..\..\..\..\..\..\Software\uCOS-II\Source/os_sem.c **** 
  59:..\..\..\..\..\..\Software\uCOS-II\Source/os_sem.c **** 
  60:..\..\..\..\..\..\Software\uCOS-II\Source/os_sem.c **** #if OS_ARG_CHK_EN > 0u
  61:..\..\..\..\..\..\Software\uCOS-II\Source/os_sem.c ****     if (pevent == (OS_EVENT *)0) {                    /* Validate 'pevent'                         
  44              		.loc 1 61 0
  45 000c 7B68     		ldr	r3, [r7, #4]
  46 000e 002B     		cmp	r3, #0
  47 0010 01D1     		bne	.L2
  62:..\..\..\..\..\..\Software\uCOS-II\Source/os_sem.c ****         return (0u);
  48              		.loc 1 62 0
  49 0012 0023     		movs	r3, #0
  50 0014 20E0     		b	.L3
  51              	.L2:
  63:..\..\..\..\..\..\Software\uCOS-II\Source/os_sem.c ****     }
ARM GAS  C:\Users\ADMINI~1\AppData\Local\Temp\cck0OouC.s 			page 3


  64:..\..\..\..\..\..\Software\uCOS-II\Source/os_sem.c **** #endif
  65:..\..\..\..\..\..\Software\uCOS-II\Source/os_sem.c ****     if (pevent->OSEventType != OS_EVENT_TYPE_SEM) {   /* Validate event block type                 
  52              		.loc 1 65 0
  53 0016 7B68     		ldr	r3, [r7, #4]
  54 0018 1B78     		ldrb	r3, [r3]
  55 001a 032B     		cmp	r3, #3
  56 001c 01D0     		beq	.L4
  66:..\..\..\..\..\..\Software\uCOS-II\Source/os_sem.c ****         return (0u);
  57              		.loc 1 66 0
  58 001e 0023     		movs	r3, #0
  59 0020 1AE0     		b	.L3
  60              	.L4:
  67:..\..\..\..\..\..\Software\uCOS-II\Source/os_sem.c ****     }
  68:..\..\..\..\..\..\Software\uCOS-II\Source/os_sem.c ****     OS_ENTER_CRITICAL();
  61              		.loc 1 68 0
  62 0022 FFF7FEFF 		bl	OS_CPU_SR_Save
  63 0026 0300     		movs	r3, r0
  64 0028 FB60     		str	r3, [r7, #12]
  69:..\..\..\..\..\..\Software\uCOS-II\Source/os_sem.c ****     cnt = pevent->OSEventCnt;
  65              		.loc 1 69 0
  66 002a 0A23     		movs	r3, #10
  67 002c FB18     		adds	r3, r7, r3
  68 002e 7A68     		ldr	r2, [r7, #4]
  69 0030 1289     		ldrh	r2, [r2, #8]
  70 0032 1A80     		strh	r2, [r3]
  70:..\..\..\..\..\..\Software\uCOS-II\Source/os_sem.c ****     if (cnt > 0u) {                                   /* See if resource is available              
  71              		.loc 1 70 0
  72 0034 0A23     		movs	r3, #10
  73 0036 FB18     		adds	r3, r7, r3
  74 0038 1B88     		ldrh	r3, [r3]
  75 003a 002B     		cmp	r3, #0
  76 003c 05D0     		beq	.L5
  71:..\..\..\..\..\..\Software\uCOS-II\Source/os_sem.c ****         pevent->OSEventCnt--;                         /* Yes, decrement semaphore and notify caller
  77              		.loc 1 71 0
  78 003e 7B68     		ldr	r3, [r7, #4]
  79 0040 1B89     		ldrh	r3, [r3, #8]
  80 0042 013B     		subs	r3, r3, #1
  81 0044 9AB2     		uxth	r2, r3
  82 0046 7B68     		ldr	r3, [r7, #4]
  83 0048 1A81     		strh	r2, [r3, #8]
  84              	.L5:
  72:..\..\..\..\..\..\Software\uCOS-II\Source/os_sem.c ****     }
  73:..\..\..\..\..\..\Software\uCOS-II\Source/os_sem.c ****     OS_EXIT_CRITICAL();
  85              		.loc 1 73 0
  86 004a FB68     		ldr	r3, [r7, #12]
  87 004c 1800     		movs	r0, r3
  88 004e FFF7FEFF 		bl	OS_CPU_SR_Restore
  74:..\..\..\..\..\..\Software\uCOS-II\Source/os_sem.c ****     return (cnt);                                     /* Return semaphore count                    
  89              		.loc 1 74 0
  90 0052 0A23     		movs	r3, #10
  91 0054 FB18     		adds	r3, r7, r3
  92 0056 1B88     		ldrh	r3, [r3]
  93              	.L3:
  75:..\..\..\..\..\..\Software\uCOS-II\Source/os_sem.c **** }
  94              		.loc 1 75 0
  95 0058 1800     		movs	r0, r3
  96 005a BD46     		mov	sp, r7
ARM GAS  C:\Users\ADMINI~1\AppData\Local\Temp\cck0OouC.s 			page 4


  97 005c 04B0     		add	sp, sp, #16
  98              		@ sp needed
  99 005e 80BD     		pop	{r7, pc}
 100              		.cfi_endproc
 101              	.LFE1:
 102              		.size	OSSemAccept, .-OSSemAccept
 103              		.section	.rodata
 104              		.align	2
 105              	.LC2:
 106 0000 3F00     		.ascii	"?\000"
 107              		.section	.text.OSSemCreate,"ax",%progbits
 108              		.align	2
 109              		.global	OSSemCreate
 110              		.code	16
 111              		.thumb_func
 112              		.type	OSSemCreate, %function
 113              	OSSemCreate:
 114              	.LFB2:
  76:..\..\..\..\..\..\Software\uCOS-II\Source/os_sem.c **** #endif
  77:..\..\..\..\..\..\Software\uCOS-II\Source/os_sem.c **** 
  78:..\..\..\..\..\..\Software\uCOS-II\Source/os_sem.c **** /*$PAGE*/
  79:..\..\..\..\..\..\Software\uCOS-II\Source/os_sem.c **** /*
  80:..\..\..\..\..\..\Software\uCOS-II\Source/os_sem.c **** ***************************************************************************************************
  81:..\..\..\..\..\..\Software\uCOS-II\Source/os_sem.c **** *                                         CREATE A SEMAPHORE
  82:..\..\..\..\..\..\Software\uCOS-II\Source/os_sem.c **** *
  83:..\..\..\..\..\..\Software\uCOS-II\Source/os_sem.c **** * Description: This function creates a semaphore.
  84:..\..\..\..\..\..\Software\uCOS-II\Source/os_sem.c **** *
  85:..\..\..\..\..\..\Software\uCOS-II\Source/os_sem.c **** * Arguments  : cnt           is the initial value for the semaphore.  If the value is 0, no resourc
  86:..\..\..\..\..\..\Software\uCOS-II\Source/os_sem.c **** *                            available (or no event has occurred).  You initialize the semaphore to
  87:..\..\..\..\..\..\Software\uCOS-II\Source/os_sem.c **** *                            non-zero value to specify how many resources are available (e.g. if yo
  88:..\..\..\..\..\..\Software\uCOS-II\Source/os_sem.c **** *                            10 resources, you would initialize the semaphore to 10).
  89:..\..\..\..\..\..\Software\uCOS-II\Source/os_sem.c **** *
  90:..\..\..\..\..\..\Software\uCOS-II\Source/os_sem.c **** * Returns    : != (void *)0  is a pointer to the event control block (OS_EVENT) associated with the
  91:..\..\..\..\..\..\Software\uCOS-II\Source/os_sem.c **** *                            created semaphore
  92:..\..\..\..\..\..\Software\uCOS-II\Source/os_sem.c **** *              == (void *)0  if no event control blocks were available
  93:..\..\..\..\..\..\Software\uCOS-II\Source/os_sem.c **** ***************************************************************************************************
  94:..\..\..\..\..\..\Software\uCOS-II\Source/os_sem.c **** */
  95:..\..\..\..\..\..\Software\uCOS-II\Source/os_sem.c **** 
  96:..\..\..\..\..\..\Software\uCOS-II\Source/os_sem.c **** OS_EVENT  *OSSemCreate (INT16U cnt)
  97:..\..\..\..\..\..\Software\uCOS-II\Source/os_sem.c **** {
 115              		.loc 1 97 0
 116              		.cfi_startproc
 117              		@ args = 0, pretend = 0, frame = 16
 118              		@ frame_needed = 1, uses_anonymous_args = 0
 119 0000 80B5     		push	{r7, lr}
 120              		.cfi_def_cfa_offset 8
 121              		.cfi_offset 7, -8
 122              		.cfi_offset 14, -4
 123 0002 84B0     		sub	sp, sp, #16
 124              		.cfi_def_cfa_offset 24
 125 0004 00AF     		add	r7, sp, #0
 126              		.cfi_def_cfa_register 7
 127 0006 0200     		movs	r2, r0
 128 0008 BB1D     		adds	r3, r7, #6
 129 000a 1A80     		strh	r2, [r3]
  98:..\..\..\..\..\..\Software\uCOS-II\Source/os_sem.c ****     OS_EVENT  *pevent;
  99:..\..\..\..\..\..\Software\uCOS-II\Source/os_sem.c **** #if OS_CRITICAL_METHOD == 3u                               /* Allocate storage for CPU status regis
ARM GAS  C:\Users\ADMINI~1\AppData\Local\Temp\cck0OouC.s 			page 5


 100:..\..\..\..\..\..\Software\uCOS-II\Source/os_sem.c ****     OS_CPU_SR  cpu_sr = 0u;
 130              		.loc 1 100 0
 131 000c 0023     		movs	r3, #0
 132 000e FB60     		str	r3, [r7, #12]
 101:..\..\..\..\..\..\Software\uCOS-II\Source/os_sem.c **** #endif
 102:..\..\..\..\..\..\Software\uCOS-II\Source/os_sem.c **** 
 103:..\..\..\..\..\..\Software\uCOS-II\Source/os_sem.c **** 
 104:..\..\..\..\..\..\Software\uCOS-II\Source/os_sem.c **** 
 105:..\..\..\..\..\..\Software\uCOS-II\Source/os_sem.c **** #ifdef OS_SAFETY_CRITICAL_IEC61508
 106:..\..\..\..\..\..\Software\uCOS-II\Source/os_sem.c ****     if (OSSafetyCriticalStartFlag == OS_TRUE) {
 107:..\..\..\..\..\..\Software\uCOS-II\Source/os_sem.c ****         OS_SAFETY_CRITICAL_EXCEPTION();
 108:..\..\..\..\..\..\Software\uCOS-II\Source/os_sem.c ****         return ((OS_EVENT *)0);
 109:..\..\..\..\..\..\Software\uCOS-II\Source/os_sem.c ****     }
 110:..\..\..\..\..\..\Software\uCOS-II\Source/os_sem.c **** #endif
 111:..\..\..\..\..\..\Software\uCOS-II\Source/os_sem.c **** 
 112:..\..\..\..\..\..\Software\uCOS-II\Source/os_sem.c ****     if (OSIntNesting > 0u) {                               /* See if called from ISR ...           
 133              		.loc 1 112 0
 134 0010 194B     		ldr	r3, .L11
 135 0012 1B78     		ldrb	r3, [r3]
 136 0014 002B     		cmp	r3, #0
 137 0016 01D0     		beq	.L7
 113:..\..\..\..\..\..\Software\uCOS-II\Source/os_sem.c ****         return ((OS_EVENT *)0);                            /* ... can't CREATE from an ISR         
 138              		.loc 1 113 0
 139 0018 0023     		movs	r3, #0
 140 001a 28E0     		b	.L8
 141              	.L7:
 114:..\..\..\..\..\..\Software\uCOS-II\Source/os_sem.c ****     }
 115:..\..\..\..\..\..\Software\uCOS-II\Source/os_sem.c ****     OS_ENTER_CRITICAL();
 142              		.loc 1 115 0
 143 001c FFF7FEFF 		bl	OS_CPU_SR_Save
 144 0020 0300     		movs	r3, r0
 145 0022 FB60     		str	r3, [r7, #12]
 116:..\..\..\..\..\..\Software\uCOS-II\Source/os_sem.c ****     pevent = OSEventFreeList;                              /* Get next free event control block    
 146              		.loc 1 116 0
 147 0024 154B     		ldr	r3, .L11+4
 148 0026 1B68     		ldr	r3, [r3]
 149 0028 BB60     		str	r3, [r7, #8]
 117:..\..\..\..\..\..\Software\uCOS-II\Source/os_sem.c ****     if (OSEventFreeList != (OS_EVENT *)0) {                /* See if pool of free ECB pool was empt
 150              		.loc 1 117 0
 151 002a 144B     		ldr	r3, .L11+4
 152 002c 1B68     		ldr	r3, [r3]
 153 002e 002B     		cmp	r3, #0
 154 0030 04D0     		beq	.L9
 118:..\..\..\..\..\..\Software\uCOS-II\Source/os_sem.c ****         OSEventFreeList = (OS_EVENT *)OSEventFreeList->OSEventPtr;
 155              		.loc 1 118 0
 156 0032 124B     		ldr	r3, .L11+4
 157 0034 1B68     		ldr	r3, [r3]
 158 0036 5A68     		ldr	r2, [r3, #4]
 159 0038 104B     		ldr	r3, .L11+4
 160 003a 1A60     		str	r2, [r3]
 161              	.L9:
 119:..\..\..\..\..\..\Software\uCOS-II\Source/os_sem.c ****     }
 120:..\..\..\..\..\..\Software\uCOS-II\Source/os_sem.c ****     OS_EXIT_CRITICAL();
 162              		.loc 1 120 0
 163 003c FB68     		ldr	r3, [r7, #12]
 164 003e 1800     		movs	r0, r3
 165 0040 FFF7FEFF 		bl	OS_CPU_SR_Restore
ARM GAS  C:\Users\ADMINI~1\AppData\Local\Temp\cck0OouC.s 			page 6


 121:..\..\..\..\..\..\Software\uCOS-II\Source/os_sem.c ****     if (pevent != (OS_EVENT *)0) {                         /* Get an event control block           
 166              		.loc 1 121 0
 167 0044 BB68     		ldr	r3, [r7, #8]
 168 0046 002B     		cmp	r3, #0
 169 0048 10D0     		beq	.L10
 122:..\..\..\..\..\..\Software\uCOS-II\Source/os_sem.c ****         pevent->OSEventType    = OS_EVENT_TYPE_SEM;
 170              		.loc 1 122 0
 171 004a BB68     		ldr	r3, [r7, #8]
 172 004c 0322     		movs	r2, #3
 173 004e 1A70     		strb	r2, [r3]
 123:..\..\..\..\..\..\Software\uCOS-II\Source/os_sem.c ****         pevent->OSEventCnt     = cnt;                      /* Set semaphore value                  
 174              		.loc 1 123 0
 175 0050 BB68     		ldr	r3, [r7, #8]
 176 0052 BA1D     		adds	r2, r7, #6
 177 0054 1288     		ldrh	r2, [r2]
 178 0056 1A81     		strh	r2, [r3, #8]
 124:..\..\..\..\..\..\Software\uCOS-II\Source/os_sem.c ****         pevent->OSEventPtr     = (void *)0;                /* Unlink from ECB free list            
 179              		.loc 1 124 0
 180 0058 BB68     		ldr	r3, [r7, #8]
 181 005a 0022     		movs	r2, #0
 182 005c 5A60     		str	r2, [r3, #4]
 125:..\..\..\..\..\..\Software\uCOS-II\Source/os_sem.c **** #if OS_EVENT_NAME_EN > 0u
 126:..\..\..\..\..\..\Software\uCOS-II\Source/os_sem.c ****         pevent->OSEventName    = (INT8U *)(void *)"?";
 183              		.loc 1 126 0
 184 005e BB68     		ldr	r3, [r7, #8]
 185 0060 074A     		ldr	r2, .L11+8
 186 0062 5A61     		str	r2, [r3, #20]
 127:..\..\..\..\..\..\Software\uCOS-II\Source/os_sem.c **** #endif
 128:..\..\..\..\..\..\Software\uCOS-II\Source/os_sem.c ****         OS_EventWaitListInit(pevent);                      /* Initialize to 'nobody waiting' on sem
 187              		.loc 1 128 0
 188 0064 BB68     		ldr	r3, [r7, #8]
 189 0066 1800     		movs	r0, r3
 190 0068 FFF7FEFF 		bl	OS_EventWaitListInit
 191              	.L10:
 129:..\..\..\..\..\..\Software\uCOS-II\Source/os_sem.c ****     }
 130:..\..\..\..\..\..\Software\uCOS-II\Source/os_sem.c ****     return (pevent);
 192              		.loc 1 130 0
 193 006c BB68     		ldr	r3, [r7, #8]
 194              	.L8:
 131:..\..\..\..\..\..\Software\uCOS-II\Source/os_sem.c **** }
 195              		.loc 1 131 0
 196 006e 1800     		movs	r0, r3
 197 0070 BD46     		mov	sp, r7
 198 0072 04B0     		add	sp, sp, #16
 199              		@ sp needed
 200 0074 80BD     		pop	{r7, pc}
 201              	.L12:
 202 0076 C046     		.align	2
 203              	.L11:
 204 0078 00000000 		.word	OSIntNesting
 205 007c 00000000 		.word	OSEventFreeList
 206 0080 00000000 		.word	.LC2
 207              		.cfi_endproc
 208              	.LFE2:
 209              		.size	OSSemCreate, .-OSSemCreate
 210              		.section	.text.OSSemDel,"ax",%progbits
 211              		.align	2
ARM GAS  C:\Users\ADMINI~1\AppData\Local\Temp\cck0OouC.s 			page 7


 212              		.global	OSSemDel
 213              		.code	16
 214              		.thumb_func
 215              		.type	OSSemDel, %function
 216              	OSSemDel:
 217              	.LFB3:
 132:..\..\..\..\..\..\Software\uCOS-II\Source/os_sem.c **** 
 133:..\..\..\..\..\..\Software\uCOS-II\Source/os_sem.c **** /*$PAGE*/
 134:..\..\..\..\..\..\Software\uCOS-II\Source/os_sem.c **** /*
 135:..\..\..\..\..\..\Software\uCOS-II\Source/os_sem.c **** ***************************************************************************************************
 136:..\..\..\..\..\..\Software\uCOS-II\Source/os_sem.c **** *                                         DELETE A SEMAPHORE
 137:..\..\..\..\..\..\Software\uCOS-II\Source/os_sem.c **** *
 138:..\..\..\..\..\..\Software\uCOS-II\Source/os_sem.c **** * Description: This function deletes a semaphore and readies all tasks pending on the semaphore.
 139:..\..\..\..\..\..\Software\uCOS-II\Source/os_sem.c **** *
 140:..\..\..\..\..\..\Software\uCOS-II\Source/os_sem.c **** * Arguments  : pevent        is a pointer to the event control block associated with the desired
 141:..\..\..\..\..\..\Software\uCOS-II\Source/os_sem.c **** *                            semaphore.
 142:..\..\..\..\..\..\Software\uCOS-II\Source/os_sem.c **** *
 143:..\..\..\..\..\..\Software\uCOS-II\Source/os_sem.c **** *              opt           determines delete options as follows:
 144:..\..\..\..\..\..\Software\uCOS-II\Source/os_sem.c **** *                            opt == OS_DEL_NO_PEND   Delete semaphore ONLY if no task pending
 145:..\..\..\..\..\..\Software\uCOS-II\Source/os_sem.c **** *                            opt == OS_DEL_ALWAYS    Deletes the semaphore even if tasks are waitin
 146:..\..\..\..\..\..\Software\uCOS-II\Source/os_sem.c **** *                                                    In this case, all the tasks pending will be re
 147:..\..\..\..\..\..\Software\uCOS-II\Source/os_sem.c **** *
 148:..\..\..\..\..\..\Software\uCOS-II\Source/os_sem.c **** *              perr          is a pointer to an error code that can contain one of the following va
 149:..\..\..\..\..\..\Software\uCOS-II\Source/os_sem.c **** *                            OS_ERR_NONE             The call was successful and the semaphore was 
 150:..\..\..\..\..\..\Software\uCOS-II\Source/os_sem.c **** *                            OS_ERR_DEL_ISR          If you attempted to delete the semaphore from 
 151:..\..\..\..\..\..\Software\uCOS-II\Source/os_sem.c **** *                            OS_ERR_INVALID_OPT      An invalid option was specified
 152:..\..\..\..\..\..\Software\uCOS-II\Source/os_sem.c **** *                            OS_ERR_TASK_WAITING     One or more tasks were waiting on the semaphor
 153:..\..\..\..\..\..\Software\uCOS-II\Source/os_sem.c **** *                            OS_ERR_EVENT_TYPE       If you didn't pass a pointer to a semaphore
 154:..\..\..\..\..\..\Software\uCOS-II\Source/os_sem.c **** *                            OS_ERR_PEVENT_NULL      If 'pevent' is a NULL pointer.
 155:..\..\..\..\..\..\Software\uCOS-II\Source/os_sem.c **** *
 156:..\..\..\..\..\..\Software\uCOS-II\Source/os_sem.c **** * Returns    : pevent        upon error
 157:..\..\..\..\..\..\Software\uCOS-II\Source/os_sem.c **** *              (OS_EVENT *)0 if the semaphore was successfully deleted.
 158:..\..\..\..\..\..\Software\uCOS-II\Source/os_sem.c **** *
 159:..\..\..\..\..\..\Software\uCOS-II\Source/os_sem.c **** * Note(s)    : 1) This function must be used with care.  Tasks that would normally expect the prese
 160:..\..\..\..\..\..\Software\uCOS-II\Source/os_sem.c **** *                 the semaphore MUST check the return code of OSSemPend().
 161:..\..\..\..\..\..\Software\uCOS-II\Source/os_sem.c **** *              2) OSSemAccept() callers will not know that the intended semaphore has been deleted 
 162:..\..\..\..\..\..\Software\uCOS-II\Source/os_sem.c **** *                 they check 'pevent' to see that it's a NULL pointer.
 163:..\..\..\..\..\..\Software\uCOS-II\Source/os_sem.c **** *              3) This call can potentially disable interrupts for a long time.  The interrupt disa
 164:..\..\..\..\..\..\Software\uCOS-II\Source/os_sem.c **** *                 time is directly proportional to the number of tasks waiting on the semaphore.
 165:..\..\..\..\..\..\Software\uCOS-II\Source/os_sem.c **** *              4) Because ALL tasks pending on the semaphore will be readied, you MUST be careful i
 166:..\..\..\..\..\..\Software\uCOS-II\Source/os_sem.c **** *                 applications where the semaphore is used for mutual exclusion because the resourc
 167:..\..\..\..\..\..\Software\uCOS-II\Source/os_sem.c **** *                 will no longer be guarded by the semaphore.
 168:..\..\..\..\..\..\Software\uCOS-II\Source/os_sem.c **** *              5) All tasks that were waiting for the semaphore will be readied and returned an 
 169:..\..\..\..\..\..\Software\uCOS-II\Source/os_sem.c **** *                 OS_ERR_PEND_ABORT if OSSemDel() was called with OS_DEL_ALWAYS
 170:..\..\..\..\..\..\Software\uCOS-II\Source/os_sem.c **** ***************************************************************************************************
 171:..\..\..\..\..\..\Software\uCOS-II\Source/os_sem.c **** */
 172:..\..\..\..\..\..\Software\uCOS-II\Source/os_sem.c **** 
 173:..\..\..\..\..\..\Software\uCOS-II\Source/os_sem.c **** #if OS_SEM_DEL_EN > 0u
 174:..\..\..\..\..\..\Software\uCOS-II\Source/os_sem.c **** OS_EVENT  *OSSemDel (OS_EVENT  *pevent,
 175:..\..\..\..\..\..\Software\uCOS-II\Source/os_sem.c ****                      INT8U      opt,
 176:..\..\..\..\..\..\Software\uCOS-II\Source/os_sem.c ****                      INT8U     *perr)
 177:..\..\..\..\..\..\Software\uCOS-II\Source/os_sem.c **** {
 218              		.loc 1 177 0
 219              		.cfi_startproc
 220              		@ args = 0, pretend = 0, frame = 32
 221              		@ frame_needed = 1, uses_anonymous_args = 0
 222 0000 80B5     		push	{r7, lr}
ARM GAS  C:\Users\ADMINI~1\AppData\Local\Temp\cck0OouC.s 			page 8


 223              		.cfi_def_cfa_offset 8
 224              		.cfi_offset 7, -8
 225              		.cfi_offset 14, -4
 226 0002 88B0     		sub	sp, sp, #32
 227              		.cfi_def_cfa_offset 40
 228 0004 00AF     		add	r7, sp, #0
 229              		.cfi_def_cfa_register 7
 230 0006 F860     		str	r0, [r7, #12]
 231 0008 7A60     		str	r2, [r7, #4]
 232 000a 0B23     		movs	r3, #11
 233 000c FB18     		adds	r3, r7, r3
 234 000e 0A1C     		adds	r2, r1, #0
 235 0010 1A70     		strb	r2, [r3]
 178:..\..\..\..\..\..\Software\uCOS-II\Source/os_sem.c ****     BOOLEAN    tasks_waiting;
 179:..\..\..\..\..\..\Software\uCOS-II\Source/os_sem.c ****     OS_EVENT  *pevent_return;
 180:..\..\..\..\..\..\Software\uCOS-II\Source/os_sem.c **** #if OS_CRITICAL_METHOD == 3u                               /* Allocate storage for CPU status regis
 181:..\..\..\..\..\..\Software\uCOS-II\Source/os_sem.c ****     OS_CPU_SR  cpu_sr = 0u;
 236              		.loc 1 181 0
 237 0012 0023     		movs	r3, #0
 238 0014 7B61     		str	r3, [r7, #20]
 182:..\..\..\..\..\..\Software\uCOS-II\Source/os_sem.c **** #endif
 183:..\..\..\..\..\..\Software\uCOS-II\Source/os_sem.c **** 
 184:..\..\..\..\..\..\Software\uCOS-II\Source/os_sem.c **** 
 185:..\..\..\..\..\..\Software\uCOS-II\Source/os_sem.c **** 
 186:..\..\..\..\..\..\Software\uCOS-II\Source/os_sem.c **** #ifdef OS_SAFETY_CRITICAL
 187:..\..\..\..\..\..\Software\uCOS-II\Source/os_sem.c ****     if (perr == (INT8U *)0) {
 188:..\..\..\..\..\..\Software\uCOS-II\Source/os_sem.c ****         OS_SAFETY_CRITICAL_EXCEPTION();
 189:..\..\..\..\..\..\Software\uCOS-II\Source/os_sem.c ****         return ((OS_EVENT *)0);
 190:..\..\..\..\..\..\Software\uCOS-II\Source/os_sem.c ****     }
 191:..\..\..\..\..\..\Software\uCOS-II\Source/os_sem.c **** #endif
 192:..\..\..\..\..\..\Software\uCOS-II\Source/os_sem.c **** 
 193:..\..\..\..\..\..\Software\uCOS-II\Source/os_sem.c **** #if OS_ARG_CHK_EN > 0u
 194:..\..\..\..\..\..\Software\uCOS-II\Source/os_sem.c ****     if (pevent == (OS_EVENT *)0) {                         /* Validate 'pevent'                    
 239              		.loc 1 194 0
 240 0016 FB68     		ldr	r3, [r7, #12]
 241 0018 002B     		cmp	r3, #0
 242 001a 04D1     		bne	.L14
 195:..\..\..\..\..\..\Software\uCOS-II\Source/os_sem.c ****         *perr = OS_ERR_PEVENT_NULL;
 243              		.loc 1 195 0
 244 001c 7B68     		ldr	r3, [r7, #4]
 245 001e 0422     		movs	r2, #4
 246 0020 1A70     		strb	r2, [r3]
 196:..\..\..\..\..\..\Software\uCOS-II\Source/os_sem.c ****         return (pevent);
 247              		.loc 1 196 0
 248 0022 FB68     		ldr	r3, [r7, #12]
 249 0024 89E0     		b	.L15
 250              	.L14:
 197:..\..\..\..\..\..\Software\uCOS-II\Source/os_sem.c ****     }
 198:..\..\..\..\..\..\Software\uCOS-II\Source/os_sem.c **** #endif
 199:..\..\..\..\..\..\Software\uCOS-II\Source/os_sem.c ****     if (pevent->OSEventType != OS_EVENT_TYPE_SEM) {        /* Validate event block type            
 251              		.loc 1 199 0
 252 0026 FB68     		ldr	r3, [r7, #12]
 253 0028 1B78     		ldrb	r3, [r3]
 254 002a 032B     		cmp	r3, #3
 255 002c 04D0     		beq	.L16
 200:..\..\..\..\..\..\Software\uCOS-II\Source/os_sem.c ****         *perr = OS_ERR_EVENT_TYPE;
 256              		.loc 1 200 0
ARM GAS  C:\Users\ADMINI~1\AppData\Local\Temp\cck0OouC.s 			page 9


 257 002e 7B68     		ldr	r3, [r7, #4]
 258 0030 0122     		movs	r2, #1
 259 0032 1A70     		strb	r2, [r3]
 201:..\..\..\..\..\..\Software\uCOS-II\Source/os_sem.c ****         return (pevent);
 260              		.loc 1 201 0
 261 0034 FB68     		ldr	r3, [r7, #12]
 262 0036 80E0     		b	.L15
 263              	.L16:
 202:..\..\..\..\..\..\Software\uCOS-II\Source/os_sem.c ****     }
 203:..\..\..\..\..\..\Software\uCOS-II\Source/os_sem.c ****     if (OSIntNesting > 0u) {                               /* See if called from ISR ...           
 264              		.loc 1 203 0
 265 0038 424B     		ldr	r3, .L30
 266 003a 1B78     		ldrb	r3, [r3]
 267 003c 002B     		cmp	r3, #0
 268 003e 04D0     		beq	.L17
 204:..\..\..\..\..\..\Software\uCOS-II\Source/os_sem.c ****         *perr = OS_ERR_DEL_ISR;                            /* ... can't DELETE from an ISR         
 269              		.loc 1 204 0
 270 0040 7B68     		ldr	r3, [r7, #4]
 271 0042 0F22     		movs	r2, #15
 272 0044 1A70     		strb	r2, [r3]
 205:..\..\..\..\..\..\Software\uCOS-II\Source/os_sem.c ****         return (pevent);
 273              		.loc 1 205 0
 274 0046 FB68     		ldr	r3, [r7, #12]
 275 0048 77E0     		b	.L15
 276              	.L17:
 206:..\..\..\..\..\..\Software\uCOS-II\Source/os_sem.c ****     }
 207:..\..\..\..\..\..\Software\uCOS-II\Source/os_sem.c ****     OS_ENTER_CRITICAL();
 277              		.loc 1 207 0
 278 004a FFF7FEFF 		bl	OS_CPU_SR_Save
 279 004e 0300     		movs	r3, r0
 280 0050 7B61     		str	r3, [r7, #20]
 208:..\..\..\..\..\..\Software\uCOS-II\Source/os_sem.c ****     if (pevent->OSEventGrp != 0u) {                        /* See if any tasks waiting on semaphore
 281              		.loc 1 208 0
 282 0052 FB68     		ldr	r3, [r7, #12]
 283 0054 9B7A     		ldrb	r3, [r3, #10]
 284 0056 002B     		cmp	r3, #0
 285 0058 04D0     		beq	.L18
 209:..\..\..\..\..\..\Software\uCOS-II\Source/os_sem.c ****         tasks_waiting = OS_TRUE;                           /* Yes                                  
 286              		.loc 1 209 0
 287 005a 1F23     		movs	r3, #31
 288 005c FB18     		adds	r3, r7, r3
 289 005e 0122     		movs	r2, #1
 290 0060 1A70     		strb	r2, [r3]
 291 0062 03E0     		b	.L19
 292              	.L18:
 210:..\..\..\..\..\..\Software\uCOS-II\Source/os_sem.c ****     } else {
 211:..\..\..\..\..\..\Software\uCOS-II\Source/os_sem.c ****         tasks_waiting = OS_FALSE;                          /* No                                   
 293              		.loc 1 211 0
 294 0064 1F23     		movs	r3, #31
 295 0066 FB18     		adds	r3, r7, r3
 296 0068 0022     		movs	r2, #0
 297 006a 1A70     		strb	r2, [r3]
 298              	.L19:
 212:..\..\..\..\..\..\Software\uCOS-II\Source/os_sem.c ****     }
 213:..\..\..\..\..\..\Software\uCOS-II\Source/os_sem.c ****     switch (opt) {
 299              		.loc 1 213 0
 300 006c 0B23     		movs	r3, #11
ARM GAS  C:\Users\ADMINI~1\AppData\Local\Temp\cck0OouC.s 			page 10


 301 006e FB18     		adds	r3, r7, r3
 302 0070 1B78     		ldrb	r3, [r3]
 303 0072 002B     		cmp	r3, #0
 304 0074 02D0     		beq	.L21
 305 0076 012B     		cmp	r3, #1
 306 0078 2FD0     		beq	.L26
 307 007a 53E0     		b	.L29
 308              	.L21:
 214:..\..\..\..\..\..\Software\uCOS-II\Source/os_sem.c ****         case OS_DEL_NO_PEND:                               /* Delete semaphore only if no task wait
 215:..\..\..\..\..\..\Software\uCOS-II\Source/os_sem.c ****              if (tasks_waiting == OS_FALSE) {
 309              		.loc 1 215 0
 310 007c 1F23     		movs	r3, #31
 311 007e FB18     		adds	r3, r7, r3
 312 0080 1B78     		ldrb	r3, [r3]
 313 0082 002B     		cmp	r3, #0
 314 0084 19D1     		bne	.L23
 216:..\..\..\..\..\..\Software\uCOS-II\Source/os_sem.c **** #if OS_EVENT_NAME_EN > 0u
 217:..\..\..\..\..\..\Software\uCOS-II\Source/os_sem.c ****                  pevent->OSEventName    = (INT8U *)(void *)"?";
 315              		.loc 1 217 0
 316 0086 FB68     		ldr	r3, [r7, #12]
 317 0088 2F4A     		ldr	r2, .L30+4
 318 008a 5A61     		str	r2, [r3, #20]
 218:..\..\..\..\..\..\Software\uCOS-II\Source/os_sem.c **** #endif
 219:..\..\..\..\..\..\Software\uCOS-II\Source/os_sem.c ****                  pevent->OSEventType    = OS_EVENT_TYPE_UNUSED;
 319              		.loc 1 219 0
 320 008c FB68     		ldr	r3, [r7, #12]
 321 008e 0022     		movs	r2, #0
 322 0090 1A70     		strb	r2, [r3]
 220:..\..\..\..\..\..\Software\uCOS-II\Source/os_sem.c ****                  pevent->OSEventPtr     = OSEventFreeList; /* Return Event Control Block to free li
 323              		.loc 1 220 0
 324 0092 2E4B     		ldr	r3, .L30+8
 325 0094 1A68     		ldr	r2, [r3]
 326 0096 FB68     		ldr	r3, [r7, #12]
 327 0098 5A60     		str	r2, [r3, #4]
 221:..\..\..\..\..\..\Software\uCOS-II\Source/os_sem.c ****                  pevent->OSEventCnt     = 0u;
 328              		.loc 1 221 0
 329 009a FB68     		ldr	r3, [r7, #12]
 330 009c 0022     		movs	r2, #0
 331 009e 1A81     		strh	r2, [r3, #8]
 222:..\..\..\..\..\..\Software\uCOS-II\Source/os_sem.c ****                  OSEventFreeList        = pevent;          /* Get next free event control block    
 332              		.loc 1 222 0
 333 00a0 2A4B     		ldr	r3, .L30+8
 334 00a2 FA68     		ldr	r2, [r7, #12]
 335 00a4 1A60     		str	r2, [r3]
 223:..\..\..\..\..\..\Software\uCOS-II\Source/os_sem.c ****                  OS_EXIT_CRITICAL();
 336              		.loc 1 223 0
 337 00a6 7B69     		ldr	r3, [r7, #20]
 338 00a8 1800     		movs	r0, r3
 339 00aa FFF7FEFF 		bl	OS_CPU_SR_Restore
 224:..\..\..\..\..\..\Software\uCOS-II\Source/os_sem.c ****                  *perr                  = OS_ERR_NONE;
 340              		.loc 1 224 0
 341 00ae 7B68     		ldr	r3, [r7, #4]
 342 00b0 0022     		movs	r2, #0
 343 00b2 1A70     		strb	r2, [r3]
 225:..\..\..\..\..\..\Software\uCOS-II\Source/os_sem.c ****                  pevent_return          = (OS_EVENT *)0;   /* Semaphore has been deleted           
 344              		.loc 1 225 0
 345 00b4 0023     		movs	r3, #0
ARM GAS  C:\Users\ADMINI~1\AppData\Local\Temp\cck0OouC.s 			page 11


 346 00b6 BB61     		str	r3, [r7, #24]
 226:..\..\..\..\..\..\Software\uCOS-II\Source/os_sem.c ****              } else {
 227:..\..\..\..\..\..\Software\uCOS-II\Source/os_sem.c ****                  OS_EXIT_CRITICAL();
 228:..\..\..\..\..\..\Software\uCOS-II\Source/os_sem.c ****                  *perr                  = OS_ERR_TASK_WAITING;
 229:..\..\..\..\..\..\Software\uCOS-II\Source/os_sem.c ****                  pevent_return          = pevent;
 230:..\..\..\..\..\..\Software\uCOS-II\Source/os_sem.c ****              }
 231:..\..\..\..\..\..\Software\uCOS-II\Source/os_sem.c ****              break;
 347              		.loc 1 231 0
 348 00b8 3EE0     		b	.L25
 349              	.L23:
 227:..\..\..\..\..\..\Software\uCOS-II\Source/os_sem.c ****                  *perr                  = OS_ERR_TASK_WAITING;
 350              		.loc 1 227 0
 351 00ba 7B69     		ldr	r3, [r7, #20]
 352 00bc 1800     		movs	r0, r3
 353 00be FFF7FEFF 		bl	OS_CPU_SR_Restore
 228:..\..\..\..\..\..\Software\uCOS-II\Source/os_sem.c ****                  pevent_return          = pevent;
 354              		.loc 1 228 0
 355 00c2 7B68     		ldr	r3, [r7, #4]
 356 00c4 4922     		movs	r2, #73
 357 00c6 1A70     		strb	r2, [r3]
 229:..\..\..\..\..\..\Software\uCOS-II\Source/os_sem.c ****              }
 358              		.loc 1 229 0
 359 00c8 FB68     		ldr	r3, [r7, #12]
 360 00ca BB61     		str	r3, [r7, #24]
 361              		.loc 1 231 0
 362 00cc 34E0     		b	.L25
 363              	.L27:
 232:..\..\..\..\..\..\Software\uCOS-II\Source/os_sem.c **** 
 233:..\..\..\..\..\..\Software\uCOS-II\Source/os_sem.c ****         case OS_DEL_ALWAYS:                                /* Always delete the semaphore          
 234:..\..\..\..\..\..\Software\uCOS-II\Source/os_sem.c ****              while (pevent->OSEventGrp != 0u) {            /* Ready ALL tasks waiting for semaphore
 235:..\..\..\..\..\..\Software\uCOS-II\Source/os_sem.c ****                  (void)OS_EventTaskRdy(pevent, (void *)0, OS_STAT_SEM, OS_STAT_PEND_ABORT);
 364              		.loc 1 235 0
 365 00ce F868     		ldr	r0, [r7, #12]
 366 00d0 0223     		movs	r3, #2
 367 00d2 0122     		movs	r2, #1
 368 00d4 0021     		movs	r1, #0
 369 00d6 FFF7FEFF 		bl	OS_EventTaskRdy
 370              	.L26:
 234:..\..\..\..\..\..\Software\uCOS-II\Source/os_sem.c ****                  (void)OS_EventTaskRdy(pevent, (void *)0, OS_STAT_SEM, OS_STAT_PEND_ABORT);
 371              		.loc 1 234 0
 372 00da FB68     		ldr	r3, [r7, #12]
 373 00dc 9B7A     		ldrb	r3, [r3, #10]
 374 00de 002B     		cmp	r3, #0
 375 00e0 F5D1     		bne	.L27
 236:..\..\..\..\..\..\Software\uCOS-II\Source/os_sem.c ****              }
 237:..\..\..\..\..\..\Software\uCOS-II\Source/os_sem.c **** #if OS_EVENT_NAME_EN > 0u
 238:..\..\..\..\..\..\Software\uCOS-II\Source/os_sem.c ****              pevent->OSEventName    = (INT8U *)(void *)"?";
 376              		.loc 1 238 0
 377 00e2 FB68     		ldr	r3, [r7, #12]
 378 00e4 184A     		ldr	r2, .L30+4
 379 00e6 5A61     		str	r2, [r3, #20]
 239:..\..\..\..\..\..\Software\uCOS-II\Source/os_sem.c **** #endif
 240:..\..\..\..\..\..\Software\uCOS-II\Source/os_sem.c ****              pevent->OSEventType    = OS_EVENT_TYPE_UNUSED;
 380              		.loc 1 240 0
 381 00e8 FB68     		ldr	r3, [r7, #12]
 382 00ea 0022     		movs	r2, #0
 383 00ec 1A70     		strb	r2, [r3]
ARM GAS  C:\Users\ADMINI~1\AppData\Local\Temp\cck0OouC.s 			page 12


 241:..\..\..\..\..\..\Software\uCOS-II\Source/os_sem.c ****              pevent->OSEventPtr     = OSEventFreeList;     /* Return Event Control Block to free li
 384              		.loc 1 241 0
 385 00ee 174B     		ldr	r3, .L30+8
 386 00f0 1A68     		ldr	r2, [r3]
 387 00f2 FB68     		ldr	r3, [r7, #12]
 388 00f4 5A60     		str	r2, [r3, #4]
 242:..\..\..\..\..\..\Software\uCOS-II\Source/os_sem.c ****              pevent->OSEventCnt     = 0u;
 389              		.loc 1 242 0
 390 00f6 FB68     		ldr	r3, [r7, #12]
 391 00f8 0022     		movs	r2, #0
 392 00fa 1A81     		strh	r2, [r3, #8]
 243:..\..\..\..\..\..\Software\uCOS-II\Source/os_sem.c ****              OSEventFreeList        = pevent;              /* Get next free event control block    
 393              		.loc 1 243 0
 394 00fc 134B     		ldr	r3, .L30+8
 395 00fe FA68     		ldr	r2, [r7, #12]
 396 0100 1A60     		str	r2, [r3]
 244:..\..\..\..\..\..\Software\uCOS-II\Source/os_sem.c ****              OS_EXIT_CRITICAL();
 397              		.loc 1 244 0
 398 0102 7B69     		ldr	r3, [r7, #20]
 399 0104 1800     		movs	r0, r3
 400 0106 FFF7FEFF 		bl	OS_CPU_SR_Restore
 245:..\..\..\..\..\..\Software\uCOS-II\Source/os_sem.c ****              if (tasks_waiting == OS_TRUE) {               /* Reschedule only if task(s) were waiti
 401              		.loc 1 245 0
 402 010a 1F23     		movs	r3, #31
 403 010c FB18     		adds	r3, r7, r3
 404 010e 1B78     		ldrb	r3, [r3]
 405 0110 012B     		cmp	r3, #1
 406 0112 01D1     		bne	.L28
 246:..\..\..\..\..\..\Software\uCOS-II\Source/os_sem.c ****                  OS_Sched();                               /* Find highest priority task ready to r
 407              		.loc 1 246 0
 408 0114 FFF7FEFF 		bl	OS_Sched
 409              	.L28:
 247:..\..\..\..\..\..\Software\uCOS-II\Source/os_sem.c ****              }
 248:..\..\..\..\..\..\Software\uCOS-II\Source/os_sem.c ****              *perr                  = OS_ERR_NONE;
 410              		.loc 1 248 0
 411 0118 7B68     		ldr	r3, [r7, #4]
 412 011a 0022     		movs	r2, #0
 413 011c 1A70     		strb	r2, [r3]
 249:..\..\..\..\..\..\Software\uCOS-II\Source/os_sem.c ****              pevent_return          = (OS_EVENT *)0;       /* Semaphore has been deleted           
 414              		.loc 1 249 0
 415 011e 0023     		movs	r3, #0
 416 0120 BB61     		str	r3, [r7, #24]
 250:..\..\..\..\..\..\Software\uCOS-II\Source/os_sem.c ****              break;
 417              		.loc 1 250 0
 418 0122 09E0     		b	.L25
 419              	.L29:
 251:..\..\..\..\..\..\Software\uCOS-II\Source/os_sem.c **** 
 252:..\..\..\..\..\..\Software\uCOS-II\Source/os_sem.c ****         default:
 253:..\..\..\..\..\..\Software\uCOS-II\Source/os_sem.c ****              OS_EXIT_CRITICAL();
 420              		.loc 1 253 0
 421 0124 7B69     		ldr	r3, [r7, #20]
 422 0126 1800     		movs	r0, r3
 423 0128 FFF7FEFF 		bl	OS_CPU_SR_Restore
 254:..\..\..\..\..\..\Software\uCOS-II\Source/os_sem.c ****              *perr                  = OS_ERR_INVALID_OPT;
 424              		.loc 1 254 0
 425 012c 7B68     		ldr	r3, [r7, #4]
 426 012e 0722     		movs	r2, #7
ARM GAS  C:\Users\ADMINI~1\AppData\Local\Temp\cck0OouC.s 			page 13


 427 0130 1A70     		strb	r2, [r3]
 255:..\..\..\..\..\..\Software\uCOS-II\Source/os_sem.c ****              pevent_return          = pevent;
 428              		.loc 1 255 0
 429 0132 FB68     		ldr	r3, [r7, #12]
 430 0134 BB61     		str	r3, [r7, #24]
 256:..\..\..\..\..\..\Software\uCOS-II\Source/os_sem.c ****              break;
 431              		.loc 1 256 0
 432 0136 C046     		nop
 433              	.L25:
 257:..\..\..\..\..\..\Software\uCOS-II\Source/os_sem.c ****     }
 258:..\..\..\..\..\..\Software\uCOS-II\Source/os_sem.c ****     return (pevent_return);
 434              		.loc 1 258 0
 435 0138 BB69     		ldr	r3, [r7, #24]
 436              	.L15:
 259:..\..\..\..\..\..\Software\uCOS-II\Source/os_sem.c **** }
 437              		.loc 1 259 0
 438 013a 1800     		movs	r0, r3
 439 013c BD46     		mov	sp, r7
 440 013e 08B0     		add	sp, sp, #32
 441              		@ sp needed
 442 0140 80BD     		pop	{r7, pc}
 443              	.L31:
 444 0142 C046     		.align	2
 445              	.L30:
 446 0144 00000000 		.word	OSIntNesting
 447 0148 00000000 		.word	.LC2
 448 014c 00000000 		.word	OSEventFreeList
 449              		.cfi_endproc
 450              	.LFE3:
 451              		.size	OSSemDel, .-OSSemDel
 452              		.section	.text.OSSemPend,"ax",%progbits
 453              		.align	2
 454              		.global	OSSemPend
 455              		.code	16
 456              		.thumb_func
 457              		.type	OSSemPend, %function
 458              	OSSemPend:
 459              	.LFB4:
 260:..\..\..\..\..\..\Software\uCOS-II\Source/os_sem.c **** #endif
 261:..\..\..\..\..\..\Software\uCOS-II\Source/os_sem.c **** 
 262:..\..\..\..\..\..\Software\uCOS-II\Source/os_sem.c **** /*$PAGE*/
 263:..\..\..\..\..\..\Software\uCOS-II\Source/os_sem.c **** /*
 264:..\..\..\..\..\..\Software\uCOS-II\Source/os_sem.c **** ***************************************************************************************************
 265:..\..\..\..\..\..\Software\uCOS-II\Source/os_sem.c **** *                                          PEND ON SEMAPHORE
 266:..\..\..\..\..\..\Software\uCOS-II\Source/os_sem.c **** *
 267:..\..\..\..\..\..\Software\uCOS-II\Source/os_sem.c **** * Description: This function waits for a semaphore.
 268:..\..\..\..\..\..\Software\uCOS-II\Source/os_sem.c **** *
 269:..\..\..\..\..\..\Software\uCOS-II\Source/os_sem.c **** * Arguments  : pevent        is a pointer to the event control block associated with the desired
 270:..\..\..\..\..\..\Software\uCOS-II\Source/os_sem.c **** *                            semaphore.
 271:..\..\..\..\..\..\Software\uCOS-II\Source/os_sem.c **** *
 272:..\..\..\..\..\..\Software\uCOS-II\Source/os_sem.c **** *              timeout       is an optional timeout period (in clock ticks).  If non-zero, your tas
 273:..\..\..\..\..\..\Software\uCOS-II\Source/os_sem.c **** *                            wait for the resource up to the amount of time specified by this argum
 274:..\..\..\..\..\..\Software\uCOS-II\Source/os_sem.c **** *                            If you specify 0, however, your task will wait forever at the specifie
 275:..\..\..\..\..\..\Software\uCOS-II\Source/os_sem.c **** *                            semaphore or, until the resource becomes available (or the event occur
 276:..\..\..\..\..\..\Software\uCOS-II\Source/os_sem.c **** *
 277:..\..\..\..\..\..\Software\uCOS-II\Source/os_sem.c **** *              perr          is a pointer to where an error message will be deposited.  Possible er
 278:..\..\..\..\..\..\Software\uCOS-II\Source/os_sem.c **** *                            messages are:
ARM GAS  C:\Users\ADMINI~1\AppData\Local\Temp\cck0OouC.s 			page 14


 279:..\..\..\..\..\..\Software\uCOS-II\Source/os_sem.c **** *
 280:..\..\..\..\..\..\Software\uCOS-II\Source/os_sem.c **** *                            OS_ERR_NONE         The call was successful and your task owns the res
 281:..\..\..\..\..\..\Software\uCOS-II\Source/os_sem.c **** *                                                or, the event you are waiting for occurred.
 282:..\..\..\..\..\..\Software\uCOS-II\Source/os_sem.c **** *                            OS_ERR_TIMEOUT      The semaphore was not received within the specifie
 283:..\..\..\..\..\..\Software\uCOS-II\Source/os_sem.c **** *                                                'timeout'.
 284:..\..\..\..\..\..\Software\uCOS-II\Source/os_sem.c **** *                            OS_ERR_PEND_ABORT   The wait on the semaphore was aborted.
 285:..\..\..\..\..\..\Software\uCOS-II\Source/os_sem.c **** *                            OS_ERR_EVENT_TYPE   If you didn't pass a pointer to a semaphore.
 286:..\..\..\..\..\..\Software\uCOS-II\Source/os_sem.c **** *                            OS_ERR_PEND_ISR     If you called this function from an ISR and the re
 287:..\..\..\..\..\..\Software\uCOS-II\Source/os_sem.c **** *                                                would lead to a suspension.
 288:..\..\..\..\..\..\Software\uCOS-II\Source/os_sem.c **** *                            OS_ERR_PEVENT_NULL  If 'pevent' is a NULL pointer.
 289:..\..\..\..\..\..\Software\uCOS-II\Source/os_sem.c **** *                            OS_ERR_PEND_LOCKED  If you called this function when the scheduler is 
 290:..\..\..\..\..\..\Software\uCOS-II\Source/os_sem.c **** *
 291:..\..\..\..\..\..\Software\uCOS-II\Source/os_sem.c **** * Returns    : none
 292:..\..\..\..\..\..\Software\uCOS-II\Source/os_sem.c **** ***************************************************************************************************
 293:..\..\..\..\..\..\Software\uCOS-II\Source/os_sem.c **** */
 294:..\..\..\..\..\..\Software\uCOS-II\Source/os_sem.c **** /*$PAGE*/
 295:..\..\..\..\..\..\Software\uCOS-II\Source/os_sem.c **** void  OSSemPend (OS_EVENT  *pevent,
 296:..\..\..\..\..\..\Software\uCOS-II\Source/os_sem.c ****                  INT32U     timeout,
 297:..\..\..\..\..\..\Software\uCOS-II\Source/os_sem.c ****                  INT8U     *perr)
 298:..\..\..\..\..\..\Software\uCOS-II\Source/os_sem.c **** {
 460              		.loc 1 298 0
 461              		.cfi_startproc
 462              		@ args = 0, pretend = 0, frame = 24
 463              		@ frame_needed = 1, uses_anonymous_args = 0
 464 0000 80B5     		push	{r7, lr}
 465              		.cfi_def_cfa_offset 8
 466              		.cfi_offset 7, -8
 467              		.cfi_offset 14, -4
 468 0002 86B0     		sub	sp, sp, #24
 469              		.cfi_def_cfa_offset 32
 470 0004 00AF     		add	r7, sp, #0
 471              		.cfi_def_cfa_register 7
 472 0006 F860     		str	r0, [r7, #12]
 473 0008 B960     		str	r1, [r7, #8]
 474 000a 7A60     		str	r2, [r7, #4]
 299:..\..\..\..\..\..\Software\uCOS-II\Source/os_sem.c **** #if OS_CRITICAL_METHOD == 3u                          /* Allocate storage for CPU status register  
 300:..\..\..\..\..\..\Software\uCOS-II\Source/os_sem.c ****     OS_CPU_SR  cpu_sr = 0u;
 475              		.loc 1 300 0
 476 000c 0023     		movs	r3, #0
 477 000e 7B61     		str	r3, [r7, #20]
 301:..\..\..\..\..\..\Software\uCOS-II\Source/os_sem.c **** #endif
 302:..\..\..\..\..\..\Software\uCOS-II\Source/os_sem.c **** 
 303:..\..\..\..\..\..\Software\uCOS-II\Source/os_sem.c **** 
 304:..\..\..\..\..\..\Software\uCOS-II\Source/os_sem.c **** 
 305:..\..\..\..\..\..\Software\uCOS-II\Source/os_sem.c **** #ifdef OS_SAFETY_CRITICAL
 306:..\..\..\..\..\..\Software\uCOS-II\Source/os_sem.c ****     if (perr == (INT8U *)0) {
 307:..\..\..\..\..\..\Software\uCOS-II\Source/os_sem.c ****         OS_SAFETY_CRITICAL_EXCEPTION();
 308:..\..\..\..\..\..\Software\uCOS-II\Source/os_sem.c ****         return;
 309:..\..\..\..\..\..\Software\uCOS-II\Source/os_sem.c ****     }
 310:..\..\..\..\..\..\Software\uCOS-II\Source/os_sem.c **** #endif
 311:..\..\..\..\..\..\Software\uCOS-II\Source/os_sem.c **** 
 312:..\..\..\..\..\..\Software\uCOS-II\Source/os_sem.c **** #if OS_ARG_CHK_EN > 0u
 313:..\..\..\..\..\..\Software\uCOS-II\Source/os_sem.c ****     if (pevent == (OS_EVENT *)0) {                    /* Validate 'pevent'                         
 478              		.loc 1 313 0
 479 0010 FB68     		ldr	r3, [r7, #12]
 480 0012 002B     		cmp	r3, #0
 481 0014 03D1     		bne	.L33
ARM GAS  C:\Users\ADMINI~1\AppData\Local\Temp\cck0OouC.s 			page 15


 314:..\..\..\..\..\..\Software\uCOS-II\Source/os_sem.c ****         *perr = OS_ERR_PEVENT_NULL;
 482              		.loc 1 314 0
 483 0016 7B68     		ldr	r3, [r7, #4]
 484 0018 0422     		movs	r2, #4
 485 001a 1A70     		strb	r2, [r3]
 315:..\..\..\..\..\..\Software\uCOS-II\Source/os_sem.c ****         return;
 486              		.loc 1 315 0
 487 001c 81E0     		b	.L32
 488              	.L33:
 316:..\..\..\..\..\..\Software\uCOS-II\Source/os_sem.c ****     }
 317:..\..\..\..\..\..\Software\uCOS-II\Source/os_sem.c **** #endif
 318:..\..\..\..\..\..\Software\uCOS-II\Source/os_sem.c ****     if (pevent->OSEventType != OS_EVENT_TYPE_SEM) {   /* Validate event block type                 
 489              		.loc 1 318 0
 490 001e FB68     		ldr	r3, [r7, #12]
 491 0020 1B78     		ldrb	r3, [r3]
 492 0022 032B     		cmp	r3, #3
 493 0024 03D0     		beq	.L35
 319:..\..\..\..\..\..\Software\uCOS-II\Source/os_sem.c ****         *perr = OS_ERR_EVENT_TYPE;
 494              		.loc 1 319 0
 495 0026 7B68     		ldr	r3, [r7, #4]
 496 0028 0122     		movs	r2, #1
 497 002a 1A70     		strb	r2, [r3]
 320:..\..\..\..\..\..\Software\uCOS-II\Source/os_sem.c ****         return;
 498              		.loc 1 320 0
 499 002c 79E0     		b	.L32
 500              	.L35:
 321:..\..\..\..\..\..\Software\uCOS-II\Source/os_sem.c ****     }
 322:..\..\..\..\..\..\Software\uCOS-II\Source/os_sem.c ****     if (OSIntNesting > 0u) {                          /* See if called from ISR ...                
 501              		.loc 1 322 0
 502 002e 3E4B     		ldr	r3, .L44
 503 0030 1B78     		ldrb	r3, [r3]
 504 0032 002B     		cmp	r3, #0
 505 0034 03D0     		beq	.L36
 323:..\..\..\..\..\..\Software\uCOS-II\Source/os_sem.c ****         *perr = OS_ERR_PEND_ISR;                      /* ... can't PEND from an ISR                
 506              		.loc 1 323 0
 507 0036 7B68     		ldr	r3, [r7, #4]
 508 0038 0222     		movs	r2, #2
 509 003a 1A70     		strb	r2, [r3]
 324:..\..\..\..\..\..\Software\uCOS-II\Source/os_sem.c ****         return;
 510              		.loc 1 324 0
 511 003c 71E0     		b	.L32
 512              	.L36:
 325:..\..\..\..\..\..\Software\uCOS-II\Source/os_sem.c ****     }
 326:..\..\..\..\..\..\Software\uCOS-II\Source/os_sem.c ****     if (OSLockNesting > 0u) {                         /* See if called with scheduler locked ...   
 513              		.loc 1 326 0
 514 003e 3B4B     		ldr	r3, .L44+4
 515 0040 1B78     		ldrb	r3, [r3]
 516 0042 002B     		cmp	r3, #0
 517 0044 03D0     		beq	.L37
 327:..\..\..\..\..\..\Software\uCOS-II\Source/os_sem.c ****         *perr = OS_ERR_PEND_LOCKED;                   /* ... can't PEND when locked                
 518              		.loc 1 327 0
 519 0046 7B68     		ldr	r3, [r7, #4]
 520 0048 0D22     		movs	r2, #13
 521 004a 1A70     		strb	r2, [r3]
 328:..\..\..\..\..\..\Software\uCOS-II\Source/os_sem.c ****         return;
 522              		.loc 1 328 0
 523 004c 69E0     		b	.L32
ARM GAS  C:\Users\ADMINI~1\AppData\Local\Temp\cck0OouC.s 			page 16


 524              	.L37:
 329:..\..\..\..\..\..\Software\uCOS-II\Source/os_sem.c ****     }
 330:..\..\..\..\..\..\Software\uCOS-II\Source/os_sem.c ****     OS_ENTER_CRITICAL();
 525              		.loc 1 330 0
 526 004e FFF7FEFF 		bl	OS_CPU_SR_Save
 527 0052 0300     		movs	r3, r0
 528 0054 7B61     		str	r3, [r7, #20]
 331:..\..\..\..\..\..\Software\uCOS-II\Source/os_sem.c ****     if (pevent->OSEventCnt > 0u) {                    /* If sem. is positive, resource available ..
 529              		.loc 1 331 0
 530 0056 FB68     		ldr	r3, [r7, #12]
 531 0058 1B89     		ldrh	r3, [r3, #8]
 532 005a 002B     		cmp	r3, #0
 533 005c 0DD0     		beq	.L38
 332:..\..\..\..\..\..\Software\uCOS-II\Source/os_sem.c ****         pevent->OSEventCnt--;                         /* ... decrement semaphore only if positive. 
 534              		.loc 1 332 0
 535 005e FB68     		ldr	r3, [r7, #12]
 536 0060 1B89     		ldrh	r3, [r3, #8]
 537 0062 013B     		subs	r3, r3, #1
 538 0064 9AB2     		uxth	r2, r3
 539 0066 FB68     		ldr	r3, [r7, #12]
 540 0068 1A81     		strh	r2, [r3, #8]
 333:..\..\..\..\..\..\Software\uCOS-II\Source/os_sem.c ****         OS_EXIT_CRITICAL();
 541              		.loc 1 333 0
 542 006a 7B69     		ldr	r3, [r7, #20]
 543 006c 1800     		movs	r0, r3
 544 006e FFF7FEFF 		bl	OS_CPU_SR_Restore
 334:..\..\..\..\..\..\Software\uCOS-II\Source/os_sem.c ****         *perr = OS_ERR_NONE;
 545              		.loc 1 334 0
 546 0072 7B68     		ldr	r3, [r7, #4]
 547 0074 0022     		movs	r2, #0
 548 0076 1A70     		strb	r2, [r3]
 335:..\..\..\..\..\..\Software\uCOS-II\Source/os_sem.c ****         return;
 549              		.loc 1 335 0
 550 0078 53E0     		b	.L32
 551              	.L38:
 336:..\..\..\..\..\..\Software\uCOS-II\Source/os_sem.c ****     }
 337:..\..\..\..\..\..\Software\uCOS-II\Source/os_sem.c ****                                                       /* Otherwise, must wait until event occurs   
 338:..\..\..\..\..\..\Software\uCOS-II\Source/os_sem.c ****     OSTCBCur->OSTCBStat     |= OS_STAT_SEM;           /* Resource not available, pend on semaphore 
 552              		.loc 1 338 0
 553 007a 2D4B     		ldr	r3, .L44+8
 554 007c 1A68     		ldr	r2, [r3]
 555 007e 2C4B     		ldr	r3, .L44+8
 556 0080 1B68     		ldr	r3, [r3]
 557 0082 3421     		movs	r1, #52
 558 0084 5B5C     		ldrb	r3, [r3, r1]
 559 0086 0121     		movs	r1, #1
 560 0088 0B43     		orrs	r3, r1
 561 008a D9B2     		uxtb	r1, r3
 562 008c 3423     		movs	r3, #52
 563 008e D154     		strb	r1, [r2, r3]
 339:..\..\..\..\..\..\Software\uCOS-II\Source/os_sem.c ****     OSTCBCur->OSTCBStatPend  = OS_STAT_PEND_OK;
 564              		.loc 1 339 0
 565 0090 274B     		ldr	r3, .L44+8
 566 0092 1B68     		ldr	r3, [r3]
 567 0094 3522     		movs	r2, #53
 568 0096 0021     		movs	r1, #0
 569 0098 9954     		strb	r1, [r3, r2]
ARM GAS  C:\Users\ADMINI~1\AppData\Local\Temp\cck0OouC.s 			page 17


 340:..\..\..\..\..\..\Software\uCOS-II\Source/os_sem.c ****     OSTCBCur->OSTCBDly       = timeout;               /* Store pend timeout in TCB                 
 570              		.loc 1 340 0
 571 009a 254B     		ldr	r3, .L44+8
 572 009c 1B68     		ldr	r3, [r3]
 573 009e BA68     		ldr	r2, [r7, #8]
 574 00a0 1A63     		str	r2, [r3, #48]
 341:..\..\..\..\..\..\Software\uCOS-II\Source/os_sem.c ****     OS_EventTaskWait(pevent);                         /* Suspend task until event or timeout occurs
 575              		.loc 1 341 0
 576 00a2 FB68     		ldr	r3, [r7, #12]
 577 00a4 1800     		movs	r0, r3
 578 00a6 FFF7FEFF 		bl	OS_EventTaskWait
 342:..\..\..\..\..\..\Software\uCOS-II\Source/os_sem.c ****     OS_EXIT_CRITICAL();
 579              		.loc 1 342 0
 580 00aa 7B69     		ldr	r3, [r7, #20]
 581 00ac 1800     		movs	r0, r3
 582 00ae FFF7FEFF 		bl	OS_CPU_SR_Restore
 343:..\..\..\..\..\..\Software\uCOS-II\Source/os_sem.c ****     OS_Sched();                                       /* Find next highest priority task ready     
 583              		.loc 1 343 0
 584 00b2 FFF7FEFF 		bl	OS_Sched
 344:..\..\..\..\..\..\Software\uCOS-II\Source/os_sem.c ****     OS_ENTER_CRITICAL();
 585              		.loc 1 344 0
 586 00b6 FFF7FEFF 		bl	OS_CPU_SR_Save
 587 00ba 0300     		movs	r3, r0
 588 00bc 7B61     		str	r3, [r7, #20]
 345:..\..\..\..\..\..\Software\uCOS-II\Source/os_sem.c ****     switch (OSTCBCur->OSTCBStatPend) {                /* See if we timed-out or aborted            
 589              		.loc 1 345 0
 590 00be 1C4B     		ldr	r3, .L44+8
 591 00c0 1B68     		ldr	r3, [r3]
 592 00c2 3522     		movs	r2, #53
 593 00c4 9B5C     		ldrb	r3, [r3, r2]
 594 00c6 002B     		cmp	r3, #0
 595 00c8 02D0     		beq	.L40
 596 00ca 022B     		cmp	r3, #2
 597 00cc 04D0     		beq	.L41
 598 00ce 07E0     		b	.L43
 599              	.L40:
 346:..\..\..\..\..\..\Software\uCOS-II\Source/os_sem.c ****         case OS_STAT_PEND_OK:
 347:..\..\..\..\..\..\Software\uCOS-II\Source/os_sem.c ****              *perr = OS_ERR_NONE;
 600              		.loc 1 347 0
 601 00d0 7B68     		ldr	r3, [r7, #4]
 602 00d2 0022     		movs	r2, #0
 603 00d4 1A70     		strb	r2, [r3]
 348:..\..\..\..\..\..\Software\uCOS-II\Source/os_sem.c ****              break;
 604              		.loc 1 348 0
 605 00d6 0EE0     		b	.L42
 606              	.L41:
 349:..\..\..\..\..\..\Software\uCOS-II\Source/os_sem.c **** 
 350:..\..\..\..\..\..\Software\uCOS-II\Source/os_sem.c ****         case OS_STAT_PEND_ABORT:
 351:..\..\..\..\..\..\Software\uCOS-II\Source/os_sem.c ****              *perr = OS_ERR_PEND_ABORT;               /* Indicate that we aborted                  
 607              		.loc 1 351 0
 608 00d8 7B68     		ldr	r3, [r7, #4]
 609 00da 0E22     		movs	r2, #14
 610 00dc 1A70     		strb	r2, [r3]
 352:..\..\..\..\..\..\Software\uCOS-II\Source/os_sem.c ****              break;
 611              		.loc 1 352 0
 612 00de 0AE0     		b	.L42
 613              	.L43:
ARM GAS  C:\Users\ADMINI~1\AppData\Local\Temp\cck0OouC.s 			page 18


 353:..\..\..\..\..\..\Software\uCOS-II\Source/os_sem.c **** 
 354:..\..\..\..\..\..\Software\uCOS-II\Source/os_sem.c ****         case OS_STAT_PEND_TO:
 355:..\..\..\..\..\..\Software\uCOS-II\Source/os_sem.c ****         default:
 356:..\..\..\..\..\..\Software\uCOS-II\Source/os_sem.c ****              OS_EventTaskRemove(OSTCBCur, pevent);
 614              		.loc 1 356 0
 615 00e0 134B     		ldr	r3, .L44+8
 616 00e2 1B68     		ldr	r3, [r3]
 617 00e4 FA68     		ldr	r2, [r7, #12]
 618 00e6 1100     		movs	r1, r2
 619 00e8 1800     		movs	r0, r3
 620 00ea FFF7FEFF 		bl	OS_EventTaskRemove
 357:..\..\..\..\..\..\Software\uCOS-II\Source/os_sem.c ****              *perr = OS_ERR_TIMEOUT;                  /* Indicate that we didn't get event within T
 621              		.loc 1 357 0
 622 00ee 7B68     		ldr	r3, [r7, #4]
 623 00f0 0A22     		movs	r2, #10
 624 00f2 1A70     		strb	r2, [r3]
 358:..\..\..\..\..\..\Software\uCOS-II\Source/os_sem.c ****              break;
 625              		.loc 1 358 0
 626 00f4 C046     		nop
 627              	.L42:
 359:..\..\..\..\..\..\Software\uCOS-II\Source/os_sem.c ****     }
 360:..\..\..\..\..\..\Software\uCOS-II\Source/os_sem.c ****     OSTCBCur->OSTCBStat          =  OS_STAT_RDY;      /* Set   task  status to ready               
 628              		.loc 1 360 0
 629 00f6 0E4B     		ldr	r3, .L44+8
 630 00f8 1B68     		ldr	r3, [r3]
 631 00fa 3422     		movs	r2, #52
 632 00fc 0021     		movs	r1, #0
 633 00fe 9954     		strb	r1, [r3, r2]
 361:..\..\..\..\..\..\Software\uCOS-II\Source/os_sem.c ****     OSTCBCur->OSTCBStatPend      =  OS_STAT_PEND_OK;  /* Clear pend  status                        
 634              		.loc 1 361 0
 635 0100 0B4B     		ldr	r3, .L44+8
 636 0102 1B68     		ldr	r3, [r3]
 637 0104 3522     		movs	r2, #53
 638 0106 0021     		movs	r1, #0
 639 0108 9954     		strb	r1, [r3, r2]
 362:..\..\..\..\..\..\Software\uCOS-II\Source/os_sem.c ****     OSTCBCur->OSTCBEventPtr      = (OS_EVENT  *)0;    /* Clear event pointers                      
 640              		.loc 1 362 0
 641 010a 094B     		ldr	r3, .L44+8
 642 010c 1B68     		ldr	r3, [r3]
 643 010e 0022     		movs	r2, #0
 644 0110 DA61     		str	r2, [r3, #28]
 363:..\..\..\..\..\..\Software\uCOS-II\Source/os_sem.c **** #if (OS_EVENT_MULTI_EN > 0u)
 364:..\..\..\..\..\..\Software\uCOS-II\Source/os_sem.c ****     OSTCBCur->OSTCBEventMultiPtr = (OS_EVENT **)0;
 645              		.loc 1 364 0
 646 0112 074B     		ldr	r3, .L44+8
 647 0114 1B68     		ldr	r3, [r3]
 648 0116 0022     		movs	r2, #0
 649 0118 1A62     		str	r2, [r3, #32]
 365:..\..\..\..\..\..\Software\uCOS-II\Source/os_sem.c **** #endif
 366:..\..\..\..\..\..\Software\uCOS-II\Source/os_sem.c ****     OS_EXIT_CRITICAL();
 650              		.loc 1 366 0
 651 011a 7B69     		ldr	r3, [r7, #20]
 652 011c 1800     		movs	r0, r3
 653 011e FFF7FEFF 		bl	OS_CPU_SR_Restore
 654              	.L32:
 367:..\..\..\..\..\..\Software\uCOS-II\Source/os_sem.c **** }
 655              		.loc 1 367 0
ARM GAS  C:\Users\ADMINI~1\AppData\Local\Temp\cck0OouC.s 			page 19


 656 0122 BD46     		mov	sp, r7
 657 0124 06B0     		add	sp, sp, #24
 658              		@ sp needed
 659 0126 80BD     		pop	{r7, pc}
 660              	.L45:
 661              		.align	2
 662              	.L44:
 663 0128 00000000 		.word	OSIntNesting
 664 012c 00000000 		.word	OSLockNesting
 665 0130 00000000 		.word	OSTCBCur
 666              		.cfi_endproc
 667              	.LFE4:
 668              		.size	OSSemPend, .-OSSemPend
 669              		.section	.text.OSSemPendAbort,"ax",%progbits
 670              		.align	2
 671              		.global	OSSemPendAbort
 672              		.code	16
 673              		.thumb_func
 674              		.type	OSSemPendAbort, %function
 675              	OSSemPendAbort:
 676              	.LFB5:
 368:..\..\..\..\..\..\Software\uCOS-II\Source/os_sem.c **** 
 369:..\..\..\..\..\..\Software\uCOS-II\Source/os_sem.c **** /*$PAGE*/
 370:..\..\..\..\..\..\Software\uCOS-II\Source/os_sem.c **** /*
 371:..\..\..\..\..\..\Software\uCOS-II\Source/os_sem.c **** ***************************************************************************************************
 372:..\..\..\..\..\..\Software\uCOS-II\Source/os_sem.c **** *                                    ABORT WAITING ON A SEMAPHORE
 373:..\..\..\..\..\..\Software\uCOS-II\Source/os_sem.c **** *
 374:..\..\..\..\..\..\Software\uCOS-II\Source/os_sem.c **** * Description: This function aborts & readies any tasks currently waiting on a semaphore.  This fun
 375:..\..\..\..\..\..\Software\uCOS-II\Source/os_sem.c **** *              should be used to fault-abort the wait on the semaphore, rather than to normally sig
 376:..\..\..\..\..\..\Software\uCOS-II\Source/os_sem.c **** *              the semaphore via OSSemPost().
 377:..\..\..\..\..\..\Software\uCOS-II\Source/os_sem.c **** *
 378:..\..\..\..\..\..\Software\uCOS-II\Source/os_sem.c **** * Arguments  : pevent        is a pointer to the event control block associated with the desired
 379:..\..\..\..\..\..\Software\uCOS-II\Source/os_sem.c **** *                            semaphore.
 380:..\..\..\..\..\..\Software\uCOS-II\Source/os_sem.c **** *
 381:..\..\..\..\..\..\Software\uCOS-II\Source/os_sem.c **** *              opt           determines the type of ABORT performed:
 382:..\..\..\..\..\..\Software\uCOS-II\Source/os_sem.c **** *                            OS_PEND_OPT_NONE         ABORT wait for a single task (HPT) waiting on
 383:..\..\..\..\..\..\Software\uCOS-II\Source/os_sem.c **** *                                                     semaphore
 384:..\..\..\..\..\..\Software\uCOS-II\Source/os_sem.c **** *                            OS_PEND_OPT_BROADCAST    ABORT wait for ALL tasks that are  waiting on
 385:..\..\..\..\..\..\Software\uCOS-II\Source/os_sem.c **** *                                                     semaphore
 386:..\..\..\..\..\..\Software\uCOS-II\Source/os_sem.c **** *
 387:..\..\..\..\..\..\Software\uCOS-II\Source/os_sem.c **** *              perr          is a pointer to where an error message will be deposited.  Possible er
 388:..\..\..\..\..\..\Software\uCOS-II\Source/os_sem.c **** *                            messages are:
 389:..\..\..\..\..\..\Software\uCOS-II\Source/os_sem.c **** *
 390:..\..\..\..\..\..\Software\uCOS-II\Source/os_sem.c **** *                            OS_ERR_NONE         No tasks were     waiting on the semaphore.
 391:..\..\..\..\..\..\Software\uCOS-II\Source/os_sem.c **** *                            OS_ERR_PEND_ABORT   At least one task waiting on the semaphore was rea
 392:..\..\..\..\..\..\Software\uCOS-II\Source/os_sem.c **** *                                                and informed of the aborted wait; check return val
 393:..\..\..\..\..\..\Software\uCOS-II\Source/os_sem.c **** *                                                for the number of tasks whose wait on the semaphor
 394:..\..\..\..\..\..\Software\uCOS-II\Source/os_sem.c **** *                                                was aborted.
 395:..\..\..\..\..\..\Software\uCOS-II\Source/os_sem.c **** *                            OS_ERR_EVENT_TYPE   If you didn't pass a pointer to a semaphore.
 396:..\..\..\..\..\..\Software\uCOS-II\Source/os_sem.c **** *                            OS_ERR_PEVENT_NULL  If 'pevent' is a NULL pointer.
 397:..\..\..\..\..\..\Software\uCOS-II\Source/os_sem.c **** *
 398:..\..\..\..\..\..\Software\uCOS-II\Source/os_sem.c **** * Returns    : == 0          if no tasks were waiting on the semaphore, or upon error.
 399:..\..\..\..\..\..\Software\uCOS-II\Source/os_sem.c **** *              >  0          if one or more tasks waiting on the semaphore are now readied and info
 400:..\..\..\..\..\..\Software\uCOS-II\Source/os_sem.c **** ***************************************************************************************************
 401:..\..\..\..\..\..\Software\uCOS-II\Source/os_sem.c **** */
 402:..\..\..\..\..\..\Software\uCOS-II\Source/os_sem.c **** 
 403:..\..\..\..\..\..\Software\uCOS-II\Source/os_sem.c **** #if OS_SEM_PEND_ABORT_EN > 0u
ARM GAS  C:\Users\ADMINI~1\AppData\Local\Temp\cck0OouC.s 			page 20


 404:..\..\..\..\..\..\Software\uCOS-II\Source/os_sem.c **** INT8U  OSSemPendAbort (OS_EVENT  *pevent,
 405:..\..\..\..\..\..\Software\uCOS-II\Source/os_sem.c ****                        INT8U      opt,
 406:..\..\..\..\..\..\Software\uCOS-II\Source/os_sem.c ****                        INT8U     *perr)
 407:..\..\..\..\..\..\Software\uCOS-II\Source/os_sem.c **** {
 677              		.loc 1 407 0
 678              		.cfi_startproc
 679              		@ args = 0, pretend = 0, frame = 24
 680              		@ frame_needed = 1, uses_anonymous_args = 0
 681 0000 80B5     		push	{r7, lr}
 682              		.cfi_def_cfa_offset 8
 683              		.cfi_offset 7, -8
 684              		.cfi_offset 14, -4
 685 0002 86B0     		sub	sp, sp, #24
 686              		.cfi_def_cfa_offset 32
 687 0004 00AF     		add	r7, sp, #0
 688              		.cfi_def_cfa_register 7
 689 0006 F860     		str	r0, [r7, #12]
 690 0008 7A60     		str	r2, [r7, #4]
 691 000a 0B23     		movs	r3, #11
 692 000c FB18     		adds	r3, r7, r3
 693 000e 0A1C     		adds	r2, r1, #0
 694 0010 1A70     		strb	r2, [r3]
 408:..\..\..\..\..\..\Software\uCOS-II\Source/os_sem.c ****     INT8U      nbr_tasks;
 409:..\..\..\..\..\..\Software\uCOS-II\Source/os_sem.c **** #if OS_CRITICAL_METHOD == 3u                          /* Allocate storage for CPU status register  
 410:..\..\..\..\..\..\Software\uCOS-II\Source/os_sem.c ****     OS_CPU_SR  cpu_sr = 0u;
 695              		.loc 1 410 0
 696 0012 0023     		movs	r3, #0
 697 0014 3B61     		str	r3, [r7, #16]
 411:..\..\..\..\..\..\Software\uCOS-II\Source/os_sem.c **** #endif
 412:..\..\..\..\..\..\Software\uCOS-II\Source/os_sem.c **** 
 413:..\..\..\..\..\..\Software\uCOS-II\Source/os_sem.c **** 
 414:..\..\..\..\..\..\Software\uCOS-II\Source/os_sem.c **** 
 415:..\..\..\..\..\..\Software\uCOS-II\Source/os_sem.c **** #ifdef OS_SAFETY_CRITICAL
 416:..\..\..\..\..\..\Software\uCOS-II\Source/os_sem.c ****     if (perr == (INT8U *)0) {
 417:..\..\..\..\..\..\Software\uCOS-II\Source/os_sem.c ****         OS_SAFETY_CRITICAL_EXCEPTION();
 418:..\..\..\..\..\..\Software\uCOS-II\Source/os_sem.c ****         return (0u);
 419:..\..\..\..\..\..\Software\uCOS-II\Source/os_sem.c ****     }
 420:..\..\..\..\..\..\Software\uCOS-II\Source/os_sem.c **** #endif
 421:..\..\..\..\..\..\Software\uCOS-II\Source/os_sem.c **** 
 422:..\..\..\..\..\..\Software\uCOS-II\Source/os_sem.c **** #if OS_ARG_CHK_EN > 0u
 423:..\..\..\..\..\..\Software\uCOS-II\Source/os_sem.c ****     if (pevent == (OS_EVENT *)0) {                    /* Validate 'pevent'                         
 698              		.loc 1 423 0
 699 0016 FB68     		ldr	r3, [r7, #12]
 700 0018 002B     		cmp	r3, #0
 701 001a 04D1     		bne	.L47
 424:..\..\..\..\..\..\Software\uCOS-II\Source/os_sem.c ****         *perr = OS_ERR_PEVENT_NULL;
 702              		.loc 1 424 0
 703 001c 7B68     		ldr	r3, [r7, #4]
 704 001e 0422     		movs	r2, #4
 705 0020 1A70     		strb	r2, [r3]
 425:..\..\..\..\..\..\Software\uCOS-II\Source/os_sem.c ****         return (0u);
 706              		.loc 1 425 0
 707 0022 0023     		movs	r3, #0
 708 0024 4FE0     		b	.L48
 709              	.L47:
 426:..\..\..\..\..\..\Software\uCOS-II\Source/os_sem.c ****     }
 427:..\..\..\..\..\..\Software\uCOS-II\Source/os_sem.c **** #endif
ARM GAS  C:\Users\ADMINI~1\AppData\Local\Temp\cck0OouC.s 			page 21


 428:..\..\..\..\..\..\Software\uCOS-II\Source/os_sem.c ****     if (pevent->OSEventType != OS_EVENT_TYPE_SEM) {   /* Validate event block type                 
 710              		.loc 1 428 0
 711 0026 FB68     		ldr	r3, [r7, #12]
 712 0028 1B78     		ldrb	r3, [r3]
 713 002a 032B     		cmp	r3, #3
 714 002c 04D0     		beq	.L49
 429:..\..\..\..\..\..\Software\uCOS-II\Source/os_sem.c ****         *perr = OS_ERR_EVENT_TYPE;
 715              		.loc 1 429 0
 716 002e 7B68     		ldr	r3, [r7, #4]
 717 0030 0122     		movs	r2, #1
 718 0032 1A70     		strb	r2, [r3]
 430:..\..\..\..\..\..\Software\uCOS-II\Source/os_sem.c ****         return (0u);
 719              		.loc 1 430 0
 720 0034 0023     		movs	r3, #0
 721 0036 46E0     		b	.L48
 722              	.L49:
 431:..\..\..\..\..\..\Software\uCOS-II\Source/os_sem.c ****     }
 432:..\..\..\..\..\..\Software\uCOS-II\Source/os_sem.c ****     OS_ENTER_CRITICAL();
 723              		.loc 1 432 0
 724 0038 FFF7FEFF 		bl	OS_CPU_SR_Save
 725 003c 0300     		movs	r3, r0
 726 003e 3B61     		str	r3, [r7, #16]
 433:..\..\..\..\..\..\Software\uCOS-II\Source/os_sem.c ****     if (pevent->OSEventGrp != 0u) {                   /* See if any task waiting on semaphore?     
 727              		.loc 1 433 0
 728 0040 FB68     		ldr	r3, [r7, #12]
 729 0042 9B7A     		ldrb	r3, [r3, #10]
 730 0044 002B     		cmp	r3, #0
 731 0046 36D0     		beq	.L50
 434:..\..\..\..\..\..\Software\uCOS-II\Source/os_sem.c ****         nbr_tasks = 0u;
 732              		.loc 1 434 0
 733 0048 1723     		movs	r3, #23
 734 004a FB18     		adds	r3, r7, r3
 735 004c 0022     		movs	r2, #0
 736 004e 1A70     		strb	r2, [r3]
 435:..\..\..\..\..\..\Software\uCOS-II\Source/os_sem.c ****         switch (opt) {
 737              		.loc 1 435 0
 738 0050 0B23     		movs	r3, #11
 739 0052 FB18     		adds	r3, r7, r3
 740 0054 1B78     		ldrb	r3, [r3]
 741 0056 012B     		cmp	r3, #1
 742 0058 12D1     		bne	.L56
 436:..\..\..\..\..\..\Software\uCOS-II\Source/os_sem.c ****             case OS_PEND_OPT_BROADCAST:               /* Do we need to abort ALL waiting tasks?    
 437:..\..\..\..\..\..\Software\uCOS-II\Source/os_sem.c ****                  while (pevent->OSEventGrp != 0u) {   /* Yes, ready ALL tasks waiting on semaphore 
 743              		.loc 1 437 0
 744 005a 0CE0     		b	.L53
 745              	.L54:
 438:..\..\..\..\..\..\Software\uCOS-II\Source/os_sem.c ****                      (void)OS_EventTaskRdy(pevent, (void *)0, OS_STAT_SEM, OS_STAT_PEND_ABORT);
 746              		.loc 1 438 0
 747 005c F868     		ldr	r0, [r7, #12]
 748 005e 0223     		movs	r3, #2
 749 0060 0122     		movs	r2, #1
 750 0062 0021     		movs	r1, #0
 751 0064 FFF7FEFF 		bl	OS_EventTaskRdy
 439:..\..\..\..\..\..\Software\uCOS-II\Source/os_sem.c ****                      nbr_tasks++;
 752              		.loc 1 439 0
 753 0068 1723     		movs	r3, #23
 754 006a FB18     		adds	r3, r7, r3
ARM GAS  C:\Users\ADMINI~1\AppData\Local\Temp\cck0OouC.s 			page 22


 755 006c 1A78     		ldrb	r2, [r3]
 756 006e 1723     		movs	r3, #23
 757 0070 FB18     		adds	r3, r7, r3
 758 0072 0132     		adds	r2, r2, #1
 759 0074 1A70     		strb	r2, [r3]
 760              	.L53:
 437:..\..\..\..\..\..\Software\uCOS-II\Source/os_sem.c ****                      (void)OS_EventTaskRdy(pevent, (void *)0, OS_STAT_SEM, OS_STAT_PEND_ABORT);
 761              		.loc 1 437 0
 762 0076 FB68     		ldr	r3, [r7, #12]
 763 0078 9B7A     		ldrb	r3, [r3, #10]
 764 007a 002B     		cmp	r3, #0
 765 007c EED1     		bne	.L54
 440:..\..\..\..\..\..\Software\uCOS-II\Source/os_sem.c ****                  }
 441:..\..\..\..\..\..\Software\uCOS-II\Source/os_sem.c ****                  break;
 766              		.loc 1 441 0
 767 007e 0DE0     		b	.L55
 768              	.L56:
 442:..\..\..\..\..\..\Software\uCOS-II\Source/os_sem.c **** 
 443:..\..\..\..\..\..\Software\uCOS-II\Source/os_sem.c ****             case OS_PEND_OPT_NONE:
 444:..\..\..\..\..\..\Software\uCOS-II\Source/os_sem.c ****             default:                                  /* No,  ready HPT       waiting on semaphore 
 445:..\..\..\..\..\..\Software\uCOS-II\Source/os_sem.c ****                  (void)OS_EventTaskRdy(pevent, (void *)0, OS_STAT_SEM, OS_STAT_PEND_ABORT);
 769              		.loc 1 445 0
 770 0080 F868     		ldr	r0, [r7, #12]
 771 0082 0223     		movs	r3, #2
 772 0084 0122     		movs	r2, #1
 773 0086 0021     		movs	r1, #0
 774 0088 FFF7FEFF 		bl	OS_EventTaskRdy
 446:..\..\..\..\..\..\Software\uCOS-II\Source/os_sem.c ****                  nbr_tasks++;
 775              		.loc 1 446 0
 776 008c 1723     		movs	r3, #23
 777 008e FB18     		adds	r3, r7, r3
 778 0090 1A78     		ldrb	r2, [r3]
 779 0092 1723     		movs	r3, #23
 780 0094 FB18     		adds	r3, r7, r3
 781 0096 0132     		adds	r2, r2, #1
 782 0098 1A70     		strb	r2, [r3]
 447:..\..\..\..\..\..\Software\uCOS-II\Source/os_sem.c ****                  break;
 783              		.loc 1 447 0
 784 009a C046     		nop
 785              	.L55:
 448:..\..\..\..\..\..\Software\uCOS-II\Source/os_sem.c ****         }
 449:..\..\..\..\..\..\Software\uCOS-II\Source/os_sem.c ****         OS_EXIT_CRITICAL();
 786              		.loc 1 449 0
 787 009c 3B69     		ldr	r3, [r7, #16]
 788 009e 1800     		movs	r0, r3
 789 00a0 FFF7FEFF 		bl	OS_CPU_SR_Restore
 450:..\..\..\..\..\..\Software\uCOS-II\Source/os_sem.c ****         OS_Sched();                                   /* Find HPT ready to run                     
 790              		.loc 1 450 0
 791 00a4 FFF7FEFF 		bl	OS_Sched
 451:..\..\..\..\..\..\Software\uCOS-II\Source/os_sem.c ****         *perr = OS_ERR_PEND_ABORT;
 792              		.loc 1 451 0
 793 00a8 7B68     		ldr	r3, [r7, #4]
 794 00aa 0E22     		movs	r2, #14
 795 00ac 1A70     		strb	r2, [r3]
 452:..\..\..\..\..\..\Software\uCOS-II\Source/os_sem.c ****         return (nbr_tasks);
 796              		.loc 1 452 0
 797 00ae 1723     		movs	r3, #23
ARM GAS  C:\Users\ADMINI~1\AppData\Local\Temp\cck0OouC.s 			page 23


 798 00b0 FB18     		adds	r3, r7, r3
 799 00b2 1B78     		ldrb	r3, [r3]
 800 00b4 07E0     		b	.L48
 801              	.L50:
 453:..\..\..\..\..\..\Software\uCOS-II\Source/os_sem.c ****     }
 454:..\..\..\..\..\..\Software\uCOS-II\Source/os_sem.c ****     OS_EXIT_CRITICAL();
 802              		.loc 1 454 0
 803 00b6 3B69     		ldr	r3, [r7, #16]
 804 00b8 1800     		movs	r0, r3
 805 00ba FFF7FEFF 		bl	OS_CPU_SR_Restore
 455:..\..\..\..\..\..\Software\uCOS-II\Source/os_sem.c ****     *perr = OS_ERR_NONE;
 806              		.loc 1 455 0
 807 00be 7B68     		ldr	r3, [r7, #4]
 808 00c0 0022     		movs	r2, #0
 809 00c2 1A70     		strb	r2, [r3]
 456:..\..\..\..\..\..\Software\uCOS-II\Source/os_sem.c ****     return (0u);                                      /* No tasks waiting on semaphore             
 810              		.loc 1 456 0
 811 00c4 0023     		movs	r3, #0
 812              	.L48:
 457:..\..\..\..\..\..\Software\uCOS-II\Source/os_sem.c **** }
 813              		.loc 1 457 0
 814 00c6 1800     		movs	r0, r3
 815 00c8 BD46     		mov	sp, r7
 816 00ca 06B0     		add	sp, sp, #24
 817              		@ sp needed
 818 00cc 80BD     		pop	{r7, pc}
 819              		.cfi_endproc
 820              	.LFE5:
 821              		.size	OSSemPendAbort, .-OSSemPendAbort
 822 00ce C046     		.section	.text.OSSemPost,"ax",%progbits
 823              		.align	2
 824              		.global	OSSemPost
 825              		.code	16
 826              		.thumb_func
 827              		.type	OSSemPost, %function
 828              	OSSemPost:
 829              	.LFB6:
 458:..\..\..\..\..\..\Software\uCOS-II\Source/os_sem.c **** #endif
 459:..\..\..\..\..\..\Software\uCOS-II\Source/os_sem.c **** 
 460:..\..\..\..\..\..\Software\uCOS-II\Source/os_sem.c **** /*$PAGE*/
 461:..\..\..\..\..\..\Software\uCOS-II\Source/os_sem.c **** /*
 462:..\..\..\..\..\..\Software\uCOS-II\Source/os_sem.c **** ***************************************************************************************************
 463:..\..\..\..\..\..\Software\uCOS-II\Source/os_sem.c **** *                                         POST TO A SEMAPHORE
 464:..\..\..\..\..\..\Software\uCOS-II\Source/os_sem.c **** *
 465:..\..\..\..\..\..\Software\uCOS-II\Source/os_sem.c **** * Description: This function signals a semaphore
 466:..\..\..\..\..\..\Software\uCOS-II\Source/os_sem.c **** *
 467:..\..\..\..\..\..\Software\uCOS-II\Source/os_sem.c **** * Arguments  : pevent        is a pointer to the event control block associated with the desired
 468:..\..\..\..\..\..\Software\uCOS-II\Source/os_sem.c **** *                            semaphore.
 469:..\..\..\..\..\..\Software\uCOS-II\Source/os_sem.c **** *
 470:..\..\..\..\..\..\Software\uCOS-II\Source/os_sem.c **** * Returns    : OS_ERR_NONE         The call was successful and the semaphore was signaled.
 471:..\..\..\..\..\..\Software\uCOS-II\Source/os_sem.c **** *              OS_ERR_SEM_OVF      If the semaphore count exceeded its limit. In other words, you h
 472:..\..\..\..\..\..\Software\uCOS-II\Source/os_sem.c **** *                                  signaled the semaphore more often than you waited on it with eit
 473:..\..\..\..\..\..\Software\uCOS-II\Source/os_sem.c **** *                                  OSSemAccept() or OSSemPend().
 474:..\..\..\..\..\..\Software\uCOS-II\Source/os_sem.c **** *              OS_ERR_EVENT_TYPE   If you didn't pass a pointer to a semaphore
 475:..\..\..\..\..\..\Software\uCOS-II\Source/os_sem.c **** *              OS_ERR_PEVENT_NULL  If 'pevent' is a NULL pointer.
 476:..\..\..\..\..\..\Software\uCOS-II\Source/os_sem.c **** ***************************************************************************************************
 477:..\..\..\..\..\..\Software\uCOS-II\Source/os_sem.c **** */
ARM GAS  C:\Users\ADMINI~1\AppData\Local\Temp\cck0OouC.s 			page 24


 478:..\..\..\..\..\..\Software\uCOS-II\Source/os_sem.c **** 
 479:..\..\..\..\..\..\Software\uCOS-II\Source/os_sem.c **** INT8U  OSSemPost (OS_EVENT *pevent)
 480:..\..\..\..\..\..\Software\uCOS-II\Source/os_sem.c **** {
 830              		.loc 1 480 0
 831              		.cfi_startproc
 832              		@ args = 0, pretend = 0, frame = 16
 833              		@ frame_needed = 1, uses_anonymous_args = 0
 834 0000 80B5     		push	{r7, lr}
 835              		.cfi_def_cfa_offset 8
 836              		.cfi_offset 7, -8
 837              		.cfi_offset 14, -4
 838 0002 84B0     		sub	sp, sp, #16
 839              		.cfi_def_cfa_offset 24
 840 0004 00AF     		add	r7, sp, #0
 841              		.cfi_def_cfa_register 7
 842 0006 7860     		str	r0, [r7, #4]
 481:..\..\..\..\..\..\Software\uCOS-II\Source/os_sem.c **** #if OS_CRITICAL_METHOD == 3u                          /* Allocate storage for CPU status register  
 482:..\..\..\..\..\..\Software\uCOS-II\Source/os_sem.c ****     OS_CPU_SR  cpu_sr = 0u;
 843              		.loc 1 482 0
 844 0008 0023     		movs	r3, #0
 845 000a FB60     		str	r3, [r7, #12]
 483:..\..\..\..\..\..\Software\uCOS-II\Source/os_sem.c **** #endif
 484:..\..\..\..\..\..\Software\uCOS-II\Source/os_sem.c **** 
 485:..\..\..\..\..\..\Software\uCOS-II\Source/os_sem.c **** 
 486:..\..\..\..\..\..\Software\uCOS-II\Source/os_sem.c **** 
 487:..\..\..\..\..\..\Software\uCOS-II\Source/os_sem.c **** #if OS_ARG_CHK_EN > 0u
 488:..\..\..\..\..\..\Software\uCOS-II\Source/os_sem.c ****     if (pevent == (OS_EVENT *)0) {                    /* Validate 'pevent'                         
 846              		.loc 1 488 0
 847 000c 7B68     		ldr	r3, [r7, #4]
 848 000e 002B     		cmp	r3, #0
 849 0010 01D1     		bne	.L58
 489:..\..\..\..\..\..\Software\uCOS-II\Source/os_sem.c ****         return (OS_ERR_PEVENT_NULL);
 850              		.loc 1 489 0
 851 0012 0423     		movs	r3, #4
 852 0014 31E0     		b	.L59
 853              	.L58:
 490:..\..\..\..\..\..\Software\uCOS-II\Source/os_sem.c ****     }
 491:..\..\..\..\..\..\Software\uCOS-II\Source/os_sem.c **** #endif
 492:..\..\..\..\..\..\Software\uCOS-II\Source/os_sem.c ****     if (pevent->OSEventType != OS_EVENT_TYPE_SEM) {   /* Validate event block type                 
 854              		.loc 1 492 0
 855 0016 7B68     		ldr	r3, [r7, #4]
 856 0018 1B78     		ldrb	r3, [r3]
 857 001a 032B     		cmp	r3, #3
 858 001c 01D0     		beq	.L60
 493:..\..\..\..\..\..\Software\uCOS-II\Source/os_sem.c ****         return (OS_ERR_EVENT_TYPE);
 859              		.loc 1 493 0
 860 001e 0123     		movs	r3, #1
 861 0020 2BE0     		b	.L59
 862              	.L60:
 494:..\..\..\..\..\..\Software\uCOS-II\Source/os_sem.c ****     }
 495:..\..\..\..\..\..\Software\uCOS-II\Source/os_sem.c ****     OS_ENTER_CRITICAL();
 863              		.loc 1 495 0
 864 0022 FFF7FEFF 		bl	OS_CPU_SR_Save
 865 0026 0300     		movs	r3, r0
 866 0028 FB60     		str	r3, [r7, #12]
 496:..\..\..\..\..\..\Software\uCOS-II\Source/os_sem.c ****     if (pevent->OSEventGrp != 0u) {                   /* See if any task waiting for semaphore     
 867              		.loc 1 496 0
ARM GAS  C:\Users\ADMINI~1\AppData\Local\Temp\cck0OouC.s 			page 25


 868 002a 7B68     		ldr	r3, [r7, #4]
 869 002c 9B7A     		ldrb	r3, [r3, #10]
 870 002e 002B     		cmp	r3, #0
 871 0030 0DD0     		beq	.L61
 497:..\..\..\..\..\..\Software\uCOS-II\Source/os_sem.c ****                                                       /* Ready HPT waiting on event                
 498:..\..\..\..\..\..\Software\uCOS-II\Source/os_sem.c ****         (void)OS_EventTaskRdy(pevent, (void *)0, OS_STAT_SEM, OS_STAT_PEND_OK);
 872              		.loc 1 498 0
 873 0032 7868     		ldr	r0, [r7, #4]
 874 0034 0023     		movs	r3, #0
 875 0036 0122     		movs	r2, #1
 876 0038 0021     		movs	r1, #0
 877 003a FFF7FEFF 		bl	OS_EventTaskRdy
 499:..\..\..\..\..\..\Software\uCOS-II\Source/os_sem.c ****         OS_EXIT_CRITICAL();
 878              		.loc 1 499 0
 879 003e FB68     		ldr	r3, [r7, #12]
 880 0040 1800     		movs	r0, r3
 881 0042 FFF7FEFF 		bl	OS_CPU_SR_Restore
 500:..\..\..\..\..\..\Software\uCOS-II\Source/os_sem.c ****         OS_Sched();                                   /* Find HPT ready to run                     
 882              		.loc 1 500 0
 883 0046 FFF7FEFF 		bl	OS_Sched
 501:..\..\..\..\..\..\Software\uCOS-II\Source/os_sem.c ****         return (OS_ERR_NONE);
 884              		.loc 1 501 0
 885 004a 0023     		movs	r3, #0
 886 004c 15E0     		b	.L59
 887              	.L61:
 502:..\..\..\..\..\..\Software\uCOS-II\Source/os_sem.c ****     }
 503:..\..\..\..\..\..\Software\uCOS-II\Source/os_sem.c ****     if (pevent->OSEventCnt < 65535u) {                /* Make sure semaphore will not overflow     
 888              		.loc 1 503 0
 889 004e 7B68     		ldr	r3, [r7, #4]
 890 0050 1B89     		ldrh	r3, [r3, #8]
 891 0052 0C4A     		ldr	r2, .L63
 892 0054 9342     		cmp	r3, r2
 893 0056 0BD0     		beq	.L62
 504:..\..\..\..\..\..\Software\uCOS-II\Source/os_sem.c ****         pevent->OSEventCnt++;                         /* Increment semaphore count to register even
 894              		.loc 1 504 0
 895 0058 7B68     		ldr	r3, [r7, #4]
 896 005a 1B89     		ldrh	r3, [r3, #8]
 897 005c 0133     		adds	r3, r3, #1
 898 005e 9AB2     		uxth	r2, r3
 899 0060 7B68     		ldr	r3, [r7, #4]
 900 0062 1A81     		strh	r2, [r3, #8]
 505:..\..\..\..\..\..\Software\uCOS-II\Source/os_sem.c ****         OS_EXIT_CRITICAL();
 901              		.loc 1 505 0
 902 0064 FB68     		ldr	r3, [r7, #12]
 903 0066 1800     		movs	r0, r3
 904 0068 FFF7FEFF 		bl	OS_CPU_SR_Restore
 506:..\..\..\..\..\..\Software\uCOS-II\Source/os_sem.c ****         return (OS_ERR_NONE);
 905              		.loc 1 506 0
 906 006c 0023     		movs	r3, #0
 907 006e 04E0     		b	.L59
 908              	.L62:
 507:..\..\..\..\..\..\Software\uCOS-II\Source/os_sem.c ****     }
 508:..\..\..\..\..\..\Software\uCOS-II\Source/os_sem.c ****     OS_EXIT_CRITICAL();                               /* Semaphore value has reached its maximum   
 909              		.loc 1 508 0
 910 0070 FB68     		ldr	r3, [r7, #12]
 911 0072 1800     		movs	r0, r3
 912 0074 FFF7FEFF 		bl	OS_CPU_SR_Restore
ARM GAS  C:\Users\ADMINI~1\AppData\Local\Temp\cck0OouC.s 			page 26


 509:..\..\..\..\..\..\Software\uCOS-II\Source/os_sem.c ****     return (OS_ERR_SEM_OVF);
 913              		.loc 1 509 0
 914 0078 3323     		movs	r3, #51
 915              	.L59:
 510:..\..\..\..\..\..\Software\uCOS-II\Source/os_sem.c **** }
 916              		.loc 1 510 0
 917 007a 1800     		movs	r0, r3
 918 007c BD46     		mov	sp, r7
 919 007e 04B0     		add	sp, sp, #16
 920              		@ sp needed
 921 0080 80BD     		pop	{r7, pc}
 922              	.L64:
 923 0082 C046     		.align	2
 924              	.L63:
 925 0084 FFFF0000 		.word	65535
 926              		.cfi_endproc
 927              	.LFE6:
 928              		.size	OSSemPost, .-OSSemPost
 929              		.section	.text.OSSemQuery,"ax",%progbits
 930              		.align	2
 931              		.global	OSSemQuery
 932              		.code	16
 933              		.thumb_func
 934              		.type	OSSemQuery, %function
 935              	OSSemQuery:
 936              	.LFB7:
 511:..\..\..\..\..\..\Software\uCOS-II\Source/os_sem.c **** 
 512:..\..\..\..\..\..\Software\uCOS-II\Source/os_sem.c **** /*$PAGE*/
 513:..\..\..\..\..\..\Software\uCOS-II\Source/os_sem.c **** /*
 514:..\..\..\..\..\..\Software\uCOS-II\Source/os_sem.c **** ***************************************************************************************************
 515:..\..\..\..\..\..\Software\uCOS-II\Source/os_sem.c **** *                                          QUERY A SEMAPHORE
 516:..\..\..\..\..\..\Software\uCOS-II\Source/os_sem.c **** *
 517:..\..\..\..\..\..\Software\uCOS-II\Source/os_sem.c **** * Description: This function obtains information about a semaphore
 518:..\..\..\..\..\..\Software\uCOS-II\Source/os_sem.c **** *
 519:..\..\..\..\..\..\Software\uCOS-II\Source/os_sem.c **** * Arguments  : pevent        is a pointer to the event control block associated with the desired
 520:..\..\..\..\..\..\Software\uCOS-II\Source/os_sem.c **** *                            semaphore
 521:..\..\..\..\..\..\Software\uCOS-II\Source/os_sem.c **** *
 522:..\..\..\..\..\..\Software\uCOS-II\Source/os_sem.c **** *              p_sem_data    is a pointer to a structure that will contain information about the
 523:..\..\..\..\..\..\Software\uCOS-II\Source/os_sem.c **** *                            semaphore.
 524:..\..\..\..\..\..\Software\uCOS-II\Source/os_sem.c **** *
 525:..\..\..\..\..\..\Software\uCOS-II\Source/os_sem.c **** * Returns    : OS_ERR_NONE         The call was successful and the message was sent
 526:..\..\..\..\..\..\Software\uCOS-II\Source/os_sem.c **** *              OS_ERR_EVENT_TYPE   If you are attempting to obtain data from a non semaphore.
 527:..\..\..\..\..\..\Software\uCOS-II\Source/os_sem.c **** *              OS_ERR_PEVENT_NULL  If 'pevent'     is a NULL pointer.
 528:..\..\..\..\..\..\Software\uCOS-II\Source/os_sem.c **** *              OS_ERR_PDATA_NULL   If 'p_sem_data' is a NULL pointer
 529:..\..\..\..\..\..\Software\uCOS-II\Source/os_sem.c **** ***************************************************************************************************
 530:..\..\..\..\..\..\Software\uCOS-II\Source/os_sem.c **** */
 531:..\..\..\..\..\..\Software\uCOS-II\Source/os_sem.c **** 
 532:..\..\..\..\..\..\Software\uCOS-II\Source/os_sem.c **** #if OS_SEM_QUERY_EN > 0u
 533:..\..\..\..\..\..\Software\uCOS-II\Source/os_sem.c **** INT8U  OSSemQuery (OS_EVENT     *pevent,
 534:..\..\..\..\..\..\Software\uCOS-II\Source/os_sem.c ****                    OS_SEM_DATA  *p_sem_data)
 535:..\..\..\..\..\..\Software\uCOS-II\Source/os_sem.c **** {
 937              		.loc 1 535 0
 938              		.cfi_startproc
 939              		@ args = 0, pretend = 0, frame = 24
 940              		@ frame_needed = 1, uses_anonymous_args = 0
 941 0000 80B5     		push	{r7, lr}
 942              		.cfi_def_cfa_offset 8
ARM GAS  C:\Users\ADMINI~1\AppData\Local\Temp\cck0OouC.s 			page 27


 943              		.cfi_offset 7, -8
 944              		.cfi_offset 14, -4
 945 0002 86B0     		sub	sp, sp, #24
 946              		.cfi_def_cfa_offset 32
 947 0004 00AF     		add	r7, sp, #0
 948              		.cfi_def_cfa_register 7
 949 0006 7860     		str	r0, [r7, #4]
 950 0008 3960     		str	r1, [r7]
 536:..\..\..\..\..\..\Software\uCOS-II\Source/os_sem.c ****     INT8U       i;
 537:..\..\..\..\..\..\Software\uCOS-II\Source/os_sem.c ****     OS_PRIO    *psrc;
 538:..\..\..\..\..\..\Software\uCOS-II\Source/os_sem.c ****     OS_PRIO    *pdest;
 539:..\..\..\..\..\..\Software\uCOS-II\Source/os_sem.c **** #if OS_CRITICAL_METHOD == 3u                               /* Allocate storage for CPU status regis
 540:..\..\..\..\..\..\Software\uCOS-II\Source/os_sem.c ****     OS_CPU_SR   cpu_sr = 0u;
 951              		.loc 1 540 0
 952 000a 0023     		movs	r3, #0
 953 000c BB60     		str	r3, [r7, #8]
 541:..\..\..\..\..\..\Software\uCOS-II\Source/os_sem.c **** #endif
 542:..\..\..\..\..\..\Software\uCOS-II\Source/os_sem.c **** 
 543:..\..\..\..\..\..\Software\uCOS-II\Source/os_sem.c **** 
 544:..\..\..\..\..\..\Software\uCOS-II\Source/os_sem.c **** 
 545:..\..\..\..\..\..\Software\uCOS-II\Source/os_sem.c **** #if OS_ARG_CHK_EN > 0u
 546:..\..\..\..\..\..\Software\uCOS-II\Source/os_sem.c ****     if (pevent == (OS_EVENT *)0) {                         /* Validate 'pevent'                    
 954              		.loc 1 546 0
 955 000e 7B68     		ldr	r3, [r7, #4]
 956 0010 002B     		cmp	r3, #0
 957 0012 01D1     		bne	.L66
 547:..\..\..\..\..\..\Software\uCOS-II\Source/os_sem.c ****         return (OS_ERR_PEVENT_NULL);
 958              		.loc 1 547 0
 959 0014 0423     		movs	r3, #4
 960 0016 3AE0     		b	.L67
 961              	.L66:
 548:..\..\..\..\..\..\Software\uCOS-II\Source/os_sem.c ****     }
 549:..\..\..\..\..\..\Software\uCOS-II\Source/os_sem.c ****     if (p_sem_data == (OS_SEM_DATA *)0) {                  /* Validate 'p_sem_data'                
 962              		.loc 1 549 0
 963 0018 3B68     		ldr	r3, [r7]
 964 001a 002B     		cmp	r3, #0
 965 001c 01D1     		bne	.L68
 550:..\..\..\..\..\..\Software\uCOS-II\Source/os_sem.c ****         return (OS_ERR_PDATA_NULL);
 966              		.loc 1 550 0
 967 001e 0923     		movs	r3, #9
 968 0020 35E0     		b	.L67
 969              	.L68:
 551:..\..\..\..\..\..\Software\uCOS-II\Source/os_sem.c ****     }
 552:..\..\..\..\..\..\Software\uCOS-II\Source/os_sem.c **** #endif
 553:..\..\..\..\..\..\Software\uCOS-II\Source/os_sem.c ****     if (pevent->OSEventType != OS_EVENT_TYPE_SEM) {        /* Validate event block type            
 970              		.loc 1 553 0
 971 0022 7B68     		ldr	r3, [r7, #4]
 972 0024 1B78     		ldrb	r3, [r3]
 973 0026 032B     		cmp	r3, #3
 974 0028 01D0     		beq	.L69
 554:..\..\..\..\..\..\Software\uCOS-II\Source/os_sem.c ****         return (OS_ERR_EVENT_TYPE);
 975              		.loc 1 554 0
 976 002a 0123     		movs	r3, #1
 977 002c 2FE0     		b	.L67
 978              	.L69:
 555:..\..\..\..\..\..\Software\uCOS-II\Source/os_sem.c ****     }
 556:..\..\..\..\..\..\Software\uCOS-II\Source/os_sem.c ****     OS_ENTER_CRITICAL();
ARM GAS  C:\Users\ADMINI~1\AppData\Local\Temp\cck0OouC.s 			page 28


 979              		.loc 1 556 0
 980 002e FFF7FEFF 		bl	OS_CPU_SR_Save
 981 0032 0300     		movs	r3, r0
 982 0034 BB60     		str	r3, [r7, #8]
 557:..\..\..\..\..\..\Software\uCOS-II\Source/os_sem.c ****     p_sem_data->OSEventGrp = pevent->OSEventGrp;           /* Copy message mailbox wait list       
 983              		.loc 1 557 0
 984 0036 7B68     		ldr	r3, [r7, #4]
 985 0038 9A7A     		ldrb	r2, [r3, #10]
 986 003a 3B68     		ldr	r3, [r7]
 987 003c 9A72     		strb	r2, [r3, #10]
 558:..\..\..\..\..\..\Software\uCOS-II\Source/os_sem.c ****     psrc                   = &pevent->OSEventTbl[0];
 988              		.loc 1 558 0
 989 003e 7B68     		ldr	r3, [r7, #4]
 990 0040 0B33     		adds	r3, r3, #11
 991 0042 3B61     		str	r3, [r7, #16]
 559:..\..\..\..\..\..\Software\uCOS-II\Source/os_sem.c ****     pdest                  = &p_sem_data->OSEventTbl[0];
 992              		.loc 1 559 0
 993 0044 3B68     		ldr	r3, [r7]
 994 0046 0233     		adds	r3, r3, #2
 995 0048 FB60     		str	r3, [r7, #12]
 560:..\..\..\..\..\..\Software\uCOS-II\Source/os_sem.c ****     for (i = 0u; i < OS_EVENT_TBL_SIZE; i++) {
 996              		.loc 1 560 0
 997 004a 1723     		movs	r3, #23
 998 004c FB18     		adds	r3, r7, r3
 999 004e 0022     		movs	r2, #0
 1000 0050 1A70     		strb	r2, [r3]
 1001 0052 0EE0     		b	.L70
 1002              	.L71:
 561:..\..\..\..\..\..\Software\uCOS-II\Source/os_sem.c ****         *pdest++ = *psrc++;
 1003              		.loc 1 561 0 discriminator 3
 1004 0054 FB68     		ldr	r3, [r7, #12]
 1005 0056 5A1C     		adds	r2, r3, #1
 1006 0058 FA60     		str	r2, [r7, #12]
 1007 005a 3A69     		ldr	r2, [r7, #16]
 1008 005c 511C     		adds	r1, r2, #1
 1009 005e 3961     		str	r1, [r7, #16]
 1010 0060 1278     		ldrb	r2, [r2]
 1011 0062 1A70     		strb	r2, [r3]
 560:..\..\..\..\..\..\Software\uCOS-II\Source/os_sem.c ****     for (i = 0u; i < OS_EVENT_TBL_SIZE; i++) {
 1012              		.loc 1 560 0 discriminator 3
 1013 0064 1723     		movs	r3, #23
 1014 0066 FB18     		adds	r3, r7, r3
 1015 0068 1A78     		ldrb	r2, [r3]
 1016 006a 1723     		movs	r3, #23
 1017 006c FB18     		adds	r3, r7, r3
 1018 006e 0132     		adds	r2, r2, #1
 1019 0070 1A70     		strb	r2, [r3]
 1020              	.L70:
 560:..\..\..\..\..\..\Software\uCOS-II\Source/os_sem.c ****     for (i = 0u; i < OS_EVENT_TBL_SIZE; i++) {
 1021              		.loc 1 560 0 is_stmt 0 discriminator 1
 1022 0072 1723     		movs	r3, #23
 1023 0074 FB18     		adds	r3, r7, r3
 1024 0076 1B78     		ldrb	r3, [r3]
 1025 0078 072B     		cmp	r3, #7
 1026 007a EBD9     		bls	.L71
 562:..\..\..\..\..\..\Software\uCOS-II\Source/os_sem.c ****     }
 563:..\..\..\..\..\..\Software\uCOS-II\Source/os_sem.c ****     p_sem_data->OSCnt = pevent->OSEventCnt;                /* Get semaphore count                  
ARM GAS  C:\Users\ADMINI~1\AppData\Local\Temp\cck0OouC.s 			page 29


 1027              		.loc 1 563 0 is_stmt 1
 1028 007c 7B68     		ldr	r3, [r7, #4]
 1029 007e 1A89     		ldrh	r2, [r3, #8]
 1030 0080 3B68     		ldr	r3, [r7]
 1031 0082 1A80     		strh	r2, [r3]
 564:..\..\..\..\..\..\Software\uCOS-II\Source/os_sem.c ****     OS_EXIT_CRITICAL();
 1032              		.loc 1 564 0
 1033 0084 BB68     		ldr	r3, [r7, #8]
 1034 0086 1800     		movs	r0, r3
 1035 0088 FFF7FEFF 		bl	OS_CPU_SR_Restore
 565:..\..\..\..\..\..\Software\uCOS-II\Source/os_sem.c ****     return (OS_ERR_NONE);
 1036              		.loc 1 565 0
 1037 008c 0023     		movs	r3, #0
 1038              	.L67:
 566:..\..\..\..\..\..\Software\uCOS-II\Source/os_sem.c **** }
 1039              		.loc 1 566 0
 1040 008e 1800     		movs	r0, r3
 1041 0090 BD46     		mov	sp, r7
 1042 0092 06B0     		add	sp, sp, #24
 1043              		@ sp needed
 1044 0094 80BD     		pop	{r7, pc}
 1045              		.cfi_endproc
 1046              	.LFE7:
 1047              		.size	OSSemQuery, .-OSSemQuery
 1048 0096 C046     		.section	.text.OSSemSet,"ax",%progbits
 1049              		.align	2
 1050              		.global	OSSemSet
 1051              		.code	16
 1052              		.thumb_func
 1053              		.type	OSSemSet, %function
 1054              	OSSemSet:
 1055              	.LFB8:
 567:..\..\..\..\..\..\Software\uCOS-II\Source/os_sem.c **** #endif                                                     /* OS_SEM_QUERY_EN                      
 568:..\..\..\..\..\..\Software\uCOS-II\Source/os_sem.c **** 
 569:..\..\..\..\..\..\Software\uCOS-II\Source/os_sem.c **** /*$PAGE*/
 570:..\..\..\..\..\..\Software\uCOS-II\Source/os_sem.c **** /*
 571:..\..\..\..\..\..\Software\uCOS-II\Source/os_sem.c **** ***************************************************************************************************
 572:..\..\..\..\..\..\Software\uCOS-II\Source/os_sem.c **** *                                            SET SEMAPHORE
 573:..\..\..\..\..\..\Software\uCOS-II\Source/os_sem.c **** *
 574:..\..\..\..\..\..\Software\uCOS-II\Source/os_sem.c **** * Description: This function sets the semaphore count to the value specified as an argument.  Typic
 575:..\..\..\..\..\..\Software\uCOS-II\Source/os_sem.c **** *              this value would be 0.
 576:..\..\..\..\..\..\Software\uCOS-II\Source/os_sem.c **** *
 577:..\..\..\..\..\..\Software\uCOS-II\Source/os_sem.c **** *              You would typically use this function when a semaphore is used as a signaling mechan
 578:..\..\..\..\..\..\Software\uCOS-II\Source/os_sem.c **** *              and, you want to reset the count value.
 579:..\..\..\..\..\..\Software\uCOS-II\Source/os_sem.c **** *
 580:..\..\..\..\..\..\Software\uCOS-II\Source/os_sem.c **** * Arguments  : pevent     is a pointer to the event control block
 581:..\..\..\..\..\..\Software\uCOS-II\Source/os_sem.c **** *
 582:..\..\..\..\..\..\Software\uCOS-II\Source/os_sem.c **** *              cnt        is the new value for the semaphore count.  You would pass 0 to reset the
 583:..\..\..\..\..\..\Software\uCOS-II\Source/os_sem.c **** *                         semaphore count.
 584:..\..\..\..\..\..\Software\uCOS-II\Source/os_sem.c **** *
 585:..\..\..\..\..\..\Software\uCOS-II\Source/os_sem.c **** *              perr       is a pointer to an error code returned by the function as follows:
 586:..\..\..\..\..\..\Software\uCOS-II\Source/os_sem.c **** *
 587:..\..\..\..\..\..\Software\uCOS-II\Source/os_sem.c **** *                            OS_ERR_NONE          The call was successful and the semaphore value w
 588:..\..\..\..\..\..\Software\uCOS-II\Source/os_sem.c **** *                            OS_ERR_EVENT_TYPE    If you didn't pass a pointer to a semaphore.
 589:..\..\..\..\..\..\Software\uCOS-II\Source/os_sem.c **** *                            OS_ERR_PEVENT_NULL   If 'pevent' is a NULL pointer.
 590:..\..\..\..\..\..\Software\uCOS-II\Source/os_sem.c **** *                            OS_ERR_TASK_WAITING  If tasks are waiting on the semaphore.
 591:..\..\..\..\..\..\Software\uCOS-II\Source/os_sem.c **** ***************************************************************************************************
ARM GAS  C:\Users\ADMINI~1\AppData\Local\Temp\cck0OouC.s 			page 30


 592:..\..\..\..\..\..\Software\uCOS-II\Source/os_sem.c **** */
 593:..\..\..\..\..\..\Software\uCOS-II\Source/os_sem.c **** 
 594:..\..\..\..\..\..\Software\uCOS-II\Source/os_sem.c **** #if OS_SEM_SET_EN > 0u
 595:..\..\..\..\..\..\Software\uCOS-II\Source/os_sem.c **** void  OSSemSet (OS_EVENT  *pevent,
 596:..\..\..\..\..\..\Software\uCOS-II\Source/os_sem.c ****                 INT16U     cnt,
 597:..\..\..\..\..\..\Software\uCOS-II\Source/os_sem.c ****                 INT8U     *perr)
 598:..\..\..\..\..\..\Software\uCOS-II\Source/os_sem.c **** {
 1056              		.loc 1 598 0
 1057              		.cfi_startproc
 1058              		@ args = 0, pretend = 0, frame = 24
 1059              		@ frame_needed = 1, uses_anonymous_args = 0
 1060 0000 80B5     		push	{r7, lr}
 1061              		.cfi_def_cfa_offset 8
 1062              		.cfi_offset 7, -8
 1063              		.cfi_offset 14, -4
 1064 0002 86B0     		sub	sp, sp, #24
 1065              		.cfi_def_cfa_offset 32
 1066 0004 00AF     		add	r7, sp, #0
 1067              		.cfi_def_cfa_register 7
 1068 0006 F860     		str	r0, [r7, #12]
 1069 0008 7A60     		str	r2, [r7, #4]
 1070 000a 0A23     		movs	r3, #10
 1071 000c FB18     		adds	r3, r7, r3
 1072 000e 0A1C     		adds	r2, r1, #0
 1073 0010 1A80     		strh	r2, [r3]
 599:..\..\..\..\..\..\Software\uCOS-II\Source/os_sem.c **** #if OS_CRITICAL_METHOD == 3u                          /* Allocate storage for CPU status register  
 600:..\..\..\..\..\..\Software\uCOS-II\Source/os_sem.c ****     OS_CPU_SR  cpu_sr = 0u;
 1074              		.loc 1 600 0
 1075 0012 0023     		movs	r3, #0
 1076 0014 7B61     		str	r3, [r7, #20]
 601:..\..\..\..\..\..\Software\uCOS-II\Source/os_sem.c **** #endif
 602:..\..\..\..\..\..\Software\uCOS-II\Source/os_sem.c **** 
 603:..\..\..\..\..\..\Software\uCOS-II\Source/os_sem.c **** 
 604:..\..\..\..\..\..\Software\uCOS-II\Source/os_sem.c **** 
 605:..\..\..\..\..\..\Software\uCOS-II\Source/os_sem.c **** #ifdef OS_SAFETY_CRITICAL
 606:..\..\..\..\..\..\Software\uCOS-II\Source/os_sem.c ****     if (perr == (INT8U *)0) {
 607:..\..\..\..\..\..\Software\uCOS-II\Source/os_sem.c ****         OS_SAFETY_CRITICAL_EXCEPTION();
 608:..\..\..\..\..\..\Software\uCOS-II\Source/os_sem.c ****         return;
 609:..\..\..\..\..\..\Software\uCOS-II\Source/os_sem.c ****     }
 610:..\..\..\..\..\..\Software\uCOS-II\Source/os_sem.c **** #endif
 611:..\..\..\..\..\..\Software\uCOS-II\Source/os_sem.c **** 
 612:..\..\..\..\..\..\Software\uCOS-II\Source/os_sem.c **** #if OS_ARG_CHK_EN > 0u
 613:..\..\..\..\..\..\Software\uCOS-II\Source/os_sem.c ****     if (pevent == (OS_EVENT *)0) {                    /* Validate 'pevent'                         
 1077              		.loc 1 613 0
 1078 0016 FB68     		ldr	r3, [r7, #12]
 1079 0018 002B     		cmp	r3, #0
 1080 001a 03D1     		bne	.L73
 614:..\..\..\..\..\..\Software\uCOS-II\Source/os_sem.c ****         *perr = OS_ERR_PEVENT_NULL;
 1081              		.loc 1 614 0
 1082 001c 7B68     		ldr	r3, [r7, #4]
 1083 001e 0422     		movs	r2, #4
 1084 0020 1A70     		strb	r2, [r3]
 615:..\..\..\..\..\..\Software\uCOS-II\Source/os_sem.c ****         return;
 1085              		.loc 1 615 0
 1086 0022 29E0     		b	.L72
 1087              	.L73:
 616:..\..\..\..\..\..\Software\uCOS-II\Source/os_sem.c ****     }
ARM GAS  C:\Users\ADMINI~1\AppData\Local\Temp\cck0OouC.s 			page 31


 617:..\..\..\..\..\..\Software\uCOS-II\Source/os_sem.c **** #endif
 618:..\..\..\..\..\..\Software\uCOS-II\Source/os_sem.c ****     if (pevent->OSEventType != OS_EVENT_TYPE_SEM) {   /* Validate event block type                 
 1088              		.loc 1 618 0
 1089 0024 FB68     		ldr	r3, [r7, #12]
 1090 0026 1B78     		ldrb	r3, [r3]
 1091 0028 032B     		cmp	r3, #3
 1092 002a 03D0     		beq	.L75
 619:..\..\..\..\..\..\Software\uCOS-II\Source/os_sem.c ****         *perr = OS_ERR_EVENT_TYPE;
 1093              		.loc 1 619 0
 1094 002c 7B68     		ldr	r3, [r7, #4]
 1095 002e 0122     		movs	r2, #1
 1096 0030 1A70     		strb	r2, [r3]
 620:..\..\..\..\..\..\Software\uCOS-II\Source/os_sem.c ****         return;
 1097              		.loc 1 620 0
 1098 0032 21E0     		b	.L72
 1099              	.L75:
 621:..\..\..\..\..\..\Software\uCOS-II\Source/os_sem.c ****     }
 622:..\..\..\..\..\..\Software\uCOS-II\Source/os_sem.c ****     OS_ENTER_CRITICAL();
 1100              		.loc 1 622 0
 1101 0034 FFF7FEFF 		bl	OS_CPU_SR_Save
 1102 0038 0300     		movs	r3, r0
 1103 003a 7B61     		str	r3, [r7, #20]
 623:..\..\..\..\..\..\Software\uCOS-II\Source/os_sem.c ****     *perr = OS_ERR_NONE;
 1104              		.loc 1 623 0
 1105 003c 7B68     		ldr	r3, [r7, #4]
 1106 003e 0022     		movs	r2, #0
 1107 0040 1A70     		strb	r2, [r3]
 624:..\..\..\..\..\..\Software\uCOS-II\Source/os_sem.c ****     if (pevent->OSEventCnt > 0u) {                    /* See if semaphore already has a count      
 1108              		.loc 1 624 0
 1109 0042 FB68     		ldr	r3, [r7, #12]
 1110 0044 1B89     		ldrh	r3, [r3, #8]
 1111 0046 002B     		cmp	r3, #0
 1112 0048 05D0     		beq	.L76
 625:..\..\..\..\..\..\Software\uCOS-II\Source/os_sem.c ****         pevent->OSEventCnt = cnt;                     /* Yes, set it to the new value specified.   
 1113              		.loc 1 625 0
 1114 004a FB68     		ldr	r3, [r7, #12]
 1115 004c 0A22     		movs	r2, #10
 1116 004e BA18     		adds	r2, r7, r2
 1117 0050 1288     		ldrh	r2, [r2]
 1118 0052 1A81     		strh	r2, [r3, #8]
 1119 0054 0CE0     		b	.L77
 1120              	.L76:
 626:..\..\..\..\..\..\Software\uCOS-II\Source/os_sem.c ****     } else {                                          /* No                                        
 627:..\..\..\..\..\..\Software\uCOS-II\Source/os_sem.c ****         if (pevent->OSEventGrp == 0u) {               /*      See if task(s) waiting?              
 1121              		.loc 1 627 0
 1122 0056 FB68     		ldr	r3, [r7, #12]
 1123 0058 9B7A     		ldrb	r3, [r3, #10]
 1124 005a 002B     		cmp	r3, #0
 1125 005c 05D1     		bne	.L78
 628:..\..\..\..\..\..\Software\uCOS-II\Source/os_sem.c ****             pevent->OSEventCnt = cnt;                 /*      No, OK to set the value              
 1126              		.loc 1 628 0
 1127 005e FB68     		ldr	r3, [r7, #12]
 1128 0060 0A22     		movs	r2, #10
 1129 0062 BA18     		adds	r2, r7, r2
 1130 0064 1288     		ldrh	r2, [r2]
 1131 0066 1A81     		strh	r2, [r3, #8]
 1132 0068 02E0     		b	.L77
ARM GAS  C:\Users\ADMINI~1\AppData\Local\Temp\cck0OouC.s 			page 32


 1133              	.L78:
 629:..\..\..\..\..\..\Software\uCOS-II\Source/os_sem.c ****         } else {
 630:..\..\..\..\..\..\Software\uCOS-II\Source/os_sem.c ****             *perr              = OS_ERR_TASK_WAITING;
 1134              		.loc 1 630 0
 1135 006a 7B68     		ldr	r3, [r7, #4]
 1136 006c 4922     		movs	r2, #73
 1137 006e 1A70     		strb	r2, [r3]
 1138              	.L77:
 631:..\..\..\..\..\..\Software\uCOS-II\Source/os_sem.c ****         }
 632:..\..\..\..\..\..\Software\uCOS-II\Source/os_sem.c ****     }
 633:..\..\..\..\..\..\Software\uCOS-II\Source/os_sem.c ****     OS_EXIT_CRITICAL();
 1139              		.loc 1 633 0
 1140 0070 7B69     		ldr	r3, [r7, #20]
 1141 0072 1800     		movs	r0, r3
 1142 0074 FFF7FEFF 		bl	OS_CPU_SR_Restore
 1143              	.L72:
 634:..\..\..\..\..\..\Software\uCOS-II\Source/os_sem.c **** }
 1144              		.loc 1 634 0
 1145 0078 BD46     		mov	sp, r7
 1146 007a 06B0     		add	sp, sp, #24
 1147              		@ sp needed
 1148 007c 80BD     		pop	{r7, pc}
 1149              		.cfi_endproc
 1150              	.LFE8:
 1151              		.size	OSSemSet, .-OSSemSet
 1152 007e C046     		.text
 1153              	.Letext0:
 1154              		.file 2 "..\\..\\..\\..\\..\\..\\Software\\uCOS-II\\Ports\\ARM-Cortex-M0\\Generic\\GNU/os_cpu.h"
 1155              		.file 3 "..\\..\\..\\..\\..\\..\\Software\\uCOS-II\\Source/ucos_ii.h"