ARM GAS  C:\Users\ADMINI~1\AppData\Local\Temp\ccFuReWR.s 			page 1


   1              		.syntax unified
   2              		.cpu cortex-m0
   3              		.fpu softvfp
   4              		.eabi_attribute 20, 1
   5              		.eabi_attribute 21, 1
   6              		.eabi_attribute 23, 3
   7              		.eabi_attribute 24, 1
   8              		.eabi_attribute 25, 1
   9              		.eabi_attribute 26, 1
  10              		.eabi_attribute 30, 6
  11              		.eabi_attribute 34, 0
  12              		.eabi_attribute 18, 4
  13              		.thumb
  14              		.syntax unified
  15              		.file	"os_tmr.c"
  16              		.text
  17              	.Ltext0:
  18              		.cfi_sections	.debug_frame
  19              		.section	.rodata
  20              		.align	2
  21              	.LC1:
  22 0000 3F00     		.ascii	"?\000"
  23              		.section	.text.OSTmrCreate,"ax",%progbits
  24              		.align	2
  25              		.global	OSTmrCreate
  26              		.code	16
  27              		.thumb_func
  28              		.type	OSTmrCreate, %function
  29              	OSTmrCreate:
  30              	.LFB1:
  31              		.file 1 "..\\..\\..\\..\\..\\..\\Software\\uCOS-II\\Source\\os_tmr.c"
   1:..\..\..\..\..\..\Software\uCOS-II\Source/os_tmr.c **** /*
   2:..\..\..\..\..\..\Software\uCOS-II\Source/os_tmr.c **** ***************************************************************************************************
   3:..\..\..\..\..\..\Software\uCOS-II\Source/os_tmr.c **** *                                                uC/OS-II
   4:..\..\..\..\..\..\Software\uCOS-II\Source/os_tmr.c **** *                                          The Real-Time Kernel
   5:..\..\..\..\..\..\Software\uCOS-II\Source/os_tmr.c **** *                                            TIMER MANAGEMENT
   6:..\..\..\..\..\..\Software\uCOS-II\Source/os_tmr.c **** *
   7:..\..\..\..\..\..\Software\uCOS-II\Source/os_tmr.c **** *                              (c) Copyright 1992-2013, Micrium, Weston, FL
   8:..\..\..\..\..\..\Software\uCOS-II\Source/os_tmr.c **** *                                           All Rights Reserved
   9:..\..\..\..\..\..\Software\uCOS-II\Source/os_tmr.c **** *
  10:..\..\..\..\..\..\Software\uCOS-II\Source/os_tmr.c **** *
  11:..\..\..\..\..\..\Software\uCOS-II\Source/os_tmr.c **** * File    : OS_TMR.C
  12:..\..\..\..\..\..\Software\uCOS-II\Source/os_tmr.c **** * By      : Jean J. Labrosse
  13:..\..\..\..\..\..\Software\uCOS-II\Source/os_tmr.c **** * Version : V2.92.11
  14:..\..\..\..\..\..\Software\uCOS-II\Source/os_tmr.c **** *
  15:..\..\..\..\..\..\Software\uCOS-II\Source/os_tmr.c **** * LICENSING TERMS:
  16:..\..\..\..\..\..\Software\uCOS-II\Source/os_tmr.c **** * ---------------
  17:..\..\..\..\..\..\Software\uCOS-II\Source/os_tmr.c **** *   uC/OS-II is provided in source form for FREE evaluation, for educational use or for peaceful re
  18:..\..\..\..\..\..\Software\uCOS-II\Source/os_tmr.c **** * If you plan on using  uC/OS-II  in a commercial product you need to contact Micrium to properly l
  19:..\..\..\..\..\..\Software\uCOS-II\Source/os_tmr.c **** * its use in your product. We provide ALL the source code for your convenience and to help you expe
  20:..\..\..\..\..\..\Software\uCOS-II\Source/os_tmr.c **** * uC/OS-II.   The fact that the  source is provided does  NOT  mean that you can use it without  pa
  21:..\..\..\..\..\..\Software\uCOS-II\Source/os_tmr.c **** * licensing fee.
  22:..\..\..\..\..\..\Software\uCOS-II\Source/os_tmr.c **** ***************************************************************************************************
  23:..\..\..\..\..\..\Software\uCOS-II\Source/os_tmr.c **** */
  24:..\..\..\..\..\..\Software\uCOS-II\Source/os_tmr.c **** 
  25:..\..\..\..\..\..\Software\uCOS-II\Source/os_tmr.c **** #define  MICRIUM_SOURCE
  26:..\..\..\..\..\..\Software\uCOS-II\Source/os_tmr.c **** 
ARM GAS  C:\Users\ADMINI~1\AppData\Local\Temp\ccFuReWR.s 			page 2


  27:..\..\..\..\..\..\Software\uCOS-II\Source/os_tmr.c **** #ifndef  OS_MASTER_FILE
  28:..\..\..\..\..\..\Software\uCOS-II\Source/os_tmr.c **** #include <ucos_ii.h>
  29:..\..\..\..\..\..\Software\uCOS-II\Source/os_tmr.c **** #endif
  30:..\..\..\..\..\..\Software\uCOS-II\Source/os_tmr.c **** 
  31:..\..\..\..\..\..\Software\uCOS-II\Source/os_tmr.c **** /*
  32:..\..\..\..\..\..\Software\uCOS-II\Source/os_tmr.c **** ***************************************************************************************************
  33:..\..\..\..\..\..\Software\uCOS-II\Source/os_tmr.c **** *                                                        NOTES
  34:..\..\..\..\..\..\Software\uCOS-II\Source/os_tmr.c **** *
  35:..\..\..\..\..\..\Software\uCOS-II\Source/os_tmr.c **** * 1) Your application MUST define the following #define constants:
  36:..\..\..\..\..\..\Software\uCOS-II\Source/os_tmr.c **** *
  37:..\..\..\..\..\..\Software\uCOS-II\Source/os_tmr.c **** *    OS_TASK_TMR_PRIO          The priority of the Timer management task
  38:..\..\..\..\..\..\Software\uCOS-II\Source/os_tmr.c **** *    OS_TASK_TMR_STK_SIZE      The size     of the Timer management task's stack
  39:..\..\..\..\..\..\Software\uCOS-II\Source/os_tmr.c **** *
  40:..\..\..\..\..\..\Software\uCOS-II\Source/os_tmr.c **** * 2) You must call OSTmrSignal() to notify the Timer management task that it's time to update the t
  41:..\..\..\..\..\..\Software\uCOS-II\Source/os_tmr.c **** ***************************************************************************************************
  42:..\..\..\..\..\..\Software\uCOS-II\Source/os_tmr.c **** */
  43:..\..\..\..\..\..\Software\uCOS-II\Source/os_tmr.c **** 
  44:..\..\..\..\..\..\Software\uCOS-II\Source/os_tmr.c **** /*
  45:..\..\..\..\..\..\Software\uCOS-II\Source/os_tmr.c **** ***************************************************************************************************
  46:..\..\..\..\..\..\Software\uCOS-II\Source/os_tmr.c **** *                                              CONSTANTS
  47:..\..\..\..\..\..\Software\uCOS-II\Source/os_tmr.c **** ***************************************************************************************************
  48:..\..\..\..\..\..\Software\uCOS-II\Source/os_tmr.c **** */
  49:..\..\..\..\..\..\Software\uCOS-II\Source/os_tmr.c **** 
  50:..\..\..\..\..\..\Software\uCOS-II\Source/os_tmr.c **** #define  OS_TMR_LINK_DLY       0u
  51:..\..\..\..\..\..\Software\uCOS-II\Source/os_tmr.c **** #define  OS_TMR_LINK_PERIODIC  1u
  52:..\..\..\..\..\..\Software\uCOS-II\Source/os_tmr.c **** 
  53:..\..\..\..\..\..\Software\uCOS-II\Source/os_tmr.c **** /*
  54:..\..\..\..\..\..\Software\uCOS-II\Source/os_tmr.c **** ***************************************************************************************************
  55:..\..\..\..\..\..\Software\uCOS-II\Source/os_tmr.c **** *                                          LOCAL PROTOTYPES
  56:..\..\..\..\..\..\Software\uCOS-II\Source/os_tmr.c **** ***************************************************************************************************
  57:..\..\..\..\..\..\Software\uCOS-II\Source/os_tmr.c **** */
  58:..\..\..\..\..\..\Software\uCOS-II\Source/os_tmr.c **** 
  59:..\..\..\..\..\..\Software\uCOS-II\Source/os_tmr.c **** #if OS_TMR_EN > 0u
  60:..\..\..\..\..\..\Software\uCOS-II\Source/os_tmr.c **** static  OS_TMR  *OSTmr_Alloc         (void);
  61:..\..\..\..\..\..\Software\uCOS-II\Source/os_tmr.c **** static  void     OSTmr_Free          (OS_TMR *ptmr);
  62:..\..\..\..\..\..\Software\uCOS-II\Source/os_tmr.c **** static  void     OSTmr_InitTask      (void);
  63:..\..\..\..\..\..\Software\uCOS-II\Source/os_tmr.c **** static  void     OSTmr_Link          (OS_TMR *ptmr, INT8U type);
  64:..\..\..\..\..\..\Software\uCOS-II\Source/os_tmr.c **** static  void     OSTmr_Unlink        (OS_TMR *ptmr);
  65:..\..\..\..\..\..\Software\uCOS-II\Source/os_tmr.c **** static  void     OSTmr_Task          (void   *p_arg);
  66:..\..\..\..\..\..\Software\uCOS-II\Source/os_tmr.c **** #endif
  67:..\..\..\..\..\..\Software\uCOS-II\Source/os_tmr.c **** 
  68:..\..\..\..\..\..\Software\uCOS-II\Source/os_tmr.c **** /*$PAGE*/
  69:..\..\..\..\..\..\Software\uCOS-II\Source/os_tmr.c **** /*
  70:..\..\..\..\..\..\Software\uCOS-II\Source/os_tmr.c **** ***************************************************************************************************
  71:..\..\..\..\..\..\Software\uCOS-II\Source/os_tmr.c **** *                                           CREATE A TIMER
  72:..\..\..\..\..\..\Software\uCOS-II\Source/os_tmr.c **** *
  73:..\..\..\..\..\..\Software\uCOS-II\Source/os_tmr.c **** * Description: This function is called by your application code to create a timer.
  74:..\..\..\..\..\..\Software\uCOS-II\Source/os_tmr.c **** *
  75:..\..\..\..\..\..\Software\uCOS-II\Source/os_tmr.c **** * Arguments  : dly           Initial delay.
  76:..\..\..\..\..\..\Software\uCOS-II\Source/os_tmr.c **** *                            If the timer is configured for ONE-SHOT mode, this is the timeout used
  77:..\..\..\..\..\..\Software\uCOS-II\Source/os_tmr.c **** *                            If the timer is configured for PERIODIC mode, this is the first timeou
  78:..\..\..\..\..\..\Software\uCOS-II\Source/os_tmr.c **** *                               wait for before the timer starts entering periodic mode.
  79:..\..\..\..\..\..\Software\uCOS-II\Source/os_tmr.c **** *
  80:..\..\..\..\..\..\Software\uCOS-II\Source/os_tmr.c **** *              period        The 'period' being repeated for the timer.
  81:..\..\..\..\..\..\Software\uCOS-II\Source/os_tmr.c **** *                               If you specified 'OS_TMR_OPT_PERIODIC' as an option, when the timer
  82:..\..\..\..\..\..\Software\uCOS-II\Source/os_tmr.c **** *                               expires, it will automatically restart with the same period.
  83:..\..\..\..\..\..\Software\uCOS-II\Source/os_tmr.c **** *
ARM GAS  C:\Users\ADMINI~1\AppData\Local\Temp\ccFuReWR.s 			page 3


  84:..\..\..\..\..\..\Software\uCOS-II\Source/os_tmr.c **** *              opt           Specifies either:
  85:..\..\..\..\..\..\Software\uCOS-II\Source/os_tmr.c **** *                               OS_TMR_OPT_ONE_SHOT       The timer counts down only once
  86:..\..\..\..\..\..\Software\uCOS-II\Source/os_tmr.c **** *                               OS_TMR_OPT_PERIODIC       The timer counts down and then reloads it
  87:..\..\..\..\..\..\Software\uCOS-II\Source/os_tmr.c **** *
  88:..\..\..\..\..\..\Software\uCOS-II\Source/os_tmr.c **** *              callback      Is a pointer to a callback function that will be called when the timer
  89:..\..\..\..\..\..\Software\uCOS-II\Source/os_tmr.c **** *                               The callback function must be declared as follows:
  90:..\..\..\..\..\..\Software\uCOS-II\Source/os_tmr.c **** *
  91:..\..\..\..\..\..\Software\uCOS-II\Source/os_tmr.c **** *                               void MyCallback (OS_TMR *ptmr, void *p_arg);
  92:..\..\..\..\..\..\Software\uCOS-II\Source/os_tmr.c **** *
  93:..\..\..\..\..\..\Software\uCOS-II\Source/os_tmr.c **** *              callback_arg  Is an argument (a pointer) that is passed to the callback function whe
  94:..\..\..\..\..\..\Software\uCOS-II\Source/os_tmr.c **** *
  95:..\..\..\..\..\..\Software\uCOS-II\Source/os_tmr.c **** *              pname         Is a pointer to an ASCII string that is used to name the timer.  Names
  96:..\..\..\..\..\..\Software\uCOS-II\Source/os_tmr.c **** *                               useful for debugging.
  97:..\..\..\..\..\..\Software\uCOS-II\Source/os_tmr.c **** *
  98:..\..\..\..\..\..\Software\uCOS-II\Source/os_tmr.c **** *              perr          Is a pointer to an error code.  '*perr' will contain one of the follow
  99:..\..\..\..\..\..\Software\uCOS-II\Source/os_tmr.c **** *                               OS_ERR_NONE
 100:..\..\..\..\..\..\Software\uCOS-II\Source/os_tmr.c **** *                               OS_ERR_TMR_INVALID_DLY     you specified an invalid delay
 101:..\..\..\..\..\..\Software\uCOS-II\Source/os_tmr.c **** *                               OS_ERR_TMR_INVALID_PERIOD  you specified an invalid period
 102:..\..\..\..\..\..\Software\uCOS-II\Source/os_tmr.c **** *                               OS_ERR_TMR_INVALID_OPT     you specified an invalid option
 103:..\..\..\..\..\..\Software\uCOS-II\Source/os_tmr.c **** *                               OS_ERR_TMR_ISR             if the call was made from an ISR
 104:..\..\..\..\..\..\Software\uCOS-II\Source/os_tmr.c **** *                               OS_ERR_TMR_NON_AVAIL       if there are no free timers from the tim
 105:..\..\..\..\..\..\Software\uCOS-II\Source/os_tmr.c **** *
 106:..\..\..\..\..\..\Software\uCOS-II\Source/os_tmr.c **** * Returns    : A pointer to an OS_TMR data structure.
 107:..\..\..\..\..\..\Software\uCOS-II\Source/os_tmr.c **** *              This is the 'handle' that your application will use to reference the timer created.
 108:..\..\..\..\..\..\Software\uCOS-II\Source/os_tmr.c **** ***************************************************************************************************
 109:..\..\..\..\..\..\Software\uCOS-II\Source/os_tmr.c **** */
 110:..\..\..\..\..\..\Software\uCOS-II\Source/os_tmr.c **** 
 111:..\..\..\..\..\..\Software\uCOS-II\Source/os_tmr.c **** #if OS_TMR_EN > 0u
 112:..\..\..\..\..\..\Software\uCOS-II\Source/os_tmr.c **** OS_TMR  *OSTmrCreate (INT32U           dly,
 113:..\..\..\..\..\..\Software\uCOS-II\Source/os_tmr.c ****                       INT32U           period,
 114:..\..\..\..\..\..\Software\uCOS-II\Source/os_tmr.c ****                       INT8U            opt,
 115:..\..\..\..\..\..\Software\uCOS-II\Source/os_tmr.c ****                       OS_TMR_CALLBACK  callback,
 116:..\..\..\..\..\..\Software\uCOS-II\Source/os_tmr.c ****                       void            *callback_arg,
 117:..\..\..\..\..\..\Software\uCOS-II\Source/os_tmr.c ****                       INT8U           *pname,
 118:..\..\..\..\..\..\Software\uCOS-II\Source/os_tmr.c ****                       INT8U           *perr)
 119:..\..\..\..\..\..\Software\uCOS-II\Source/os_tmr.c **** {
  32              		.loc 1 119 0
  33              		.cfi_startproc
  34              		@ args = 12, pretend = 0, frame = 24
  35              		@ frame_needed = 1, uses_anonymous_args = 0
  36 0000 80B5     		push	{r7, lr}
  37              		.cfi_def_cfa_offset 8
  38              		.cfi_offset 7, -8
  39              		.cfi_offset 14, -4
  40 0002 86B0     		sub	sp, sp, #24
  41              		.cfi_def_cfa_offset 32
  42 0004 00AF     		add	r7, sp, #0
  43              		.cfi_def_cfa_register 7
  44 0006 F860     		str	r0, [r7, #12]
  45 0008 B960     		str	r1, [r7, #8]
  46 000a 3B60     		str	r3, [r7]
  47 000c FB1D     		adds	r3, r7, #7
  48 000e 1A70     		strb	r2, [r3]
 120:..\..\..\..\..\..\Software\uCOS-II\Source/os_tmr.c ****     OS_TMR   *ptmr;
 121:..\..\..\..\..\..\Software\uCOS-II\Source/os_tmr.c **** 
 122:..\..\..\..\..\..\Software\uCOS-II\Source/os_tmr.c **** 
 123:..\..\..\..\..\..\Software\uCOS-II\Source/os_tmr.c **** #ifdef OS_SAFETY_CRITICAL
ARM GAS  C:\Users\ADMINI~1\AppData\Local\Temp\ccFuReWR.s 			page 4


 124:..\..\..\..\..\..\Software\uCOS-II\Source/os_tmr.c ****     if (perr == (INT8U *)0) {
 125:..\..\..\..\..\..\Software\uCOS-II\Source/os_tmr.c ****         OS_SAFETY_CRITICAL_EXCEPTION();
 126:..\..\..\..\..\..\Software\uCOS-II\Source/os_tmr.c ****         return ((OS_TMR *)0);
 127:..\..\..\..\..\..\Software\uCOS-II\Source/os_tmr.c ****     }
 128:..\..\..\..\..\..\Software\uCOS-II\Source/os_tmr.c **** #endif
 129:..\..\..\..\..\..\Software\uCOS-II\Source/os_tmr.c **** 
 130:..\..\..\..\..\..\Software\uCOS-II\Source/os_tmr.c **** #ifdef OS_SAFETY_CRITICAL_IEC61508
 131:..\..\..\..\..\..\Software\uCOS-II\Source/os_tmr.c ****     if (OSSafetyCriticalStartFlag == OS_TRUE) {
 132:..\..\..\..\..\..\Software\uCOS-II\Source/os_tmr.c ****         OS_SAFETY_CRITICAL_EXCEPTION();
 133:..\..\..\..\..\..\Software\uCOS-II\Source/os_tmr.c ****         return ((OS_TMR *)0);
 134:..\..\..\..\..\..\Software\uCOS-II\Source/os_tmr.c ****     }
 135:..\..\..\..\..\..\Software\uCOS-II\Source/os_tmr.c **** #endif
 136:..\..\..\..\..\..\Software\uCOS-II\Source/os_tmr.c **** 
 137:..\..\..\..\..\..\Software\uCOS-II\Source/os_tmr.c **** #if OS_ARG_CHK_EN > 0u
 138:..\..\..\..\..\..\Software\uCOS-II\Source/os_tmr.c ****     switch (opt) {                                          /* Validate arguments                  
  49              		.loc 1 138 0
  50 0010 FB1D     		adds	r3, r7, #7
  51 0012 1B78     		ldrb	r3, [r3]
  52 0014 012B     		cmp	r3, #1
  53 0016 09D0     		beq	.L3
  54 0018 022B     		cmp	r3, #2
  55 001a 0FD1     		bne	.L13
 139:..\..\..\..\..\..\Software\uCOS-II\Source/os_tmr.c ****         case OS_TMR_OPT_PERIODIC:
 140:..\..\..\..\..\..\Software\uCOS-II\Source/os_tmr.c ****              if (period == 0u) {
  56              		.loc 1 140 0
  57 001c BB68     		ldr	r3, [r7, #8]
  58 001e 002B     		cmp	r3, #0
  59 0020 11D1     		bne	.L14
 141:..\..\..\..\..\..\Software\uCOS-II\Source/os_tmr.c ****                  *perr = OS_ERR_TMR_INVALID_PERIOD;
  60              		.loc 1 141 0
  61 0022 BB6A     		ldr	r3, [r7, #40]
  62 0024 8322     		movs	r2, #131
  63 0026 1A70     		strb	r2, [r3]
 142:..\..\..\..\..\..\Software\uCOS-II\Source/os_tmr.c ****                  return ((OS_TMR *)0);
  64              		.loc 1 142 0
  65 0028 0023     		movs	r3, #0
  66 002a 4DE0     		b	.L6
  67              	.L3:
 143:..\..\..\..\..\..\Software\uCOS-II\Source/os_tmr.c ****              }
 144:..\..\..\..\..\..\Software\uCOS-II\Source/os_tmr.c ****              break;
 145:..\..\..\..\..\..\Software\uCOS-II\Source/os_tmr.c **** 
 146:..\..\..\..\..\..\Software\uCOS-II\Source/os_tmr.c ****         case OS_TMR_OPT_ONE_SHOT:
 147:..\..\..\..\..\..\Software\uCOS-II\Source/os_tmr.c ****              if (dly == 0u) {
  68              		.loc 1 147 0
  69 002c FB68     		ldr	r3, [r7, #12]
  70 002e 002B     		cmp	r3, #0
  71 0030 0BD1     		bne	.L15
 148:..\..\..\..\..\..\Software\uCOS-II\Source/os_tmr.c ****                  *perr = OS_ERR_TMR_INVALID_DLY;
  72              		.loc 1 148 0
  73 0032 BB6A     		ldr	r3, [r7, #40]
  74 0034 8222     		movs	r2, #130
  75 0036 1A70     		strb	r2, [r3]
 149:..\..\..\..\..\..\Software\uCOS-II\Source/os_tmr.c ****                  return ((OS_TMR *)0);
  76              		.loc 1 149 0
  77 0038 0023     		movs	r3, #0
  78 003a 45E0     		b	.L6
  79              	.L13:
ARM GAS  C:\Users\ADMINI~1\AppData\Local\Temp\ccFuReWR.s 			page 5


 150:..\..\..\..\..\..\Software\uCOS-II\Source/os_tmr.c ****              }
 151:..\..\..\..\..\..\Software\uCOS-II\Source/os_tmr.c ****              break;
 152:..\..\..\..\..\..\Software\uCOS-II\Source/os_tmr.c **** 
 153:..\..\..\..\..\..\Software\uCOS-II\Source/os_tmr.c ****         default:
 154:..\..\..\..\..\..\Software\uCOS-II\Source/os_tmr.c ****              *perr = OS_ERR_TMR_INVALID_OPT;
  80              		.loc 1 154 0
  81 003c BB6A     		ldr	r3, [r7, #40]
  82 003e 8422     		movs	r2, #132
  83 0040 1A70     		strb	r2, [r3]
 155:..\..\..\..\..\..\Software\uCOS-II\Source/os_tmr.c ****              return ((OS_TMR *)0);
  84              		.loc 1 155 0
  85 0042 0023     		movs	r3, #0
  86 0044 40E0     		b	.L6
  87              	.L14:
 144:..\..\..\..\..\..\Software\uCOS-II\Source/os_tmr.c **** 
  88              		.loc 1 144 0
  89 0046 C046     		nop
  90 0048 00E0     		b	.L7
  91              	.L15:
 151:..\..\..\..\..\..\Software\uCOS-II\Source/os_tmr.c **** 
  92              		.loc 1 151 0
  93 004a C046     		nop
  94              	.L7:
 156:..\..\..\..\..\..\Software\uCOS-II\Source/os_tmr.c ****     }
 157:..\..\..\..\..\..\Software\uCOS-II\Source/os_tmr.c **** #endif
 158:..\..\..\..\..\..\Software\uCOS-II\Source/os_tmr.c ****     if (OSIntNesting > 0u) {                                /* See if trying to call from an ISR   
  95              		.loc 1 158 0
  96 004c 204B     		ldr	r3, .L16
  97 004e 1B78     		ldrb	r3, [r3]
  98 0050 002B     		cmp	r3, #0
  99 0052 04D0     		beq	.L9
 159:..\..\..\..\..\..\Software\uCOS-II\Source/os_tmr.c ****         *perr  = OS_ERR_TMR_ISR;
 100              		.loc 1 159 0
 101 0054 BB6A     		ldr	r3, [r7, #40]
 102 0056 8B22     		movs	r2, #139
 103 0058 1A70     		strb	r2, [r3]
 160:..\..\..\..\..\..\Software\uCOS-II\Source/os_tmr.c ****         return ((OS_TMR *)0);
 104              		.loc 1 160 0
 105 005a 0023     		movs	r3, #0
 106 005c 34E0     		b	.L6
 107              	.L9:
 161:..\..\..\..\..\..\Software\uCOS-II\Source/os_tmr.c ****     }
 162:..\..\..\..\..\..\Software\uCOS-II\Source/os_tmr.c ****     OSSchedLock();
 108              		.loc 1 162 0
 109 005e FFF7FEFF 		bl	OSSchedLock
 163:..\..\..\..\..\..\Software\uCOS-II\Source/os_tmr.c ****     ptmr = OSTmr_Alloc();                                   /* Obtain a timer from the free pool   
 110              		.loc 1 163 0
 111 0062 FFF7FEFF 		bl	OSTmr_Alloc
 112 0066 0300     		movs	r3, r0
 113 0068 7B61     		str	r3, [r7, #20]
 164:..\..\..\..\..\..\Software\uCOS-II\Source/os_tmr.c ****     if (ptmr == (OS_TMR *)0) {
 114              		.loc 1 164 0
 115 006a 7B69     		ldr	r3, [r7, #20]
 116 006c 002B     		cmp	r3, #0
 117 006e 06D1     		bne	.L10
 165:..\..\..\..\..\..\Software\uCOS-II\Source/os_tmr.c ****         OSSchedUnlock();
 118              		.loc 1 165 0
ARM GAS  C:\Users\ADMINI~1\AppData\Local\Temp\ccFuReWR.s 			page 6


 119 0070 FFF7FEFF 		bl	OSSchedUnlock
 166:..\..\..\..\..\..\Software\uCOS-II\Source/os_tmr.c ****         *perr = OS_ERR_TMR_NON_AVAIL;
 120              		.loc 1 166 0
 121 0074 BB6A     		ldr	r3, [r7, #40]
 122 0076 8622     		movs	r2, #134
 123 0078 1A70     		strb	r2, [r3]
 167:..\..\..\..\..\..\Software\uCOS-II\Source/os_tmr.c ****         return ((OS_TMR *)0);
 124              		.loc 1 167 0
 125 007a 0023     		movs	r3, #0
 126 007c 24E0     		b	.L6
 127              	.L10:
 168:..\..\..\..\..\..\Software\uCOS-II\Source/os_tmr.c ****     }
 169:..\..\..\..\..\..\Software\uCOS-II\Source/os_tmr.c ****     ptmr->OSTmrState       = OS_TMR_STATE_STOPPED;          /* Indicate that timer is not running y
 128              		.loc 1 169 0
 129 007e 7B69     		ldr	r3, [r7, #20]
 130 0080 2522     		movs	r2, #37
 131 0082 0121     		movs	r1, #1
 132 0084 9954     		strb	r1, [r3, r2]
 170:..\..\..\..\..\..\Software\uCOS-II\Source/os_tmr.c ****     ptmr->OSTmrDly         = dly;
 133              		.loc 1 170 0
 134 0086 7B69     		ldr	r3, [r7, #20]
 135 0088 FA68     		ldr	r2, [r7, #12]
 136 008a 9A61     		str	r2, [r3, #24]
 171:..\..\..\..\..\..\Software\uCOS-II\Source/os_tmr.c ****     ptmr->OSTmrPeriod      = period;
 137              		.loc 1 171 0
 138 008c 7B69     		ldr	r3, [r7, #20]
 139 008e BA68     		ldr	r2, [r7, #8]
 140 0090 DA61     		str	r2, [r3, #28]
 172:..\..\..\..\..\..\Software\uCOS-II\Source/os_tmr.c ****     ptmr->OSTmrOpt         = opt;
 141              		.loc 1 172 0
 142 0092 7B69     		ldr	r3, [r7, #20]
 143 0094 FA1D     		adds	r2, r7, #7
 144 0096 2421     		movs	r1, #36
 145 0098 1278     		ldrb	r2, [r2]
 146 009a 5A54     		strb	r2, [r3, r1]
 173:..\..\..\..\..\..\Software\uCOS-II\Source/os_tmr.c ****     ptmr->OSTmrCallback    = callback;
 147              		.loc 1 173 0
 148 009c 7B69     		ldr	r3, [r7, #20]
 149 009e 3A68     		ldr	r2, [r7]
 150 00a0 5A60     		str	r2, [r3, #4]
 174:..\..\..\..\..\..\Software\uCOS-II\Source/os_tmr.c ****     ptmr->OSTmrCallbackArg = callback_arg;
 151              		.loc 1 174 0
 152 00a2 7B69     		ldr	r3, [r7, #20]
 153 00a4 3A6A     		ldr	r2, [r7, #32]
 154 00a6 9A60     		str	r2, [r3, #8]
 175:..\..\..\..\..\..\Software\uCOS-II\Source/os_tmr.c **** #if OS_TMR_CFG_NAME_EN > 0u
 176:..\..\..\..\..\..\Software\uCOS-II\Source/os_tmr.c ****     if (pname == (INT8U *)0) {                              /* Is 'pname' a NULL pointer?          
 155              		.loc 1 176 0
 156 00a8 7B6A     		ldr	r3, [r7, #36]
 157 00aa 002B     		cmp	r3, #0
 158 00ac 03D1     		bne	.L11
 177:..\..\..\..\..\..\Software\uCOS-II\Source/os_tmr.c ****         ptmr->OSTmrName    = (INT8U *)(void *)"?";
 159              		.loc 1 177 0
 160 00ae 7B69     		ldr	r3, [r7, #20]
 161 00b0 084A     		ldr	r2, .L16+4
 162 00b2 1A62     		str	r2, [r3, #32]
 163 00b4 02E0     		b	.L12
ARM GAS  C:\Users\ADMINI~1\AppData\Local\Temp\ccFuReWR.s 			page 7


 164              	.L11:
 178:..\..\..\..\..\..\Software\uCOS-II\Source/os_tmr.c ****     } else {
 179:..\..\..\..\..\..\Software\uCOS-II\Source/os_tmr.c ****         ptmr->OSTmrName    = pname;
 165              		.loc 1 179 0
 166 00b6 7B69     		ldr	r3, [r7, #20]
 167 00b8 7A6A     		ldr	r2, [r7, #36]
 168 00ba 1A62     		str	r2, [r3, #32]
 169              	.L12:
 180:..\..\..\..\..\..\Software\uCOS-II\Source/os_tmr.c ****     }
 181:..\..\..\..\..\..\Software\uCOS-II\Source/os_tmr.c **** #endif
 182:..\..\..\..\..\..\Software\uCOS-II\Source/os_tmr.c ****     OSSchedUnlock();
 170              		.loc 1 182 0
 171 00bc FFF7FEFF 		bl	OSSchedUnlock
 183:..\..\..\..\..\..\Software\uCOS-II\Source/os_tmr.c ****     *perr = OS_ERR_NONE;
 172              		.loc 1 183 0
 173 00c0 BB6A     		ldr	r3, [r7, #40]
 174 00c2 0022     		movs	r2, #0
 175 00c4 1A70     		strb	r2, [r3]
 184:..\..\..\..\..\..\Software\uCOS-II\Source/os_tmr.c ****     return (ptmr);
 176              		.loc 1 184 0
 177 00c6 7B69     		ldr	r3, [r7, #20]
 178              	.L6:
 185:..\..\..\..\..\..\Software\uCOS-II\Source/os_tmr.c **** }
 179              		.loc 1 185 0
 180 00c8 1800     		movs	r0, r3
 181 00ca BD46     		mov	sp, r7
 182 00cc 06B0     		add	sp, sp, #24
 183              		@ sp needed
 184 00ce 80BD     		pop	{r7, pc}
 185              	.L17:
 186              		.align	2
 187              	.L16:
 188 00d0 00000000 		.word	OSIntNesting
 189 00d4 00000000 		.word	.LC1
 190              		.cfi_endproc
 191              	.LFE1:
 192              		.size	OSTmrCreate, .-OSTmrCreate
 193              		.section	.text.OSTmrDel,"ax",%progbits
 194              		.align	2
 195              		.global	OSTmrDel
 196              		.code	16
 197              		.thumb_func
 198              		.type	OSTmrDel, %function
 199              	OSTmrDel:
 200              	.LFB2:
 186:..\..\..\..\..\..\Software\uCOS-II\Source/os_tmr.c **** #endif
 187:..\..\..\..\..\..\Software\uCOS-II\Source/os_tmr.c **** 
 188:..\..\..\..\..\..\Software\uCOS-II\Source/os_tmr.c **** /*$PAGE*/
 189:..\..\..\..\..\..\Software\uCOS-II\Source/os_tmr.c **** /*
 190:..\..\..\..\..\..\Software\uCOS-II\Source/os_tmr.c **** ***************************************************************************************************
 191:..\..\..\..\..\..\Software\uCOS-II\Source/os_tmr.c **** *                                           DELETE A TIMER
 192:..\..\..\..\..\..\Software\uCOS-II\Source/os_tmr.c **** *
 193:..\..\..\..\..\..\Software\uCOS-II\Source/os_tmr.c **** * Description: This function is called by your application code to delete a timer.
 194:..\..\..\..\..\..\Software\uCOS-II\Source/os_tmr.c **** *
 195:..\..\..\..\..\..\Software\uCOS-II\Source/os_tmr.c **** * Arguments  : ptmr          Is a pointer to the timer to stop and delete.
 196:..\..\..\..\..\..\Software\uCOS-II\Source/os_tmr.c **** *
 197:..\..\..\..\..\..\Software\uCOS-II\Source/os_tmr.c **** *              perr          Is a pointer to an error code.  '*perr' will contain one of the follow
ARM GAS  C:\Users\ADMINI~1\AppData\Local\Temp\ccFuReWR.s 			page 8


 198:..\..\..\..\..\..\Software\uCOS-II\Source/os_tmr.c **** *                               OS_ERR_NONE
 199:..\..\..\..\..\..\Software\uCOS-II\Source/os_tmr.c **** *                               OS_ERR_TMR_INVALID        'ptmr'  is a NULL pointer
 200:..\..\..\..\..\..\Software\uCOS-II\Source/os_tmr.c **** *                               OS_ERR_TMR_INVALID_TYPE   'ptmr'  is not pointing to an OS_TMR
 201:..\..\..\..\..\..\Software\uCOS-II\Source/os_tmr.c **** *                               OS_ERR_TMR_ISR            if the function was called from an ISR
 202:..\..\..\..\..\..\Software\uCOS-II\Source/os_tmr.c **** *                               OS_ERR_TMR_INACTIVE       if the timer was not created
 203:..\..\..\..\..\..\Software\uCOS-II\Source/os_tmr.c **** *                               OS_ERR_TMR_INVALID_STATE  the timer is in an invalid state
 204:..\..\..\..\..\..\Software\uCOS-II\Source/os_tmr.c **** *
 205:..\..\..\..\..\..\Software\uCOS-II\Source/os_tmr.c **** * Returns    : OS_TRUE       If the call was successful
 206:..\..\..\..\..\..\Software\uCOS-II\Source/os_tmr.c **** *              OS_FALSE      If not
 207:..\..\..\..\..\..\Software\uCOS-II\Source/os_tmr.c **** ***************************************************************************************************
 208:..\..\..\..\..\..\Software\uCOS-II\Source/os_tmr.c **** */
 209:..\..\..\..\..\..\Software\uCOS-II\Source/os_tmr.c **** 
 210:..\..\..\..\..\..\Software\uCOS-II\Source/os_tmr.c **** #if OS_TMR_EN > 0u
 211:..\..\..\..\..\..\Software\uCOS-II\Source/os_tmr.c **** BOOLEAN  OSTmrDel (OS_TMR  *ptmr,
 212:..\..\..\..\..\..\Software\uCOS-II\Source/os_tmr.c ****                    INT8U   *perr)
 213:..\..\..\..\..\..\Software\uCOS-II\Source/os_tmr.c **** {
 201              		.loc 1 213 0
 202              		.cfi_startproc
 203              		@ args = 0, pretend = 0, frame = 8
 204              		@ frame_needed = 1, uses_anonymous_args = 0
 205 0000 80B5     		push	{r7, lr}
 206              		.cfi_def_cfa_offset 8
 207              		.cfi_offset 7, -8
 208              		.cfi_offset 14, -4
 209 0002 82B0     		sub	sp, sp, #8
 210              		.cfi_def_cfa_offset 16
 211 0004 00AF     		add	r7, sp, #0
 212              		.cfi_def_cfa_register 7
 213 0006 7860     		str	r0, [r7, #4]
 214 0008 3960     		str	r1, [r7]
 214:..\..\..\..\..\..\Software\uCOS-II\Source/os_tmr.c **** #ifdef OS_SAFETY_CRITICAL
 215:..\..\..\..\..\..\Software\uCOS-II\Source/os_tmr.c ****     if (perr == (INT8U *)0) {
 216:..\..\..\..\..\..\Software\uCOS-II\Source/os_tmr.c ****         OS_SAFETY_CRITICAL_EXCEPTION();
 217:..\..\..\..\..\..\Software\uCOS-II\Source/os_tmr.c ****         return (OS_FALSE);
 218:..\..\..\..\..\..\Software\uCOS-II\Source/os_tmr.c ****     }
 219:..\..\..\..\..\..\Software\uCOS-II\Source/os_tmr.c **** #endif
 220:..\..\..\..\..\..\Software\uCOS-II\Source/os_tmr.c **** 
 221:..\..\..\..\..\..\Software\uCOS-II\Source/os_tmr.c **** #if OS_ARG_CHK_EN > 0u
 222:..\..\..\..\..\..\Software\uCOS-II\Source/os_tmr.c ****     if (ptmr == (OS_TMR *)0) {
 215              		.loc 1 222 0
 216 000a 7B68     		ldr	r3, [r7, #4]
 217 000c 002B     		cmp	r3, #0
 218 000e 04D1     		bne	.L19
 223:..\..\..\..\..\..\Software\uCOS-II\Source/os_tmr.c ****         *perr = OS_ERR_TMR_INVALID;
 219              		.loc 1 223 0
 220 0010 3B68     		ldr	r3, [r7]
 221 0012 8A22     		movs	r2, #138
 222 0014 1A70     		strb	r2, [r3]
 224:..\..\..\..\..\..\Software\uCOS-II\Source/os_tmr.c ****         return (OS_FALSE);
 223              		.loc 1 224 0
 224 0016 0023     		movs	r3, #0
 225 0018 46E0     		b	.L20
 226              	.L19:
 225:..\..\..\..\..\..\Software\uCOS-II\Source/os_tmr.c ****     }
 226:..\..\..\..\..\..\Software\uCOS-II\Source/os_tmr.c **** #endif
 227:..\..\..\..\..\..\Software\uCOS-II\Source/os_tmr.c ****     if (ptmr->OSTmrType != OS_TMR_TYPE) {                   /* Validate timer structure            
 227              		.loc 1 227 0
ARM GAS  C:\Users\ADMINI~1\AppData\Local\Temp\ccFuReWR.s 			page 9


 228 001a 7B68     		ldr	r3, [r7, #4]
 229 001c 1B78     		ldrb	r3, [r3]
 230 001e 642B     		cmp	r3, #100
 231 0020 04D0     		beq	.L21
 228:..\..\..\..\..\..\Software\uCOS-II\Source/os_tmr.c ****         *perr = OS_ERR_TMR_INVALID_TYPE;
 232              		.loc 1 228 0
 233 0022 3B68     		ldr	r3, [r7]
 234 0024 8922     		movs	r2, #137
 235 0026 1A70     		strb	r2, [r3]
 229:..\..\..\..\..\..\Software\uCOS-II\Source/os_tmr.c ****         return (OS_FALSE);
 236              		.loc 1 229 0
 237 0028 0023     		movs	r3, #0
 238 002a 3DE0     		b	.L20
 239              	.L21:
 230:..\..\..\..\..\..\Software\uCOS-II\Source/os_tmr.c ****     }
 231:..\..\..\..\..\..\Software\uCOS-II\Source/os_tmr.c ****     if (OSIntNesting > 0u) {                                /* See if trying to call from an ISR   
 240              		.loc 1 231 0
 241 002c 204B     		ldr	r3, .L28
 242 002e 1B78     		ldrb	r3, [r3]
 243 0030 002B     		cmp	r3, #0
 244 0032 04D0     		beq	.L22
 232:..\..\..\..\..\..\Software\uCOS-II\Source/os_tmr.c ****         *perr  = OS_ERR_TMR_ISR;
 245              		.loc 1 232 0
 246 0034 3B68     		ldr	r3, [r7]
 247 0036 8B22     		movs	r2, #139
 248 0038 1A70     		strb	r2, [r3]
 233:..\..\..\..\..\..\Software\uCOS-II\Source/os_tmr.c ****         return (OS_FALSE);
 249              		.loc 1 233 0
 250 003a 0023     		movs	r3, #0
 251 003c 34E0     		b	.L20
 252              	.L22:
 234:..\..\..\..\..\..\Software\uCOS-II\Source/os_tmr.c ****     }
 235:..\..\..\..\..\..\Software\uCOS-II\Source/os_tmr.c ****     OSSchedLock();
 253              		.loc 1 235 0
 254 003e FFF7FEFF 		bl	OSSchedLock
 236:..\..\..\..\..\..\Software\uCOS-II\Source/os_tmr.c ****     switch (ptmr->OSTmrState) {
 255              		.loc 1 236 0
 256 0042 7B68     		ldr	r3, [r7, #4]
 257 0044 2522     		movs	r2, #37
 258 0046 9B5C     		ldrb	r3, [r3, r2]
 259 0048 022B     		cmp	r3, #2
 260 004a 04DC     		bgt	.L24
 261 004c 012B     		cmp	r3, #1
 262 004e 13DA     		bge	.L25
 263 0050 002B     		cmp	r3, #0
 264 0052 1CD0     		beq	.L26
 265 0054 22E0     		b	.L23
 266              	.L24:
 267 0056 032B     		cmp	r3, #3
 268 0058 20D1     		bne	.L23
 237:..\..\..\..\..\..\Software\uCOS-II\Source/os_tmr.c ****         case OS_TMR_STATE_RUNNING:
 238:..\..\..\..\..\..\Software\uCOS-II\Source/os_tmr.c ****              OSTmr_Unlink(ptmr);                            /* Remove from current wheel spoke     
 269              		.loc 1 238 0
 270 005a 7B68     		ldr	r3, [r7, #4]
 271 005c 1800     		movs	r0, r3
 272 005e FFF7FEFF 		bl	OSTmr_Unlink
 239:..\..\..\..\..\..\Software\uCOS-II\Source/os_tmr.c ****              OSTmr_Free(ptmr);                              /* Return timer to free list of timers 
ARM GAS  C:\Users\ADMINI~1\AppData\Local\Temp\ccFuReWR.s 			page 10


 273              		.loc 1 239 0
 274 0062 7B68     		ldr	r3, [r7, #4]
 275 0064 1800     		movs	r0, r3
 276 0066 FFF7FEFF 		bl	OSTmr_Free
 240:..\..\..\..\..\..\Software\uCOS-II\Source/os_tmr.c ****              OSSchedUnlock();
 277              		.loc 1 240 0
 278 006a FFF7FEFF 		bl	OSSchedUnlock
 241:..\..\..\..\..\..\Software\uCOS-II\Source/os_tmr.c ****              *perr = OS_ERR_NONE;
 279              		.loc 1 241 0
 280 006e 3B68     		ldr	r3, [r7]
 281 0070 0022     		movs	r2, #0
 282 0072 1A70     		strb	r2, [r3]
 242:..\..\..\..\..\..\Software\uCOS-II\Source/os_tmr.c ****              return (OS_TRUE);
 283              		.loc 1 242 0
 284 0074 0123     		movs	r3, #1
 285 0076 17E0     		b	.L20
 286              	.L25:
 243:..\..\..\..\..\..\Software\uCOS-II\Source/os_tmr.c **** 
 244:..\..\..\..\..\..\Software\uCOS-II\Source/os_tmr.c ****         case OS_TMR_STATE_STOPPED:                          /* Timer has not started or ...        
 245:..\..\..\..\..\..\Software\uCOS-II\Source/os_tmr.c ****         case OS_TMR_STATE_COMPLETED:                        /* ... timer has completed the ONE-SHOT
 246:..\..\..\..\..\..\Software\uCOS-II\Source/os_tmr.c ****              OSTmr_Free(ptmr);                              /* Return timer to free list of timers 
 287              		.loc 1 246 0
 288 0078 7B68     		ldr	r3, [r7, #4]
 289 007a 1800     		movs	r0, r3
 290 007c FFF7FEFF 		bl	OSTmr_Free
 247:..\..\..\..\..\..\Software\uCOS-II\Source/os_tmr.c ****              OSSchedUnlock();
 291              		.loc 1 247 0
 292 0080 FFF7FEFF 		bl	OSSchedUnlock
 248:..\..\..\..\..\..\Software\uCOS-II\Source/os_tmr.c ****              *perr = OS_ERR_NONE;
 293              		.loc 1 248 0
 294 0084 3B68     		ldr	r3, [r7]
 295 0086 0022     		movs	r2, #0
 296 0088 1A70     		strb	r2, [r3]
 249:..\..\..\..\..\..\Software\uCOS-II\Source/os_tmr.c ****              return (OS_TRUE);
 297              		.loc 1 249 0
 298 008a 0123     		movs	r3, #1
 299 008c 0CE0     		b	.L20
 300              	.L26:
 250:..\..\..\..\..\..\Software\uCOS-II\Source/os_tmr.c **** 
 251:..\..\..\..\..\..\Software\uCOS-II\Source/os_tmr.c ****         case OS_TMR_STATE_UNUSED:                           /* Already deleted                     
 252:..\..\..\..\..\..\Software\uCOS-II\Source/os_tmr.c ****              OSSchedUnlock();
 301              		.loc 1 252 0
 302 008e FFF7FEFF 		bl	OSSchedUnlock
 253:..\..\..\..\..\..\Software\uCOS-II\Source/os_tmr.c ****              *perr = OS_ERR_TMR_INACTIVE;
 303              		.loc 1 253 0
 304 0092 3B68     		ldr	r3, [r7]
 305 0094 8722     		movs	r2, #135
 306 0096 1A70     		strb	r2, [r3]
 254:..\..\..\..\..\..\Software\uCOS-II\Source/os_tmr.c ****              return (OS_FALSE);
 307              		.loc 1 254 0
 308 0098 0023     		movs	r3, #0
 309 009a 05E0     		b	.L20
 310              	.L23:
 255:..\..\..\..\..\..\Software\uCOS-II\Source/os_tmr.c **** 
 256:..\..\..\..\..\..\Software\uCOS-II\Source/os_tmr.c ****         default:
 257:..\..\..\..\..\..\Software\uCOS-II\Source/os_tmr.c ****              OSSchedUnlock();
 311              		.loc 1 257 0
ARM GAS  C:\Users\ADMINI~1\AppData\Local\Temp\ccFuReWR.s 			page 11


 312 009c FFF7FEFF 		bl	OSSchedUnlock
 258:..\..\..\..\..\..\Software\uCOS-II\Source/os_tmr.c ****              *perr = OS_ERR_TMR_INVALID_STATE;
 313              		.loc 1 258 0
 314 00a0 3B68     		ldr	r3, [r7]
 315 00a2 8D22     		movs	r2, #141
 316 00a4 1A70     		strb	r2, [r3]
 259:..\..\..\..\..\..\Software\uCOS-II\Source/os_tmr.c ****              return (OS_FALSE);
 317              		.loc 1 259 0
 318 00a6 0023     		movs	r3, #0
 319              	.L20:
 260:..\..\..\..\..\..\Software\uCOS-II\Source/os_tmr.c ****     }
 261:..\..\..\..\..\..\Software\uCOS-II\Source/os_tmr.c **** }
 320              		.loc 1 261 0
 321 00a8 1800     		movs	r0, r3
 322 00aa BD46     		mov	sp, r7
 323 00ac 02B0     		add	sp, sp, #8
 324              		@ sp needed
 325 00ae 80BD     		pop	{r7, pc}
 326              	.L29:
 327              		.align	2
 328              	.L28:
 329 00b0 00000000 		.word	OSIntNesting
 330              		.cfi_endproc
 331              	.LFE2:
 332              		.size	OSTmrDel, .-OSTmrDel
 333              		.section	.text.OSTmrNameGet,"ax",%progbits
 334              		.align	2
 335              		.global	OSTmrNameGet
 336              		.code	16
 337              		.thumb_func
 338              		.type	OSTmrNameGet, %function
 339              	OSTmrNameGet:
 340              	.LFB3:
 262:..\..\..\..\..\..\Software\uCOS-II\Source/os_tmr.c **** #endif
 263:..\..\..\..\..\..\Software\uCOS-II\Source/os_tmr.c **** 
 264:..\..\..\..\..\..\Software\uCOS-II\Source/os_tmr.c **** /*$PAGE*/
 265:..\..\..\..\..\..\Software\uCOS-II\Source/os_tmr.c **** /*
 266:..\..\..\..\..\..\Software\uCOS-II\Source/os_tmr.c **** ***************************************************************************************************
 267:..\..\..\..\..\..\Software\uCOS-II\Source/os_tmr.c **** *                                       GET THE NAME OF A TIMER
 268:..\..\..\..\..\..\Software\uCOS-II\Source/os_tmr.c **** *
 269:..\..\..\..\..\..\Software\uCOS-II\Source/os_tmr.c **** * Description: This function is called to obtain the name of a timer.
 270:..\..\..\..\..\..\Software\uCOS-II\Source/os_tmr.c **** *
 271:..\..\..\..\..\..\Software\uCOS-II\Source/os_tmr.c **** * Arguments  : ptmr          Is a pointer to the timer to obtain the name for
 272:..\..\..\..\..\..\Software\uCOS-II\Source/os_tmr.c **** *
 273:..\..\..\..\..\..\Software\uCOS-II\Source/os_tmr.c **** *              pdest         Is a pointer to pointer to where the name of the timer will be placed.
 274:..\..\..\..\..\..\Software\uCOS-II\Source/os_tmr.c **** *
 275:..\..\..\..\..\..\Software\uCOS-II\Source/os_tmr.c **** *              perr          Is a pointer to an error code.  '*perr' will contain one of the follow
 276:..\..\..\..\..\..\Software\uCOS-II\Source/os_tmr.c **** *                               OS_ERR_NONE               The call was successful
 277:..\..\..\..\..\..\Software\uCOS-II\Source/os_tmr.c **** *                               OS_ERR_TMR_INVALID_DEST   'pdest' is a NULL pointer
 278:..\..\..\..\..\..\Software\uCOS-II\Source/os_tmr.c **** *                               OS_ERR_TMR_INVALID        'ptmr'  is a NULL pointer
 279:..\..\..\..\..\..\Software\uCOS-II\Source/os_tmr.c **** *                               OS_ERR_TMR_INVALID_TYPE   'ptmr'  is not pointing to an OS_TMR
 280:..\..\..\..\..\..\Software\uCOS-II\Source/os_tmr.c **** *                               OS_ERR_NAME_GET_ISR       if the call was made from an ISR
 281:..\..\..\..\..\..\Software\uCOS-II\Source/os_tmr.c **** *                               OS_ERR_TMR_INACTIVE       'ptmr'  points to a timer that is not act
 282:..\..\..\..\..\..\Software\uCOS-II\Source/os_tmr.c **** *                               OS_ERR_TMR_INVALID_STATE  the timer is in an invalid state
 283:..\..\..\..\..\..\Software\uCOS-II\Source/os_tmr.c **** *
 284:..\..\..\..\..\..\Software\uCOS-II\Source/os_tmr.c **** * Returns    : The length of the string or 0 if the timer does not exist.
 285:..\..\..\..\..\..\Software\uCOS-II\Source/os_tmr.c **** ***************************************************************************************************
ARM GAS  C:\Users\ADMINI~1\AppData\Local\Temp\ccFuReWR.s 			page 12


 286:..\..\..\..\..\..\Software\uCOS-II\Source/os_tmr.c **** */
 287:..\..\..\..\..\..\Software\uCOS-II\Source/os_tmr.c **** 
 288:..\..\..\..\..\..\Software\uCOS-II\Source/os_tmr.c **** #if OS_TMR_EN > 0u && OS_TMR_CFG_NAME_EN > 0u
 289:..\..\..\..\..\..\Software\uCOS-II\Source/os_tmr.c **** INT8U  OSTmrNameGet (OS_TMR   *ptmr,
 290:..\..\..\..\..\..\Software\uCOS-II\Source/os_tmr.c ****                      INT8U   **pdest,
 291:..\..\..\..\..\..\Software\uCOS-II\Source/os_tmr.c ****                      INT8U    *perr)
 292:..\..\..\..\..\..\Software\uCOS-II\Source/os_tmr.c **** {
 341              		.loc 1 292 0
 342              		.cfi_startproc
 343              		@ args = 0, pretend = 0, frame = 24
 344              		@ frame_needed = 1, uses_anonymous_args = 0
 345 0000 90B5     		push	{r4, r7, lr}
 346              		.cfi_def_cfa_offset 12
 347              		.cfi_offset 4, -12
 348              		.cfi_offset 7, -8
 349              		.cfi_offset 14, -4
 350 0002 87B0     		sub	sp, sp, #28
 351              		.cfi_def_cfa_offset 40
 352 0004 00AF     		add	r7, sp, #0
 353              		.cfi_def_cfa_register 7
 354 0006 F860     		str	r0, [r7, #12]
 355 0008 B960     		str	r1, [r7, #8]
 356 000a 7A60     		str	r2, [r7, #4]
 293:..\..\..\..\..\..\Software\uCOS-II\Source/os_tmr.c ****     INT8U  len;
 294:..\..\..\..\..\..\Software\uCOS-II\Source/os_tmr.c **** 
 295:..\..\..\..\..\..\Software\uCOS-II\Source/os_tmr.c **** 
 296:..\..\..\..\..\..\Software\uCOS-II\Source/os_tmr.c **** #ifdef OS_SAFETY_CRITICAL
 297:..\..\..\..\..\..\Software\uCOS-II\Source/os_tmr.c ****     if (perr == (INT8U *)0) {
 298:..\..\..\..\..\..\Software\uCOS-II\Source/os_tmr.c ****         OS_SAFETY_CRITICAL_EXCEPTION();
 299:..\..\..\..\..\..\Software\uCOS-II\Source/os_tmr.c ****         return (0u);
 300:..\..\..\..\..\..\Software\uCOS-II\Source/os_tmr.c ****     }
 301:..\..\..\..\..\..\Software\uCOS-II\Source/os_tmr.c **** #endif
 302:..\..\..\..\..\..\Software\uCOS-II\Source/os_tmr.c **** 
 303:..\..\..\..\..\..\Software\uCOS-II\Source/os_tmr.c **** #if OS_ARG_CHK_EN > 0u
 304:..\..\..\..\..\..\Software\uCOS-II\Source/os_tmr.c ****     if (pdest == (INT8U **)0) {
 357              		.loc 1 304 0
 358 000c BB68     		ldr	r3, [r7, #8]
 359 000e 002B     		cmp	r3, #0
 360 0010 04D1     		bne	.L31
 305:..\..\..\..\..\..\Software\uCOS-II\Source/os_tmr.c ****         *perr = OS_ERR_TMR_INVALID_DEST;
 361              		.loc 1 305 0
 362 0012 7B68     		ldr	r3, [r7, #4]
 363 0014 8822     		movs	r2, #136
 364 0016 1A70     		strb	r2, [r3]
 306:..\..\..\..\..\..\Software\uCOS-II\Source/os_tmr.c ****         return (0u);
 365              		.loc 1 306 0
 366 0018 0023     		movs	r3, #0
 367 001a 46E0     		b	.L32
 368              	.L31:
 307:..\..\..\..\..\..\Software\uCOS-II\Source/os_tmr.c ****     }
 308:..\..\..\..\..\..\Software\uCOS-II\Source/os_tmr.c ****     if (ptmr == (OS_TMR *)0) {
 369              		.loc 1 308 0
 370 001c FB68     		ldr	r3, [r7, #12]
 371 001e 002B     		cmp	r3, #0
 372 0020 04D1     		bne	.L33
 309:..\..\..\..\..\..\Software\uCOS-II\Source/os_tmr.c ****         *perr = OS_ERR_TMR_INVALID;
 373              		.loc 1 309 0
ARM GAS  C:\Users\ADMINI~1\AppData\Local\Temp\ccFuReWR.s 			page 13


 374 0022 7B68     		ldr	r3, [r7, #4]
 375 0024 8A22     		movs	r2, #138
 376 0026 1A70     		strb	r2, [r3]
 310:..\..\..\..\..\..\Software\uCOS-II\Source/os_tmr.c ****         return (0u);
 377              		.loc 1 310 0
 378 0028 0023     		movs	r3, #0
 379 002a 3EE0     		b	.L32
 380              	.L33:
 311:..\..\..\..\..\..\Software\uCOS-II\Source/os_tmr.c ****     }
 312:..\..\..\..\..\..\Software\uCOS-II\Source/os_tmr.c **** #endif
 313:..\..\..\..\..\..\Software\uCOS-II\Source/os_tmr.c ****     if (ptmr->OSTmrType != OS_TMR_TYPE) {              /* Validate timer structure                 
 381              		.loc 1 313 0
 382 002c FB68     		ldr	r3, [r7, #12]
 383 002e 1B78     		ldrb	r3, [r3]
 384 0030 642B     		cmp	r3, #100
 385 0032 04D0     		beq	.L34
 314:..\..\..\..\..\..\Software\uCOS-II\Source/os_tmr.c ****         *perr = OS_ERR_TMR_INVALID_TYPE;
 386              		.loc 1 314 0
 387 0034 7B68     		ldr	r3, [r7, #4]
 388 0036 8922     		movs	r2, #137
 389 0038 1A70     		strb	r2, [r3]
 315:..\..\..\..\..\..\Software\uCOS-II\Source/os_tmr.c ****         return (0u);
 390              		.loc 1 315 0
 391 003a 0023     		movs	r3, #0
 392 003c 35E0     		b	.L32
 393              	.L34:
 316:..\..\..\..\..\..\Software\uCOS-II\Source/os_tmr.c ****     }
 317:..\..\..\..\..\..\Software\uCOS-II\Source/os_tmr.c ****     if (OSIntNesting > 0u) {                           /* See if trying to call from an ISR        
 394              		.loc 1 317 0
 395 003e 1D4B     		ldr	r3, .L39
 396 0040 1B78     		ldrb	r3, [r3]
 397 0042 002B     		cmp	r3, #0
 398 0044 04D0     		beq	.L35
 318:..\..\..\..\..\..\Software\uCOS-II\Source/os_tmr.c ****         *perr = OS_ERR_NAME_GET_ISR;
 399              		.loc 1 318 0
 400 0046 7B68     		ldr	r3, [r7, #4]
 401 0048 1122     		movs	r2, #17
 402 004a 1A70     		strb	r2, [r3]
 319:..\..\..\..\..\..\Software\uCOS-II\Source/os_tmr.c ****         return (0u);
 403              		.loc 1 319 0
 404 004c 0023     		movs	r3, #0
 405 004e 2CE0     		b	.L32
 406              	.L35:
 320:..\..\..\..\..\..\Software\uCOS-II\Source/os_tmr.c ****     }
 321:..\..\..\..\..\..\Software\uCOS-II\Source/os_tmr.c ****     OSSchedLock();
 407              		.loc 1 321 0
 408 0050 FFF7FEFF 		bl	OSSchedLock
 322:..\..\..\..\..\..\Software\uCOS-II\Source/os_tmr.c ****     switch (ptmr->OSTmrState) {
 409              		.loc 1 322 0
 410 0054 FB68     		ldr	r3, [r7, #12]
 411 0056 2522     		movs	r2, #37
 412 0058 9B5C     		ldrb	r3, [r3, r2]
 413 005a 002B     		cmp	r3, #0
 414 005c 18D0     		beq	.L37
 415 005e 1EDB     		blt	.L36
 416 0060 032B     		cmp	r3, #3
 417 0062 1CDC     		bgt	.L36
ARM GAS  C:\Users\ADMINI~1\AppData\Local\Temp\ccFuReWR.s 			page 14


 323:..\..\..\..\..\..\Software\uCOS-II\Source/os_tmr.c ****         case OS_TMR_STATE_RUNNING:
 324:..\..\..\..\..\..\Software\uCOS-II\Source/os_tmr.c ****         case OS_TMR_STATE_STOPPED:
 325:..\..\..\..\..\..\Software\uCOS-II\Source/os_tmr.c ****         case OS_TMR_STATE_COMPLETED:
 326:..\..\..\..\..\..\Software\uCOS-II\Source/os_tmr.c ****              *pdest = ptmr->OSTmrName;
 418              		.loc 1 326 0
 419 0064 FB68     		ldr	r3, [r7, #12]
 420 0066 1A6A     		ldr	r2, [r3, #32]
 421 0068 BB68     		ldr	r3, [r7, #8]
 422 006a 1A60     		str	r2, [r3]
 327:..\..\..\..\..\..\Software\uCOS-II\Source/os_tmr.c ****              len    = OS_StrLen(*pdest);
 423              		.loc 1 327 0
 424 006c BB68     		ldr	r3, [r7, #8]
 425 006e 1B68     		ldr	r3, [r3]
 426 0070 1722     		movs	r2, #23
 427 0072 BC18     		adds	r4, r7, r2
 428 0074 1800     		movs	r0, r3
 429 0076 FFF7FEFF 		bl	OS_StrLen
 430 007a 0300     		movs	r3, r0
 431 007c 2370     		strb	r3, [r4]
 328:..\..\..\..\..\..\Software\uCOS-II\Source/os_tmr.c ****              OSSchedUnlock();
 432              		.loc 1 328 0
 433 007e FFF7FEFF 		bl	OSSchedUnlock
 329:..\..\..\..\..\..\Software\uCOS-II\Source/os_tmr.c ****              *perr = OS_ERR_NONE;
 434              		.loc 1 329 0
 435 0082 7B68     		ldr	r3, [r7, #4]
 436 0084 0022     		movs	r2, #0
 437 0086 1A70     		strb	r2, [r3]
 330:..\..\..\..\..\..\Software\uCOS-II\Source/os_tmr.c ****              return (len);
 438              		.loc 1 330 0
 439 0088 1723     		movs	r3, #23
 440 008a FB18     		adds	r3, r7, r3
 441 008c 1B78     		ldrb	r3, [r3]
 442 008e 0CE0     		b	.L32
 443              	.L37:
 331:..\..\..\..\..\..\Software\uCOS-II\Source/os_tmr.c **** 
 332:..\..\..\..\..\..\Software\uCOS-II\Source/os_tmr.c ****         case OS_TMR_STATE_UNUSED:                      /* Timer is not allocated                   
 333:..\..\..\..\..\..\Software\uCOS-II\Source/os_tmr.c ****              OSSchedUnlock();
 444              		.loc 1 333 0
 445 0090 FFF7FEFF 		bl	OSSchedUnlock
 334:..\..\..\..\..\..\Software\uCOS-II\Source/os_tmr.c ****              *perr = OS_ERR_TMR_INACTIVE;
 446              		.loc 1 334 0
 447 0094 7B68     		ldr	r3, [r7, #4]
 448 0096 8722     		movs	r2, #135
 449 0098 1A70     		strb	r2, [r3]
 335:..\..\..\..\..\..\Software\uCOS-II\Source/os_tmr.c ****              return (0u);
 450              		.loc 1 335 0
 451 009a 0023     		movs	r3, #0
 452 009c 05E0     		b	.L32
 453              	.L36:
 336:..\..\..\..\..\..\Software\uCOS-II\Source/os_tmr.c **** 
 337:..\..\..\..\..\..\Software\uCOS-II\Source/os_tmr.c ****         default:
 338:..\..\..\..\..\..\Software\uCOS-II\Source/os_tmr.c ****              OSSchedUnlock();
 454              		.loc 1 338 0
 455 009e FFF7FEFF 		bl	OSSchedUnlock
 339:..\..\..\..\..\..\Software\uCOS-II\Source/os_tmr.c ****              *perr = OS_ERR_TMR_INVALID_STATE;
 456              		.loc 1 339 0
 457 00a2 7B68     		ldr	r3, [r7, #4]
ARM GAS  C:\Users\ADMINI~1\AppData\Local\Temp\ccFuReWR.s 			page 15


 458 00a4 8D22     		movs	r2, #141
 459 00a6 1A70     		strb	r2, [r3]
 340:..\..\..\..\..\..\Software\uCOS-II\Source/os_tmr.c ****              return (0u);
 460              		.loc 1 340 0
 461 00a8 0023     		movs	r3, #0
 462              	.L32:
 341:..\..\..\..\..\..\Software\uCOS-II\Source/os_tmr.c ****     }
 342:..\..\..\..\..\..\Software\uCOS-II\Source/os_tmr.c **** }
 463              		.loc 1 342 0
 464 00aa 1800     		movs	r0, r3
 465 00ac BD46     		mov	sp, r7
 466 00ae 07B0     		add	sp, sp, #28
 467              		@ sp needed
 468 00b0 90BD     		pop	{r4, r7, pc}
 469              	.L40:
 470 00b2 C046     		.align	2
 471              	.L39:
 472 00b4 00000000 		.word	OSIntNesting
 473              		.cfi_endproc
 474              	.LFE3:
 475              		.size	OSTmrNameGet, .-OSTmrNameGet
 476              		.section	.text.OSTmrRemainGet,"ax",%progbits
 477              		.align	2
 478              		.global	OSTmrRemainGet
 479              		.code	16
 480              		.thumb_func
 481              		.type	OSTmrRemainGet, %function
 482              	OSTmrRemainGet:
 483              	.LFB4:
 343:..\..\..\..\..\..\Software\uCOS-II\Source/os_tmr.c **** #endif
 344:..\..\..\..\..\..\Software\uCOS-II\Source/os_tmr.c **** 
 345:..\..\..\..\..\..\Software\uCOS-II\Source/os_tmr.c **** /*$PAGE*/
 346:..\..\..\..\..\..\Software\uCOS-II\Source/os_tmr.c **** /*
 347:..\..\..\..\..\..\Software\uCOS-II\Source/os_tmr.c **** ***************************************************************************************************
 348:..\..\..\..\..\..\Software\uCOS-II\Source/os_tmr.c **** *                          GET HOW MUCH TIME IS LEFT BEFORE A TIMER EXPIRES
 349:..\..\..\..\..\..\Software\uCOS-II\Source/os_tmr.c **** *
 350:..\..\..\..\..\..\Software\uCOS-II\Source/os_tmr.c **** * Description: This function is called to get the number of ticks before a timer times out.
 351:..\..\..\..\..\..\Software\uCOS-II\Source/os_tmr.c **** *
 352:..\..\..\..\..\..\Software\uCOS-II\Source/os_tmr.c **** * Arguments  : ptmr          Is a pointer to the timer to obtain the remaining time from.
 353:..\..\..\..\..\..\Software\uCOS-II\Source/os_tmr.c **** *
 354:..\..\..\..\..\..\Software\uCOS-II\Source/os_tmr.c **** *              perr          Is a pointer to an error code.  '*perr' will contain one of the follow
 355:..\..\..\..\..\..\Software\uCOS-II\Source/os_tmr.c **** *                               OS_ERR_NONE
 356:..\..\..\..\..\..\Software\uCOS-II\Source/os_tmr.c **** *                               OS_ERR_TMR_INVALID        'ptmr' is a NULL pointer
 357:..\..\..\..\..\..\Software\uCOS-II\Source/os_tmr.c **** *                               OS_ERR_TMR_INVALID_TYPE   'ptmr'  is not pointing to an OS_TMR
 358:..\..\..\..\..\..\Software\uCOS-II\Source/os_tmr.c **** *                               OS_ERR_TMR_ISR            if the call was made from an ISR
 359:..\..\..\..\..\..\Software\uCOS-II\Source/os_tmr.c **** *                               OS_ERR_TMR_INACTIVE       'ptmr' points to a timer that is not acti
 360:..\..\..\..\..\..\Software\uCOS-II\Source/os_tmr.c **** *                               OS_ERR_TMR_INVALID_STATE  the timer is in an invalid state
 361:..\..\..\..\..\..\Software\uCOS-II\Source/os_tmr.c **** *
 362:..\..\..\..\..\..\Software\uCOS-II\Source/os_tmr.c **** * Returns    : The time remaining for the timer to expire.  The time represents 'timer' increments.
 363:..\..\..\..\..\..\Software\uCOS-II\Source/os_tmr.c **** *              In other words, if OSTmr_Task() is signaled every 1/10 of a second then the returned
 364:..\..\..\..\..\..\Software\uCOS-II\Source/os_tmr.c **** *              value represents the number of 1/10 of a second remaining before the timer expires.
 365:..\..\..\..\..\..\Software\uCOS-II\Source/os_tmr.c **** ***************************************************************************************************
 366:..\..\..\..\..\..\Software\uCOS-II\Source/os_tmr.c **** */
 367:..\..\..\..\..\..\Software\uCOS-II\Source/os_tmr.c **** 
 368:..\..\..\..\..\..\Software\uCOS-II\Source/os_tmr.c **** #if OS_TMR_EN > 0u
 369:..\..\..\..\..\..\Software\uCOS-II\Source/os_tmr.c **** INT32U  OSTmrRemainGet (OS_TMR  *ptmr,
 370:..\..\..\..\..\..\Software\uCOS-II\Source/os_tmr.c ****                         INT8U   *perr)
ARM GAS  C:\Users\ADMINI~1\AppData\Local\Temp\ccFuReWR.s 			page 16


 371:..\..\..\..\..\..\Software\uCOS-II\Source/os_tmr.c **** {
 484              		.loc 1 371 0
 485              		.cfi_startproc
 486              		@ args = 0, pretend = 0, frame = 16
 487              		@ frame_needed = 1, uses_anonymous_args = 0
 488 0000 80B5     		push	{r7, lr}
 489              		.cfi_def_cfa_offset 8
 490              		.cfi_offset 7, -8
 491              		.cfi_offset 14, -4
 492 0002 84B0     		sub	sp, sp, #16
 493              		.cfi_def_cfa_offset 24
 494 0004 00AF     		add	r7, sp, #0
 495              		.cfi_def_cfa_register 7
 496 0006 7860     		str	r0, [r7, #4]
 497 0008 3960     		str	r1, [r7]
 372:..\..\..\..\..\..\Software\uCOS-II\Source/os_tmr.c ****     INT32U  remain;
 373:..\..\..\..\..\..\Software\uCOS-II\Source/os_tmr.c **** 
 374:..\..\..\..\..\..\Software\uCOS-II\Source/os_tmr.c **** 
 375:..\..\..\..\..\..\Software\uCOS-II\Source/os_tmr.c **** #ifdef OS_SAFETY_CRITICAL
 376:..\..\..\..\..\..\Software\uCOS-II\Source/os_tmr.c ****     if (perr == (INT8U *)0) {
 377:..\..\..\..\..\..\Software\uCOS-II\Source/os_tmr.c ****         OS_SAFETY_CRITICAL_EXCEPTION();
 378:..\..\..\..\..\..\Software\uCOS-II\Source/os_tmr.c ****         return (0u);
 379:..\..\..\..\..\..\Software\uCOS-II\Source/os_tmr.c ****     }
 380:..\..\..\..\..\..\Software\uCOS-II\Source/os_tmr.c **** #endif
 381:..\..\..\..\..\..\Software\uCOS-II\Source/os_tmr.c **** 
 382:..\..\..\..\..\..\Software\uCOS-II\Source/os_tmr.c **** #if OS_ARG_CHK_EN > 0u
 383:..\..\..\..\..\..\Software\uCOS-II\Source/os_tmr.c ****     if (ptmr == (OS_TMR *)0) {
 498              		.loc 1 383 0
 499 000a 7B68     		ldr	r3, [r7, #4]
 500 000c 002B     		cmp	r3, #0
 501 000e 04D1     		bne	.L42
 384:..\..\..\..\..\..\Software\uCOS-II\Source/os_tmr.c ****         *perr = OS_ERR_TMR_INVALID;
 502              		.loc 1 384 0
 503 0010 3B68     		ldr	r3, [r7]
 504 0012 8A22     		movs	r2, #138
 505 0014 1A70     		strb	r2, [r3]
 385:..\..\..\..\..\..\Software\uCOS-II\Source/os_tmr.c ****         return (0u);
 506              		.loc 1 385 0
 507 0016 0023     		movs	r3, #0
 508 0018 62E0     		b	.L43
 509              	.L42:
 386:..\..\..\..\..\..\Software\uCOS-II\Source/os_tmr.c ****     }
 387:..\..\..\..\..\..\Software\uCOS-II\Source/os_tmr.c **** #endif
 388:..\..\..\..\..\..\Software\uCOS-II\Source/os_tmr.c ****     if (ptmr->OSTmrType != OS_TMR_TYPE) {              /* Validate timer structure                 
 510              		.loc 1 388 0
 511 001a 7B68     		ldr	r3, [r7, #4]
 512 001c 1B78     		ldrb	r3, [r3]
 513 001e 642B     		cmp	r3, #100
 514 0020 04D0     		beq	.L44
 389:..\..\..\..\..\..\Software\uCOS-II\Source/os_tmr.c ****         *perr = OS_ERR_TMR_INVALID_TYPE;
 515              		.loc 1 389 0
 516 0022 3B68     		ldr	r3, [r7]
 517 0024 8922     		movs	r2, #137
 518 0026 1A70     		strb	r2, [r3]
 390:..\..\..\..\..\..\Software\uCOS-II\Source/os_tmr.c ****         return (0u);
 519              		.loc 1 390 0
 520 0028 0023     		movs	r3, #0
ARM GAS  C:\Users\ADMINI~1\AppData\Local\Temp\ccFuReWR.s 			page 17


 521 002a 59E0     		b	.L43
 522              	.L44:
 391:..\..\..\..\..\..\Software\uCOS-II\Source/os_tmr.c ****     }
 392:..\..\..\..\..\..\Software\uCOS-II\Source/os_tmr.c ****     if (OSIntNesting > 0u) {                           /* See if trying to call from an ISR        
 523              		.loc 1 392 0
 524 002c 2E4B     		ldr	r3, .L58
 525 002e 1B78     		ldrb	r3, [r3]
 526 0030 002B     		cmp	r3, #0
 527 0032 04D0     		beq	.L45
 393:..\..\..\..\..\..\Software\uCOS-II\Source/os_tmr.c ****         *perr = OS_ERR_TMR_ISR;
 528              		.loc 1 393 0
 529 0034 3B68     		ldr	r3, [r7]
 530 0036 8B22     		movs	r2, #139
 531 0038 1A70     		strb	r2, [r3]
 394:..\..\..\..\..\..\Software\uCOS-II\Source/os_tmr.c ****         return (0u);
 532              		.loc 1 394 0
 533 003a 0023     		movs	r3, #0
 534 003c 50E0     		b	.L43
 535              	.L45:
 395:..\..\..\..\..\..\Software\uCOS-II\Source/os_tmr.c ****     }
 396:..\..\..\..\..\..\Software\uCOS-II\Source/os_tmr.c ****     OSSchedLock();
 536              		.loc 1 396 0
 537 003e FFF7FEFF 		bl	OSSchedLock
 397:..\..\..\..\..\..\Software\uCOS-II\Source/os_tmr.c ****     switch (ptmr->OSTmrState) {
 538              		.loc 1 397 0
 539 0042 7B68     		ldr	r3, [r7, #4]
 540 0044 2522     		movs	r2, #37
 541 0046 9B5C     		ldrb	r3, [r3, r2]
 542 0048 012B     		cmp	r3, #1
 543 004a 14D0     		beq	.L47
 544 004c 02DC     		bgt	.L48
 545 004e 002B     		cmp	r3, #0
 546 0050 39D0     		beq	.L49
 547 0052 3FE0     		b	.L46
 548              	.L48:
 549 0054 022B     		cmp	r3, #2
 550 0056 2FD0     		beq	.L50
 551 0058 032B     		cmp	r3, #3
 552 005a 3BD1     		bne	.L46
 398:..\..\..\..\..\..\Software\uCOS-II\Source/os_tmr.c ****         case OS_TMR_STATE_RUNNING:
 399:..\..\..\..\..\..\Software\uCOS-II\Source/os_tmr.c ****              remain = ptmr->OSTmrMatch - OSTmrTime;    /* Determine how much time is left to timeou
 553              		.loc 1 399 0
 554 005c 7B68     		ldr	r3, [r7, #4]
 555 005e 5A69     		ldr	r2, [r3, #20]
 556 0060 224B     		ldr	r3, .L58+4
 557 0062 1B68     		ldr	r3, [r3]
 558 0064 D31A     		subs	r3, r2, r3
 559 0066 FB60     		str	r3, [r7, #12]
 400:..\..\..\..\..\..\Software\uCOS-II\Source/os_tmr.c ****              OSSchedUnlock();
 560              		.loc 1 400 0
 561 0068 FFF7FEFF 		bl	OSSchedUnlock
 401:..\..\..\..\..\..\Software\uCOS-II\Source/os_tmr.c ****              *perr  = OS_ERR_NONE;
 562              		.loc 1 401 0
 563 006c 3B68     		ldr	r3, [r7]
 564 006e 0022     		movs	r2, #0
 565 0070 1A70     		strb	r2, [r3]
 402:..\..\..\..\..\..\Software\uCOS-II\Source/os_tmr.c ****              return (remain);
ARM GAS  C:\Users\ADMINI~1\AppData\Local\Temp\ccFuReWR.s 			page 18


 566              		.loc 1 402 0
 567 0072 FB68     		ldr	r3, [r7, #12]
 568 0074 34E0     		b	.L43
 569              	.L47:
 403:..\..\..\..\..\..\Software\uCOS-II\Source/os_tmr.c **** 
 404:..\..\..\..\..\..\Software\uCOS-II\Source/os_tmr.c ****         case OS_TMR_STATE_STOPPED:                     /* It's assumed that the timer has not start
 405:..\..\..\..\..\..\Software\uCOS-II\Source/os_tmr.c ****              switch (ptmr->OSTmrOpt) {
 570              		.loc 1 405 0
 571 0076 7B68     		ldr	r3, [r7, #4]
 572 0078 2422     		movs	r2, #36
 573 007a 9B5C     		ldrb	r3, [r3, r2]
 574 007c 022B     		cmp	r3, #2
 575 007e 10D1     		bne	.L57
 406:..\..\..\..\..\..\Software\uCOS-II\Source/os_tmr.c ****                  case OS_TMR_OPT_PERIODIC:
 407:..\..\..\..\..\..\Software\uCOS-II\Source/os_tmr.c ****                       if (ptmr->OSTmrDly == 0u) {
 576              		.loc 1 407 0
 577 0080 7B68     		ldr	r3, [r7, #4]
 578 0082 9B69     		ldr	r3, [r3, #24]
 579 0084 002B     		cmp	r3, #0
 580 0086 03D1     		bne	.L54
 408:..\..\..\..\..\..\Software\uCOS-II\Source/os_tmr.c ****                           remain = ptmr->OSTmrPeriod;
 581              		.loc 1 408 0
 582 0088 7B68     		ldr	r3, [r7, #4]
 583 008a DB69     		ldr	r3, [r3, #28]
 584 008c FB60     		str	r3, [r7, #12]
 585 008e 02E0     		b	.L55
 586              	.L54:
 409:..\..\..\..\..\..\Software\uCOS-II\Source/os_tmr.c ****                       } else {
 410:..\..\..\..\..\..\Software\uCOS-II\Source/os_tmr.c ****                           remain = ptmr->OSTmrDly;
 587              		.loc 1 410 0
 588 0090 7B68     		ldr	r3, [r7, #4]
 589 0092 9B69     		ldr	r3, [r3, #24]
 590 0094 FB60     		str	r3, [r7, #12]
 591              	.L55:
 411:..\..\..\..\..\..\Software\uCOS-II\Source/os_tmr.c ****                       }
 412:..\..\..\..\..\..\Software\uCOS-II\Source/os_tmr.c ****                       OSSchedUnlock();
 592              		.loc 1 412 0
 593 0096 FFF7FEFF 		bl	OSSchedUnlock
 413:..\..\..\..\..\..\Software\uCOS-II\Source/os_tmr.c ****                       *perr  = OS_ERR_NONE;
 594              		.loc 1 413 0
 595 009a 3B68     		ldr	r3, [r7]
 596 009c 0022     		movs	r2, #0
 597 009e 1A70     		strb	r2, [r3]
 414:..\..\..\..\..\..\Software\uCOS-II\Source/os_tmr.c ****                       break;
 598              		.loc 1 414 0
 599 00a0 08E0     		b	.L56
 600              	.L57:
 415:..\..\..\..\..\..\Software\uCOS-II\Source/os_tmr.c **** 
 416:..\..\..\..\..\..\Software\uCOS-II\Source/os_tmr.c ****                  case OS_TMR_OPT_ONE_SHOT:
 417:..\..\..\..\..\..\Software\uCOS-II\Source/os_tmr.c ****                  default:
 418:..\..\..\..\..\..\Software\uCOS-II\Source/os_tmr.c ****                       remain = ptmr->OSTmrDly;
 601              		.loc 1 418 0
 602 00a2 7B68     		ldr	r3, [r7, #4]
 603 00a4 9B69     		ldr	r3, [r3, #24]
 604 00a6 FB60     		str	r3, [r7, #12]
 419:..\..\..\..\..\..\Software\uCOS-II\Source/os_tmr.c ****                       OSSchedUnlock();
 605              		.loc 1 419 0
ARM GAS  C:\Users\ADMINI~1\AppData\Local\Temp\ccFuReWR.s 			page 19


 606 00a8 FFF7FEFF 		bl	OSSchedUnlock
 420:..\..\..\..\..\..\Software\uCOS-II\Source/os_tmr.c ****                       *perr  = OS_ERR_NONE;
 607              		.loc 1 420 0
 608 00ac 3B68     		ldr	r3, [r7]
 609 00ae 0022     		movs	r2, #0
 610 00b0 1A70     		strb	r2, [r3]
 421:..\..\..\..\..\..\Software\uCOS-II\Source/os_tmr.c ****                       break;
 611              		.loc 1 421 0
 612 00b2 C046     		nop
 613              	.L56:
 422:..\..\..\..\..\..\Software\uCOS-II\Source/os_tmr.c ****              }
 423:..\..\..\..\..\..\Software\uCOS-II\Source/os_tmr.c ****              return (remain);
 614              		.loc 1 423 0
 615 00b4 FB68     		ldr	r3, [r7, #12]
 616 00b6 13E0     		b	.L43
 617              	.L50:
 424:..\..\..\..\..\..\Software\uCOS-II\Source/os_tmr.c **** 
 425:..\..\..\..\..\..\Software\uCOS-II\Source/os_tmr.c ****         case OS_TMR_STATE_COMPLETED:                   /* Only ONE-SHOT that timed out can be in th
 426:..\..\..\..\..\..\Software\uCOS-II\Source/os_tmr.c ****              OSSchedUnlock();
 618              		.loc 1 426 0
 619 00b8 FFF7FEFF 		bl	OSSchedUnlock
 427:..\..\..\..\..\..\Software\uCOS-II\Source/os_tmr.c ****              *perr = OS_ERR_NONE;
 620              		.loc 1 427 0
 621 00bc 3B68     		ldr	r3, [r7]
 622 00be 0022     		movs	r2, #0
 623 00c0 1A70     		strb	r2, [r3]
 428:..\..\..\..\..\..\Software\uCOS-II\Source/os_tmr.c ****              return (0u);
 624              		.loc 1 428 0
 625 00c2 0023     		movs	r3, #0
 626 00c4 0CE0     		b	.L43
 627              	.L49:
 429:..\..\..\..\..\..\Software\uCOS-II\Source/os_tmr.c **** 
 430:..\..\..\..\..\..\Software\uCOS-II\Source/os_tmr.c ****         case OS_TMR_STATE_UNUSED:
 431:..\..\..\..\..\..\Software\uCOS-II\Source/os_tmr.c ****              OSSchedUnlock();
 628              		.loc 1 431 0
 629 00c6 FFF7FEFF 		bl	OSSchedUnlock
 432:..\..\..\..\..\..\Software\uCOS-II\Source/os_tmr.c ****              *perr = OS_ERR_TMR_INACTIVE;
 630              		.loc 1 432 0
 631 00ca 3B68     		ldr	r3, [r7]
 632 00cc 8722     		movs	r2, #135
 633 00ce 1A70     		strb	r2, [r3]
 433:..\..\..\..\..\..\Software\uCOS-II\Source/os_tmr.c ****              return (0u);
 634              		.loc 1 433 0
 635 00d0 0023     		movs	r3, #0
 636 00d2 05E0     		b	.L43
 637              	.L46:
 434:..\..\..\..\..\..\Software\uCOS-II\Source/os_tmr.c **** 
 435:..\..\..\..\..\..\Software\uCOS-II\Source/os_tmr.c ****         default:
 436:..\..\..\..\..\..\Software\uCOS-II\Source/os_tmr.c ****              OSSchedUnlock();
 638              		.loc 1 436 0
 639 00d4 FFF7FEFF 		bl	OSSchedUnlock
 437:..\..\..\..\..\..\Software\uCOS-II\Source/os_tmr.c ****              *perr = OS_ERR_TMR_INVALID_STATE;
 640              		.loc 1 437 0
 641 00d8 3B68     		ldr	r3, [r7]
 642 00da 8D22     		movs	r2, #141
 643 00dc 1A70     		strb	r2, [r3]
 438:..\..\..\..\..\..\Software\uCOS-II\Source/os_tmr.c ****              return (0u);
ARM GAS  C:\Users\ADMINI~1\AppData\Local\Temp\ccFuReWR.s 			page 20


 644              		.loc 1 438 0
 645 00de 0023     		movs	r3, #0
 646              	.L43:
 439:..\..\..\..\..\..\Software\uCOS-II\Source/os_tmr.c ****     }
 440:..\..\..\..\..\..\Software\uCOS-II\Source/os_tmr.c **** }
 647              		.loc 1 440 0
 648 00e0 1800     		movs	r0, r3
 649 00e2 BD46     		mov	sp, r7
 650 00e4 04B0     		add	sp, sp, #16
 651              		@ sp needed
 652 00e6 80BD     		pop	{r7, pc}
 653              	.L59:
 654              		.align	2
 655              	.L58:
 656 00e8 00000000 		.word	OSIntNesting
 657 00ec 00000000 		.word	OSTmrTime
 658              		.cfi_endproc
 659              	.LFE4:
 660              		.size	OSTmrRemainGet, .-OSTmrRemainGet
 661              		.section	.text.OSTmrStateGet,"ax",%progbits
 662              		.align	2
 663              		.global	OSTmrStateGet
 664              		.code	16
 665              		.thumb_func
 666              		.type	OSTmrStateGet, %function
 667              	OSTmrStateGet:
 668              	.LFB5:
 441:..\..\..\..\..\..\Software\uCOS-II\Source/os_tmr.c **** #endif
 442:..\..\..\..\..\..\Software\uCOS-II\Source/os_tmr.c **** 
 443:..\..\..\..\..\..\Software\uCOS-II\Source/os_tmr.c **** /*$PAGE*/
 444:..\..\..\..\..\..\Software\uCOS-II\Source/os_tmr.c **** /*
 445:..\..\..\..\..\..\Software\uCOS-II\Source/os_tmr.c **** ***************************************************************************************************
 446:..\..\..\..\..\..\Software\uCOS-II\Source/os_tmr.c **** *                                  FIND OUT WHAT STATE A TIMER IS IN
 447:..\..\..\..\..\..\Software\uCOS-II\Source/os_tmr.c **** *
 448:..\..\..\..\..\..\Software\uCOS-II\Source/os_tmr.c **** * Description: This function is called to determine what state the timer is in:
 449:..\..\..\..\..\..\Software\uCOS-II\Source/os_tmr.c **** *
 450:..\..\..\..\..\..\Software\uCOS-II\Source/os_tmr.c **** *                  OS_TMR_STATE_UNUSED     the timer has not been created
 451:..\..\..\..\..\..\Software\uCOS-II\Source/os_tmr.c **** *                  OS_TMR_STATE_STOPPED    the timer has been created but has not been started or h
 452:..\..\..\..\..\..\Software\uCOS-II\Source/os_tmr.c **** *                  OS_TMR_STATE_COMPLETED  the timer is in ONE-SHOT mode and has completed it's tim
 453:..\..\..\..\..\..\Software\uCOS-II\Source/os_tmr.c **** *                  OS_TMR_STATE_RUNNING    the timer is currently running
 454:..\..\..\..\..\..\Software\uCOS-II\Source/os_tmr.c **** *
 455:..\..\..\..\..\..\Software\uCOS-II\Source/os_tmr.c **** * Arguments  : ptmr          Is a pointer to the desired timer
 456:..\..\..\..\..\..\Software\uCOS-II\Source/os_tmr.c **** *
 457:..\..\..\..\..\..\Software\uCOS-II\Source/os_tmr.c **** *              perr          Is a pointer to an error code.  '*perr' will contain one of the follow
 458:..\..\..\..\..\..\Software\uCOS-II\Source/os_tmr.c **** *                               OS_ERR_NONE
 459:..\..\..\..\..\..\Software\uCOS-II\Source/os_tmr.c **** *                               OS_ERR_TMR_INVALID        'ptmr' is a NULL pointer
 460:..\..\..\..\..\..\Software\uCOS-II\Source/os_tmr.c **** *                               OS_ERR_TMR_INVALID_TYPE   'ptmr'  is not pointing to an OS_TMR
 461:..\..\..\..\..\..\Software\uCOS-II\Source/os_tmr.c **** *                               OS_ERR_TMR_ISR            if the call was made from an ISR
 462:..\..\..\..\..\..\Software\uCOS-II\Source/os_tmr.c **** *                               OS_ERR_TMR_INACTIVE       'ptmr' points to a timer that is not acti
 463:..\..\..\..\..\..\Software\uCOS-II\Source/os_tmr.c **** *                               OS_ERR_TMR_INVALID_STATE  if the timer is not in a valid state
 464:..\..\..\..\..\..\Software\uCOS-II\Source/os_tmr.c **** *
 465:..\..\..\..\..\..\Software\uCOS-II\Source/os_tmr.c **** * Returns    : The current state of the timer (see description).
 466:..\..\..\..\..\..\Software\uCOS-II\Source/os_tmr.c **** ***************************************************************************************************
 467:..\..\..\..\..\..\Software\uCOS-II\Source/os_tmr.c **** */
 468:..\..\..\..\..\..\Software\uCOS-II\Source/os_tmr.c **** 
 469:..\..\..\..\..\..\Software\uCOS-II\Source/os_tmr.c **** #if OS_TMR_EN > 0u
 470:..\..\..\..\..\..\Software\uCOS-II\Source/os_tmr.c **** INT8U  OSTmrStateGet (OS_TMR  *ptmr,
ARM GAS  C:\Users\ADMINI~1\AppData\Local\Temp\ccFuReWR.s 			page 21


 471:..\..\..\..\..\..\Software\uCOS-II\Source/os_tmr.c ****                       INT8U   *perr)
 472:..\..\..\..\..\..\Software\uCOS-II\Source/os_tmr.c **** {
 669              		.loc 1 472 0
 670              		.cfi_startproc
 671              		@ args = 0, pretend = 0, frame = 16
 672              		@ frame_needed = 1, uses_anonymous_args = 0
 673 0000 80B5     		push	{r7, lr}
 674              		.cfi_def_cfa_offset 8
 675              		.cfi_offset 7, -8
 676              		.cfi_offset 14, -4
 677 0002 84B0     		sub	sp, sp, #16
 678              		.cfi_def_cfa_offset 24
 679 0004 00AF     		add	r7, sp, #0
 680              		.cfi_def_cfa_register 7
 681 0006 7860     		str	r0, [r7, #4]
 682 0008 3960     		str	r1, [r7]
 473:..\..\..\..\..\..\Software\uCOS-II\Source/os_tmr.c ****     INT8U  state;
 474:..\..\..\..\..\..\Software\uCOS-II\Source/os_tmr.c **** 
 475:..\..\..\..\..\..\Software\uCOS-II\Source/os_tmr.c **** 
 476:..\..\..\..\..\..\Software\uCOS-II\Source/os_tmr.c **** #ifdef OS_SAFETY_CRITICAL
 477:..\..\..\..\..\..\Software\uCOS-II\Source/os_tmr.c ****     if (perr == (INT8U *)0) {
 478:..\..\..\..\..\..\Software\uCOS-II\Source/os_tmr.c ****         OS_SAFETY_CRITICAL_EXCEPTION();
 479:..\..\..\..\..\..\Software\uCOS-II\Source/os_tmr.c ****         return (0u);
 480:..\..\..\..\..\..\Software\uCOS-II\Source/os_tmr.c ****     }
 481:..\..\..\..\..\..\Software\uCOS-II\Source/os_tmr.c **** #endif
 482:..\..\..\..\..\..\Software\uCOS-II\Source/os_tmr.c **** 
 483:..\..\..\..\..\..\Software\uCOS-II\Source/os_tmr.c **** #if OS_ARG_CHK_EN > 0u
 484:..\..\..\..\..\..\Software\uCOS-II\Source/os_tmr.c ****     if (ptmr == (OS_TMR *)0) {
 683              		.loc 1 484 0
 684 000a 7B68     		ldr	r3, [r7, #4]
 685 000c 002B     		cmp	r3, #0
 686 000e 04D1     		bne	.L61
 485:..\..\..\..\..\..\Software\uCOS-II\Source/os_tmr.c ****         *perr = OS_ERR_TMR_INVALID;
 687              		.loc 1 485 0
 688 0010 3B68     		ldr	r3, [r7]
 689 0012 8A22     		movs	r2, #138
 690 0014 1A70     		strb	r2, [r3]
 486:..\..\..\..\..\..\Software\uCOS-II\Source/os_tmr.c ****         return (0u);
 691              		.loc 1 486 0
 692 0016 0023     		movs	r3, #0
 693 0018 2CE0     		b	.L62
 694              	.L61:
 487:..\..\..\..\..\..\Software\uCOS-II\Source/os_tmr.c ****     }
 488:..\..\..\..\..\..\Software\uCOS-II\Source/os_tmr.c **** #endif
 489:..\..\..\..\..\..\Software\uCOS-II\Source/os_tmr.c ****     if (ptmr->OSTmrType != OS_TMR_TYPE) {              /* Validate timer structure                 
 695              		.loc 1 489 0
 696 001a 7B68     		ldr	r3, [r7, #4]
 697 001c 1B78     		ldrb	r3, [r3]
 698 001e 642B     		cmp	r3, #100
 699 0020 04D0     		beq	.L63
 490:..\..\..\..\..\..\Software\uCOS-II\Source/os_tmr.c ****         *perr = OS_ERR_TMR_INVALID_TYPE;
 700              		.loc 1 490 0
 701 0022 3B68     		ldr	r3, [r7]
 702 0024 8922     		movs	r2, #137
 703 0026 1A70     		strb	r2, [r3]
 491:..\..\..\..\..\..\Software\uCOS-II\Source/os_tmr.c ****         return (0u);
 704              		.loc 1 491 0
ARM GAS  C:\Users\ADMINI~1\AppData\Local\Temp\ccFuReWR.s 			page 22


 705 0028 0023     		movs	r3, #0
 706 002a 23E0     		b	.L62
 707              	.L63:
 492:..\..\..\..\..\..\Software\uCOS-II\Source/os_tmr.c ****     }
 493:..\..\..\..\..\..\Software\uCOS-II\Source/os_tmr.c ****     if (OSIntNesting > 0u) {                           /* See if trying to call from an ISR        
 708              		.loc 1 493 0
 709 002c 134B     		ldr	r3, .L68
 710 002e 1B78     		ldrb	r3, [r3]
 711 0030 002B     		cmp	r3, #0
 712 0032 04D0     		beq	.L64
 494:..\..\..\..\..\..\Software\uCOS-II\Source/os_tmr.c ****         *perr = OS_ERR_TMR_ISR;
 713              		.loc 1 494 0
 714 0034 3B68     		ldr	r3, [r7]
 715 0036 8B22     		movs	r2, #139
 716 0038 1A70     		strb	r2, [r3]
 495:..\..\..\..\..\..\Software\uCOS-II\Source/os_tmr.c ****         return (0u);
 717              		.loc 1 495 0
 718 003a 0023     		movs	r3, #0
 719 003c 1AE0     		b	.L62
 720              	.L64:
 496:..\..\..\..\..\..\Software\uCOS-II\Source/os_tmr.c ****     }
 497:..\..\..\..\..\..\Software\uCOS-II\Source/os_tmr.c ****     OSSchedLock();
 721              		.loc 1 497 0
 722 003e FFF7FEFF 		bl	OSSchedLock
 498:..\..\..\..\..\..\Software\uCOS-II\Source/os_tmr.c ****     state = ptmr->OSTmrState;
 723              		.loc 1 498 0
 724 0042 0F23     		movs	r3, #15
 725 0044 FB18     		adds	r3, r7, r3
 726 0046 7A68     		ldr	r2, [r7, #4]
 727 0048 2521     		movs	r1, #37
 728 004a 525C     		ldrb	r2, [r2, r1]
 729 004c 1A70     		strb	r2, [r3]
 499:..\..\..\..\..\..\Software\uCOS-II\Source/os_tmr.c ****     switch (state) {
 730              		.loc 1 499 0
 731 004e 0F23     		movs	r3, #15
 732 0050 FB18     		adds	r3, r7, r3
 733 0052 1B78     		ldrb	r3, [r3]
 734 0054 0033     		adds	r3, r3, #0
 735 0056 032B     		cmp	r3, #3
 736 0058 03D8     		bhi	.L65
 500:..\..\..\..\..\..\Software\uCOS-II\Source/os_tmr.c ****         case OS_TMR_STATE_UNUSED:
 501:..\..\..\..\..\..\Software\uCOS-II\Source/os_tmr.c ****         case OS_TMR_STATE_STOPPED:
 502:..\..\..\..\..\..\Software\uCOS-II\Source/os_tmr.c ****         case OS_TMR_STATE_COMPLETED:
 503:..\..\..\..\..\..\Software\uCOS-II\Source/os_tmr.c ****         case OS_TMR_STATE_RUNNING:
 504:..\..\..\..\..\..\Software\uCOS-II\Source/os_tmr.c ****              *perr = OS_ERR_NONE;
 737              		.loc 1 504 0
 738 005a 3B68     		ldr	r3, [r7]
 739 005c 0022     		movs	r2, #0
 740 005e 1A70     		strb	r2, [r3]
 505:..\..\..\..\..\..\Software\uCOS-II\Source/os_tmr.c ****              break;
 741              		.loc 1 505 0
 742 0060 03E0     		b	.L67
 743              	.L65:
 506:..\..\..\..\..\..\Software\uCOS-II\Source/os_tmr.c **** 
 507:..\..\..\..\..\..\Software\uCOS-II\Source/os_tmr.c ****         default:
 508:..\..\..\..\..\..\Software\uCOS-II\Source/os_tmr.c ****              *perr = OS_ERR_TMR_INVALID_STATE;
 744              		.loc 1 508 0
ARM GAS  C:\Users\ADMINI~1\AppData\Local\Temp\ccFuReWR.s 			page 23


 745 0062 3B68     		ldr	r3, [r7]
 746 0064 8D22     		movs	r2, #141
 747 0066 1A70     		strb	r2, [r3]
 509:..\..\..\..\..\..\Software\uCOS-II\Source/os_tmr.c ****              break;
 748              		.loc 1 509 0
 749 0068 C046     		nop
 750              	.L67:
 510:..\..\..\..\..\..\Software\uCOS-II\Source/os_tmr.c ****     }
 511:..\..\..\..\..\..\Software\uCOS-II\Source/os_tmr.c ****     OSSchedUnlock();
 751              		.loc 1 511 0
 752 006a FFF7FEFF 		bl	OSSchedUnlock
 512:..\..\..\..\..\..\Software\uCOS-II\Source/os_tmr.c ****     return (state);
 753              		.loc 1 512 0
 754 006e 0F23     		movs	r3, #15
 755 0070 FB18     		adds	r3, r7, r3
 756 0072 1B78     		ldrb	r3, [r3]
 757              	.L62:
 513:..\..\..\..\..\..\Software\uCOS-II\Source/os_tmr.c **** }
 758              		.loc 1 513 0
 759 0074 1800     		movs	r0, r3
 760 0076 BD46     		mov	sp, r7
 761 0078 04B0     		add	sp, sp, #16
 762              		@ sp needed
 763 007a 80BD     		pop	{r7, pc}
 764              	.L69:
 765              		.align	2
 766              	.L68:
 767 007c 00000000 		.word	OSIntNesting
 768              		.cfi_endproc
 769              	.LFE5:
 770              		.size	OSTmrStateGet, .-OSTmrStateGet
 771              		.section	.text.OSTmrStart,"ax",%progbits
 772              		.align	2
 773              		.global	OSTmrStart
 774              		.code	16
 775              		.thumb_func
 776              		.type	OSTmrStart, %function
 777              	OSTmrStart:
 778              	.LFB6:
 514:..\..\..\..\..\..\Software\uCOS-II\Source/os_tmr.c **** #endif
 515:..\..\..\..\..\..\Software\uCOS-II\Source/os_tmr.c **** 
 516:..\..\..\..\..\..\Software\uCOS-II\Source/os_tmr.c **** /*$PAGE*/
 517:..\..\..\..\..\..\Software\uCOS-II\Source/os_tmr.c **** /*
 518:..\..\..\..\..\..\Software\uCOS-II\Source/os_tmr.c **** ***************************************************************************************************
 519:..\..\..\..\..\..\Software\uCOS-II\Source/os_tmr.c **** *                                            START A TIMER
 520:..\..\..\..\..\..\Software\uCOS-II\Source/os_tmr.c **** *
 521:..\..\..\..\..\..\Software\uCOS-II\Source/os_tmr.c **** * Description: This function is called by your application code to start a timer.
 522:..\..\..\..\..\..\Software\uCOS-II\Source/os_tmr.c **** *
 523:..\..\..\..\..\..\Software\uCOS-II\Source/os_tmr.c **** * Arguments  : ptmr          Is a pointer to an OS_TMR
 524:..\..\..\..\..\..\Software\uCOS-II\Source/os_tmr.c **** *
 525:..\..\..\..\..\..\Software\uCOS-II\Source/os_tmr.c **** *              perr          Is a pointer to an error code.  '*perr' will contain one of the follow
 526:..\..\..\..\..\..\Software\uCOS-II\Source/os_tmr.c **** *                               OS_ERR_NONE
 527:..\..\..\..\..\..\Software\uCOS-II\Source/os_tmr.c **** *                               OS_ERR_TMR_INVALID
 528:..\..\..\..\..\..\Software\uCOS-II\Source/os_tmr.c **** *                               OS_ERR_TMR_INVALID_TYPE    'ptmr'  is not pointing to an OS_TMR
 529:..\..\..\..\..\..\Software\uCOS-II\Source/os_tmr.c **** *                               OS_ERR_TMR_ISR             if the call was made from an ISR
 530:..\..\..\..\..\..\Software\uCOS-II\Source/os_tmr.c **** *                               OS_ERR_TMR_INACTIVE        if the timer was not created
 531:..\..\..\..\..\..\Software\uCOS-II\Source/os_tmr.c **** *                               OS_ERR_TMR_INVALID_STATE   the timer is in an invalid state
ARM GAS  C:\Users\ADMINI~1\AppData\Local\Temp\ccFuReWR.s 			page 24


 532:..\..\..\..\..\..\Software\uCOS-II\Source/os_tmr.c **** *
 533:..\..\..\..\..\..\Software\uCOS-II\Source/os_tmr.c **** * Returns    : OS_TRUE    if the timer was started
 534:..\..\..\..\..\..\Software\uCOS-II\Source/os_tmr.c **** *              OS_FALSE   if an error was detected
 535:..\..\..\..\..\..\Software\uCOS-II\Source/os_tmr.c **** ***************************************************************************************************
 536:..\..\..\..\..\..\Software\uCOS-II\Source/os_tmr.c **** */
 537:..\..\..\..\..\..\Software\uCOS-II\Source/os_tmr.c **** 
 538:..\..\..\..\..\..\Software\uCOS-II\Source/os_tmr.c **** #if OS_TMR_EN > 0u
 539:..\..\..\..\..\..\Software\uCOS-II\Source/os_tmr.c **** BOOLEAN  OSTmrStart (OS_TMR   *ptmr,
 540:..\..\..\..\..\..\Software\uCOS-II\Source/os_tmr.c ****                      INT8U    *perr)
 541:..\..\..\..\..\..\Software\uCOS-II\Source/os_tmr.c **** {
 779              		.loc 1 541 0
 780              		.cfi_startproc
 781              		@ args = 0, pretend = 0, frame = 8
 782              		@ frame_needed = 1, uses_anonymous_args = 0
 783 0000 80B5     		push	{r7, lr}
 784              		.cfi_def_cfa_offset 8
 785              		.cfi_offset 7, -8
 786              		.cfi_offset 14, -4
 787 0002 82B0     		sub	sp, sp, #8
 788              		.cfi_def_cfa_offset 16
 789 0004 00AF     		add	r7, sp, #0
 790              		.cfi_def_cfa_register 7
 791 0006 7860     		str	r0, [r7, #4]
 792 0008 3960     		str	r1, [r7]
 542:..\..\..\..\..\..\Software\uCOS-II\Source/os_tmr.c **** #ifdef OS_SAFETY_CRITICAL
 543:..\..\..\..\..\..\Software\uCOS-II\Source/os_tmr.c ****     if (perr == (INT8U *)0) {
 544:..\..\..\..\..\..\Software\uCOS-II\Source/os_tmr.c ****         OS_SAFETY_CRITICAL_EXCEPTION();
 545:..\..\..\..\..\..\Software\uCOS-II\Source/os_tmr.c ****         return (OS_FALSE);
 546:..\..\..\..\..\..\Software\uCOS-II\Source/os_tmr.c ****     }
 547:..\..\..\..\..\..\Software\uCOS-II\Source/os_tmr.c **** #endif
 548:..\..\..\..\..\..\Software\uCOS-II\Source/os_tmr.c **** 
 549:..\..\..\..\..\..\Software\uCOS-II\Source/os_tmr.c **** #if OS_ARG_CHK_EN > 0u
 550:..\..\..\..\..\..\Software\uCOS-II\Source/os_tmr.c ****     if (ptmr == (OS_TMR *)0) {
 793              		.loc 1 550 0
 794 000a 7B68     		ldr	r3, [r7, #4]
 795 000c 002B     		cmp	r3, #0
 796 000e 04D1     		bne	.L71
 551:..\..\..\..\..\..\Software\uCOS-II\Source/os_tmr.c ****         *perr = OS_ERR_TMR_INVALID;
 797              		.loc 1 551 0
 798 0010 3B68     		ldr	r3, [r7]
 799 0012 8A22     		movs	r2, #138
 800 0014 1A70     		strb	r2, [r3]
 552:..\..\..\..\..\..\Software\uCOS-II\Source/os_tmr.c ****         return (OS_FALSE);
 801              		.loc 1 552 0
 802 0016 0023     		movs	r3, #0
 803 0018 48E0     		b	.L72
 804              	.L71:
 553:..\..\..\..\..\..\Software\uCOS-II\Source/os_tmr.c ****     }
 554:..\..\..\..\..\..\Software\uCOS-II\Source/os_tmr.c **** #endif
 555:..\..\..\..\..\..\Software\uCOS-II\Source/os_tmr.c ****     if (ptmr->OSTmrType != OS_TMR_TYPE) {                   /* Validate timer structure            
 805              		.loc 1 555 0
 806 001a 7B68     		ldr	r3, [r7, #4]
 807 001c 1B78     		ldrb	r3, [r3]
 808 001e 642B     		cmp	r3, #100
 809 0020 04D0     		beq	.L73
 556:..\..\..\..\..\..\Software\uCOS-II\Source/os_tmr.c ****         *perr = OS_ERR_TMR_INVALID_TYPE;
 810              		.loc 1 556 0
ARM GAS  C:\Users\ADMINI~1\AppData\Local\Temp\ccFuReWR.s 			page 25


 811 0022 3B68     		ldr	r3, [r7]
 812 0024 8922     		movs	r2, #137
 813 0026 1A70     		strb	r2, [r3]
 557:..\..\..\..\..\..\Software\uCOS-II\Source/os_tmr.c ****         return (OS_FALSE);
 814              		.loc 1 557 0
 815 0028 0023     		movs	r3, #0
 816 002a 3FE0     		b	.L72
 817              	.L73:
 558:..\..\..\..\..\..\Software\uCOS-II\Source/os_tmr.c ****     }
 559:..\..\..\..\..\..\Software\uCOS-II\Source/os_tmr.c ****     if (OSIntNesting > 0u) {                                /* See if trying to call from an ISR   
 818              		.loc 1 559 0
 819 002c 214B     		ldr	r3, .L80
 820 002e 1B78     		ldrb	r3, [r3]
 821 0030 002B     		cmp	r3, #0
 822 0032 04D0     		beq	.L74
 560:..\..\..\..\..\..\Software\uCOS-II\Source/os_tmr.c ****         *perr  = OS_ERR_TMR_ISR;
 823              		.loc 1 560 0
 824 0034 3B68     		ldr	r3, [r7]
 825 0036 8B22     		movs	r2, #139
 826 0038 1A70     		strb	r2, [r3]
 561:..\..\..\..\..\..\Software\uCOS-II\Source/os_tmr.c ****         return (OS_FALSE);
 827              		.loc 1 561 0
 828 003a 0023     		movs	r3, #0
 829 003c 36E0     		b	.L72
 830              	.L74:
 562:..\..\..\..\..\..\Software\uCOS-II\Source/os_tmr.c ****     }
 563:..\..\..\..\..\..\Software\uCOS-II\Source/os_tmr.c ****     OSSchedLock();
 831              		.loc 1 563 0
 832 003e FFF7FEFF 		bl	OSSchedLock
 564:..\..\..\..\..\..\Software\uCOS-II\Source/os_tmr.c ****     switch (ptmr->OSTmrState) {
 833              		.loc 1 564 0
 834 0042 7B68     		ldr	r3, [r7, #4]
 835 0044 2522     		movs	r2, #37
 836 0046 9B5C     		ldrb	r3, [r3, r2]
 837 0048 022B     		cmp	r3, #2
 838 004a 04DC     		bgt	.L76
 839 004c 012B     		cmp	r3, #1
 840 004e 14DA     		bge	.L77
 841 0050 002B     		cmp	r3, #0
 842 0052 1ED0     		beq	.L78
 843 0054 24E0     		b	.L75
 844              	.L76:
 845 0056 032B     		cmp	r3, #3
 846 0058 22D1     		bne	.L75
 565:..\..\..\..\..\..\Software\uCOS-II\Source/os_tmr.c ****         case OS_TMR_STATE_RUNNING:                          /* Restart the timer                   
 566:..\..\..\..\..\..\Software\uCOS-II\Source/os_tmr.c ****              OSTmr_Unlink(ptmr);                            /* ... Stop the timer                  
 847              		.loc 1 566 0
 848 005a 7B68     		ldr	r3, [r7, #4]
 849 005c 1800     		movs	r0, r3
 850 005e FFF7FEFF 		bl	OSTmr_Unlink
 567:..\..\..\..\..\..\Software\uCOS-II\Source/os_tmr.c ****              OSTmr_Link(ptmr, OS_TMR_LINK_DLY);             /* ... Link timer to timer wheel       
 851              		.loc 1 567 0
 852 0062 7B68     		ldr	r3, [r7, #4]
 853 0064 0021     		movs	r1, #0
 854 0066 1800     		movs	r0, r3
 855 0068 FFF7FEFF 		bl	OSTmr_Link
 568:..\..\..\..\..\..\Software\uCOS-II\Source/os_tmr.c ****              OSSchedUnlock();
ARM GAS  C:\Users\ADMINI~1\AppData\Local\Temp\ccFuReWR.s 			page 26


 856              		.loc 1 568 0
 857 006c FFF7FEFF 		bl	OSSchedUnlock
 569:..\..\..\..\..\..\Software\uCOS-II\Source/os_tmr.c ****              *perr = OS_ERR_NONE;
 858              		.loc 1 569 0
 859 0070 3B68     		ldr	r3, [r7]
 860 0072 0022     		movs	r2, #0
 861 0074 1A70     		strb	r2, [r3]
 570:..\..\..\..\..\..\Software\uCOS-II\Source/os_tmr.c ****              return (OS_TRUE);
 862              		.loc 1 570 0
 863 0076 0123     		movs	r3, #1
 864 0078 18E0     		b	.L72
 865              	.L77:
 571:..\..\..\..\..\..\Software\uCOS-II\Source/os_tmr.c **** 
 572:..\..\..\..\..\..\Software\uCOS-II\Source/os_tmr.c ****         case OS_TMR_STATE_STOPPED:                          /* Start the timer                     
 573:..\..\..\..\..\..\Software\uCOS-II\Source/os_tmr.c ****         case OS_TMR_STATE_COMPLETED:
 574:..\..\..\..\..\..\Software\uCOS-II\Source/os_tmr.c ****              OSTmr_Link(ptmr, OS_TMR_LINK_DLY);             /* ... Link timer to timer wheel       
 866              		.loc 1 574 0
 867 007a 7B68     		ldr	r3, [r7, #4]
 868 007c 0021     		movs	r1, #0
 869 007e 1800     		movs	r0, r3
 870 0080 FFF7FEFF 		bl	OSTmr_Link
 575:..\..\..\..\..\..\Software\uCOS-II\Source/os_tmr.c ****              OSSchedUnlock();
 871              		.loc 1 575 0
 872 0084 FFF7FEFF 		bl	OSSchedUnlock
 576:..\..\..\..\..\..\Software\uCOS-II\Source/os_tmr.c ****              *perr = OS_ERR_NONE;
 873              		.loc 1 576 0
 874 0088 3B68     		ldr	r3, [r7]
 875 008a 0022     		movs	r2, #0
 876 008c 1A70     		strb	r2, [r3]
 577:..\..\..\..\..\..\Software\uCOS-II\Source/os_tmr.c ****              return (OS_TRUE);
 877              		.loc 1 577 0
 878 008e 0123     		movs	r3, #1
 879 0090 0CE0     		b	.L72
 880              	.L78:
 578:..\..\..\..\..\..\Software\uCOS-II\Source/os_tmr.c **** 
 579:..\..\..\..\..\..\Software\uCOS-II\Source/os_tmr.c ****         case OS_TMR_STATE_UNUSED:                           /* Timer not created                   
 580:..\..\..\..\..\..\Software\uCOS-II\Source/os_tmr.c ****              OSSchedUnlock();
 881              		.loc 1 580 0
 882 0092 FFF7FEFF 		bl	OSSchedUnlock
 581:..\..\..\..\..\..\Software\uCOS-II\Source/os_tmr.c ****              *perr = OS_ERR_TMR_INACTIVE;
 883              		.loc 1 581 0
 884 0096 3B68     		ldr	r3, [r7]
 885 0098 8722     		movs	r2, #135
 886 009a 1A70     		strb	r2, [r3]
 582:..\..\..\..\..\..\Software\uCOS-II\Source/os_tmr.c ****              return (OS_FALSE);
 887              		.loc 1 582 0
 888 009c 0023     		movs	r3, #0
 889 009e 05E0     		b	.L72
 890              	.L75:
 583:..\..\..\..\..\..\Software\uCOS-II\Source/os_tmr.c **** 
 584:..\..\..\..\..\..\Software\uCOS-II\Source/os_tmr.c ****         default:
 585:..\..\..\..\..\..\Software\uCOS-II\Source/os_tmr.c ****              OSSchedUnlock();
 891              		.loc 1 585 0
 892 00a0 FFF7FEFF 		bl	OSSchedUnlock
 586:..\..\..\..\..\..\Software\uCOS-II\Source/os_tmr.c ****              *perr = OS_ERR_TMR_INVALID_STATE;
 893              		.loc 1 586 0
 894 00a4 3B68     		ldr	r3, [r7]
ARM GAS  C:\Users\ADMINI~1\AppData\Local\Temp\ccFuReWR.s 			page 27


 895 00a6 8D22     		movs	r2, #141
 896 00a8 1A70     		strb	r2, [r3]
 587:..\..\..\..\..\..\Software\uCOS-II\Source/os_tmr.c ****              return (OS_FALSE);
 897              		.loc 1 587 0
 898 00aa 0023     		movs	r3, #0
 899              	.L72:
 588:..\..\..\..\..\..\Software\uCOS-II\Source/os_tmr.c ****     }
 589:..\..\..\..\..\..\Software\uCOS-II\Source/os_tmr.c **** }
 900              		.loc 1 589 0
 901 00ac 1800     		movs	r0, r3
 902 00ae BD46     		mov	sp, r7
 903 00b0 02B0     		add	sp, sp, #8
 904              		@ sp needed
 905 00b2 80BD     		pop	{r7, pc}
 906              	.L81:
 907              		.align	2
 908              	.L80:
 909 00b4 00000000 		.word	OSIntNesting
 910              		.cfi_endproc
 911              	.LFE6:
 912              		.size	OSTmrStart, .-OSTmrStart
 913              		.section	.text.OSTmrStop,"ax",%progbits
 914              		.align	2
 915              		.global	OSTmrStop
 916              		.code	16
 917              		.thumb_func
 918              		.type	OSTmrStop, %function
 919              	OSTmrStop:
 920              	.LFB7:
 590:..\..\..\..\..\..\Software\uCOS-II\Source/os_tmr.c **** #endif
 591:..\..\..\..\..\..\Software\uCOS-II\Source/os_tmr.c **** 
 592:..\..\..\..\..\..\Software\uCOS-II\Source/os_tmr.c **** /*$PAGE*/
 593:..\..\..\..\..\..\Software\uCOS-II\Source/os_tmr.c **** /*
 594:..\..\..\..\..\..\Software\uCOS-II\Source/os_tmr.c **** ***************************************************************************************************
 595:..\..\..\..\..\..\Software\uCOS-II\Source/os_tmr.c **** *                                            STOP A TIMER
 596:..\..\..\..\..\..\Software\uCOS-II\Source/os_tmr.c **** *
 597:..\..\..\..\..\..\Software\uCOS-II\Source/os_tmr.c **** * Description: This function is called by your application code to stop a timer.
 598:..\..\..\..\..\..\Software\uCOS-II\Source/os_tmr.c **** *
 599:..\..\..\..\..\..\Software\uCOS-II\Source/os_tmr.c **** * Arguments  : ptmr          Is a pointer to the timer to stop.
 600:..\..\..\..\..\..\Software\uCOS-II\Source/os_tmr.c **** *
 601:..\..\..\..\..\..\Software\uCOS-II\Source/os_tmr.c **** *              opt           Allows you to specify an option to this functions which can be:
 602:..\..\..\..\..\..\Software\uCOS-II\Source/os_tmr.c **** *
 603:..\..\..\..\..\..\Software\uCOS-II\Source/os_tmr.c **** *                               OS_TMR_OPT_NONE          Do nothing special but stop the timer
 604:..\..\..\..\..\..\Software\uCOS-II\Source/os_tmr.c **** *                               OS_TMR_OPT_CALLBACK      Execute the callback function, pass it the
 605:..\..\..\..\..\..\Software\uCOS-II\Source/os_tmr.c **** *                                                        callback argument specified when the timer
 606:..\..\..\..\..\..\Software\uCOS-II\Source/os_tmr.c **** *                                                        was created.
 607:..\..\..\..\..\..\Software\uCOS-II\Source/os_tmr.c **** *                               OS_TMR_OPT_CALLBACK_ARG  Execute the callback function, pass it the
 608:..\..\..\..\..\..\Software\uCOS-II\Source/os_tmr.c **** *                                                        callback argument specified in THIS functi
 609:..\..\..\..\..\..\Software\uCOS-II\Source/os_tmr.c **** *
 610:..\..\..\..\..\..\Software\uCOS-II\Source/os_tmr.c **** *              callback_arg  Is a pointer to a 'new' callback argument that can be passed to the ca
 611:..\..\..\..\..\..\Software\uCOS-II\Source/os_tmr.c **** *                            function instead of the timer's callback argument.  In other words, us
 612:..\..\..\..\..\..\Software\uCOS-II\Source/os_tmr.c **** *                            'callback_arg' passed in THIS function INSTEAD of ptmr->OSTmrCallbackA
 613:..\..\..\..\..\..\Software\uCOS-II\Source/os_tmr.c **** *
 614:..\..\..\..\..\..\Software\uCOS-II\Source/os_tmr.c **** *              perr          Is a pointer to an error code.  '*perr' will contain one of the follow
 615:..\..\..\..\..\..\Software\uCOS-II\Source/os_tmr.c **** *                               OS_ERR_NONE
 616:..\..\..\..\..\..\Software\uCOS-II\Source/os_tmr.c **** *                               OS_ERR_TMR_INVALID         'ptmr' is a NULL pointer
 617:..\..\..\..\..\..\Software\uCOS-II\Source/os_tmr.c **** *                               OS_ERR_TMR_INVALID_TYPE    'ptmr'  is not pointing to an OS_TMR
ARM GAS  C:\Users\ADMINI~1\AppData\Local\Temp\ccFuReWR.s 			page 28


 618:..\..\..\..\..\..\Software\uCOS-II\Source/os_tmr.c **** *                               OS_ERR_TMR_ISR             if the function was called from an ISR
 619:..\..\..\..\..\..\Software\uCOS-II\Source/os_tmr.c **** *                               OS_ERR_TMR_INACTIVE        if the timer was not created
 620:..\..\..\..\..\..\Software\uCOS-II\Source/os_tmr.c **** *                               OS_ERR_TMR_INVALID_OPT     if you specified an invalid option for '
 621:..\..\..\..\..\..\Software\uCOS-II\Source/os_tmr.c **** *                               OS_ERR_TMR_STOPPED         if the timer was already stopped
 622:..\..\..\..\..\..\Software\uCOS-II\Source/os_tmr.c **** *                               OS_ERR_TMR_INVALID_STATE   the timer is in an invalid state
 623:..\..\..\..\..\..\Software\uCOS-II\Source/os_tmr.c **** *                               OS_ERR_TMR_NO_CALLBACK     if the timer does not have a callback fu
 624:..\..\..\..\..\..\Software\uCOS-II\Source/os_tmr.c **** *
 625:..\..\..\..\..\..\Software\uCOS-II\Source/os_tmr.c **** * Returns    : OS_TRUE       If we stopped the timer (if the timer is already stopped, we also retu
 626:..\..\..\..\..\..\Software\uCOS-II\Source/os_tmr.c **** *              OS_FALSE      If not
 627:..\..\..\..\..\..\Software\uCOS-II\Source/os_tmr.c **** ***************************************************************************************************
 628:..\..\..\..\..\..\Software\uCOS-II\Source/os_tmr.c **** */
 629:..\..\..\..\..\..\Software\uCOS-II\Source/os_tmr.c **** 
 630:..\..\..\..\..\..\Software\uCOS-II\Source/os_tmr.c **** #if OS_TMR_EN > 0u
 631:..\..\..\..\..\..\Software\uCOS-II\Source/os_tmr.c **** BOOLEAN  OSTmrStop (OS_TMR  *ptmr,
 632:..\..\..\..\..\..\Software\uCOS-II\Source/os_tmr.c ****                     INT8U    opt,
 633:..\..\..\..\..\..\Software\uCOS-II\Source/os_tmr.c ****                     void    *callback_arg,
 634:..\..\..\..\..\..\Software\uCOS-II\Source/os_tmr.c ****                     INT8U   *perr)
 635:..\..\..\..\..\..\Software\uCOS-II\Source/os_tmr.c **** {
 921              		.loc 1 635 0
 922              		.cfi_startproc
 923              		@ args = 0, pretend = 0, frame = 24
 924              		@ frame_needed = 1, uses_anonymous_args = 0
 925 0000 80B5     		push	{r7, lr}
 926              		.cfi_def_cfa_offset 8
 927              		.cfi_offset 7, -8
 928              		.cfi_offset 14, -4
 929 0002 86B0     		sub	sp, sp, #24
 930              		.cfi_def_cfa_offset 32
 931 0004 00AF     		add	r7, sp, #0
 932              		.cfi_def_cfa_register 7
 933 0006 F860     		str	r0, [r7, #12]
 934 0008 7A60     		str	r2, [r7, #4]
 935 000a 3B60     		str	r3, [r7]
 936 000c 0B23     		movs	r3, #11
 937 000e FB18     		adds	r3, r7, r3
 938 0010 0A1C     		adds	r2, r1, #0
 939 0012 1A70     		strb	r2, [r3]
 636:..\..\..\..\..\..\Software\uCOS-II\Source/os_tmr.c ****     OS_TMR_CALLBACK  pfnct;
 637:..\..\..\..\..\..\Software\uCOS-II\Source/os_tmr.c **** 
 638:..\..\..\..\..\..\Software\uCOS-II\Source/os_tmr.c **** 
 639:..\..\..\..\..\..\Software\uCOS-II\Source/os_tmr.c **** #ifdef OS_SAFETY_CRITICAL
 640:..\..\..\..\..\..\Software\uCOS-II\Source/os_tmr.c ****     if (perr == (INT8U *)0) {
 641:..\..\..\..\..\..\Software\uCOS-II\Source/os_tmr.c ****         OS_SAFETY_CRITICAL_EXCEPTION();
 642:..\..\..\..\..\..\Software\uCOS-II\Source/os_tmr.c ****         return (OS_FALSE);
 643:..\..\..\..\..\..\Software\uCOS-II\Source/os_tmr.c ****     }
 644:..\..\..\..\..\..\Software\uCOS-II\Source/os_tmr.c **** #endif
 645:..\..\..\..\..\..\Software\uCOS-II\Source/os_tmr.c **** 
 646:..\..\..\..\..\..\Software\uCOS-II\Source/os_tmr.c **** #if OS_ARG_CHK_EN > 0u
 647:..\..\..\..\..\..\Software\uCOS-II\Source/os_tmr.c ****     if (ptmr == (OS_TMR *)0) {
 940              		.loc 1 647 0
 941 0014 FB68     		ldr	r3, [r7, #12]
 942 0016 002B     		cmp	r3, #0
 943 0018 04D1     		bne	.L83
 648:..\..\..\..\..\..\Software\uCOS-II\Source/os_tmr.c ****         *perr = OS_ERR_TMR_INVALID;
 944              		.loc 1 648 0
 945 001a 3B68     		ldr	r3, [r7]
 946 001c 8A22     		movs	r2, #138
ARM GAS  C:\Users\ADMINI~1\AppData\Local\Temp\ccFuReWR.s 			page 29


 947 001e 1A70     		strb	r2, [r3]
 649:..\..\..\..\..\..\Software\uCOS-II\Source/os_tmr.c ****         return (OS_FALSE);
 948              		.loc 1 649 0
 949 0020 0023     		movs	r3, #0
 950 0022 6EE0     		b	.L84
 951              	.L83:
 650:..\..\..\..\..\..\Software\uCOS-II\Source/os_tmr.c ****     }
 651:..\..\..\..\..\..\Software\uCOS-II\Source/os_tmr.c **** #endif
 652:..\..\..\..\..\..\Software\uCOS-II\Source/os_tmr.c ****     if (ptmr->OSTmrType != OS_TMR_TYPE) {                         /* Validate timer structure      
 952              		.loc 1 652 0
 953 0024 FB68     		ldr	r3, [r7, #12]
 954 0026 1B78     		ldrb	r3, [r3]
 955 0028 642B     		cmp	r3, #100
 956 002a 04D0     		beq	.L85
 653:..\..\..\..\..\..\Software\uCOS-II\Source/os_tmr.c ****         *perr = OS_ERR_TMR_INVALID_TYPE;
 957              		.loc 1 653 0
 958 002c 3B68     		ldr	r3, [r7]
 959 002e 8922     		movs	r2, #137
 960 0030 1A70     		strb	r2, [r3]
 654:..\..\..\..\..\..\Software\uCOS-II\Source/os_tmr.c ****         return (OS_FALSE);
 961              		.loc 1 654 0
 962 0032 0023     		movs	r3, #0
 963 0034 65E0     		b	.L84
 964              	.L85:
 655:..\..\..\..\..\..\Software\uCOS-II\Source/os_tmr.c ****     }
 656:..\..\..\..\..\..\Software\uCOS-II\Source/os_tmr.c ****     if (OSIntNesting > 0u) {                                      /* See if trying to call from an 
 965              		.loc 1 656 0
 966 0036 354B     		ldr	r3, .L103
 967 0038 1B78     		ldrb	r3, [r3]
 968 003a 002B     		cmp	r3, #0
 969 003c 04D0     		beq	.L86
 657:..\..\..\..\..\..\Software\uCOS-II\Source/os_tmr.c ****         *perr  = OS_ERR_TMR_ISR;
 970              		.loc 1 657 0
 971 003e 3B68     		ldr	r3, [r7]
 972 0040 8B22     		movs	r2, #139
 973 0042 1A70     		strb	r2, [r3]
 658:..\..\..\..\..\..\Software\uCOS-II\Source/os_tmr.c ****         return (OS_FALSE);
 974              		.loc 1 658 0
 975 0044 0023     		movs	r3, #0
 976 0046 5CE0     		b	.L84
 977              	.L86:
 659:..\..\..\..\..\..\Software\uCOS-II\Source/os_tmr.c ****     }
 660:..\..\..\..\..\..\Software\uCOS-II\Source/os_tmr.c ****     OSSchedLock();
 978              		.loc 1 660 0
 979 0048 FFF7FEFF 		bl	OSSchedLock
 661:..\..\..\..\..\..\Software\uCOS-II\Source/os_tmr.c ****     switch (ptmr->OSTmrState) {
 980              		.loc 1 661 0
 981 004c FB68     		ldr	r3, [r7, #12]
 982 004e 2522     		movs	r2, #37
 983 0050 9B5C     		ldrb	r3, [r3, r2]
 984 0052 022B     		cmp	r3, #2
 985 0054 04DC     		bgt	.L88
 986 0056 012B     		cmp	r3, #1
 987 0058 3FDA     		bge	.L89
 988 005a 002B     		cmp	r3, #0
 989 005c 44D0     		beq	.L90
 990 005e 4AE0     		b	.L87
ARM GAS  C:\Users\ADMINI~1\AppData\Local\Temp\ccFuReWR.s 			page 30


 991              	.L88:
 992 0060 032B     		cmp	r3, #3
 993 0062 48D1     		bne	.L87
 662:..\..\..\..\..\..\Software\uCOS-II\Source/os_tmr.c ****         case OS_TMR_STATE_RUNNING:
 663:..\..\..\..\..\..\Software\uCOS-II\Source/os_tmr.c ****              OSTmr_Unlink(ptmr);                                  /* Remove from current wheel spok
 994              		.loc 1 663 0
 995 0064 FB68     		ldr	r3, [r7, #12]
 996 0066 1800     		movs	r0, r3
 997 0068 FFF7FEFF 		bl	OSTmr_Unlink
 664:..\..\..\..\..\..\Software\uCOS-II\Source/os_tmr.c ****              *perr = OS_ERR_NONE;
 998              		.loc 1 664 0
 999 006c 3B68     		ldr	r3, [r7]
 1000 006e 0022     		movs	r2, #0
 1001 0070 1A70     		strb	r2, [r3]
 665:..\..\..\..\..\..\Software\uCOS-II\Source/os_tmr.c ****              switch (opt) {
 1002              		.loc 1 665 0
 1003 0072 0B23     		movs	r3, #11
 1004 0074 FB18     		adds	r3, r7, r3
 1005 0076 1B78     		ldrb	r3, [r3]
 1006 0078 032B     		cmp	r3, #3
 1007 007a 04D0     		beq	.L93
 1008 007c 042B     		cmp	r3, #4
 1009 007e 13D0     		beq	.L94
 1010 0080 002B     		cmp	r3, #0
 1011 0082 25D0     		beq	.L102
 1012 0084 20E0     		b	.L101
 1013              	.L93:
 666:..\..\..\..\..\..\Software\uCOS-II\Source/os_tmr.c ****                  case OS_TMR_OPT_CALLBACK:
 667:..\..\..\..\..\..\Software\uCOS-II\Source/os_tmr.c ****                       pfnct = ptmr->OSTmrCallback;                /* Execute callback function if a
 1014              		.loc 1 667 0
 1015 0086 FB68     		ldr	r3, [r7, #12]
 1016 0088 5B68     		ldr	r3, [r3, #4]
 1017 008a 7B61     		str	r3, [r7, #20]
 668:..\..\..\..\..\..\Software\uCOS-II\Source/os_tmr.c ****                       if (pfnct != (OS_TMR_CALLBACK)0) {
 1018              		.loc 1 668 0
 1019 008c 7B69     		ldr	r3, [r7, #20]
 1020 008e 002B     		cmp	r3, #0
 1021 0090 06D0     		beq	.L96
 669:..\..\..\..\..\..\Software\uCOS-II\Source/os_tmr.c ****                           (*pfnct)((void *)ptmr, ptmr->OSTmrCallbackArg);  /* Use callback arg when
 1022              		.loc 1 669 0
 1023 0092 FB68     		ldr	r3, [r7, #12]
 1024 0094 9968     		ldr	r1, [r3, #8]
 1025 0096 FA68     		ldr	r2, [r7, #12]
 1026 0098 7B69     		ldr	r3, [r7, #20]
 1027 009a 1000     		movs	r0, r2
 1028 009c 9847     		blx	r3
 670:..\..\..\..\..\..\Software\uCOS-II\Source/os_tmr.c ****                       } else {
 671:..\..\..\..\..\..\Software\uCOS-II\Source/os_tmr.c ****                           *perr = OS_ERR_TMR_NO_CALLBACK;
 672:..\..\..\..\..\..\Software\uCOS-II\Source/os_tmr.c ****                       }
 673:..\..\..\..\..\..\Software\uCOS-II\Source/os_tmr.c ****                       break;
 1029              		.loc 1 673 0
 1030 009e 18E0     		b	.L98
 1031              	.L96:
 671:..\..\..\..\..\..\Software\uCOS-II\Source/os_tmr.c ****                       }
 1032              		.loc 1 671 0
 1033 00a0 3B68     		ldr	r3, [r7]
 1034 00a2 8F22     		movs	r2, #143
ARM GAS  C:\Users\ADMINI~1\AppData\Local\Temp\ccFuReWR.s 			page 31


 1035 00a4 1A70     		strb	r2, [r3]
 1036              		.loc 1 673 0
 1037 00a6 14E0     		b	.L98
 1038              	.L94:
 674:..\..\..\..\..\..\Software\uCOS-II\Source/os_tmr.c **** 
 675:..\..\..\..\..\..\Software\uCOS-II\Source/os_tmr.c ****                  case OS_TMR_OPT_CALLBACK_ARG:
 676:..\..\..\..\..\..\Software\uCOS-II\Source/os_tmr.c ****                       pfnct = ptmr->OSTmrCallback;                /* Execute callback function if a
 1039              		.loc 1 676 0
 1040 00a8 FB68     		ldr	r3, [r7, #12]
 1041 00aa 5B68     		ldr	r3, [r3, #4]
 1042 00ac 7B61     		str	r3, [r7, #20]
 677:..\..\..\..\..\..\Software\uCOS-II\Source/os_tmr.c ****                       if (pfnct != (OS_TMR_CALLBACK)0) {
 1043              		.loc 1 677 0
 1044 00ae 7B69     		ldr	r3, [r7, #20]
 1045 00b0 002B     		cmp	r3, #0
 1046 00b2 05D0     		beq	.L99
 678:..\..\..\..\..\..\Software\uCOS-II\Source/os_tmr.c ****                           (*pfnct)((void *)ptmr, callback_arg);   /* ... using the 'callback_arg' p
 1047              		.loc 1 678 0
 1048 00b4 7968     		ldr	r1, [r7, #4]
 1049 00b6 FA68     		ldr	r2, [r7, #12]
 1050 00b8 7B69     		ldr	r3, [r7, #20]
 1051 00ba 1000     		movs	r0, r2
 1052 00bc 9847     		blx	r3
 679:..\..\..\..\..\..\Software\uCOS-II\Source/os_tmr.c ****                       } else {
 680:..\..\..\..\..\..\Software\uCOS-II\Source/os_tmr.c ****                           *perr = OS_ERR_TMR_NO_CALLBACK;
 681:..\..\..\..\..\..\Software\uCOS-II\Source/os_tmr.c ****                       }
 682:..\..\..\..\..\..\Software\uCOS-II\Source/os_tmr.c ****                       break;
 1053              		.loc 1 682 0
 1054 00be 08E0     		b	.L98
 1055              	.L99:
 680:..\..\..\..\..\..\Software\uCOS-II\Source/os_tmr.c ****                       }
 1056              		.loc 1 680 0
 1057 00c0 3B68     		ldr	r3, [r7]
 1058 00c2 8F22     		movs	r2, #143
 1059 00c4 1A70     		strb	r2, [r3]
 1060              		.loc 1 682 0
 1061 00c6 04E0     		b	.L98
 1062              	.L101:
 683:..\..\..\..\..\..\Software\uCOS-II\Source/os_tmr.c **** 
 684:..\..\..\..\..\..\Software\uCOS-II\Source/os_tmr.c ****                  case OS_TMR_OPT_NONE:
 685:..\..\..\..\..\..\Software\uCOS-II\Source/os_tmr.c ****                       break;
 686:..\..\..\..\..\..\Software\uCOS-II\Source/os_tmr.c **** 
 687:..\..\..\..\..\..\Software\uCOS-II\Source/os_tmr.c ****                  default:
 688:..\..\..\..\..\..\Software\uCOS-II\Source/os_tmr.c ****                      *perr = OS_ERR_TMR_INVALID_OPT;
 1063              		.loc 1 688 0
 1064 00c8 3B68     		ldr	r3, [r7]
 1065 00ca 8422     		movs	r2, #132
 1066 00cc 1A70     		strb	r2, [r3]
 689:..\..\..\..\..\..\Software\uCOS-II\Source/os_tmr.c ****                      break;
 1067              		.loc 1 689 0
 1068 00ce 00E0     		b	.L98
 1069              	.L102:
 685:..\..\..\..\..\..\Software\uCOS-II\Source/os_tmr.c **** 
 1070              		.loc 1 685 0
 1071 00d0 C046     		nop
 1072              	.L98:
 690:..\..\..\..\..\..\Software\uCOS-II\Source/os_tmr.c ****              }
ARM GAS  C:\Users\ADMINI~1\AppData\Local\Temp\ccFuReWR.s 			page 32


 691:..\..\..\..\..\..\Software\uCOS-II\Source/os_tmr.c ****              OSSchedUnlock();
 1073              		.loc 1 691 0
 1074 00d2 FFF7FEFF 		bl	OSSchedUnlock
 692:..\..\..\..\..\..\Software\uCOS-II\Source/os_tmr.c ****              return (OS_TRUE);
 1075              		.loc 1 692 0
 1076 00d6 0123     		movs	r3, #1
 1077 00d8 13E0     		b	.L84
 1078              	.L89:
 693:..\..\..\..\..\..\Software\uCOS-II\Source/os_tmr.c **** 
 694:..\..\..\..\..\..\Software\uCOS-II\Source/os_tmr.c ****         case OS_TMR_STATE_COMPLETED:                              /* Timer has already completed th
 695:..\..\..\..\..\..\Software\uCOS-II\Source/os_tmr.c ****         case OS_TMR_STATE_STOPPED:                                /* ... timer has not started yet.
 696:..\..\..\..\..\..\Software\uCOS-II\Source/os_tmr.c ****              OSSchedUnlock();
 1079              		.loc 1 696 0
 1080 00da FFF7FEFF 		bl	OSSchedUnlock
 697:..\..\..\..\..\..\Software\uCOS-II\Source/os_tmr.c ****              *perr = OS_ERR_TMR_STOPPED;
 1081              		.loc 1 697 0
 1082 00de 3B68     		ldr	r3, [r7]
 1083 00e0 8E22     		movs	r2, #142
 1084 00e2 1A70     		strb	r2, [r3]
 698:..\..\..\..\..\..\Software\uCOS-II\Source/os_tmr.c ****              return (OS_TRUE);
 1085              		.loc 1 698 0
 1086 00e4 0123     		movs	r3, #1
 1087 00e6 0CE0     		b	.L84
 1088              	.L90:
 699:..\..\..\..\..\..\Software\uCOS-II\Source/os_tmr.c **** 
 700:..\..\..\..\..\..\Software\uCOS-II\Source/os_tmr.c ****         case OS_TMR_STATE_UNUSED:                                 /* Timer was not created         
 701:..\..\..\..\..\..\Software\uCOS-II\Source/os_tmr.c ****              OSSchedUnlock();
 1089              		.loc 1 701 0
 1090 00e8 FFF7FEFF 		bl	OSSchedUnlock
 702:..\..\..\..\..\..\Software\uCOS-II\Source/os_tmr.c ****              *perr = OS_ERR_TMR_INACTIVE;
 1091              		.loc 1 702 0
 1092 00ec 3B68     		ldr	r3, [r7]
 1093 00ee 8722     		movs	r2, #135
 1094 00f0 1A70     		strb	r2, [r3]
 703:..\..\..\..\..\..\Software\uCOS-II\Source/os_tmr.c ****              return (OS_FALSE);
 1095              		.loc 1 703 0
 1096 00f2 0023     		movs	r3, #0
 1097 00f4 05E0     		b	.L84
 1098              	.L87:
 704:..\..\..\..\..\..\Software\uCOS-II\Source/os_tmr.c **** 
 705:..\..\..\..\..\..\Software\uCOS-II\Source/os_tmr.c ****         default:
 706:..\..\..\..\..\..\Software\uCOS-II\Source/os_tmr.c ****              OSSchedUnlock();
 1099              		.loc 1 706 0
 1100 00f6 FFF7FEFF 		bl	OSSchedUnlock
 707:..\..\..\..\..\..\Software\uCOS-II\Source/os_tmr.c ****              *perr = OS_ERR_TMR_INVALID_STATE;
 1101              		.loc 1 707 0
 1102 00fa 3B68     		ldr	r3, [r7]
 1103 00fc 8D22     		movs	r2, #141
 1104 00fe 1A70     		strb	r2, [r3]
 708:..\..\..\..\..\..\Software\uCOS-II\Source/os_tmr.c ****              return (OS_FALSE);
 1105              		.loc 1 708 0
 1106 0100 0023     		movs	r3, #0
 1107              	.L84:
 709:..\..\..\..\..\..\Software\uCOS-II\Source/os_tmr.c ****     }
 710:..\..\..\..\..\..\Software\uCOS-II\Source/os_tmr.c **** }
 1108              		.loc 1 710 0
 1109 0102 1800     		movs	r0, r3
ARM GAS  C:\Users\ADMINI~1\AppData\Local\Temp\ccFuReWR.s 			page 33


 1110 0104 BD46     		mov	sp, r7
 1111 0106 06B0     		add	sp, sp, #24
 1112              		@ sp needed
 1113 0108 80BD     		pop	{r7, pc}
 1114              	.L104:
 1115 010a C046     		.align	2
 1116              	.L103:
 1117 010c 00000000 		.word	OSIntNesting
 1118              		.cfi_endproc
 1119              	.LFE7:
 1120              		.size	OSTmrStop, .-OSTmrStop
 1121              		.section	.text.OSTmrSignal,"ax",%progbits
 1122              		.align	2
 1123              		.global	OSTmrSignal
 1124              		.code	16
 1125              		.thumb_func
 1126              		.type	OSTmrSignal, %function
 1127              	OSTmrSignal:
 1128              	.LFB8:
 711:..\..\..\..\..\..\Software\uCOS-II\Source/os_tmr.c **** #endif
 712:..\..\..\..\..\..\Software\uCOS-II\Source/os_tmr.c **** 
 713:..\..\..\..\..\..\Software\uCOS-II\Source/os_tmr.c **** /*$PAGE*/
 714:..\..\..\..\..\..\Software\uCOS-II\Source/os_tmr.c **** /*
 715:..\..\..\..\..\..\Software\uCOS-II\Source/os_tmr.c **** ***************************************************************************************************
 716:..\..\..\..\..\..\Software\uCOS-II\Source/os_tmr.c **** *                             SIGNAL THAT IT'S TIME TO UPDATE THE TIMERS
 717:..\..\..\..\..\..\Software\uCOS-II\Source/os_tmr.c **** *
 718:..\..\..\..\..\..\Software\uCOS-II\Source/os_tmr.c **** * Description: This function is typically called by the ISR that occurs at the timer tick rate and 
 719:..\..\..\..\..\..\Software\uCOS-II\Source/os_tmr.c **** *              used to signal to OSTmr_Task() that it's time to update the timers.
 720:..\..\..\..\..\..\Software\uCOS-II\Source/os_tmr.c **** *
 721:..\..\..\..\..\..\Software\uCOS-II\Source/os_tmr.c **** * Arguments  : none
 722:..\..\..\..\..\..\Software\uCOS-II\Source/os_tmr.c **** *
 723:..\..\..\..\..\..\Software\uCOS-II\Source/os_tmr.c **** * Returns    : OS_ERR_NONE         The call was successful and the timer task was signaled.
 724:..\..\..\..\..\..\Software\uCOS-II\Source/os_tmr.c **** *              OS_ERR_SEM_OVF      If OSTmrSignal() was called more often than OSTmr_Task() can han
 725:..\..\..\..\..\..\Software\uCOS-II\Source/os_tmr.c **** *                                  the timers. This would indicate that your system is heavily load
 726:..\..\..\..\..\..\Software\uCOS-II\Source/os_tmr.c **** *              OS_ERR_EVENT_TYPE   Unlikely you would get this error because the semaphore used for
 727:..\..\..\..\..\..\Software\uCOS-II\Source/os_tmr.c **** *                                  signaling is created by uC/OS-II.
 728:..\..\..\..\..\..\Software\uCOS-II\Source/os_tmr.c **** *              OS_ERR_PEVENT_NULL  Again, unlikely you would ever get this error because the semaph
 729:..\..\..\..\..\..\Software\uCOS-II\Source/os_tmr.c **** *                                  used for signaling is created by uC/OS-II.
 730:..\..\..\..\..\..\Software\uCOS-II\Source/os_tmr.c **** ***************************************************************************************************
 731:..\..\..\..\..\..\Software\uCOS-II\Source/os_tmr.c **** */
 732:..\..\..\..\..\..\Software\uCOS-II\Source/os_tmr.c **** 
 733:..\..\..\..\..\..\Software\uCOS-II\Source/os_tmr.c **** #if OS_TMR_EN > 0u
 734:..\..\..\..\..\..\Software\uCOS-II\Source/os_tmr.c **** INT8U  OSTmrSignal (void)
 735:..\..\..\..\..\..\Software\uCOS-II\Source/os_tmr.c **** {
 1129              		.loc 1 735 0
 1130              		.cfi_startproc
 1131              		@ args = 0, pretend = 0, frame = 8
 1132              		@ frame_needed = 1, uses_anonymous_args = 0
 1133 0000 90B5     		push	{r4, r7, lr}
 1134              		.cfi_def_cfa_offset 12
 1135              		.cfi_offset 4, -12
 1136              		.cfi_offset 7, -8
 1137              		.cfi_offset 14, -4
 1138 0002 83B0     		sub	sp, sp, #12
 1139              		.cfi_def_cfa_offset 24
 1140 0004 00AF     		add	r7, sp, #0
 1141              		.cfi_def_cfa_register 7
ARM GAS  C:\Users\ADMINI~1\AppData\Local\Temp\ccFuReWR.s 			page 34


 736:..\..\..\..\..\..\Software\uCOS-II\Source/os_tmr.c ****     INT8U  err;
 737:..\..\..\..\..\..\Software\uCOS-II\Source/os_tmr.c **** 
 738:..\..\..\..\..\..\Software\uCOS-II\Source/os_tmr.c **** 
 739:..\..\..\..\..\..\Software\uCOS-II\Source/os_tmr.c ****     err = OSSemPost(OSTmrSemSignal);
 1142              		.loc 1 739 0
 1143 0006 074B     		ldr	r3, .L107
 1144 0008 1B68     		ldr	r3, [r3]
 1145 000a FC1D     		adds	r4, r7, #7
 1146 000c 1800     		movs	r0, r3
 1147 000e FFF7FEFF 		bl	OSSemPost
 1148 0012 0300     		movs	r3, r0
 1149 0014 2370     		strb	r3, [r4]
 740:..\..\..\..\..\..\Software\uCOS-II\Source/os_tmr.c ****     return (err);
 1150              		.loc 1 740 0
 1151 0016 FB1D     		adds	r3, r7, #7
 1152 0018 1B78     		ldrb	r3, [r3]
 741:..\..\..\..\..\..\Software\uCOS-II\Source/os_tmr.c **** }
 1153              		.loc 1 741 0
 1154 001a 1800     		movs	r0, r3
 1155 001c BD46     		mov	sp, r7
 1156 001e 03B0     		add	sp, sp, #12
 1157              		@ sp needed
 1158 0020 90BD     		pop	{r4, r7, pc}
 1159              	.L108:
 1160 0022 C046     		.align	2
 1161              	.L107:
 1162 0024 00000000 		.word	OSTmrSemSignal
 1163              		.cfi_endproc
 1164              	.LFE8:
 1165              		.size	OSTmrSignal, .-OSTmrSignal
 1166              		.section	.text.OSTmr_Alloc,"ax",%progbits
 1167              		.align	2
 1168              		.code	16
 1169              		.thumb_func
 1170              		.type	OSTmr_Alloc, %function
 1171              	OSTmr_Alloc:
 1172              	.LFB9:
 742:..\..\..\..\..\..\Software\uCOS-II\Source/os_tmr.c **** #endif
 743:..\..\..\..\..\..\Software\uCOS-II\Source/os_tmr.c **** 
 744:..\..\..\..\..\..\Software\uCOS-II\Source/os_tmr.c **** /*$PAGE*/
 745:..\..\..\..\..\..\Software\uCOS-II\Source/os_tmr.c **** /*
 746:..\..\..\..\..\..\Software\uCOS-II\Source/os_tmr.c **** ***************************************************************************************************
 747:..\..\..\..\..\..\Software\uCOS-II\Source/os_tmr.c **** *                                      ALLOCATE AND FREE A TIMER
 748:..\..\..\..\..\..\Software\uCOS-II\Source/os_tmr.c **** *
 749:..\..\..\..\..\..\Software\uCOS-II\Source/os_tmr.c **** * Description: This function is called to allocate a timer.
 750:..\..\..\..\..\..\Software\uCOS-II\Source/os_tmr.c **** *
 751:..\..\..\..\..\..\Software\uCOS-II\Source/os_tmr.c **** * Arguments  : none
 752:..\..\..\..\..\..\Software\uCOS-II\Source/os_tmr.c **** *
 753:..\..\..\..\..\..\Software\uCOS-II\Source/os_tmr.c **** * Returns    : a pointer to a timer if one is available
 754:..\..\..\..\..\..\Software\uCOS-II\Source/os_tmr.c **** ***************************************************************************************************
 755:..\..\..\..\..\..\Software\uCOS-II\Source/os_tmr.c **** */
 756:..\..\..\..\..\..\Software\uCOS-II\Source/os_tmr.c **** 
 757:..\..\..\..\..\..\Software\uCOS-II\Source/os_tmr.c **** #if OS_TMR_EN > 0u
 758:..\..\..\..\..\..\Software\uCOS-II\Source/os_tmr.c **** static  OS_TMR  *OSTmr_Alloc (void)
 759:..\..\..\..\..\..\Software\uCOS-II\Source/os_tmr.c **** {
 1173              		.loc 1 759 0
 1174              		.cfi_startproc
ARM GAS  C:\Users\ADMINI~1\AppData\Local\Temp\ccFuReWR.s 			page 35


 1175              		@ args = 0, pretend = 0, frame = 8
 1176              		@ frame_needed = 1, uses_anonymous_args = 0
 1177 0000 80B5     		push	{r7, lr}
 1178              		.cfi_def_cfa_offset 8
 1179              		.cfi_offset 7, -8
 1180              		.cfi_offset 14, -4
 1181 0002 82B0     		sub	sp, sp, #8
 1182              		.cfi_def_cfa_offset 16
 1183 0004 00AF     		add	r7, sp, #0
 1184              		.cfi_def_cfa_register 7
 760:..\..\..\..\..\..\Software\uCOS-II\Source/os_tmr.c ****     OS_TMR *ptmr;
 761:..\..\..\..\..\..\Software\uCOS-II\Source/os_tmr.c **** 
 762:..\..\..\..\..\..\Software\uCOS-II\Source/os_tmr.c **** 
 763:..\..\..\..\..\..\Software\uCOS-II\Source/os_tmr.c ****     if (OSTmrFreeList == (OS_TMR *)0) {
 1185              		.loc 1 763 0
 1186 0006 124B     		ldr	r3, .L112
 1187 0008 1B68     		ldr	r3, [r3]
 1188 000a 002B     		cmp	r3, #0
 1189 000c 01D1     		bne	.L110
 764:..\..\..\..\..\..\Software\uCOS-II\Source/os_tmr.c ****         return ((OS_TMR *)0);
 1190              		.loc 1 764 0
 1191 000e 0023     		movs	r3, #0
 1192 0010 19E0     		b	.L111
 1193              	.L110:
 765:..\..\..\..\..\..\Software\uCOS-II\Source/os_tmr.c ****     }
 766:..\..\..\..\..\..\Software\uCOS-II\Source/os_tmr.c ****     ptmr            = (OS_TMR *)OSTmrFreeList;
 1194              		.loc 1 766 0
 1195 0012 0F4B     		ldr	r3, .L112
 1196 0014 1B68     		ldr	r3, [r3]
 1197 0016 7B60     		str	r3, [r7, #4]
 767:..\..\..\..\..\..\Software\uCOS-II\Source/os_tmr.c ****     OSTmrFreeList   = (OS_TMR *)ptmr->OSTmrNext;
 1198              		.loc 1 767 0
 1199 0018 7B68     		ldr	r3, [r7, #4]
 1200 001a DA68     		ldr	r2, [r3, #12]
 1201 001c 0C4B     		ldr	r3, .L112
 1202 001e 1A60     		str	r2, [r3]
 768:..\..\..\..\..\..\Software\uCOS-II\Source/os_tmr.c ****     ptmr->OSTmrNext = (OS_TCB *)0;
 1203              		.loc 1 768 0
 1204 0020 7B68     		ldr	r3, [r7, #4]
 1205 0022 0022     		movs	r2, #0
 1206 0024 DA60     		str	r2, [r3, #12]
 769:..\..\..\..\..\..\Software\uCOS-II\Source/os_tmr.c ****     ptmr->OSTmrPrev = (OS_TCB *)0;
 1207              		.loc 1 769 0
 1208 0026 7B68     		ldr	r3, [r7, #4]
 1209 0028 0022     		movs	r2, #0
 1210 002a 1A61     		str	r2, [r3, #16]
 770:..\..\..\..\..\..\Software\uCOS-II\Source/os_tmr.c ****     OSTmrUsed++;
 1211              		.loc 1 770 0
 1212 002c 094B     		ldr	r3, .L112+4
 1213 002e 1B88     		ldrh	r3, [r3]
 1214 0030 0133     		adds	r3, r3, #1
 1215 0032 9AB2     		uxth	r2, r3
 1216 0034 074B     		ldr	r3, .L112+4
 1217 0036 1A80     		strh	r2, [r3]
 771:..\..\..\..\..\..\Software\uCOS-II\Source/os_tmr.c ****     OSTmrFree--;
 1218              		.loc 1 771 0
 1219 0038 074B     		ldr	r3, .L112+8
ARM GAS  C:\Users\ADMINI~1\AppData\Local\Temp\ccFuReWR.s 			page 36


 1220 003a 1B88     		ldrh	r3, [r3]
 1221 003c 013B     		subs	r3, r3, #1
 1222 003e 9AB2     		uxth	r2, r3
 1223 0040 054B     		ldr	r3, .L112+8
 1224 0042 1A80     		strh	r2, [r3]
 772:..\..\..\..\..\..\Software\uCOS-II\Source/os_tmr.c ****     return (ptmr);
 1225              		.loc 1 772 0
 1226 0044 7B68     		ldr	r3, [r7, #4]
 1227              	.L111:
 773:..\..\..\..\..\..\Software\uCOS-II\Source/os_tmr.c **** }
 1228              		.loc 1 773 0
 1229 0046 1800     		movs	r0, r3
 1230 0048 BD46     		mov	sp, r7
 1231 004a 02B0     		add	sp, sp, #8
 1232              		@ sp needed
 1233 004c 80BD     		pop	{r7, pc}
 1234              	.L113:
 1235 004e C046     		.align	2
 1236              	.L112:
 1237 0050 00000000 		.word	OSTmrFreeList
 1238 0054 00000000 		.word	OSTmrUsed
 1239 0058 00000000 		.word	OSTmrFree
 1240              		.cfi_endproc
 1241              	.LFE9:
 1242              		.size	OSTmr_Alloc, .-OSTmr_Alloc
 1243              		.section	.text.OSTmr_Free,"ax",%progbits
 1244              		.align	2
 1245              		.code	16
 1246              		.thumb_func
 1247              		.type	OSTmr_Free, %function
 1248              	OSTmr_Free:
 1249              	.LFB10:
 774:..\..\..\..\..\..\Software\uCOS-II\Source/os_tmr.c **** #endif
 775:..\..\..\..\..\..\Software\uCOS-II\Source/os_tmr.c **** 
 776:..\..\..\..\..\..\Software\uCOS-II\Source/os_tmr.c **** 
 777:..\..\..\..\..\..\Software\uCOS-II\Source/os_tmr.c **** /*
 778:..\..\..\..\..\..\Software\uCOS-II\Source/os_tmr.c **** ***************************************************************************************************
 779:..\..\..\..\..\..\Software\uCOS-II\Source/os_tmr.c **** *                                   RETURN A TIMER TO THE FREE LIST
 780:..\..\..\..\..\..\Software\uCOS-II\Source/os_tmr.c **** *
 781:..\..\..\..\..\..\Software\uCOS-II\Source/os_tmr.c **** * Description: This function is called to return a timer object to the free list of timers.
 782:..\..\..\..\..\..\Software\uCOS-II\Source/os_tmr.c **** *
 783:..\..\..\..\..\..\Software\uCOS-II\Source/os_tmr.c **** * Arguments  : ptmr     is a pointer to the timer to free
 784:..\..\..\..\..\..\Software\uCOS-II\Source/os_tmr.c **** *
 785:..\..\..\..\..\..\Software\uCOS-II\Source/os_tmr.c **** * Returns    : none
 786:..\..\..\..\..\..\Software\uCOS-II\Source/os_tmr.c **** ***************************************************************************************************
 787:..\..\..\..\..\..\Software\uCOS-II\Source/os_tmr.c **** */
 788:..\..\..\..\..\..\Software\uCOS-II\Source/os_tmr.c **** 
 789:..\..\..\..\..\..\Software\uCOS-II\Source/os_tmr.c **** #if OS_TMR_EN > 0u
 790:..\..\..\..\..\..\Software\uCOS-II\Source/os_tmr.c **** static  void  OSTmr_Free (OS_TMR *ptmr)
 791:..\..\..\..\..\..\Software\uCOS-II\Source/os_tmr.c **** {
 1250              		.loc 1 791 0
 1251              		.cfi_startproc
 1252              		@ args = 0, pretend = 0, frame = 8
 1253              		@ frame_needed = 1, uses_anonymous_args = 0
 1254 0000 80B5     		push	{r7, lr}
 1255              		.cfi_def_cfa_offset 8
 1256              		.cfi_offset 7, -8
ARM GAS  C:\Users\ADMINI~1\AppData\Local\Temp\ccFuReWR.s 			page 37


 1257              		.cfi_offset 14, -4
 1258 0002 82B0     		sub	sp, sp, #8
 1259              		.cfi_def_cfa_offset 16
 1260 0004 00AF     		add	r7, sp, #0
 1261              		.cfi_def_cfa_register 7
 1262 0006 7860     		str	r0, [r7, #4]
 792:..\..\..\..\..\..\Software\uCOS-II\Source/os_tmr.c ****     ptmr->OSTmrState       = OS_TMR_STATE_UNUSED;      /* Clear timer object fields                
 1263              		.loc 1 792 0
 1264 0008 7B68     		ldr	r3, [r7, #4]
 1265 000a 2522     		movs	r2, #37
 1266 000c 0021     		movs	r1, #0
 1267 000e 9954     		strb	r1, [r3, r2]
 793:..\..\..\..\..\..\Software\uCOS-II\Source/os_tmr.c ****     ptmr->OSTmrOpt         = OS_TMR_OPT_NONE;
 1268              		.loc 1 793 0
 1269 0010 7B68     		ldr	r3, [r7, #4]
 1270 0012 2422     		movs	r2, #36
 1271 0014 0021     		movs	r1, #0
 1272 0016 9954     		strb	r1, [r3, r2]
 794:..\..\..\..\..\..\Software\uCOS-II\Source/os_tmr.c ****     ptmr->OSTmrPeriod      = 0u;
 1273              		.loc 1 794 0
 1274 0018 7B68     		ldr	r3, [r7, #4]
 1275 001a 0022     		movs	r2, #0
 1276 001c DA61     		str	r2, [r3, #28]
 795:..\..\..\..\..\..\Software\uCOS-II\Source/os_tmr.c ****     ptmr->OSTmrMatch       = 0u;
 1277              		.loc 1 795 0
 1278 001e 7B68     		ldr	r3, [r7, #4]
 1279 0020 0022     		movs	r2, #0
 1280 0022 5A61     		str	r2, [r3, #20]
 796:..\..\..\..\..\..\Software\uCOS-II\Source/os_tmr.c ****     ptmr->OSTmrCallback    = (OS_TMR_CALLBACK)0;
 1281              		.loc 1 796 0
 1282 0024 7B68     		ldr	r3, [r7, #4]
 1283 0026 0022     		movs	r2, #0
 1284 0028 5A60     		str	r2, [r3, #4]
 797:..\..\..\..\..\..\Software\uCOS-II\Source/os_tmr.c ****     ptmr->OSTmrCallbackArg = (void *)0;
 1285              		.loc 1 797 0
 1286 002a 7B68     		ldr	r3, [r7, #4]
 1287 002c 0022     		movs	r2, #0
 1288 002e 9A60     		str	r2, [r3, #8]
 798:..\..\..\..\..\..\Software\uCOS-II\Source/os_tmr.c **** #if OS_TMR_CFG_NAME_EN > 0u
 799:..\..\..\..\..\..\Software\uCOS-II\Source/os_tmr.c ****     ptmr->OSTmrName        = (INT8U *)(void *)"?";
 1289              		.loc 1 799 0
 1290 0030 7B68     		ldr	r3, [r7, #4]
 1291 0032 0E4A     		ldr	r2, .L115
 1292 0034 1A62     		str	r2, [r3, #32]
 800:..\..\..\..\..\..\Software\uCOS-II\Source/os_tmr.c **** #endif
 801:..\..\..\..\..\..\Software\uCOS-II\Source/os_tmr.c **** 
 802:..\..\..\..\..\..\Software\uCOS-II\Source/os_tmr.c ****     ptmr->OSTmrPrev        = (OS_TCB *)0;              /* Chain timer to free list                 
 1293              		.loc 1 802 0
 1294 0036 7B68     		ldr	r3, [r7, #4]
 1295 0038 0022     		movs	r2, #0
 1296 003a 1A61     		str	r2, [r3, #16]
 803:..\..\..\..\..\..\Software\uCOS-II\Source/os_tmr.c ****     ptmr->OSTmrNext        = OSTmrFreeList;
 1297              		.loc 1 803 0
 1298 003c 0C4B     		ldr	r3, .L115+4
 1299 003e 1A68     		ldr	r2, [r3]
 1300 0040 7B68     		ldr	r3, [r7, #4]
 1301 0042 DA60     		str	r2, [r3, #12]
ARM GAS  C:\Users\ADMINI~1\AppData\Local\Temp\ccFuReWR.s 			page 38


 804:..\..\..\..\..\..\Software\uCOS-II\Source/os_tmr.c ****     OSTmrFreeList          = ptmr;
 1302              		.loc 1 804 0
 1303 0044 0A4B     		ldr	r3, .L115+4
 1304 0046 7A68     		ldr	r2, [r7, #4]
 1305 0048 1A60     		str	r2, [r3]
 805:..\..\..\..\..\..\Software\uCOS-II\Source/os_tmr.c **** 
 806:..\..\..\..\..\..\Software\uCOS-II\Source/os_tmr.c ****     OSTmrUsed--;                                       /* Update timer object statistics           
 1306              		.loc 1 806 0
 1307 004a 0A4B     		ldr	r3, .L115+8
 1308 004c 1B88     		ldrh	r3, [r3]
 1309 004e 013B     		subs	r3, r3, #1
 1310 0050 9AB2     		uxth	r2, r3
 1311 0052 084B     		ldr	r3, .L115+8
 1312 0054 1A80     		strh	r2, [r3]
 807:..\..\..\..\..\..\Software\uCOS-II\Source/os_tmr.c ****     OSTmrFree++;
 1313              		.loc 1 807 0
 1314 0056 084B     		ldr	r3, .L115+12
 1315 0058 1B88     		ldrh	r3, [r3]
 1316 005a 0133     		adds	r3, r3, #1
 1317 005c 9AB2     		uxth	r2, r3
 1318 005e 064B     		ldr	r3, .L115+12
 1319 0060 1A80     		strh	r2, [r3]
 808:..\..\..\..\..\..\Software\uCOS-II\Source/os_tmr.c **** }
 1320              		.loc 1 808 0
 1321 0062 C046     		nop
 1322 0064 BD46     		mov	sp, r7
 1323 0066 02B0     		add	sp, sp, #8
 1324              		@ sp needed
 1325 0068 80BD     		pop	{r7, pc}
 1326              	.L116:
 1327 006a C046     		.align	2
 1328              	.L115:
 1329 006c 00000000 		.word	.LC1
 1330 0070 00000000 		.word	OSTmrFreeList
 1331 0074 00000000 		.word	OSTmrUsed
 1332 0078 00000000 		.word	OSTmrFree
 1333              		.cfi_endproc
 1334              	.LFE10:
 1335              		.size	OSTmr_Free, .-OSTmr_Free
 1336              		.section	.rodata
 1337 0002 0000     		.align	2
 1338              	.LC27:
 1339 0004 75432F4F 		.ascii	"uC/OS-II TmrLock\000"
 1339      532D4949 
 1339      20546D72 
 1339      4C6F636B 
 1339      00
 1340 0015 000000   		.align	2
 1341              	.LC29:
 1342 0018 75432F4F 		.ascii	"uC/OS-II TmrSignal\000"
 1342      532D4949 
 1342      20546D72 
 1342      5369676E 
 1342      616C00
 1343              		.section	.text.OSTmr_Init,"ax",%progbits
 1344              		.align	2
 1345              		.global	OSTmr_Init
ARM GAS  C:\Users\ADMINI~1\AppData\Local\Temp\ccFuReWR.s 			page 39


 1346              		.code	16
 1347              		.thumb_func
 1348              		.type	OSTmr_Init, %function
 1349              	OSTmr_Init:
 1350              	.LFB11:
 809:..\..\..\..\..\..\Software\uCOS-II\Source/os_tmr.c **** #endif
 810:..\..\..\..\..\..\Software\uCOS-II\Source/os_tmr.c **** 
 811:..\..\..\..\..\..\Software\uCOS-II\Source/os_tmr.c **** /*$PAGE*/
 812:..\..\..\..\..\..\Software\uCOS-II\Source/os_tmr.c **** /*
 813:..\..\..\..\..\..\Software\uCOS-II\Source/os_tmr.c **** ***************************************************************************************************
 814:..\..\..\..\..\..\Software\uCOS-II\Source/os_tmr.c **** *                                                    INITIALIZATION
 815:..\..\..\..\..\..\Software\uCOS-II\Source/os_tmr.c **** *                                          INITIALIZE THE FREE LIST OF TIMERS
 816:..\..\..\..\..\..\Software\uCOS-II\Source/os_tmr.c **** *
 817:..\..\..\..\..\..\Software\uCOS-II\Source/os_tmr.c **** * Description: This function is called by OSInit() to initialize the free list of OS_TMRs.
 818:..\..\..\..\..\..\Software\uCOS-II\Source/os_tmr.c **** *
 819:..\..\..\..\..\..\Software\uCOS-II\Source/os_tmr.c **** * Arguments  : none
 820:..\..\..\..\..\..\Software\uCOS-II\Source/os_tmr.c **** *
 821:..\..\..\..\..\..\Software\uCOS-II\Source/os_tmr.c **** * Returns    : none
 822:..\..\..\..\..\..\Software\uCOS-II\Source/os_tmr.c **** ***************************************************************************************************
 823:..\..\..\..\..\..\Software\uCOS-II\Source/os_tmr.c **** */
 824:..\..\..\..\..\..\Software\uCOS-II\Source/os_tmr.c **** 
 825:..\..\..\..\..\..\Software\uCOS-II\Source/os_tmr.c **** #if OS_TMR_EN > 0u
 826:..\..\..\..\..\..\Software\uCOS-II\Source/os_tmr.c **** void  OSTmr_Init (void)
 827:..\..\..\..\..\..\Software\uCOS-II\Source/os_tmr.c **** {
 1351              		.loc 1 827 0
 1352              		.cfi_startproc
 1353              		@ args = 0, pretend = 0, frame = 16
 1354              		@ frame_needed = 1, uses_anonymous_args = 0
 1355 0000 80B5     		push	{r7, lr}
 1356              		.cfi_def_cfa_offset 8
 1357              		.cfi_offset 7, -8
 1358              		.cfi_offset 14, -4
 1359 0002 84B0     		sub	sp, sp, #16
 1360              		.cfi_def_cfa_offset 24
 1361 0004 00AF     		add	r7, sp, #0
 1362              		.cfi_def_cfa_register 7
 828:..\..\..\..\..\..\Software\uCOS-II\Source/os_tmr.c **** #if OS_EVENT_NAME_EN > 0u
 829:..\..\..\..\..\..\Software\uCOS-II\Source/os_tmr.c ****     INT8U    err;
 830:..\..\..\..\..\..\Software\uCOS-II\Source/os_tmr.c **** #endif
 831:..\..\..\..\..\..\Software\uCOS-II\Source/os_tmr.c ****     INT16U   ix;
 832:..\..\..\..\..\..\Software\uCOS-II\Source/os_tmr.c ****     INT16U   ix_next;
 833:..\..\..\..\..\..\Software\uCOS-II\Source/os_tmr.c ****     OS_TMR  *ptmr1;
 834:..\..\..\..\..\..\Software\uCOS-II\Source/os_tmr.c ****     OS_TMR  *ptmr2;
 835:..\..\..\..\..\..\Software\uCOS-II\Source/os_tmr.c **** 
 836:..\..\..\..\..\..\Software\uCOS-II\Source/os_tmr.c **** 
 837:..\..\..\..\..\..\Software\uCOS-II\Source/os_tmr.c ****     OS_MemClr((INT8U *)&OSTmrTbl[0],      sizeof(OSTmrTbl));            /* Clear all the TMRs      
 1363              		.loc 1 837 0
 1364 0006 A023     		movs	r3, #160
 1365 0008 9A00     		lsls	r2, r3, #2
 1366 000a 434B     		ldr	r3, .L120
 1367 000c 1100     		movs	r1, r2
 1368 000e 1800     		movs	r0, r3
 1369 0010 FFF7FEFF 		bl	OS_MemClr
 838:..\..\..\..\..\..\Software\uCOS-II\Source/os_tmr.c ****     OS_MemClr((INT8U *)&OSTmrWheelTbl[0], sizeof(OSTmrWheelTbl));       /* Clear the timer wheel   
 1370              		.loc 1 838 0
 1371 0014 414B     		ldr	r3, .L120+4
 1372 0016 3821     		movs	r1, #56
ARM GAS  C:\Users\ADMINI~1\AppData\Local\Temp\ccFuReWR.s 			page 40


 1373 0018 1800     		movs	r0, r3
 1374 001a FFF7FEFF 		bl	OS_MemClr
 839:..\..\..\..\..\..\Software\uCOS-II\Source/os_tmr.c **** 
 840:..\..\..\..\..\..\Software\uCOS-II\Source/os_tmr.c ****     for (ix = 0u; ix < (OS_TMR_CFG_MAX - 1u); ix++) {                   /* Init. list of free TMRs 
 1375              		.loc 1 840 0
 1376 001e 0E23     		movs	r3, #14
 1377 0020 FB18     		adds	r3, r7, r3
 1378 0022 0022     		movs	r2, #0
 1379 0024 1A80     		strh	r2, [r3]
 1380 0026 2EE0     		b	.L118
 1381              	.L119:
 841:..\..\..\..\..\..\Software\uCOS-II\Source/os_tmr.c ****         ix_next = ix + 1u;
 1382              		.loc 1 841 0 discriminator 3
 1383 0028 0C23     		movs	r3, #12
 1384 002a FB18     		adds	r3, r7, r3
 1385 002c 0E22     		movs	r2, #14
 1386 002e BA18     		adds	r2, r7, r2
 1387 0030 1288     		ldrh	r2, [r2]
 1388 0032 0132     		adds	r2, r2, #1
 1389 0034 1A80     		strh	r2, [r3]
 842:..\..\..\..\..\..\Software\uCOS-II\Source/os_tmr.c ****         ptmr1 = &OSTmrTbl[ix];
 1390              		.loc 1 842 0 discriminator 3
 1391 0036 0E23     		movs	r3, #14
 1392 0038 FB18     		adds	r3, r7, r3
 1393 003a 1A88     		ldrh	r2, [r3]
 1394 003c 1300     		movs	r3, r2
 1395 003e 9B00     		lsls	r3, r3, #2
 1396 0040 9B18     		adds	r3, r3, r2
 1397 0042 DB00     		lsls	r3, r3, #3
 1398 0044 344A     		ldr	r2, .L120
 1399 0046 9B18     		adds	r3, r3, r2
 1400 0048 BB60     		str	r3, [r7, #8]
 843:..\..\..\..\..\..\Software\uCOS-II\Source/os_tmr.c ****         ptmr2 = &OSTmrTbl[ix_next];
 1401              		.loc 1 843 0 discriminator 3
 1402 004a 0C23     		movs	r3, #12
 1403 004c FB18     		adds	r3, r7, r3
 1404 004e 1A88     		ldrh	r2, [r3]
 1405 0050 1300     		movs	r3, r2
 1406 0052 9B00     		lsls	r3, r3, #2
 1407 0054 9B18     		adds	r3, r3, r2
 1408 0056 DB00     		lsls	r3, r3, #3
 1409 0058 2F4A     		ldr	r2, .L120
 1410 005a 9B18     		adds	r3, r3, r2
 1411 005c 7B60     		str	r3, [r7, #4]
 844:..\..\..\..\..\..\Software\uCOS-II\Source/os_tmr.c ****         ptmr1->OSTmrType    = OS_TMR_TYPE;
 1412              		.loc 1 844 0 discriminator 3
 1413 005e BB68     		ldr	r3, [r7, #8]
 1414 0060 6422     		movs	r2, #100
 1415 0062 1A70     		strb	r2, [r3]
 845:..\..\..\..\..\..\Software\uCOS-II\Source/os_tmr.c ****         ptmr1->OSTmrState   = OS_TMR_STATE_UNUSED;                      /* Indicate that timer is i
 1416              		.loc 1 845 0 discriminator 3
 1417 0064 BB68     		ldr	r3, [r7, #8]
 1418 0066 2522     		movs	r2, #37
 1419 0068 0021     		movs	r1, #0
 1420 006a 9954     		strb	r1, [r3, r2]
 846:..\..\..\..\..\..\Software\uCOS-II\Source/os_tmr.c ****         ptmr1->OSTmrNext    = (void *)ptmr2;                            /* Link to next timer      
 1421              		.loc 1 846 0 discriminator 3
ARM GAS  C:\Users\ADMINI~1\AppData\Local\Temp\ccFuReWR.s 			page 41


 1422 006c BB68     		ldr	r3, [r7, #8]
 1423 006e 7A68     		ldr	r2, [r7, #4]
 1424 0070 DA60     		str	r2, [r3, #12]
 847:..\..\..\..\..\..\Software\uCOS-II\Source/os_tmr.c **** #if OS_TMR_CFG_NAME_EN > 0u
 848:..\..\..\..\..\..\Software\uCOS-II\Source/os_tmr.c ****         ptmr1->OSTmrName    = (INT8U *)(void *)"?";
 1425              		.loc 1 848 0 discriminator 3
 1426 0072 BB68     		ldr	r3, [r7, #8]
 1427 0074 2A4A     		ldr	r2, .L120+8
 1428 0076 1A62     		str	r2, [r3, #32]
 840:..\..\..\..\..\..\Software\uCOS-II\Source/os_tmr.c ****         ix_next = ix + 1u;
 1429              		.loc 1 840 0 discriminator 3
 1430 0078 0E23     		movs	r3, #14
 1431 007a FB18     		adds	r3, r7, r3
 1432 007c 1A88     		ldrh	r2, [r3]
 1433 007e 0E23     		movs	r3, #14
 1434 0080 FB18     		adds	r3, r7, r3
 1435 0082 0132     		adds	r2, r2, #1
 1436 0084 1A80     		strh	r2, [r3]
 1437              	.L118:
 840:..\..\..\..\..\..\Software\uCOS-II\Source/os_tmr.c ****         ix_next = ix + 1u;
 1438              		.loc 1 840 0 is_stmt 0 discriminator 1
 1439 0086 0E23     		movs	r3, #14
 1440 0088 FB18     		adds	r3, r7, r3
 1441 008a 1B88     		ldrh	r3, [r3]
 1442 008c 0E2B     		cmp	r3, #14
 1443 008e CBD9     		bls	.L119
 849:..\..\..\..\..\..\Software\uCOS-II\Source/os_tmr.c **** #endif
 850:..\..\..\..\..\..\Software\uCOS-II\Source/os_tmr.c ****     }
 851:..\..\..\..\..\..\Software\uCOS-II\Source/os_tmr.c ****     ptmr1               = &OSTmrTbl[ix];
 1444              		.loc 1 851 0 is_stmt 1
 1445 0090 0E23     		movs	r3, #14
 1446 0092 FB18     		adds	r3, r7, r3
 1447 0094 1A88     		ldrh	r2, [r3]
 1448 0096 1300     		movs	r3, r2
 1449 0098 9B00     		lsls	r3, r3, #2
 1450 009a 9B18     		adds	r3, r3, r2
 1451 009c DB00     		lsls	r3, r3, #3
 1452 009e 1E4A     		ldr	r2, .L120
 1453 00a0 9B18     		adds	r3, r3, r2
 1454 00a2 BB60     		str	r3, [r7, #8]
 852:..\..\..\..\..\..\Software\uCOS-II\Source/os_tmr.c ****     ptmr1->OSTmrType    = OS_TMR_TYPE;
 1455              		.loc 1 852 0
 1456 00a4 BB68     		ldr	r3, [r7, #8]
 1457 00a6 6422     		movs	r2, #100
 1458 00a8 1A70     		strb	r2, [r3]
 853:..\..\..\..\..\..\Software\uCOS-II\Source/os_tmr.c ****     ptmr1->OSTmrState   = OS_TMR_STATE_UNUSED;                          /* Indicate that timer is i
 1459              		.loc 1 853 0
 1460 00aa BB68     		ldr	r3, [r7, #8]
 1461 00ac 2522     		movs	r2, #37
 1462 00ae 0021     		movs	r1, #0
 1463 00b0 9954     		strb	r1, [r3, r2]
 854:..\..\..\..\..\..\Software\uCOS-II\Source/os_tmr.c ****     ptmr1->OSTmrNext    = (void *)0;                                    /* Last OS_TMR             
 1464              		.loc 1 854 0
 1465 00b2 BB68     		ldr	r3, [r7, #8]
 1466 00b4 0022     		movs	r2, #0
 1467 00b6 DA60     		str	r2, [r3, #12]
 855:..\..\..\..\..\..\Software\uCOS-II\Source/os_tmr.c **** #if OS_TMR_CFG_NAME_EN > 0u
ARM GAS  C:\Users\ADMINI~1\AppData\Local\Temp\ccFuReWR.s 			page 42


 856:..\..\..\..\..\..\Software\uCOS-II\Source/os_tmr.c ****     ptmr1->OSTmrName    = (INT8U *)(void *)"?";
 1468              		.loc 1 856 0
 1469 00b8 BB68     		ldr	r3, [r7, #8]
 1470 00ba 194A     		ldr	r2, .L120+8
 1471 00bc 1A62     		str	r2, [r3, #32]
 857:..\..\..\..\..\..\Software\uCOS-II\Source/os_tmr.c **** #endif
 858:..\..\..\..\..\..\Software\uCOS-II\Source/os_tmr.c ****     OSTmrTime           = 0u;
 1472              		.loc 1 858 0
 1473 00be 194B     		ldr	r3, .L120+12
 1474 00c0 0022     		movs	r2, #0
 1475 00c2 1A60     		str	r2, [r3]
 859:..\..\..\..\..\..\Software\uCOS-II\Source/os_tmr.c ****     OSTmrUsed           = 0u;
 1476              		.loc 1 859 0
 1477 00c4 184B     		ldr	r3, .L120+16
 1478 00c6 0022     		movs	r2, #0
 1479 00c8 1A80     		strh	r2, [r3]
 860:..\..\..\..\..\..\Software\uCOS-II\Source/os_tmr.c ****     OSTmrFree           = OS_TMR_CFG_MAX;
 1480              		.loc 1 860 0
 1481 00ca 184B     		ldr	r3, .L120+20
 1482 00cc 1022     		movs	r2, #16
 1483 00ce 1A80     		strh	r2, [r3]
 861:..\..\..\..\..\..\Software\uCOS-II\Source/os_tmr.c ****     OSTmrFreeList       = &OSTmrTbl[0];
 1484              		.loc 1 861 0
 1485 00d0 174B     		ldr	r3, .L120+24
 1486 00d2 114A     		ldr	r2, .L120
 1487 00d4 1A60     		str	r2, [r3]
 862:..\..\..\..\..\..\Software\uCOS-II\Source/os_tmr.c ****     OSTmrSem            = OSSemCreate(1u);
 1488              		.loc 1 862 0
 1489 00d6 0120     		movs	r0, #1
 1490 00d8 FFF7FEFF 		bl	OSSemCreate
 1491 00dc 0200     		movs	r2, r0
 1492 00de 154B     		ldr	r3, .L120+28
 1493 00e0 1A60     		str	r2, [r3]
 863:..\..\..\..\..\..\Software\uCOS-II\Source/os_tmr.c ****     OSTmrSemSignal      = OSSemCreate(0u);
 1494              		.loc 1 863 0
 1495 00e2 0020     		movs	r0, #0
 1496 00e4 FFF7FEFF 		bl	OSSemCreate
 1497 00e8 0200     		movs	r2, r0
 1498 00ea 134B     		ldr	r3, .L120+32
 1499 00ec 1A60     		str	r2, [r3]
 864:..\..\..\..\..\..\Software\uCOS-II\Source/os_tmr.c **** 
 865:..\..\..\..\..\..\Software\uCOS-II\Source/os_tmr.c **** #if OS_EVENT_NAME_EN > 0u                                               /* Assign names to semaphor
 866:..\..\..\..\..\..\Software\uCOS-II\Source/os_tmr.c ****     OSEventNameSet(OSTmrSem,       (INT8U *)(void *)"uC/OS-II TmrLock",   &err);
 1500              		.loc 1 866 0
 1501 00ee 114B     		ldr	r3, .L120+28
 1502 00f0 1B68     		ldr	r3, [r3]
 1503 00f2 FA1C     		adds	r2, r7, #3
 1504 00f4 1149     		ldr	r1, .L120+36
 1505 00f6 1800     		movs	r0, r3
 1506 00f8 FFF7FEFF 		bl	OSEventNameSet
 867:..\..\..\..\..\..\Software\uCOS-II\Source/os_tmr.c ****     OSEventNameSet(OSTmrSemSignal, (INT8U *)(void *)"uC/OS-II TmrSignal", &err);
 1507              		.loc 1 867 0
 1508 00fc 0E4B     		ldr	r3, .L120+32
 1509 00fe 1B68     		ldr	r3, [r3]
 1510 0100 FA1C     		adds	r2, r7, #3
 1511 0102 0F49     		ldr	r1, .L120+40
 1512 0104 1800     		movs	r0, r3
ARM GAS  C:\Users\ADMINI~1\AppData\Local\Temp\ccFuReWR.s 			page 43


 1513 0106 FFF7FEFF 		bl	OSEventNameSet
 868:..\..\..\..\..\..\Software\uCOS-II\Source/os_tmr.c **** #endif
 869:..\..\..\..\..\..\Software\uCOS-II\Source/os_tmr.c **** 
 870:..\..\..\..\..\..\Software\uCOS-II\Source/os_tmr.c ****     OSTmr_InitTask();
 1514              		.loc 1 870 0
 1515 010a FFF7FEFF 		bl	OSTmr_InitTask
 871:..\..\..\..\..\..\Software\uCOS-II\Source/os_tmr.c **** }
 1516              		.loc 1 871 0
 1517 010e C046     		nop
 1518 0110 BD46     		mov	sp, r7
 1519 0112 04B0     		add	sp, sp, #16
 1520              		@ sp needed
 1521 0114 80BD     		pop	{r7, pc}
 1522              	.L121:
 1523 0116 C046     		.align	2
 1524              	.L120:
 1525 0118 00000000 		.word	OSTmrTbl
 1526 011c 00000000 		.word	OSTmrWheelTbl
 1527 0120 00000000 		.word	.LC1
 1528 0124 00000000 		.word	OSTmrTime
 1529 0128 00000000 		.word	OSTmrUsed
 1530 012c 00000000 		.word	OSTmrFree
 1531 0130 00000000 		.word	OSTmrFreeList
 1532 0134 00000000 		.word	OSTmrSem
 1533 0138 00000000 		.word	OSTmrSemSignal
 1534 013c 04000000 		.word	.LC27
 1535 0140 18000000 		.word	.LC29
 1536              		.cfi_endproc
 1537              	.LFE11:
 1538              		.size	OSTmr_Init, .-OSTmr_Init
 1539              		.section	.rodata
 1540 002b 00       		.align	2
 1541              	.LC34:
 1542 002c 75432F4F 		.ascii	"uC/OS-II Tmr\000"
 1542      532D4949 
 1542      20546D72 
 1542      00
 1543              		.section	.text.OSTmr_InitTask,"ax",%progbits
 1544              		.align	2
 1545              		.code	16
 1546              		.thumb_func
 1547              		.type	OSTmr_InitTask, %function
 1548              	OSTmr_InitTask:
 1549              	.LFB12:
 872:..\..\..\..\..\..\Software\uCOS-II\Source/os_tmr.c **** #endif
 873:..\..\..\..\..\..\Software\uCOS-II\Source/os_tmr.c **** 
 874:..\..\..\..\..\..\Software\uCOS-II\Source/os_tmr.c **** /*$PAGE*/
 875:..\..\..\..\..\..\Software\uCOS-II\Source/os_tmr.c **** /*
 876:..\..\..\..\..\..\Software\uCOS-II\Source/os_tmr.c **** ***************************************************************************************************
 877:..\..\..\..\..\..\Software\uCOS-II\Source/os_tmr.c **** *                                INITIALIZE THE TIMER MANAGEMENT TASK
 878:..\..\..\..\..\..\Software\uCOS-II\Source/os_tmr.c **** *
 879:..\..\..\..\..\..\Software\uCOS-II\Source/os_tmr.c **** * Description: This function is called by OSTmrInit() to create the timer management task.
 880:..\..\..\..\..\..\Software\uCOS-II\Source/os_tmr.c **** *                               * Arguments  : none
 881:..\..\..\..\..\..\Software\uCOS-II\Source/os_tmr.c **** *
 882:..\..\..\..\..\..\Software\uCOS-II\Source/os_tmr.c **** * Returns    : none
 883:..\..\..\..\..\..\Software\uCOS-II\Source/os_tmr.c **** ***************************************************************************************************
 884:..\..\..\..\..\..\Software\uCOS-II\Source/os_tmr.c **** */
ARM GAS  C:\Users\ADMINI~1\AppData\Local\Temp\ccFuReWR.s 			page 44


 885:..\..\..\..\..\..\Software\uCOS-II\Source/os_tmr.c **** 
 886:..\..\..\..\..\..\Software\uCOS-II\Source/os_tmr.c **** #if OS_TMR_EN > 0u
 887:..\..\..\..\..\..\Software\uCOS-II\Source/os_tmr.c **** static  void  OSTmr_InitTask (void)
 888:..\..\..\..\..\..\Software\uCOS-II\Source/os_tmr.c **** {
 1550              		.loc 1 888 0
 1551              		.cfi_startproc
 1552              		@ args = 0, pretend = 0, frame = 8
 1553              		@ frame_needed = 1, uses_anonymous_args = 0
 1554 0000 80B5     		push	{r7, lr}
 1555              		.cfi_def_cfa_offset 8
 1556              		.cfi_offset 7, -8
 1557              		.cfi_offset 14, -4
 1558 0002 88B0     		sub	sp, sp, #32
 1559              		.cfi_def_cfa_offset 40
 1560 0004 06AF     		add	r7, sp, #24
 1561              		.cfi_def_cfa 7, 16
 889:..\..\..\..\..\..\Software\uCOS-II\Source/os_tmr.c **** #if OS_TASK_NAME_EN > 0u
 890:..\..\..\..\..\..\Software\uCOS-II\Source/os_tmr.c ****     INT8U  err;
 891:..\..\..\..\..\..\Software\uCOS-II\Source/os_tmr.c **** #endif
 892:..\..\..\..\..\..\Software\uCOS-II\Source/os_tmr.c **** 
 893:..\..\..\..\..\..\Software\uCOS-II\Source/os_tmr.c **** 
 894:..\..\..\..\..\..\Software\uCOS-II\Source/os_tmr.c **** #if OS_TASK_CREATE_EXT_EN > 0u
 895:..\..\..\..\..\..\Software\uCOS-II\Source/os_tmr.c ****     #if OS_STK_GROWTH == 1u
 896:..\..\..\..\..\..\Software\uCOS-II\Source/os_tmr.c ****     (void)OSTaskCreateExt(OSTmr_Task,
 1562              		.loc 1 896 0
 1563 0006 0D4A     		ldr	r2, .L123
 1564 0008 0D48     		ldr	r0, .L123+4
 1565 000a 0323     		movs	r3, #3
 1566 000c 0493     		str	r3, [sp, #16]
 1567 000e 0023     		movs	r3, #0
 1568 0010 0393     		str	r3, [sp, #12]
 1569 0012 8023     		movs	r3, #128
 1570 0014 0293     		str	r3, [sp, #8]
 1571 0016 0B4B     		ldr	r3, .L123+8
 1572 0018 0193     		str	r3, [sp, #4]
 1573 001a 0B4B     		ldr	r3, .L123+12
 1574 001c 0093     		str	r3, [sp]
 1575 001e 3D23     		movs	r3, #61
 1576 0020 0021     		movs	r1, #0
 1577 0022 FFF7FEFF 		bl	OSTaskCreateExt
 897:..\..\..\..\..\..\Software\uCOS-II\Source/os_tmr.c ****                           (void *)0,                                       /* No arguments passed t
 898:..\..\..\..\..\..\Software\uCOS-II\Source/os_tmr.c ****                           &OSTmrTaskStk[OS_TASK_TMR_STK_SIZE - 1u],        /* Set Top-Of-Stack     
 899:..\..\..\..\..\..\Software\uCOS-II\Source/os_tmr.c ****                           OS_TASK_TMR_PRIO,
 900:..\..\..\..\..\..\Software\uCOS-II\Source/os_tmr.c ****                           OS_TASK_TMR_ID,
 901:..\..\..\..\..\..\Software\uCOS-II\Source/os_tmr.c ****                           &OSTmrTaskStk[0],                                /* Set Bottom-Of-Stack  
 902:..\..\..\..\..\..\Software\uCOS-II\Source/os_tmr.c ****                           OS_TASK_TMR_STK_SIZE,
 903:..\..\..\..\..\..\Software\uCOS-II\Source/os_tmr.c ****                           (void *)0,                                       /* No TCB extension     
 904:..\..\..\..\..\..\Software\uCOS-II\Source/os_tmr.c ****                           OS_TASK_OPT_STK_CHK | OS_TASK_OPT_STK_CLR);      /* Enable stack checking
 905:..\..\..\..\..\..\Software\uCOS-II\Source/os_tmr.c ****     #else
 906:..\..\..\..\..\..\Software\uCOS-II\Source/os_tmr.c ****     (void)OSTaskCreateExt(OSTmr_Task,
 907:..\..\..\..\..\..\Software\uCOS-II\Source/os_tmr.c ****                           (void *)0,                                       /* No arguments passed t
 908:..\..\..\..\..\..\Software\uCOS-II\Source/os_tmr.c ****                           &OSTmrTaskStk[0],                                /* Set Top-Of-Stack     
 909:..\..\..\..\..\..\Software\uCOS-II\Source/os_tmr.c ****                           OS_TASK_TMR_PRIO,
 910:..\..\..\..\..\..\Software\uCOS-II\Source/os_tmr.c ****                           OS_TASK_TMR_ID,
 911:..\..\..\..\..\..\Software\uCOS-II\Source/os_tmr.c ****                           &OSTmrTaskStk[OS_TASK_TMR_STK_SIZE - 1u],        /* Set Bottom-Of-Stack  
 912:..\..\..\..\..\..\Software\uCOS-II\Source/os_tmr.c ****                           OS_TASK_TMR_STK_SIZE,
 913:..\..\..\..\..\..\Software\uCOS-II\Source/os_tmr.c ****                           (void *)0,                                       /* No TCB extension     
ARM GAS  C:\Users\ADMINI~1\AppData\Local\Temp\ccFuReWR.s 			page 45


 914:..\..\..\..\..\..\Software\uCOS-II\Source/os_tmr.c ****                           OS_TASK_OPT_STK_CHK | OS_TASK_OPT_STK_CLR);      /* Enable stack checking
 915:..\..\..\..\..\..\Software\uCOS-II\Source/os_tmr.c ****     #endif
 916:..\..\..\..\..\..\Software\uCOS-II\Source/os_tmr.c **** #else
 917:..\..\..\..\..\..\Software\uCOS-II\Source/os_tmr.c ****     #if OS_STK_GROWTH == 1u
 918:..\..\..\..\..\..\Software\uCOS-II\Source/os_tmr.c ****     (void)OSTaskCreate(OSTmr_Task,
 919:..\..\..\..\..\..\Software\uCOS-II\Source/os_tmr.c ****                        (void *)0,
 920:..\..\..\..\..\..\Software\uCOS-II\Source/os_tmr.c ****                        &OSTmrTaskStk[OS_TASK_TMR_STK_SIZE - 1u],
 921:..\..\..\..\..\..\Software\uCOS-II\Source/os_tmr.c ****                        OS_TASK_TMR_PRIO);
 922:..\..\..\..\..\..\Software\uCOS-II\Source/os_tmr.c ****     #else
 923:..\..\..\..\..\..\Software\uCOS-II\Source/os_tmr.c ****     (void)OSTaskCreate(OSTmr_Task,
 924:..\..\..\..\..\..\Software\uCOS-II\Source/os_tmr.c ****                        (void *)0,
 925:..\..\..\..\..\..\Software\uCOS-II\Source/os_tmr.c ****                        &OSTmrTaskStk[0],
 926:..\..\..\..\..\..\Software\uCOS-II\Source/os_tmr.c ****                        OS_TASK_TMR_PRIO);
 927:..\..\..\..\..\..\Software\uCOS-II\Source/os_tmr.c ****     #endif
 928:..\..\..\..\..\..\Software\uCOS-II\Source/os_tmr.c **** #endif
 929:..\..\..\..\..\..\Software\uCOS-II\Source/os_tmr.c **** 
 930:..\..\..\..\..\..\Software\uCOS-II\Source/os_tmr.c **** #if OS_TASK_NAME_EN > 0u
 931:..\..\..\..\..\..\Software\uCOS-II\Source/os_tmr.c ****     OSTaskNameSet(OS_TASK_TMR_PRIO, (INT8U *)(void *)"uC/OS-II Tmr", &err);
 1578              		.loc 1 931 0
 1579 0026 FA1D     		adds	r2, r7, #7
 1580 0028 084B     		ldr	r3, .L123+16
 1581 002a 1900     		movs	r1, r3
 1582 002c 3D20     		movs	r0, #61
 1583 002e FFF7FEFF 		bl	OSTaskNameSet
 932:..\..\..\..\..\..\Software\uCOS-II\Source/os_tmr.c **** #endif
 933:..\..\..\..\..\..\Software\uCOS-II\Source/os_tmr.c **** }
 1584              		.loc 1 933 0
 1585 0032 C046     		nop
 1586 0034 BD46     		mov	sp, r7
 1587 0036 02B0     		add	sp, sp, #8
 1588              		@ sp needed
 1589 0038 80BD     		pop	{r7, pc}
 1590              	.L124:
 1591 003a C046     		.align	2
 1592              	.L123:
 1593 003c FC010000 		.word	OSTmrTaskStk+508
 1594 0040 00000000 		.word	OSTmr_Task
 1595 0044 00000000 		.word	OSTmrTaskStk
 1596 0048 FDFF0000 		.word	65533
 1597 004c 2C000000 		.word	.LC34
 1598              		.cfi_endproc
 1599              	.LFE12:
 1600              		.size	OSTmr_InitTask, .-OSTmr_InitTask
 1601              		.global	__aeabi_uidivmod
 1602              		.section	.text.OSTmr_Link,"ax",%progbits
 1603              		.align	2
 1604              		.code	16
 1605              		.thumb_func
 1606              		.type	OSTmr_Link, %function
 1607              	OSTmr_Link:
 1608              	.LFB13:
 934:..\..\..\..\..\..\Software\uCOS-II\Source/os_tmr.c **** #endif
 935:..\..\..\..\..\..\Software\uCOS-II\Source/os_tmr.c **** 
 936:..\..\..\..\..\..\Software\uCOS-II\Source/os_tmr.c **** /*$PAGE*/
 937:..\..\..\..\..\..\Software\uCOS-II\Source/os_tmr.c **** /*
 938:..\..\..\..\..\..\Software\uCOS-II\Source/os_tmr.c **** ***************************************************************************************************
 939:..\..\..\..\..\..\Software\uCOS-II\Source/os_tmr.c **** *                                 INSERT A TIMER INTO THE TIMER WHEEL
ARM GAS  C:\Users\ADMINI~1\AppData\Local\Temp\ccFuReWR.s 			page 46


 940:..\..\..\..\..\..\Software\uCOS-II\Source/os_tmr.c **** *
 941:..\..\..\..\..\..\Software\uCOS-II\Source/os_tmr.c **** * Description: This function is called to insert the timer into the timer wheel.  The timer is alwa
 942:..\..\..\..\..\..\Software\uCOS-II\Source/os_tmr.c **** *              inserted at the beginning of the list.
 943:..\..\..\..\..\..\Software\uCOS-II\Source/os_tmr.c **** *
 944:..\..\..\..\..\..\Software\uCOS-II\Source/os_tmr.c **** * Arguments  : ptmr          Is a pointer to the timer to insert.
 945:..\..\..\..\..\..\Software\uCOS-II\Source/os_tmr.c **** *
 946:..\..\..\..\..\..\Software\uCOS-II\Source/os_tmr.c **** *              type          Is either:
 947:..\..\..\..\..\..\Software\uCOS-II\Source/os_tmr.c **** *                               OS_TMR_LINK_PERIODIC    Means to re-insert the timer after a period
 948:..\..\..\..\..\..\Software\uCOS-II\Source/os_tmr.c **** *                               OS_TMR_LINK_DLY         Means to insert    the timer the first time
 949:..\..\..\..\..\..\Software\uCOS-II\Source/os_tmr.c **** *
 950:..\..\..\..\..\..\Software\uCOS-II\Source/os_tmr.c **** * Returns    : none
 951:..\..\..\..\..\..\Software\uCOS-II\Source/os_tmr.c **** ***************************************************************************************************
 952:..\..\..\..\..\..\Software\uCOS-II\Source/os_tmr.c **** */
 953:..\..\..\..\..\..\Software\uCOS-II\Source/os_tmr.c **** 
 954:..\..\..\..\..\..\Software\uCOS-II\Source/os_tmr.c **** #if OS_TMR_EN > 0u
 955:..\..\..\..\..\..\Software\uCOS-II\Source/os_tmr.c **** static  void  OSTmr_Link (OS_TMR  *ptmr,
 956:..\..\..\..\..\..\Software\uCOS-II\Source/os_tmr.c ****                           INT8U    type)
 957:..\..\..\..\..\..\Software\uCOS-II\Source/os_tmr.c **** {
 1609              		.loc 1 957 0
 1610              		.cfi_startproc
 1611              		@ args = 0, pretend = 0, frame = 24
 1612              		@ frame_needed = 1, uses_anonymous_args = 0
 1613 0000 80B5     		push	{r7, lr}
 1614              		.cfi_def_cfa_offset 8
 1615              		.cfi_offset 7, -8
 1616              		.cfi_offset 14, -4
 1617 0002 86B0     		sub	sp, sp, #24
 1618              		.cfi_def_cfa_offset 32
 1619 0004 00AF     		add	r7, sp, #0
 1620              		.cfi_def_cfa_register 7
 1621 0006 7860     		str	r0, [r7, #4]
 1622 0008 0A00     		movs	r2, r1
 1623 000a FB1C     		adds	r3, r7, #3
 1624 000c 1A70     		strb	r2, [r3]
 958:..\..\..\..\..\..\Software\uCOS-II\Source/os_tmr.c ****     OS_TMR       *ptmr1;
 959:..\..\..\..\..\..\Software\uCOS-II\Source/os_tmr.c ****     OS_TMR_WHEEL *pspoke;
 960:..\..\..\..\..\..\Software\uCOS-II\Source/os_tmr.c ****     INT16U        spoke;
 961:..\..\..\..\..\..\Software\uCOS-II\Source/os_tmr.c **** 
 962:..\..\..\..\..\..\Software\uCOS-II\Source/os_tmr.c **** 
 963:..\..\..\..\..\..\Software\uCOS-II\Source/os_tmr.c ****     ptmr->OSTmrState = OS_TMR_STATE_RUNNING;
 1625              		.loc 1 963 0
 1626 000e 7B68     		ldr	r3, [r7, #4]
 1627 0010 2522     		movs	r2, #37
 1628 0012 0321     		movs	r1, #3
 1629 0014 9954     		strb	r1, [r3, r2]
 964:..\..\..\..\..\..\Software\uCOS-II\Source/os_tmr.c ****     if (type == OS_TMR_LINK_PERIODIC) {                            /* Determine when timer will exp
 1630              		.loc 1 964 0
 1631 0016 FB1C     		adds	r3, r7, #3
 1632 0018 1B78     		ldrb	r3, [r3]
 1633 001a 012B     		cmp	r3, #1
 1634 001c 07D1     		bne	.L126
 965:..\..\..\..\..\..\Software\uCOS-II\Source/os_tmr.c ****         ptmr->OSTmrMatch = ptmr->OSTmrPeriod + OSTmrTime;
 1635              		.loc 1 965 0
 1636 001e 7B68     		ldr	r3, [r7, #4]
 1637 0020 DA69     		ldr	r2, [r3, #28]
 1638 0022 294B     		ldr	r3, .L131
 1639 0024 1B68     		ldr	r3, [r3]
ARM GAS  C:\Users\ADMINI~1\AppData\Local\Temp\ccFuReWR.s 			page 47


 1640 0026 D218     		adds	r2, r2, r3
 1641 0028 7B68     		ldr	r3, [r7, #4]
 1642 002a 5A61     		str	r2, [r3, #20]
 1643 002c 12E0     		b	.L127
 1644              	.L126:
 966:..\..\..\..\..\..\Software\uCOS-II\Source/os_tmr.c ****     } else {
 967:..\..\..\..\..\..\Software\uCOS-II\Source/os_tmr.c ****         if (ptmr->OSTmrDly == 0u) {
 1645              		.loc 1 967 0
 1646 002e 7B68     		ldr	r3, [r7, #4]
 1647 0030 9B69     		ldr	r3, [r3, #24]
 1648 0032 002B     		cmp	r3, #0
 1649 0034 07D1     		bne	.L128
 968:..\..\..\..\..\..\Software\uCOS-II\Source/os_tmr.c ****             ptmr->OSTmrMatch = ptmr->OSTmrPeriod + OSTmrTime;
 1650              		.loc 1 968 0
 1651 0036 7B68     		ldr	r3, [r7, #4]
 1652 0038 DA69     		ldr	r2, [r3, #28]
 1653 003a 234B     		ldr	r3, .L131
 1654 003c 1B68     		ldr	r3, [r3]
 1655 003e D218     		adds	r2, r2, r3
 1656 0040 7B68     		ldr	r3, [r7, #4]
 1657 0042 5A61     		str	r2, [r3, #20]
 1658 0044 06E0     		b	.L127
 1659              	.L128:
 969:..\..\..\..\..\..\Software\uCOS-II\Source/os_tmr.c ****         } else {
 970:..\..\..\..\..\..\Software\uCOS-II\Source/os_tmr.c ****             ptmr->OSTmrMatch = ptmr->OSTmrDly    + OSTmrTime;
 1660              		.loc 1 970 0
 1661 0046 7B68     		ldr	r3, [r7, #4]
 1662 0048 9A69     		ldr	r2, [r3, #24]
 1663 004a 1F4B     		ldr	r3, .L131
 1664 004c 1B68     		ldr	r3, [r3]
 1665 004e D218     		adds	r2, r2, r3
 1666 0050 7B68     		ldr	r3, [r7, #4]
 1667 0052 5A61     		str	r2, [r3, #20]
 1668              	.L127:
 971:..\..\..\..\..\..\Software\uCOS-II\Source/os_tmr.c ****         }
 972:..\..\..\..\..\..\Software\uCOS-II\Source/os_tmr.c ****     }
 973:..\..\..\..\..\..\Software\uCOS-II\Source/os_tmr.c ****     spoke  = (INT16U)(ptmr->OSTmrMatch % OS_TMR_CFG_WHEEL_SIZE);
 1669              		.loc 1 973 0
 1670 0054 7B68     		ldr	r3, [r7, #4]
 1671 0056 5B69     		ldr	r3, [r3, #20]
 1672 0058 0721     		movs	r1, #7
 1673 005a 1800     		movs	r0, r3
 1674 005c FFF7FEFF 		bl	__aeabi_uidivmod
 1675 0060 0B00     		movs	r3, r1
 1676 0062 1A00     		movs	r2, r3
 1677 0064 1623     		movs	r3, #22
 1678 0066 FB18     		adds	r3, r7, r3
 1679 0068 1A80     		strh	r2, [r3]
 974:..\..\..\..\..\..\Software\uCOS-II\Source/os_tmr.c ****     pspoke = &OSTmrWheelTbl[spoke];
 1680              		.loc 1 974 0
 1681 006a 1623     		movs	r3, #22
 1682 006c FB18     		adds	r3, r7, r3
 1683 006e 1B88     		ldrh	r3, [r3]
 1684 0070 DA00     		lsls	r2, r3, #3
 1685 0072 164B     		ldr	r3, .L131+4
 1686 0074 D318     		adds	r3, r2, r3
 1687 0076 3B61     		str	r3, [r7, #16]
ARM GAS  C:\Users\ADMINI~1\AppData\Local\Temp\ccFuReWR.s 			page 48


 975:..\..\..\..\..\..\Software\uCOS-II\Source/os_tmr.c **** 
 976:..\..\..\..\..\..\Software\uCOS-II\Source/os_tmr.c ****     if (pspoke->OSTmrFirst == (OS_TMR *)0) {                       /* Link into timer wheel        
 1688              		.loc 1 976 0
 1689 0078 3B69     		ldr	r3, [r7, #16]
 1690 007a 1B68     		ldr	r3, [r3]
 1691 007c 002B     		cmp	r3, #0
 1692 007e 09D1     		bne	.L129
 977:..\..\..\..\..\..\Software\uCOS-II\Source/os_tmr.c ****         pspoke->OSTmrFirst   = ptmr;
 1693              		.loc 1 977 0
 1694 0080 3B69     		ldr	r3, [r7, #16]
 1695 0082 7A68     		ldr	r2, [r7, #4]
 1696 0084 1A60     		str	r2, [r3]
 978:..\..\..\..\..\..\Software\uCOS-II\Source/os_tmr.c ****         ptmr->OSTmrNext      = (OS_TMR *)0;
 1697              		.loc 1 978 0
 1698 0086 7B68     		ldr	r3, [r7, #4]
 1699 0088 0022     		movs	r2, #0
 1700 008a DA60     		str	r2, [r3, #12]
 979:..\..\..\..\..\..\Software\uCOS-II\Source/os_tmr.c ****         pspoke->OSTmrEntries = 1u;
 1701              		.loc 1 979 0
 1702 008c 3B69     		ldr	r3, [r7, #16]
 1703 008e 0122     		movs	r2, #1
 1704 0090 9A80     		strh	r2, [r3, #4]
 1705 0092 11E0     		b	.L130
 1706              	.L129:
 980:..\..\..\..\..\..\Software\uCOS-II\Source/os_tmr.c ****     } else {
 981:..\..\..\..\..\..\Software\uCOS-II\Source/os_tmr.c ****         ptmr1                = pspoke->OSTmrFirst;                 /* Point to first timer in the s
 1707              		.loc 1 981 0
 1708 0094 3B69     		ldr	r3, [r7, #16]
 1709 0096 1B68     		ldr	r3, [r3]
 1710 0098 FB60     		str	r3, [r7, #12]
 982:..\..\..\..\..\..\Software\uCOS-II\Source/os_tmr.c ****         pspoke->OSTmrFirst   = ptmr;
 1711              		.loc 1 982 0
 1712 009a 3B69     		ldr	r3, [r7, #16]
 1713 009c 7A68     		ldr	r2, [r7, #4]
 1714 009e 1A60     		str	r2, [r3]
 983:..\..\..\..\..\..\Software\uCOS-II\Source/os_tmr.c ****         ptmr->OSTmrNext      = (void *)ptmr1;
 1715              		.loc 1 983 0
 1716 00a0 7B68     		ldr	r3, [r7, #4]
 1717 00a2 FA68     		ldr	r2, [r7, #12]
 1718 00a4 DA60     		str	r2, [r3, #12]
 984:..\..\..\..\..\..\Software\uCOS-II\Source/os_tmr.c ****         ptmr1->OSTmrPrev     = (void *)ptmr;
 1719              		.loc 1 984 0
 1720 00a6 FB68     		ldr	r3, [r7, #12]
 1721 00a8 7A68     		ldr	r2, [r7, #4]
 1722 00aa 1A61     		str	r2, [r3, #16]
 985:..\..\..\..\..\..\Software\uCOS-II\Source/os_tmr.c ****         pspoke->OSTmrEntries++;
 1723              		.loc 1 985 0
 1724 00ac 3B69     		ldr	r3, [r7, #16]
 1725 00ae 9B88     		ldrh	r3, [r3, #4]
 1726 00b0 0133     		adds	r3, r3, #1
 1727 00b2 9AB2     		uxth	r2, r3
 1728 00b4 3B69     		ldr	r3, [r7, #16]
 1729 00b6 9A80     		strh	r2, [r3, #4]
 1730              	.L130:
 986:..\..\..\..\..\..\Software\uCOS-II\Source/os_tmr.c ****     }
 987:..\..\..\..\..\..\Software\uCOS-II\Source/os_tmr.c ****     ptmr->OSTmrPrev = (void *)0;                                   /* Timer always inserted as firs
 1731              		.loc 1 987 0
ARM GAS  C:\Users\ADMINI~1\AppData\Local\Temp\ccFuReWR.s 			page 49


 1732 00b8 7B68     		ldr	r3, [r7, #4]
 1733 00ba 0022     		movs	r2, #0
 1734 00bc 1A61     		str	r2, [r3, #16]
 988:..\..\..\..\..\..\Software\uCOS-II\Source/os_tmr.c **** }
 1735              		.loc 1 988 0
 1736 00be C046     		nop
 1737 00c0 BD46     		mov	sp, r7
 1738 00c2 06B0     		add	sp, sp, #24
 1739              		@ sp needed
 1740 00c4 80BD     		pop	{r7, pc}
 1741              	.L132:
 1742 00c6 C046     		.align	2
 1743              	.L131:
 1744 00c8 00000000 		.word	OSTmrTime
 1745 00cc 00000000 		.word	OSTmrWheelTbl
 1746              		.cfi_endproc
 1747              	.LFE13:
 1748              		.size	OSTmr_Link, .-OSTmr_Link
 1749              		.section	.text.OSTmr_Unlink,"ax",%progbits
 1750              		.align	2
 1751              		.code	16
 1752              		.thumb_func
 1753              		.type	OSTmr_Unlink, %function
 1754              	OSTmr_Unlink:
 1755              	.LFB14:
 989:..\..\..\..\..\..\Software\uCOS-II\Source/os_tmr.c **** #endif
 990:..\..\..\..\..\..\Software\uCOS-II\Source/os_tmr.c **** 
 991:..\..\..\..\..\..\Software\uCOS-II\Source/os_tmr.c **** /*$PAGE*/
 992:..\..\..\..\..\..\Software\uCOS-II\Source/os_tmr.c **** /*
 993:..\..\..\..\..\..\Software\uCOS-II\Source/os_tmr.c **** ***************************************************************************************************
 994:..\..\..\..\..\..\Software\uCOS-II\Source/os_tmr.c **** *                                 REMOVE A TIMER FROM THE TIMER WHEEL
 995:..\..\..\..\..\..\Software\uCOS-II\Source/os_tmr.c **** *
 996:..\..\..\..\..\..\Software\uCOS-II\Source/os_tmr.c **** * Description: This function is called to remove the timer from the timer wheel.
 997:..\..\..\..\..\..\Software\uCOS-II\Source/os_tmr.c **** *
 998:..\..\..\..\..\..\Software\uCOS-II\Source/os_tmr.c **** * Arguments  : ptmr          Is a pointer to the timer to remove.
 999:..\..\..\..\..\..\Software\uCOS-II\Source/os_tmr.c **** *
1000:..\..\..\..\..\..\Software\uCOS-II\Source/os_tmr.c **** * Returns    : none
1001:..\..\..\..\..\..\Software\uCOS-II\Source/os_tmr.c **** ***************************************************************************************************
1002:..\..\..\..\..\..\Software\uCOS-II\Source/os_tmr.c **** */
1003:..\..\..\..\..\..\Software\uCOS-II\Source/os_tmr.c **** 
1004:..\..\..\..\..\..\Software\uCOS-II\Source/os_tmr.c **** #if OS_TMR_EN > 0u
1005:..\..\..\..\..\..\Software\uCOS-II\Source/os_tmr.c **** static  void  OSTmr_Unlink (OS_TMR *ptmr)
1006:..\..\..\..\..\..\Software\uCOS-II\Source/os_tmr.c **** {
 1756              		.loc 1 1006 0
 1757              		.cfi_startproc
 1758              		@ args = 0, pretend = 0, frame = 24
 1759              		@ frame_needed = 1, uses_anonymous_args = 0
 1760 0000 80B5     		push	{r7, lr}
 1761              		.cfi_def_cfa_offset 8
 1762              		.cfi_offset 7, -8
 1763              		.cfi_offset 14, -4
 1764 0002 86B0     		sub	sp, sp, #24
 1765              		.cfi_def_cfa_offset 32
 1766 0004 00AF     		add	r7, sp, #0
 1767              		.cfi_def_cfa_register 7
 1768 0006 7860     		str	r0, [r7, #4]
1007:..\..\..\..\..\..\Software\uCOS-II\Source/os_tmr.c ****     OS_TMR        *ptmr1;
ARM GAS  C:\Users\ADMINI~1\AppData\Local\Temp\ccFuReWR.s 			page 50


1008:..\..\..\..\..\..\Software\uCOS-II\Source/os_tmr.c ****     OS_TMR        *ptmr2;
1009:..\..\..\..\..\..\Software\uCOS-II\Source/os_tmr.c ****     OS_TMR_WHEEL  *pspoke;
1010:..\..\..\..\..\..\Software\uCOS-II\Source/os_tmr.c ****     INT16U         spoke;
1011:..\..\..\..\..\..\Software\uCOS-II\Source/os_tmr.c **** 
1012:..\..\..\..\..\..\Software\uCOS-II\Source/os_tmr.c **** 
1013:..\..\..\..\..\..\Software\uCOS-II\Source/os_tmr.c ****     spoke  = (INT16U)(ptmr->OSTmrMatch % OS_TMR_CFG_WHEEL_SIZE);
 1769              		.loc 1 1013 0
 1770 0008 7B68     		ldr	r3, [r7, #4]
 1771 000a 5B69     		ldr	r3, [r3, #20]
 1772 000c 0721     		movs	r1, #7
 1773 000e 1800     		movs	r0, r3
 1774 0010 FFF7FEFF 		bl	__aeabi_uidivmod
 1775 0014 0B00     		movs	r3, r1
 1776 0016 1A00     		movs	r2, r3
 1777 0018 1623     		movs	r3, #22
 1778 001a FB18     		adds	r3, r7, r3
 1779 001c 1A80     		strh	r2, [r3]
1014:..\..\..\..\..\..\Software\uCOS-II\Source/os_tmr.c ****     pspoke = &OSTmrWheelTbl[spoke];
 1780              		.loc 1 1014 0
 1781 001e 1623     		movs	r3, #22
 1782 0020 FB18     		adds	r3, r7, r3
 1783 0022 1B88     		ldrh	r3, [r3]
 1784 0024 DA00     		lsls	r2, r3, #3
 1785 0026 1C4B     		ldr	r3, .L137
 1786 0028 D318     		adds	r3, r2, r3
 1787 002a 3B61     		str	r3, [r7, #16]
1015:..\..\..\..\..\..\Software\uCOS-II\Source/os_tmr.c **** 
1016:..\..\..\..\..\..\Software\uCOS-II\Source/os_tmr.c ****     if (pspoke->OSTmrFirst == ptmr) {                       /* See if timer to remove is at the beg
 1788              		.loc 1 1016 0
 1789 002c 3B69     		ldr	r3, [r7, #16]
 1790 002e 1A68     		ldr	r2, [r3]
 1791 0030 7B68     		ldr	r3, [r7, #4]
 1792 0032 9A42     		cmp	r2, r3
 1793 0034 0CD1     		bne	.L134
1017:..\..\..\..\..\..\Software\uCOS-II\Source/os_tmr.c ****         ptmr1              = (OS_TMR *)ptmr->OSTmrNext;
 1794              		.loc 1 1017 0
 1795 0036 7B68     		ldr	r3, [r7, #4]
 1796 0038 DB68     		ldr	r3, [r3, #12]
 1797 003a FB60     		str	r3, [r7, #12]
1018:..\..\..\..\..\..\Software\uCOS-II\Source/os_tmr.c ****         pspoke->OSTmrFirst = (OS_TMR *)ptmr1;
 1798              		.loc 1 1018 0
 1799 003c 3B69     		ldr	r3, [r7, #16]
 1800 003e FA68     		ldr	r2, [r7, #12]
 1801 0040 1A60     		str	r2, [r3]
1019:..\..\..\..\..\..\Software\uCOS-II\Source/os_tmr.c ****         if (ptmr1 != (OS_TMR *)0) {
 1802              		.loc 1 1019 0
 1803 0042 FB68     		ldr	r3, [r7, #12]
 1804 0044 002B     		cmp	r3, #0
 1805 0046 12D0     		beq	.L136
1020:..\..\..\..\..\..\Software\uCOS-II\Source/os_tmr.c ****             ptmr1->OSTmrPrev = (void *)0;
 1806              		.loc 1 1020 0
 1807 0048 FB68     		ldr	r3, [r7, #12]
 1808 004a 0022     		movs	r2, #0
 1809 004c 1A61     		str	r2, [r3, #16]
 1810 004e 0EE0     		b	.L136
 1811              	.L134:
1021:..\..\..\..\..\..\Software\uCOS-II\Source/os_tmr.c ****         }
ARM GAS  C:\Users\ADMINI~1\AppData\Local\Temp\ccFuReWR.s 			page 51


1022:..\..\..\..\..\..\Software\uCOS-II\Source/os_tmr.c ****     } else {
1023:..\..\..\..\..\..\Software\uCOS-II\Source/os_tmr.c ****         ptmr1            = (OS_TMR *)ptmr->OSTmrPrev;       /* Remove timer from somewhere in the l
 1812              		.loc 1 1023 0
 1813 0050 7B68     		ldr	r3, [r7, #4]
 1814 0052 1B69     		ldr	r3, [r3, #16]
 1815 0054 FB60     		str	r3, [r7, #12]
1024:..\..\..\..\..\..\Software\uCOS-II\Source/os_tmr.c ****         ptmr2            = (OS_TMR *)ptmr->OSTmrNext;
 1816              		.loc 1 1024 0
 1817 0056 7B68     		ldr	r3, [r7, #4]
 1818 0058 DB68     		ldr	r3, [r3, #12]
 1819 005a BB60     		str	r3, [r7, #8]
1025:..\..\..\..\..\..\Software\uCOS-II\Source/os_tmr.c ****         ptmr1->OSTmrNext = ptmr2;
 1820              		.loc 1 1025 0
 1821 005c FB68     		ldr	r3, [r7, #12]
 1822 005e BA68     		ldr	r2, [r7, #8]
 1823 0060 DA60     		str	r2, [r3, #12]
1026:..\..\..\..\..\..\Software\uCOS-II\Source/os_tmr.c ****         if (ptmr2 != (OS_TMR *)0) {
 1824              		.loc 1 1026 0
 1825 0062 BB68     		ldr	r3, [r7, #8]
 1826 0064 002B     		cmp	r3, #0
 1827 0066 02D0     		beq	.L136
1027:..\..\..\..\..\..\Software\uCOS-II\Source/os_tmr.c ****             ptmr2->OSTmrPrev = (void *)ptmr1;
 1828              		.loc 1 1027 0
 1829 0068 BB68     		ldr	r3, [r7, #8]
 1830 006a FA68     		ldr	r2, [r7, #12]
 1831 006c 1A61     		str	r2, [r3, #16]
 1832              	.L136:
1028:..\..\..\..\..\..\Software\uCOS-II\Source/os_tmr.c ****         }
1029:..\..\..\..\..\..\Software\uCOS-II\Source/os_tmr.c ****     }
1030:..\..\..\..\..\..\Software\uCOS-II\Source/os_tmr.c ****     ptmr->OSTmrState = OS_TMR_STATE_STOPPED;
 1833              		.loc 1 1030 0
 1834 006e 7B68     		ldr	r3, [r7, #4]
 1835 0070 2522     		movs	r2, #37
 1836 0072 0121     		movs	r1, #1
 1837 0074 9954     		strb	r1, [r3, r2]
1031:..\..\..\..\..\..\Software\uCOS-II\Source/os_tmr.c ****     ptmr->OSTmrNext  = (void *)0;
 1838              		.loc 1 1031 0
 1839 0076 7B68     		ldr	r3, [r7, #4]
 1840 0078 0022     		movs	r2, #0
 1841 007a DA60     		str	r2, [r3, #12]
1032:..\..\..\..\..\..\Software\uCOS-II\Source/os_tmr.c ****     ptmr->OSTmrPrev  = (void *)0;
 1842              		.loc 1 1032 0
 1843 007c 7B68     		ldr	r3, [r7, #4]
 1844 007e 0022     		movs	r2, #0
 1845 0080 1A61     		str	r2, [r3, #16]
1033:..\..\..\..\..\..\Software\uCOS-II\Source/os_tmr.c ****     pspoke->OSTmrEntries--;
 1846              		.loc 1 1033 0
 1847 0082 3B69     		ldr	r3, [r7, #16]
 1848 0084 9B88     		ldrh	r3, [r3, #4]
 1849 0086 013B     		subs	r3, r3, #1
 1850 0088 9AB2     		uxth	r2, r3
 1851 008a 3B69     		ldr	r3, [r7, #16]
 1852 008c 9A80     		strh	r2, [r3, #4]
1034:..\..\..\..\..\..\Software\uCOS-II\Source/os_tmr.c **** }
 1853              		.loc 1 1034 0
 1854 008e C046     		nop
 1855 0090 BD46     		mov	sp, r7
ARM GAS  C:\Users\ADMINI~1\AppData\Local\Temp\ccFuReWR.s 			page 52


 1856 0092 06B0     		add	sp, sp, #24
 1857              		@ sp needed
 1858 0094 80BD     		pop	{r7, pc}
 1859              	.L138:
 1860 0096 C046     		.align	2
 1861              	.L137:
 1862 0098 00000000 		.word	OSTmrWheelTbl
 1863              		.cfi_endproc
 1864              	.LFE14:
 1865              		.size	OSTmr_Unlink, .-OSTmr_Unlink
 1866              		.section	.text.OSTmr_Task,"ax",%progbits
 1867              		.align	2
 1868              		.code	16
 1869              		.thumb_func
 1870              		.type	OSTmr_Task, %function
 1871              	OSTmr_Task:
 1872              	.LFB15:
1035:..\..\..\..\..\..\Software\uCOS-II\Source/os_tmr.c **** #endif
1036:..\..\..\..\..\..\Software\uCOS-II\Source/os_tmr.c **** 
1037:..\..\..\..\..\..\Software\uCOS-II\Source/os_tmr.c **** /*$PAGE*/
1038:..\..\..\..\..\..\Software\uCOS-II\Source/os_tmr.c **** /*
1039:..\..\..\..\..\..\Software\uCOS-II\Source/os_tmr.c **** ***************************************************************************************************
1040:..\..\..\..\..\..\Software\uCOS-II\Source/os_tmr.c **** *                                        TIMER MANAGEMENT TASK
1041:..\..\..\..\..\..\Software\uCOS-II\Source/os_tmr.c **** *
1042:..\..\..\..\..\..\Software\uCOS-II\Source/os_tmr.c **** * Description: This task is created by OSTmrInit().
1043:..\..\..\..\..\..\Software\uCOS-II\Source/os_tmr.c **** *
1044:..\..\..\..\..\..\Software\uCOS-II\Source/os_tmr.c **** * Arguments  : none
1045:..\..\..\..\..\..\Software\uCOS-II\Source/os_tmr.c **** *
1046:..\..\..\..\..\..\Software\uCOS-II\Source/os_tmr.c **** * Returns    : none
1047:..\..\..\..\..\..\Software\uCOS-II\Source/os_tmr.c **** ***************************************************************************************************
1048:..\..\..\..\..\..\Software\uCOS-II\Source/os_tmr.c **** */
1049:..\..\..\..\..\..\Software\uCOS-II\Source/os_tmr.c **** 
1050:..\..\..\..\..\..\Software\uCOS-II\Source/os_tmr.c **** #if OS_TMR_EN > 0u
1051:..\..\..\..\..\..\Software\uCOS-II\Source/os_tmr.c **** static  void  OSTmr_Task (void *p_arg)
1052:..\..\..\..\..\..\Software\uCOS-II\Source/os_tmr.c **** {
 1873              		.loc 1 1052 0
 1874              		.cfi_startproc
 1875              		@ args = 0, pretend = 0, frame = 32
 1876              		@ frame_needed = 1, uses_anonymous_args = 0
 1877 0000 80B5     		push	{r7, lr}
 1878              		.cfi_def_cfa_offset 8
 1879              		.cfi_offset 7, -8
 1880              		.cfi_offset 14, -4
 1881 0002 88B0     		sub	sp, sp, #32
 1882              		.cfi_def_cfa_offset 40
 1883 0004 00AF     		add	r7, sp, #0
 1884              		.cfi_def_cfa_register 7
 1885 0006 7860     		str	r0, [r7, #4]
 1886              	.L145:
1053:..\..\..\..\..\..\Software\uCOS-II\Source/os_tmr.c ****     INT8U            err;
1054:..\..\..\..\..\..\Software\uCOS-II\Source/os_tmr.c ****     OS_TMR          *ptmr;
1055:..\..\..\..\..\..\Software\uCOS-II\Source/os_tmr.c ****     OS_TMR          *ptmr_next;
1056:..\..\..\..\..\..\Software\uCOS-II\Source/os_tmr.c ****     OS_TMR_CALLBACK  pfnct;
1057:..\..\..\..\..\..\Software\uCOS-II\Source/os_tmr.c ****     OS_TMR_WHEEL    *pspoke;
1058:..\..\..\..\..\..\Software\uCOS-II\Source/os_tmr.c ****     INT16U           spoke;
1059:..\..\..\..\..\..\Software\uCOS-II\Source/os_tmr.c **** 
1060:..\..\..\..\..\..\Software\uCOS-II\Source/os_tmr.c **** 
ARM GAS  C:\Users\ADMINI~1\AppData\Local\Temp\ccFuReWR.s 			page 53


1061:..\..\..\..\..\..\Software\uCOS-II\Source/os_tmr.c ****     p_arg = p_arg;                                               /* Prevent compiler warning for no
1062:..\..\..\..\..\..\Software\uCOS-II\Source/os_tmr.c ****     for (;;) {
1063:..\..\..\..\..\..\Software\uCOS-II\Source/os_tmr.c ****         OSSemPend(OSTmrSemSignal, 0u, &err);                     /* Wait for signal indicating time
 1887              		.loc 1 1063 0
 1888 0008 2A4B     		ldr	r3, .L146
 1889 000a 1B68     		ldr	r3, [r3]
 1890 000c 0B22     		movs	r2, #11
 1891 000e BA18     		adds	r2, r7, r2
 1892 0010 0021     		movs	r1, #0
 1893 0012 1800     		movs	r0, r3
 1894 0014 FFF7FEFF 		bl	OSSemPend
1064:..\..\..\..\..\..\Software\uCOS-II\Source/os_tmr.c ****         OSSchedLock();
 1895              		.loc 1 1064 0
 1896 0018 FFF7FEFF 		bl	OSSchedLock
1065:..\..\..\..\..\..\Software\uCOS-II\Source/os_tmr.c ****         OSTmrTime++;                                             /* Increment the current time     
 1897              		.loc 1 1065 0
 1898 001c 264B     		ldr	r3, .L146+4
 1899 001e 1B68     		ldr	r3, [r3]
 1900 0020 5A1C     		adds	r2, r3, #1
 1901 0022 254B     		ldr	r3, .L146+4
 1902 0024 1A60     		str	r2, [r3]
1066:..\..\..\..\..\..\Software\uCOS-II\Source/os_tmr.c ****         spoke  = (INT16U)(OSTmrTime % OS_TMR_CFG_WHEEL_SIZE);    /* Position on current timer wheel
 1903              		.loc 1 1066 0
 1904 0026 244B     		ldr	r3, .L146+4
 1905 0028 1B68     		ldr	r3, [r3]
 1906 002a 0721     		movs	r1, #7
 1907 002c 1800     		movs	r0, r3
 1908 002e FFF7FEFF 		bl	__aeabi_uidivmod
 1909 0032 0B00     		movs	r3, r1
 1910 0034 1A00     		movs	r2, r3
 1911 0036 1A23     		movs	r3, #26
 1912 0038 FB18     		adds	r3, r7, r3
 1913 003a 1A80     		strh	r2, [r3]
1067:..\..\..\..\..\..\Software\uCOS-II\Source/os_tmr.c ****         pspoke = &OSTmrWheelTbl[spoke];
 1914              		.loc 1 1067 0
 1915 003c 1A23     		movs	r3, #26
 1916 003e FB18     		adds	r3, r7, r3
 1917 0040 1B88     		ldrh	r3, [r3]
 1918 0042 DA00     		lsls	r2, r3, #3
 1919 0044 1D4B     		ldr	r3, .L146+8
 1920 0046 D318     		adds	r3, r2, r3
 1921 0048 7B61     		str	r3, [r7, #20]
1068:..\..\..\..\..\..\Software\uCOS-II\Source/os_tmr.c ****         ptmr   = pspoke->OSTmrFirst;
 1922              		.loc 1 1068 0
 1923 004a 7B69     		ldr	r3, [r7, #20]
 1924 004c 1B68     		ldr	r3, [r3]
 1925 004e FB61     		str	r3, [r7, #28]
1069:..\..\..\..\..\..\Software\uCOS-II\Source/os_tmr.c ****         while (ptmr != (OS_TMR *)0) {
 1926              		.loc 1 1069 0
 1927 0050 29E0     		b	.L140
 1928              	.L144:
1070:..\..\..\..\..\..\Software\uCOS-II\Source/os_tmr.c ****             ptmr_next = (OS_TMR *)ptmr->OSTmrNext;               /* Point to next timer to update b
 1929              		.loc 1 1070 0
 1930 0052 FB69     		ldr	r3, [r7, #28]
 1931 0054 DB68     		ldr	r3, [r3, #12]
 1932 0056 3B61     		str	r3, [r7, #16]
1071:..\..\..\..\..\..\Software\uCOS-II\Source/os_tmr.c ****                                                                  /* ... timer could get unlinked fr
ARM GAS  C:\Users\ADMINI~1\AppData\Local\Temp\ccFuReWR.s 			page 54


1072:..\..\..\..\..\..\Software\uCOS-II\Source/os_tmr.c ****             if (OSTmrTime == ptmr->OSTmrMatch) {                 /* Process each timer that expires
 1933              		.loc 1 1072 0
 1934 0058 FB69     		ldr	r3, [r7, #28]
 1935 005a 5A69     		ldr	r2, [r3, #20]
 1936 005c 164B     		ldr	r3, .L146+4
 1937 005e 1B68     		ldr	r3, [r3]
 1938 0060 9A42     		cmp	r2, r3
 1939 0062 1ED1     		bne	.L141
1073:..\..\..\..\..\..\Software\uCOS-II\Source/os_tmr.c ****                 OSTmr_Unlink(ptmr);                              /* Remove from current wheel spoke
 1940              		.loc 1 1073 0
 1941 0064 FB69     		ldr	r3, [r7, #28]
 1942 0066 1800     		movs	r0, r3
 1943 0068 FFF7FEFF 		bl	OSTmr_Unlink
1074:..\..\..\..\..\..\Software\uCOS-II\Source/os_tmr.c ****                 if (ptmr->OSTmrOpt == OS_TMR_OPT_PERIODIC) {
 1944              		.loc 1 1074 0
 1945 006c FB69     		ldr	r3, [r7, #28]
 1946 006e 2422     		movs	r2, #36
 1947 0070 9B5C     		ldrb	r3, [r3, r2]
 1948 0072 022B     		cmp	r3, #2
 1949 0074 05D1     		bne	.L142
1075:..\..\..\..\..\..\Software\uCOS-II\Source/os_tmr.c ****                     OSTmr_Link(ptmr, OS_TMR_LINK_PERIODIC);      /* Recalculate new position of tim
 1950              		.loc 1 1075 0
 1951 0076 FB69     		ldr	r3, [r7, #28]
 1952 0078 0121     		movs	r1, #1
 1953 007a 1800     		movs	r0, r3
 1954 007c FFF7FEFF 		bl	OSTmr_Link
 1955 0080 03E0     		b	.L143
 1956              	.L142:
1076:..\..\..\..\..\..\Software\uCOS-II\Source/os_tmr.c ****                 } else {
1077:..\..\..\..\..\..\Software\uCOS-II\Source/os_tmr.c ****                     ptmr->OSTmrState = OS_TMR_STATE_COMPLETED;   /* Indicate that the timer has com
 1957              		.loc 1 1077 0
 1958 0082 FB69     		ldr	r3, [r7, #28]
 1959 0084 2522     		movs	r2, #37
 1960 0086 0221     		movs	r1, #2
 1961 0088 9954     		strb	r1, [r3, r2]
 1962              	.L143:
1078:..\..\..\..\..\..\Software\uCOS-II\Source/os_tmr.c ****                 }
1079:..\..\..\..\..\..\Software\uCOS-II\Source/os_tmr.c ****                 pfnct = ptmr->OSTmrCallback;                     /* Execute callback function if av
 1963              		.loc 1 1079 0
 1964 008a FB69     		ldr	r3, [r7, #28]
 1965 008c 5B68     		ldr	r3, [r3, #4]
 1966 008e FB60     		str	r3, [r7, #12]
1080:..\..\..\..\..\..\Software\uCOS-II\Source/os_tmr.c ****                 if (pfnct != (OS_TMR_CALLBACK)0) {
 1967              		.loc 1 1080 0
 1968 0090 FB68     		ldr	r3, [r7, #12]
 1969 0092 002B     		cmp	r3, #0
 1970 0094 05D0     		beq	.L141
1081:..\..\..\..\..\..\Software\uCOS-II\Source/os_tmr.c ****                     (*pfnct)((void *)ptmr, ptmr->OSTmrCallbackArg);
 1971              		.loc 1 1081 0
 1972 0096 FB69     		ldr	r3, [r7, #28]
 1973 0098 9968     		ldr	r1, [r3, #8]
 1974 009a FA69     		ldr	r2, [r7, #28]
 1975 009c FB68     		ldr	r3, [r7, #12]
 1976 009e 1000     		movs	r0, r2
 1977 00a0 9847     		blx	r3
 1978              	.L141:
1082:..\..\..\..\..\..\Software\uCOS-II\Source/os_tmr.c ****                 }
ARM GAS  C:\Users\ADMINI~1\AppData\Local\Temp\ccFuReWR.s 			page 55


1083:..\..\..\..\..\..\Software\uCOS-II\Source/os_tmr.c ****             }
1084:..\..\..\..\..\..\Software\uCOS-II\Source/os_tmr.c ****             ptmr = ptmr_next;
 1979              		.loc 1 1084 0
 1980 00a2 3B69     		ldr	r3, [r7, #16]
 1981 00a4 FB61     		str	r3, [r7, #28]
 1982              	.L140:
1069:..\..\..\..\..\..\Software\uCOS-II\Source/os_tmr.c ****             ptmr_next = (OS_TMR *)ptmr->OSTmrNext;               /* Point to next timer to update b
 1983              		.loc 1 1069 0
 1984 00a6 FB69     		ldr	r3, [r7, #28]
 1985 00a8 002B     		cmp	r3, #0
 1986 00aa D2D1     		bne	.L144
1085:..\..\..\..\..\..\Software\uCOS-II\Source/os_tmr.c ****         }
1086:..\..\..\..\..\..\Software\uCOS-II\Source/os_tmr.c ****         OSSchedUnlock();
 1987              		.loc 1 1086 0
 1988 00ac FFF7FEFF 		bl	OSSchedUnlock
1087:..\..\..\..\..\..\Software\uCOS-II\Source/os_tmr.c ****     }
 1989              		.loc 1 1087 0
 1990 00b0 AAE7     		b	.L145
 1991              	.L147:
 1992 00b2 C046     		.align	2
 1993              	.L146:
 1994 00b4 00000000 		.word	OSTmrSemSignal
 1995 00b8 00000000 		.word	OSTmrTime
 1996 00bc 00000000 		.word	OSTmrWheelTbl
 1997              		.cfi_endproc
 1998              	.LFE15:
 1999              		.size	OSTmr_Task, .-OSTmr_Task
 2000              		.text
 2001              	.Letext0:
 2002              		.file 2 "..\\..\\..\\..\\..\\..\\Software\\uCOS-II\\Ports\\ARM-Cortex-M0\\Generic\\GNU/os_cpu.h"
 2003              		.file 3 "..\\..\\..\\..\\..\\..\\Software\\uCOS-II\\Source/ucos_ii.h"