ARM GAS  C:\Users\ADMINI~1\AppData\Local\Temp\cc4JwS65.s 			page 1


   1              		.syntax unified
   2              		.cpu cortex-m0
   3              		.fpu softvfp
   4              		.eabi_attribute 20, 1
   5              		.eabi_attribute 21, 1
   6              		.eabi_attribute 23, 3
   7              		.eabi_attribute 24, 1
   8              		.eabi_attribute 25, 1
   9              		.eabi_attribute 26, 1
  10              		.eabi_attribute 30, 6
  11              		.eabi_attribute 34, 0
  12              		.eabi_attribute 18, 4
  13              		.thumb
  14              		.syntax unified
  15              		.file	"os_task.c"
  16              		.text
  17              	.Ltext0:
  18              		.cfi_sections	.debug_frame
  19              		.section	.text.OSTaskChangePrio,"ax",%progbits
  20              		.align	2
  21              		.global	OSTaskChangePrio
  22              		.code	16
  23              		.thumb_func
  24              		.type	OSTaskChangePrio, %function
  25              	OSTaskChangePrio:
  26              	.LFB1:
  27              		.file 1 "..\\..\\..\\..\\..\\..\\Software\\uCOS-II\\Source\\os_task.c"
   1:..\..\..\..\..\..\Software\uCOS-II\Source/os_task.c **** /*
   2:..\..\..\..\..\..\Software\uCOS-II\Source/os_task.c **** ***************************************************************************************************
   3:..\..\..\..\..\..\Software\uCOS-II\Source/os_task.c **** *                                                uC/OS-II
   4:..\..\..\..\..\..\Software\uCOS-II\Source/os_task.c **** *                                          The Real-Time Kernel
   5:..\..\..\..\..\..\Software\uCOS-II\Source/os_task.c **** *                                            TASK MANAGEMENT
   6:..\..\..\..\..\..\Software\uCOS-II\Source/os_task.c **** *
   7:..\..\..\..\..\..\Software\uCOS-II\Source/os_task.c **** *                              (c) Copyright 1992-2013, Micrium, Weston, FL
   8:..\..\..\..\..\..\Software\uCOS-II\Source/os_task.c **** *                                           All Rights Reserved
   9:..\..\..\..\..\..\Software\uCOS-II\Source/os_task.c **** *
  10:..\..\..\..\..\..\Software\uCOS-II\Source/os_task.c **** * File    : OS_TASK.C
  11:..\..\..\..\..\..\Software\uCOS-II\Source/os_task.c **** * By      : Jean J. Labrosse
  12:..\..\..\..\..\..\Software\uCOS-II\Source/os_task.c **** * Version : V2.92.11
  13:..\..\..\..\..\..\Software\uCOS-II\Source/os_task.c **** *
  14:..\..\..\..\..\..\Software\uCOS-II\Source/os_task.c **** * LICENSING TERMS:
  15:..\..\..\..\..\..\Software\uCOS-II\Source/os_task.c **** * ---------------
  16:..\..\..\..\..\..\Software\uCOS-II\Source/os_task.c **** *   uC/OS-II is provided in source form for FREE evaluation, for educational use or for peaceful re
  17:..\..\..\..\..\..\Software\uCOS-II\Source/os_task.c **** * If you plan on using  uC/OS-II  in a commercial product you need to contact Micrium to properly l
  18:..\..\..\..\..\..\Software\uCOS-II\Source/os_task.c **** * its use in your product. We provide ALL the source code for your convenience and to help you expe
  19:..\..\..\..\..\..\Software\uCOS-II\Source/os_task.c **** * uC/OS-II.   The fact that the  source is provided does  NOT  mean that you can use it without  pa
  20:..\..\..\..\..\..\Software\uCOS-II\Source/os_task.c **** * licensing fee.
  21:..\..\..\..\..\..\Software\uCOS-II\Source/os_task.c **** ***************************************************************************************************
  22:..\..\..\..\..\..\Software\uCOS-II\Source/os_task.c **** */
  23:..\..\..\..\..\..\Software\uCOS-II\Source/os_task.c **** 
  24:..\..\..\..\..\..\Software\uCOS-II\Source/os_task.c **** #define  MICRIUM_SOURCE
  25:..\..\..\..\..\..\Software\uCOS-II\Source/os_task.c **** 
  26:..\..\..\..\..\..\Software\uCOS-II\Source/os_task.c **** #ifndef  OS_MASTER_FILE
  27:..\..\..\..\..\..\Software\uCOS-II\Source/os_task.c **** #include <ucos_ii.h>
  28:..\..\..\..\..\..\Software\uCOS-II\Source/os_task.c **** #endif
  29:..\..\..\..\..\..\Software\uCOS-II\Source/os_task.c **** 
  30:..\..\..\..\..\..\Software\uCOS-II\Source/os_task.c **** /*$PAGE*/
ARM GAS  C:\Users\ADMINI~1\AppData\Local\Temp\cc4JwS65.s 			page 2


  31:..\..\..\..\..\..\Software\uCOS-II\Source/os_task.c **** /*
  32:..\..\..\..\..\..\Software\uCOS-II\Source/os_task.c **** ***************************************************************************************************
  33:..\..\..\..\..\..\Software\uCOS-II\Source/os_task.c **** *                                      CHANGE PRIORITY OF A TASK
  34:..\..\..\..\..\..\Software\uCOS-II\Source/os_task.c **** *
  35:..\..\..\..\..\..\Software\uCOS-II\Source/os_task.c **** * Description: This function allows you to change the priority of a task dynamically.  Note that th
  36:..\..\..\..\..\..\Software\uCOS-II\Source/os_task.c **** *              priority MUST be available.
  37:..\..\..\..\..\..\Software\uCOS-II\Source/os_task.c **** *
  38:..\..\..\..\..\..\Software\uCOS-II\Source/os_task.c **** * Arguments  : oldp     is the old priority
  39:..\..\..\..\..\..\Software\uCOS-II\Source/os_task.c **** *
  40:..\..\..\..\..\..\Software\uCOS-II\Source/os_task.c **** *              newp     is the new priority
  41:..\..\..\..\..\..\Software\uCOS-II\Source/os_task.c **** *
  42:..\..\..\..\..\..\Software\uCOS-II\Source/os_task.c **** * Returns    : OS_ERR_NONE            is the call was successful
  43:..\..\..\..\..\..\Software\uCOS-II\Source/os_task.c **** *              OS_ERR_PRIO_INVALID    if the priority you specify is higher that the maximum allowe
  44:..\..\..\..\..\..\Software\uCOS-II\Source/os_task.c **** *                                     (i.e. >= OS_LOWEST_PRIO)
  45:..\..\..\..\..\..\Software\uCOS-II\Source/os_task.c **** *              OS_ERR_PRIO_EXIST      if the new priority already exist.
  46:..\..\..\..\..\..\Software\uCOS-II\Source/os_task.c **** *              OS_ERR_PRIO            there is no task with the specified OLD priority (i.e. the OL
  47:..\..\..\..\..\..\Software\uCOS-II\Source/os_task.c **** *                                     not exist.
  48:..\..\..\..\..\..\Software\uCOS-II\Source/os_task.c **** *              OS_ERR_TASK_NOT_EXIST  if the task is assigned to a Mutex PIP.
  49:..\..\..\..\..\..\Software\uCOS-II\Source/os_task.c **** ***************************************************************************************************
  50:..\..\..\..\..\..\Software\uCOS-II\Source/os_task.c **** */
  51:..\..\..\..\..\..\Software\uCOS-II\Source/os_task.c **** 
  52:..\..\..\..\..\..\Software\uCOS-II\Source/os_task.c **** #if OS_TASK_CHANGE_PRIO_EN > 0u
  53:..\..\..\..\..\..\Software\uCOS-II\Source/os_task.c **** INT8U  OSTaskChangePrio (INT8U  oldprio,
  54:..\..\..\..\..\..\Software\uCOS-II\Source/os_task.c ****                          INT8U  newprio)
  55:..\..\..\..\..\..\Software\uCOS-II\Source/os_task.c **** {
  28              		.loc 1 55 0
  29              		.cfi_startproc
  30              		@ args = 0, pretend = 0, frame = 32
  31              		@ frame_needed = 1, uses_anonymous_args = 0
  32 0000 80B5     		push	{r7, lr}
  33              		.cfi_def_cfa_offset 8
  34              		.cfi_offset 7, -8
  35              		.cfi_offset 14, -4
  36 0002 88B0     		sub	sp, sp, #32
  37              		.cfi_def_cfa_offset 40
  38 0004 00AF     		add	r7, sp, #0
  39              		.cfi_def_cfa_register 7
  40 0006 0200     		movs	r2, r0
  41 0008 FB1D     		adds	r3, r7, #7
  42 000a 1A70     		strb	r2, [r3]
  43 000c BB1D     		adds	r3, r7, #6
  44 000e 0A1C     		adds	r2, r1, #0
  45 0010 1A70     		strb	r2, [r3]
  56:..\..\..\..\..\..\Software\uCOS-II\Source/os_task.c **** #if (OS_EVENT_EN)
  57:..\..\..\..\..\..\Software\uCOS-II\Source/os_task.c ****     OS_EVENT  *pevent;
  58:..\..\..\..\..\..\Software\uCOS-II\Source/os_task.c **** #if (OS_EVENT_MULTI_EN > 0u)
  59:..\..\..\..\..\..\Software\uCOS-II\Source/os_task.c ****     OS_EVENT **pevents;
  60:..\..\..\..\..\..\Software\uCOS-II\Source/os_task.c **** #endif
  61:..\..\..\..\..\..\Software\uCOS-II\Source/os_task.c **** #endif
  62:..\..\..\..\..\..\Software\uCOS-II\Source/os_task.c ****     OS_TCB    *ptcb;
  63:..\..\..\..\..\..\Software\uCOS-II\Source/os_task.c ****     INT8U      y_new;
  64:..\..\..\..\..\..\Software\uCOS-II\Source/os_task.c ****     INT8U      x_new;
  65:..\..\..\..\..\..\Software\uCOS-II\Source/os_task.c ****     INT8U      y_old;
  66:..\..\..\..\..\..\Software\uCOS-II\Source/os_task.c ****     OS_PRIO    bity_new;
  67:..\..\..\..\..\..\Software\uCOS-II\Source/os_task.c ****     OS_PRIO    bitx_new;
  68:..\..\..\..\..\..\Software\uCOS-II\Source/os_task.c ****     OS_PRIO    bity_old;
  69:..\..\..\..\..\..\Software\uCOS-II\Source/os_task.c ****     OS_PRIO    bitx_old;
ARM GAS  C:\Users\ADMINI~1\AppData\Local\Temp\cc4JwS65.s 			page 3


  70:..\..\..\..\..\..\Software\uCOS-II\Source/os_task.c **** #if OS_CRITICAL_METHOD == 3u
  71:..\..\..\..\..\..\Software\uCOS-II\Source/os_task.c ****     OS_CPU_SR  cpu_sr = 0u;                                 /* Storage for CPU status register     
  46              		.loc 1 71 0
  47 0012 0023     		movs	r3, #0
  48 0014 7B61     		str	r3, [r7, #20]
  72:..\..\..\..\..\..\Software\uCOS-II\Source/os_task.c **** #endif
  73:..\..\..\..\..\..\Software\uCOS-II\Source/os_task.c **** 
  74:..\..\..\..\..\..\Software\uCOS-II\Source/os_task.c **** 
  75:..\..\..\..\..\..\Software\uCOS-II\Source/os_task.c **** /*$PAGE*/
  76:..\..\..\..\..\..\Software\uCOS-II\Source/os_task.c **** #if OS_ARG_CHK_EN > 0u
  77:..\..\..\..\..\..\Software\uCOS-II\Source/os_task.c ****     if (oldprio >= OS_LOWEST_PRIO) {
  49              		.loc 1 77 0
  50 0016 FB1D     		adds	r3, r7, #7
  51 0018 1B78     		ldrb	r3, [r3]
  52 001a 3E2B     		cmp	r3, #62
  53 001c 05D9     		bls	.L2
  78:..\..\..\..\..\..\Software\uCOS-II\Source/os_task.c ****         if (oldprio != OS_PRIO_SELF) {
  54              		.loc 1 78 0
  55 001e FB1D     		adds	r3, r7, #7
  56 0020 1B78     		ldrb	r3, [r3]
  57 0022 FF2B     		cmp	r3, #255
  58 0024 01D0     		beq	.L2
  79:..\..\..\..\..\..\Software\uCOS-II\Source/os_task.c ****             return (OS_ERR_PRIO_INVALID);
  59              		.loc 1 79 0
  60 0026 2A23     		movs	r3, #42
  61 0028 80E1     		b	.L3
  62              	.L2:
  80:..\..\..\..\..\..\Software\uCOS-II\Source/os_task.c ****         }
  81:..\..\..\..\..\..\Software\uCOS-II\Source/os_task.c ****     }
  82:..\..\..\..\..\..\Software\uCOS-II\Source/os_task.c ****     if (newprio >= OS_LOWEST_PRIO) {
  63              		.loc 1 82 0
  64 002a BB1D     		adds	r3, r7, #6
  65 002c 1B78     		ldrb	r3, [r3]
  66 002e 3E2B     		cmp	r3, #62
  67 0030 01D9     		bls	.L4
  83:..\..\..\..\..\..\Software\uCOS-II\Source/os_task.c ****         return (OS_ERR_PRIO_INVALID);
  68              		.loc 1 83 0
  69 0032 2A23     		movs	r3, #42
  70 0034 7AE1     		b	.L3
  71              	.L4:
  84:..\..\..\..\..\..\Software\uCOS-II\Source/os_task.c ****     }
  85:..\..\..\..\..\..\Software\uCOS-II\Source/os_task.c **** #endif
  86:..\..\..\..\..\..\Software\uCOS-II\Source/os_task.c ****     OS_ENTER_CRITICAL();
  72              		.loc 1 86 0
  73 0036 FFF7FEFF 		bl	OS_CPU_SR_Save
  74 003a 0300     		movs	r3, r0
  75 003c 7B61     		str	r3, [r7, #20]
  87:..\..\..\..\..\..\Software\uCOS-II\Source/os_task.c ****     if (OSTCBPrioTbl[newprio] != (OS_TCB *)0) {             /* New priority must not already exist 
  76              		.loc 1 87 0
  77 003e BB1D     		adds	r3, r7, #6
  78 0040 1A78     		ldrb	r2, [r3]
  79 0042 BC4B     		ldr	r3, .L18
  80 0044 9200     		lsls	r2, r2, #2
  81 0046 D358     		ldr	r3, [r2, r3]
  82 0048 002B     		cmp	r3, #0
  83 004a 05D0     		beq	.L5
  88:..\..\..\..\..\..\Software\uCOS-II\Source/os_task.c ****         OS_EXIT_CRITICAL();
ARM GAS  C:\Users\ADMINI~1\AppData\Local\Temp\cc4JwS65.s 			page 4


  84              		.loc 1 88 0
  85 004c 7B69     		ldr	r3, [r7, #20]
  86 004e 1800     		movs	r0, r3
  87 0050 FFF7FEFF 		bl	OS_CPU_SR_Restore
  89:..\..\..\..\..\..\Software\uCOS-II\Source/os_task.c ****         return (OS_ERR_PRIO_EXIST);
  88              		.loc 1 89 0
  89 0054 2823     		movs	r3, #40
  90 0056 69E1     		b	.L3
  91              	.L5:
  90:..\..\..\..\..\..\Software\uCOS-II\Source/os_task.c ****     }
  91:..\..\..\..\..\..\Software\uCOS-II\Source/os_task.c ****     if (oldprio == OS_PRIO_SELF) {                          /* See if changing self                
  92              		.loc 1 91 0
  93 0058 FB1D     		adds	r3, r7, #7
  94 005a 1B78     		ldrb	r3, [r3]
  95 005c FF2B     		cmp	r3, #255
  96 005e 05D1     		bne	.L6
  92:..\..\..\..\..\..\Software\uCOS-II\Source/os_task.c ****         oldprio = OSTCBCur->OSTCBPrio;                      /* Yes, get priority                   
  97              		.loc 1 92 0
  98 0060 B54B     		ldr	r3, .L18+4
  99 0062 1A68     		ldr	r2, [r3]
 100 0064 FB1D     		adds	r3, r7, #7
 101 0066 3621     		movs	r1, #54
 102 0068 525C     		ldrb	r2, [r2, r1]
 103 006a 1A70     		strb	r2, [r3]
 104              	.L6:
  93:..\..\..\..\..\..\Software\uCOS-II\Source/os_task.c ****     }
  94:..\..\..\..\..\..\Software\uCOS-II\Source/os_task.c ****     ptcb = OSTCBPrioTbl[oldprio];
 105              		.loc 1 94 0
 106 006c FB1D     		adds	r3, r7, #7
 107 006e 1A78     		ldrb	r2, [r3]
 108 0070 B04B     		ldr	r3, .L18
 109 0072 9200     		lsls	r2, r2, #2
 110 0074 D358     		ldr	r3, [r2, r3]
 111 0076 3B61     		str	r3, [r7, #16]
  95:..\..\..\..\..\..\Software\uCOS-II\Source/os_task.c ****     if (ptcb == (OS_TCB *)0) {                              /* Does task to change exist?          
 112              		.loc 1 95 0
 113 0078 3B69     		ldr	r3, [r7, #16]
 114 007a 002B     		cmp	r3, #0
 115 007c 05D1     		bne	.L7
  96:..\..\..\..\..\..\Software\uCOS-II\Source/os_task.c ****         OS_EXIT_CRITICAL();                                 /* No, can't change its priority!      
 116              		.loc 1 96 0
 117 007e 7B69     		ldr	r3, [r7, #20]
 118 0080 1800     		movs	r0, r3
 119 0082 FFF7FEFF 		bl	OS_CPU_SR_Restore
  97:..\..\..\..\..\..\Software\uCOS-II\Source/os_task.c ****         return (OS_ERR_PRIO);
 120              		.loc 1 97 0
 121 0086 2923     		movs	r3, #41
 122 0088 50E1     		b	.L3
 123              	.L7:
  98:..\..\..\..\..\..\Software\uCOS-II\Source/os_task.c ****     }
  99:..\..\..\..\..\..\Software\uCOS-II\Source/os_task.c ****     if (ptcb == OS_TCB_RESERVED) {                          /* Is task assigned to Mutex           
 124              		.loc 1 99 0
 125 008a 3B69     		ldr	r3, [r7, #16]
 126 008c 012B     		cmp	r3, #1
 127 008e 05D1     		bne	.L8
 100:..\..\..\..\..\..\Software\uCOS-II\Source/os_task.c ****         OS_EXIT_CRITICAL();                                 /* No, can't change its priority!      
 128              		.loc 1 100 0
ARM GAS  C:\Users\ADMINI~1\AppData\Local\Temp\cc4JwS65.s 			page 5


 129 0090 7B69     		ldr	r3, [r7, #20]
 130 0092 1800     		movs	r0, r3
 131 0094 FFF7FEFF 		bl	OS_CPU_SR_Restore
 101:..\..\..\..\..\..\Software\uCOS-II\Source/os_task.c ****         return (OS_ERR_TASK_NOT_EXIST);
 132              		.loc 1 101 0
 133 0098 4323     		movs	r3, #67
 134 009a 47E1     		b	.L3
 135              	.L8:
 102:..\..\..\..\..\..\Software\uCOS-II\Source/os_task.c ****     }
 103:..\..\..\..\..\..\Software\uCOS-II\Source/os_task.c **** #if OS_LOWEST_PRIO <= 63u
 104:..\..\..\..\..\..\Software\uCOS-II\Source/os_task.c ****     y_new                 = (INT8U)(newprio >> 3u);         /* Yes, compute new TCB fields         
 136              		.loc 1 104 0
 137 009c 0F23     		movs	r3, #15
 138 009e FB18     		adds	r3, r7, r3
 139 00a0 BA1D     		adds	r2, r7, #6
 140 00a2 1278     		ldrb	r2, [r2]
 141 00a4 D208     		lsrs	r2, r2, #3
 142 00a6 1A70     		strb	r2, [r3]
 105:..\..\..\..\..\..\Software\uCOS-II\Source/os_task.c ****     x_new                 = (INT8U)(newprio & 0x07u);
 143              		.loc 1 105 0
 144 00a8 0E23     		movs	r3, #14
 145 00aa FB18     		adds	r3, r7, r3
 146 00ac BA1D     		adds	r2, r7, #6
 147 00ae 1278     		ldrb	r2, [r2]
 148 00b0 0721     		movs	r1, #7
 149 00b2 0A40     		ands	r2, r1
 150 00b4 1A70     		strb	r2, [r3]
 106:..\..\..\..\..\..\Software\uCOS-II\Source/os_task.c **** #else
 107:..\..\..\..\..\..\Software\uCOS-II\Source/os_task.c ****     y_new                 = (INT8U)((INT8U)(newprio >> 4u) & 0x0Fu);
 108:..\..\..\..\..\..\Software\uCOS-II\Source/os_task.c ****     x_new                 = (INT8U)(newprio & 0x0Fu);
 109:..\..\..\..\..\..\Software\uCOS-II\Source/os_task.c **** #endif
 110:..\..\..\..\..\..\Software\uCOS-II\Source/os_task.c ****     bity_new              = (OS_PRIO)(1uL << y_new);
 151              		.loc 1 110 0
 152 00b6 0F23     		movs	r3, #15
 153 00b8 FB18     		adds	r3, r7, r3
 154 00ba 1B78     		ldrb	r3, [r3]
 155 00bc 0122     		movs	r2, #1
 156 00be 9A40     		lsls	r2, r2, r3
 157 00c0 0D23     		movs	r3, #13
 158 00c2 FB18     		adds	r3, r7, r3
 159 00c4 1A70     		strb	r2, [r3]
 111:..\..\..\..\..\..\Software\uCOS-II\Source/os_task.c ****     bitx_new              = (OS_PRIO)(1uL << x_new);
 160              		.loc 1 111 0
 161 00c6 0E23     		movs	r3, #14
 162 00c8 FB18     		adds	r3, r7, r3
 163 00ca 1B78     		ldrb	r3, [r3]
 164 00cc 0122     		movs	r2, #1
 165 00ce 9A40     		lsls	r2, r2, r3
 166 00d0 0C23     		movs	r3, #12
 167 00d2 FB18     		adds	r3, r7, r3
 168 00d4 1A70     		strb	r2, [r3]
 112:..\..\..\..\..\..\Software\uCOS-II\Source/os_task.c **** 
 113:..\..\..\..\..\..\Software\uCOS-II\Source/os_task.c ****     OSTCBPrioTbl[oldprio] = (OS_TCB *)0;                    /* Remove TCB from old priority        
 169              		.loc 1 113 0
 170 00d6 FB1D     		adds	r3, r7, #7
 171 00d8 1A78     		ldrb	r2, [r3]
 172 00da 964B     		ldr	r3, .L18
ARM GAS  C:\Users\ADMINI~1\AppData\Local\Temp\cc4JwS65.s 			page 6


 173 00dc 9200     		lsls	r2, r2, #2
 174 00de 0021     		movs	r1, #0
 175 00e0 D150     		str	r1, [r2, r3]
 114:..\..\..\..\..\..\Software\uCOS-II\Source/os_task.c ****     OSTCBPrioTbl[newprio] =  ptcb;                          /* Place pointer to TCB @ new priority 
 176              		.loc 1 114 0
 177 00e2 BB1D     		adds	r3, r7, #6
 178 00e4 1A78     		ldrb	r2, [r3]
 179 00e6 934B     		ldr	r3, .L18
 180 00e8 9200     		lsls	r2, r2, #2
 181 00ea 3969     		ldr	r1, [r7, #16]
 182 00ec D150     		str	r1, [r2, r3]
 115:..\..\..\..\..\..\Software\uCOS-II\Source/os_task.c ****     y_old                 =  ptcb->OSTCBY;
 183              		.loc 1 115 0
 184 00ee 0B23     		movs	r3, #11
 185 00f0 FB18     		adds	r3, r7, r3
 186 00f2 3A69     		ldr	r2, [r7, #16]
 187 00f4 3821     		movs	r1, #56
 188 00f6 525C     		ldrb	r2, [r2, r1]
 189 00f8 1A70     		strb	r2, [r3]
 116:..\..\..\..\..\..\Software\uCOS-II\Source/os_task.c ****     bity_old              =  ptcb->OSTCBBitY;
 190              		.loc 1 116 0
 191 00fa 0A23     		movs	r3, #10
 192 00fc FB18     		adds	r3, r7, r3
 193 00fe 3A69     		ldr	r2, [r7, #16]
 194 0100 3A21     		movs	r1, #58
 195 0102 525C     		ldrb	r2, [r2, r1]
 196 0104 1A70     		strb	r2, [r3]
 117:..\..\..\..\..\..\Software\uCOS-II\Source/os_task.c ****     bitx_old              =  ptcb->OSTCBBitX;
 197              		.loc 1 117 0
 198 0106 0923     		movs	r3, #9
 199 0108 FB18     		adds	r3, r7, r3
 200 010a 3A69     		ldr	r2, [r7, #16]
 201 010c 3921     		movs	r1, #57
 202 010e 525C     		ldrb	r2, [r2, r1]
 203 0110 1A70     		strb	r2, [r3]
 118:..\..\..\..\..\..\Software\uCOS-II\Source/os_task.c ****     if ((OSRdyTbl[y_old] &   bitx_old) != 0u) {             /* If task is ready make it not        
 204              		.loc 1 118 0
 205 0112 0B23     		movs	r3, #11
 206 0114 FB18     		adds	r3, r7, r3
 207 0116 1B78     		ldrb	r3, [r3]
 208 0118 884A     		ldr	r2, .L18+8
 209 011a D35C     		ldrb	r3, [r2, r3]
 210 011c 0922     		movs	r2, #9
 211 011e BA18     		adds	r2, r7, r2
 212 0120 1278     		ldrb	r2, [r2]
 213 0122 1340     		ands	r3, r2
 214 0124 DBB2     		uxtb	r3, r3
 215 0126 002B     		cmp	r3, #0
 216 0128 3AD0     		beq	.L9
 119:..\..\..\..\..\..\Software\uCOS-II\Source/os_task.c ****          OSRdyTbl[y_old] &= (OS_PRIO)~bitx_old;
 217              		.loc 1 119 0
 218 012a 0B23     		movs	r3, #11
 219 012c FB18     		adds	r3, r7, r3
 220 012e 1B78     		ldrb	r3, [r3]
 221 0130 0B22     		movs	r2, #11
 222 0132 BA18     		adds	r2, r7, r2
 223 0134 1278     		ldrb	r2, [r2]
ARM GAS  C:\Users\ADMINI~1\AppData\Local\Temp\cc4JwS65.s 			page 7


 224 0136 8149     		ldr	r1, .L18+8
 225 0138 8A5C     		ldrb	r2, [r1, r2]
 226 013a 0921     		movs	r1, #9
 227 013c 7918     		adds	r1, r7, r1
 228 013e 0978     		ldrb	r1, [r1]
 229 0140 C943     		mvns	r1, r1
 230 0142 C9B2     		uxtb	r1, r1
 231 0144 0A40     		ands	r2, r1
 232 0146 D1B2     		uxtb	r1, r2
 233 0148 7C4A     		ldr	r2, .L18+8
 234 014a D154     		strb	r1, [r2, r3]
 120:..\..\..\..\..\..\Software\uCOS-II\Source/os_task.c ****          if (OSRdyTbl[y_old] == 0u) {
 235              		.loc 1 120 0
 236 014c 0B23     		movs	r3, #11
 237 014e FB18     		adds	r3, r7, r3
 238 0150 1B78     		ldrb	r3, [r3]
 239 0152 7A4A     		ldr	r2, .L18+8
 240 0154 D35C     		ldrb	r3, [r2, r3]
 241 0156 002B     		cmp	r3, #0
 242 0158 0AD1     		bne	.L10
 121:..\..\..\..\..\..\Software\uCOS-II\Source/os_task.c ****              OSRdyGrp &= (OS_PRIO)~bity_old;
 243              		.loc 1 121 0
 244 015a 0A23     		movs	r3, #10
 245 015c FB18     		adds	r3, r7, r3
 246 015e 1B78     		ldrb	r3, [r3]
 247 0160 DB43     		mvns	r3, r3
 248 0162 DBB2     		uxtb	r3, r3
 249 0164 764A     		ldr	r2, .L18+12
 250 0166 1278     		ldrb	r2, [r2]
 251 0168 1340     		ands	r3, r2
 252 016a DAB2     		uxtb	r2, r3
 253 016c 744B     		ldr	r3, .L18+12
 254 016e 1A70     		strb	r2, [r3]
 255              	.L10:
 122:..\..\..\..\..\..\Software\uCOS-II\Source/os_task.c ****          }
 123:..\..\..\..\..\..\Software\uCOS-II\Source/os_task.c ****          OSRdyGrp        |= bity_new;                       /* Make new priority ready to run      
 256              		.loc 1 123 0
 257 0170 734B     		ldr	r3, .L18+12
 258 0172 1A78     		ldrb	r2, [r3]
 259 0174 0D23     		movs	r3, #13
 260 0176 FB18     		adds	r3, r7, r3
 261 0178 1B78     		ldrb	r3, [r3]
 262 017a 1343     		orrs	r3, r2
 263 017c DAB2     		uxtb	r2, r3
 264 017e 704B     		ldr	r3, .L18+12
 265 0180 1A70     		strb	r2, [r3]
 124:..\..\..\..\..\..\Software\uCOS-II\Source/os_task.c ****          OSRdyTbl[y_new] |= bitx_new;
 266              		.loc 1 124 0
 267 0182 0F23     		movs	r3, #15
 268 0184 FB18     		adds	r3, r7, r3
 269 0186 1B78     		ldrb	r3, [r3]
 270 0188 0F22     		movs	r2, #15
 271 018a BA18     		adds	r2, r7, r2
 272 018c 1278     		ldrb	r2, [r2]
 273 018e 6B49     		ldr	r1, .L18+8
 274 0190 895C     		ldrb	r1, [r1, r2]
 275 0192 0C22     		movs	r2, #12
ARM GAS  C:\Users\ADMINI~1\AppData\Local\Temp\cc4JwS65.s 			page 8


 276 0194 BA18     		adds	r2, r7, r2
 277 0196 1278     		ldrb	r2, [r2]
 278 0198 0A43     		orrs	r2, r1
 279 019a D1B2     		uxtb	r1, r2
 280 019c 674A     		ldr	r2, .L18+8
 281 019e D154     		strb	r1, [r2, r3]
 282              	.L9:
 125:..\..\..\..\..\..\Software\uCOS-II\Source/os_task.c ****     }
 126:..\..\..\..\..\..\Software\uCOS-II\Source/os_task.c **** 
 127:..\..\..\..\..\..\Software\uCOS-II\Source/os_task.c **** #if (OS_EVENT_EN)
 128:..\..\..\..\..\..\Software\uCOS-II\Source/os_task.c ****     pevent = ptcb->OSTCBEventPtr;
 283              		.loc 1 128 0
 284 01a0 3B69     		ldr	r3, [r7, #16]
 285 01a2 DB69     		ldr	r3, [r3, #28]
 286 01a4 FB61     		str	r3, [r7, #28]
 129:..\..\..\..\..\..\Software\uCOS-II\Source/os_task.c ****     if (pevent != (OS_EVENT *)0) {
 287              		.loc 1 129 0
 288 01a6 FB69     		ldr	r3, [r7, #28]
 289 01a8 002B     		cmp	r3, #0
 290 01aa 41D0     		beq	.L11
 130:..\..\..\..\..\..\Software\uCOS-II\Source/os_task.c ****         pevent->OSEventTbl[y_old] &= (OS_PRIO)~bitx_old;    /* Remove old task prio from wait list 
 291              		.loc 1 130 0
 292 01ac 0B23     		movs	r3, #11
 293 01ae FB18     		adds	r3, r7, r3
 294 01b0 1B78     		ldrb	r3, [r3]
 295 01b2 0B22     		movs	r2, #11
 296 01b4 BA18     		adds	r2, r7, r2
 297 01b6 1278     		ldrb	r2, [r2]
 298 01b8 F969     		ldr	r1, [r7, #28]
 299 01ba 8A18     		adds	r2, r1, r2
 300 01bc D27A     		ldrb	r2, [r2, #11]
 301 01be 0921     		movs	r1, #9
 302 01c0 7918     		adds	r1, r7, r1
 303 01c2 0978     		ldrb	r1, [r1]
 304 01c4 C943     		mvns	r1, r1
 305 01c6 C9B2     		uxtb	r1, r1
 306 01c8 0A40     		ands	r2, r1
 307 01ca D1B2     		uxtb	r1, r2
 308 01cc FA69     		ldr	r2, [r7, #28]
 309 01ce D318     		adds	r3, r2, r3
 310 01d0 0A1C     		adds	r2, r1, #0
 311 01d2 DA72     		strb	r2, [r3, #11]
 131:..\..\..\..\..\..\Software\uCOS-II\Source/os_task.c ****         if (pevent->OSEventTbl[y_old] == 0u) {
 312              		.loc 1 131 0
 313 01d4 0B23     		movs	r3, #11
 314 01d6 FB18     		adds	r3, r7, r3
 315 01d8 1B78     		ldrb	r3, [r3]
 316 01da FA69     		ldr	r2, [r7, #28]
 317 01dc D318     		adds	r3, r2, r3
 318 01de DB7A     		ldrb	r3, [r3, #11]
 319 01e0 002B     		cmp	r3, #0
 320 01e2 0AD1     		bne	.L12
 132:..\..\..\..\..\..\Software\uCOS-II\Source/os_task.c ****             pevent->OSEventGrp    &= (OS_PRIO)~bity_old;
 321              		.loc 1 132 0
 322 01e4 FB69     		ldr	r3, [r7, #28]
 323 01e6 9B7A     		ldrb	r3, [r3, #10]
 324 01e8 0A22     		movs	r2, #10
ARM GAS  C:\Users\ADMINI~1\AppData\Local\Temp\cc4JwS65.s 			page 9


 325 01ea BA18     		adds	r2, r7, r2
 326 01ec 1278     		ldrb	r2, [r2]
 327 01ee D243     		mvns	r2, r2
 328 01f0 D2B2     		uxtb	r2, r2
 329 01f2 1340     		ands	r3, r2
 330 01f4 DAB2     		uxtb	r2, r3
 331 01f6 FB69     		ldr	r3, [r7, #28]
 332 01f8 9A72     		strb	r2, [r3, #10]
 333              	.L12:
 133:..\..\..\..\..\..\Software\uCOS-II\Source/os_task.c ****         }
 134:..\..\..\..\..\..\Software\uCOS-II\Source/os_task.c ****         pevent->OSEventGrp        |= bity_new;              /* Add    new task prio to   wait list 
 334              		.loc 1 134 0
 335 01fa FB69     		ldr	r3, [r7, #28]
 336 01fc 9A7A     		ldrb	r2, [r3, #10]
 337 01fe 0D23     		movs	r3, #13
 338 0200 FB18     		adds	r3, r7, r3
 339 0202 1B78     		ldrb	r3, [r3]
 340 0204 1343     		orrs	r3, r2
 341 0206 DAB2     		uxtb	r2, r3
 342 0208 FB69     		ldr	r3, [r7, #28]
 343 020a 9A72     		strb	r2, [r3, #10]
 135:..\..\..\..\..\..\Software\uCOS-II\Source/os_task.c ****         pevent->OSEventTbl[y_new] |= bitx_new;
 344              		.loc 1 135 0
 345 020c 0F23     		movs	r3, #15
 346 020e FB18     		adds	r3, r7, r3
 347 0210 1B78     		ldrb	r3, [r3]
 348 0212 0F22     		movs	r2, #15
 349 0214 BA18     		adds	r2, r7, r2
 350 0216 1278     		ldrb	r2, [r2]
 351 0218 F969     		ldr	r1, [r7, #28]
 352 021a 8A18     		adds	r2, r1, r2
 353 021c D17A     		ldrb	r1, [r2, #11]
 354 021e 0C22     		movs	r2, #12
 355 0220 BA18     		adds	r2, r7, r2
 356 0222 1278     		ldrb	r2, [r2]
 357 0224 0A43     		orrs	r2, r1
 358 0226 D1B2     		uxtb	r1, r2
 359 0228 FA69     		ldr	r2, [r7, #28]
 360 022a D318     		adds	r3, r2, r3
 361 022c 0A1C     		adds	r2, r1, #0
 362 022e DA72     		strb	r2, [r3, #11]
 363              	.L11:
 136:..\..\..\..\..\..\Software\uCOS-II\Source/os_task.c ****     }
 137:..\..\..\..\..\..\Software\uCOS-II\Source/os_task.c **** #if (OS_EVENT_MULTI_EN > 0u)
 138:..\..\..\..\..\..\Software\uCOS-II\Source/os_task.c ****     if (ptcb->OSTCBEventMultiPtr != (OS_EVENT **)0) {
 364              		.loc 1 138 0
 365 0230 3B69     		ldr	r3, [r7, #16]
 366 0232 1B6A     		ldr	r3, [r3, #32]
 367 0234 002B     		cmp	r3, #0
 368 0236 51D0     		beq	.L13
 139:..\..\..\..\..\..\Software\uCOS-II\Source/os_task.c ****         pevents =  ptcb->OSTCBEventMultiPtr;
 369              		.loc 1 139 0
 370 0238 3B69     		ldr	r3, [r7, #16]
 371 023a 1B6A     		ldr	r3, [r3, #32]
 372 023c BB61     		str	r3, [r7, #24]
 140:..\..\..\..\..\..\Software\uCOS-II\Source/os_task.c ****         pevent  = *pevents;
 373              		.loc 1 140 0
ARM GAS  C:\Users\ADMINI~1\AppData\Local\Temp\cc4JwS65.s 			page 10


 374 023e BB69     		ldr	r3, [r7, #24]
 375 0240 1B68     		ldr	r3, [r3]
 376 0242 FB61     		str	r3, [r7, #28]
 141:..\..\..\..\..\..\Software\uCOS-II\Source/os_task.c ****         while (pevent != (OS_EVENT *)0) {
 377              		.loc 1 141 0
 378 0244 47E0     		b	.L14
 379              	.L16:
 142:..\..\..\..\..\..\Software\uCOS-II\Source/os_task.c ****             pevent->OSEventTbl[y_old] &= (OS_PRIO)~bitx_old;   /* Remove old task prio from wait li
 380              		.loc 1 142 0
 381 0246 0B23     		movs	r3, #11
 382 0248 FB18     		adds	r3, r7, r3
 383 024a 1B78     		ldrb	r3, [r3]
 384 024c 0B22     		movs	r2, #11
 385 024e BA18     		adds	r2, r7, r2
 386 0250 1278     		ldrb	r2, [r2]
 387 0252 F969     		ldr	r1, [r7, #28]
 388 0254 8A18     		adds	r2, r1, r2
 389 0256 D27A     		ldrb	r2, [r2, #11]
 390 0258 0921     		movs	r1, #9
 391 025a 7918     		adds	r1, r7, r1
 392 025c 0978     		ldrb	r1, [r1]
 393 025e C943     		mvns	r1, r1
 394 0260 C9B2     		uxtb	r1, r1
 395 0262 0A40     		ands	r2, r1
 396 0264 D1B2     		uxtb	r1, r2
 397 0266 FA69     		ldr	r2, [r7, #28]
 398 0268 D318     		adds	r3, r2, r3
 399 026a 0A1C     		adds	r2, r1, #0
 400 026c DA72     		strb	r2, [r3, #11]
 143:..\..\..\..\..\..\Software\uCOS-II\Source/os_task.c ****             if (pevent->OSEventTbl[y_old] == 0u) {
 401              		.loc 1 143 0
 402 026e 0B23     		movs	r3, #11
 403 0270 FB18     		adds	r3, r7, r3
 404 0272 1B78     		ldrb	r3, [r3]
 405 0274 FA69     		ldr	r2, [r7, #28]
 406 0276 D318     		adds	r3, r2, r3
 407 0278 DB7A     		ldrb	r3, [r3, #11]
 408 027a 002B     		cmp	r3, #0
 409 027c 0AD1     		bne	.L15
 144:..\..\..\..\..\..\Software\uCOS-II\Source/os_task.c ****                 pevent->OSEventGrp    &= (OS_PRIO)~bity_old;
 410              		.loc 1 144 0
 411 027e FB69     		ldr	r3, [r7, #28]
 412 0280 9B7A     		ldrb	r3, [r3, #10]
 413 0282 0A22     		movs	r2, #10
 414 0284 BA18     		adds	r2, r7, r2
 415 0286 1278     		ldrb	r2, [r2]
 416 0288 D243     		mvns	r2, r2
 417 028a D2B2     		uxtb	r2, r2
 418 028c 1340     		ands	r3, r2
 419 028e DAB2     		uxtb	r2, r3
 420 0290 FB69     		ldr	r3, [r7, #28]
 421 0292 9A72     		strb	r2, [r3, #10]
 422              	.L15:
 145:..\..\..\..\..\..\Software\uCOS-II\Source/os_task.c ****             }
 146:..\..\..\..\..\..\Software\uCOS-II\Source/os_task.c ****             pevent->OSEventGrp        |= bity_new;          /* Add    new task prio to   wait lists
 423              		.loc 1 146 0
 424 0294 FB69     		ldr	r3, [r7, #28]
ARM GAS  C:\Users\ADMINI~1\AppData\Local\Temp\cc4JwS65.s 			page 11


 425 0296 9A7A     		ldrb	r2, [r3, #10]
 426 0298 0D23     		movs	r3, #13
 427 029a FB18     		adds	r3, r7, r3
 428 029c 1B78     		ldrb	r3, [r3]
 429 029e 1343     		orrs	r3, r2
 430 02a0 DAB2     		uxtb	r2, r3
 431 02a2 FB69     		ldr	r3, [r7, #28]
 432 02a4 9A72     		strb	r2, [r3, #10]
 147:..\..\..\..\..\..\Software\uCOS-II\Source/os_task.c ****             pevent->OSEventTbl[y_new] |= bitx_new;
 433              		.loc 1 147 0
 434 02a6 0F23     		movs	r3, #15
 435 02a8 FB18     		adds	r3, r7, r3
 436 02aa 1B78     		ldrb	r3, [r3]
 437 02ac 0F22     		movs	r2, #15
 438 02ae BA18     		adds	r2, r7, r2
 439 02b0 1278     		ldrb	r2, [r2]
 440 02b2 F969     		ldr	r1, [r7, #28]
 441 02b4 8A18     		adds	r2, r1, r2
 442 02b6 D17A     		ldrb	r1, [r2, #11]
 443 02b8 0C22     		movs	r2, #12
 444 02ba BA18     		adds	r2, r7, r2
 445 02bc 1278     		ldrb	r2, [r2]
 446 02be 0A43     		orrs	r2, r1
 447 02c0 D1B2     		uxtb	r1, r2
 448 02c2 FA69     		ldr	r2, [r7, #28]
 449 02c4 D318     		adds	r3, r2, r3
 450 02c6 0A1C     		adds	r2, r1, #0
 451 02c8 DA72     		strb	r2, [r3, #11]
 148:..\..\..\..\..\..\Software\uCOS-II\Source/os_task.c ****             pevents++;
 452              		.loc 1 148 0
 453 02ca BB69     		ldr	r3, [r7, #24]
 454 02cc 0433     		adds	r3, r3, #4
 455 02ce BB61     		str	r3, [r7, #24]
 149:..\..\..\..\..\..\Software\uCOS-II\Source/os_task.c ****             pevent                     = *pevents;
 456              		.loc 1 149 0
 457 02d0 BB69     		ldr	r3, [r7, #24]
 458 02d2 1B68     		ldr	r3, [r3]
 459 02d4 FB61     		str	r3, [r7, #28]
 460              	.L14:
 141:..\..\..\..\..\..\Software\uCOS-II\Source/os_task.c ****             pevent->OSEventTbl[y_old] &= (OS_PRIO)~bitx_old;   /* Remove old task prio from wait li
 461              		.loc 1 141 0
 462 02d6 FB69     		ldr	r3, [r7, #28]
 463 02d8 002B     		cmp	r3, #0
 464 02da B4D1     		bne	.L16
 465              	.L13:
 150:..\..\..\..\..\..\Software\uCOS-II\Source/os_task.c ****         }
 151:..\..\..\..\..\..\Software\uCOS-II\Source/os_task.c ****     }
 152:..\..\..\..\..\..\Software\uCOS-II\Source/os_task.c **** #endif
 153:..\..\..\..\..\..\Software\uCOS-II\Source/os_task.c **** #endif
 154:..\..\..\..\..\..\Software\uCOS-II\Source/os_task.c **** 
 155:..\..\..\..\..\..\Software\uCOS-II\Source/os_task.c ****     ptcb->OSTCBPrio = newprio;                              /* Set new task priority               
 466              		.loc 1 155 0
 467 02dc 3B69     		ldr	r3, [r7, #16]
 468 02de BA1D     		adds	r2, r7, #6
 469 02e0 3621     		movs	r1, #54
 470 02e2 1278     		ldrb	r2, [r2]
 471 02e4 5A54     		strb	r2, [r3, r1]
ARM GAS  C:\Users\ADMINI~1\AppData\Local\Temp\cc4JwS65.s 			page 12


 156:..\..\..\..\..\..\Software\uCOS-II\Source/os_task.c ****     ptcb->OSTCBY    = y_new;
 472              		.loc 1 156 0
 473 02e6 3B69     		ldr	r3, [r7, #16]
 474 02e8 0F22     		movs	r2, #15
 475 02ea BA18     		adds	r2, r7, r2
 476 02ec 3821     		movs	r1, #56
 477 02ee 1278     		ldrb	r2, [r2]
 478 02f0 5A54     		strb	r2, [r3, r1]
 157:..\..\..\..\..\..\Software\uCOS-II\Source/os_task.c ****     ptcb->OSTCBX    = x_new;
 479              		.loc 1 157 0
 480 02f2 3B69     		ldr	r3, [r7, #16]
 481 02f4 0E22     		movs	r2, #14
 482 02f6 BA18     		adds	r2, r7, r2
 483 02f8 3721     		movs	r1, #55
 484 02fa 1278     		ldrb	r2, [r2]
 485 02fc 5A54     		strb	r2, [r3, r1]
 158:..\..\..\..\..\..\Software\uCOS-II\Source/os_task.c ****     ptcb->OSTCBBitY = bity_new;
 486              		.loc 1 158 0
 487 02fe 3B69     		ldr	r3, [r7, #16]
 488 0300 0D22     		movs	r2, #13
 489 0302 BA18     		adds	r2, r7, r2
 490 0304 3A21     		movs	r1, #58
 491 0306 1278     		ldrb	r2, [r2]
 492 0308 5A54     		strb	r2, [r3, r1]
 159:..\..\..\..\..\..\Software\uCOS-II\Source/os_task.c ****     ptcb->OSTCBBitX = bitx_new;
 493              		.loc 1 159 0
 494 030a 3B69     		ldr	r3, [r7, #16]
 495 030c 0C22     		movs	r2, #12
 496 030e BA18     		adds	r2, r7, r2
 497 0310 3921     		movs	r1, #57
 498 0312 1278     		ldrb	r2, [r2]
 499 0314 5A54     		strb	r2, [r3, r1]
 160:..\..\..\..\..\..\Software\uCOS-II\Source/os_task.c ****     OS_EXIT_CRITICAL();
 500              		.loc 1 160 0
 501 0316 7B69     		ldr	r3, [r7, #20]
 502 0318 1800     		movs	r0, r3
 503 031a FFF7FEFF 		bl	OS_CPU_SR_Restore
 161:..\..\..\..\..\..\Software\uCOS-II\Source/os_task.c ****     if (OSRunning == OS_TRUE) {
 504              		.loc 1 161 0
 505 031e 094B     		ldr	r3, .L18+16
 506 0320 1B78     		ldrb	r3, [r3]
 507 0322 012B     		cmp	r3, #1
 508 0324 01D1     		bne	.L17
 162:..\..\..\..\..\..\Software\uCOS-II\Source/os_task.c ****         OS_Sched();                                         /* Find new highest priority task      
 509              		.loc 1 162 0
 510 0326 FFF7FEFF 		bl	OS_Sched
 511              	.L17:
 163:..\..\..\..\..\..\Software\uCOS-II\Source/os_task.c ****     }
 164:..\..\..\..\..\..\Software\uCOS-II\Source/os_task.c ****     return (OS_ERR_NONE);
 512              		.loc 1 164 0
 513 032a 0023     		movs	r3, #0
 514              	.L3:
 165:..\..\..\..\..\..\Software\uCOS-II\Source/os_task.c **** }
 515              		.loc 1 165 0
 516 032c 1800     		movs	r0, r3
 517 032e BD46     		mov	sp, r7
 518 0330 08B0     		add	sp, sp, #32
ARM GAS  C:\Users\ADMINI~1\AppData\Local\Temp\cc4JwS65.s 			page 13


 519              		@ sp needed
 520 0332 80BD     		pop	{r7, pc}
 521              	.L19:
 522              		.align	2
 523              	.L18:
 524 0334 00000000 		.word	OSTCBPrioTbl
 525 0338 00000000 		.word	OSTCBCur
 526 033c 00000000 		.word	OSRdyTbl
 527 0340 00000000 		.word	OSRdyGrp
 528 0344 00000000 		.word	OSRunning
 529              		.cfi_endproc
 530              	.LFE1:
 531              		.size	OSTaskChangePrio, .-OSTaskChangePrio
 532              		.section	.text.OSTaskCreate,"ax",%progbits
 533              		.align	2
 534              		.global	OSTaskCreate
 535              		.code	16
 536              		.thumb_func
 537              		.type	OSTaskCreate, %function
 538              	OSTaskCreate:
 539              	.LFB2:
 166:..\..\..\..\..\..\Software\uCOS-II\Source/os_task.c **** #endif
 167:..\..\..\..\..\..\Software\uCOS-II\Source/os_task.c **** /*$PAGE*/
 168:..\..\..\..\..\..\Software\uCOS-II\Source/os_task.c **** /*
 169:..\..\..\..\..\..\Software\uCOS-II\Source/os_task.c **** ***************************************************************************************************
 170:..\..\..\..\..\..\Software\uCOS-II\Source/os_task.c **** *                                            CREATE A TASK
 171:..\..\..\..\..\..\Software\uCOS-II\Source/os_task.c **** *
 172:..\..\..\..\..\..\Software\uCOS-II\Source/os_task.c **** * Description: This function is used to have uC/OS-II manage the execution of a task.  Tasks can ei
 173:..\..\..\..\..\..\Software\uCOS-II\Source/os_task.c **** *              be created prior to the start of multitasking or by a running task.  A task cannot b
 174:..\..\..\..\..\..\Software\uCOS-II\Source/os_task.c **** *              created by an ISR.
 175:..\..\..\..\..\..\Software\uCOS-II\Source/os_task.c **** *
 176:..\..\..\..\..\..\Software\uCOS-II\Source/os_task.c **** * Arguments  : task     is a pointer to the task's code
 177:..\..\..\..\..\..\Software\uCOS-II\Source/os_task.c **** *
 178:..\..\..\..\..\..\Software\uCOS-II\Source/os_task.c **** *              p_arg    is a pointer to an optional data area which can be used to pass parameters 
 179:..\..\..\..\..\..\Software\uCOS-II\Source/os_task.c **** *                       the task when the task first executes.  Where the task is concerned it thin
 180:..\..\..\..\..\..\Software\uCOS-II\Source/os_task.c **** *                       it was invoked and passed the argument 'p_arg' as follows:
 181:..\..\..\..\..\..\Software\uCOS-II\Source/os_task.c **** *
 182:..\..\..\..\..\..\Software\uCOS-II\Source/os_task.c **** *                           void Task (void *p_arg)
 183:..\..\..\..\..\..\Software\uCOS-II\Source/os_task.c **** *                           {
 184:..\..\..\..\..\..\Software\uCOS-II\Source/os_task.c **** *                               for (;;) {
 185:..\..\..\..\..\..\Software\uCOS-II\Source/os_task.c **** *                                   Task code;
 186:..\..\..\..\..\..\Software\uCOS-II\Source/os_task.c **** *                               }
 187:..\..\..\..\..\..\Software\uCOS-II\Source/os_task.c **** *                           }
 188:..\..\..\..\..\..\Software\uCOS-II\Source/os_task.c **** *
 189:..\..\..\..\..\..\Software\uCOS-II\Source/os_task.c **** *              ptos     is a pointer to the task's top of stack.  If the configuration constant
 190:..\..\..\..\..\..\Software\uCOS-II\Source/os_task.c **** *                       OS_STK_GROWTH is set to 1, the stack is assumed to grow downward (i.e. from
 191:..\..\..\..\..\..\Software\uCOS-II\Source/os_task.c **** *                       memory to low memory).  'pstk' will thus point to the highest (valid) memor
 192:..\..\..\..\..\..\Software\uCOS-II\Source/os_task.c **** *                       location of the stack.  If OS_STK_GROWTH is set to 0, 'pstk' will point to 
 193:..\..\..\..\..\..\Software\uCOS-II\Source/os_task.c **** *                       lowest memory location of the stack and the stack will grow with increasing
 194:..\..\..\..\..\..\Software\uCOS-II\Source/os_task.c **** *                       memory locations.
 195:..\..\..\..\..\..\Software\uCOS-II\Source/os_task.c **** *
 196:..\..\..\..\..\..\Software\uCOS-II\Source/os_task.c **** *              prio     is the task's priority.  A unique priority MUST be assigned to each task an
 197:..\..\..\..\..\..\Software\uCOS-II\Source/os_task.c **** *                       lower the number, the higher the priority.
 198:..\..\..\..\..\..\Software\uCOS-II\Source/os_task.c **** *
 199:..\..\..\..\..\..\Software\uCOS-II\Source/os_task.c **** * Returns    : OS_ERR_NONE                      if the function was successful.
 200:..\..\..\..\..\..\Software\uCOS-II\Source/os_task.c **** *              OS_ERR_PRIO_EXIST                if the task priority already exist
 201:..\..\..\..\..\..\Software\uCOS-II\Source/os_task.c **** *                                               (each task MUST have a unique priority).
ARM GAS  C:\Users\ADMINI~1\AppData\Local\Temp\cc4JwS65.s 			page 14


 202:..\..\..\..\..\..\Software\uCOS-II\Source/os_task.c **** *              OS_ERR_PRIO_INVALID              if the priority you specify is higher that the maxi
 203:..\..\..\..\..\..\Software\uCOS-II\Source/os_task.c **** *                                               allowed (i.e. >= OS_LOWEST_PRIO)
 204:..\..\..\..\..\..\Software\uCOS-II\Source/os_task.c **** *              OS_ERR_TASK_CREATE_ISR           if you tried to create a task from an ISR.
 205:..\..\..\..\..\..\Software\uCOS-II\Source/os_task.c **** *              OS_ERR_ILLEGAL_CREATE_RUN_TIME   if you tried to create a task after safety critical
 206:..\..\..\..\..\..\Software\uCOS-II\Source/os_task.c **** *                                               operation started.
 207:..\..\..\..\..\..\Software\uCOS-II\Source/os_task.c **** ***************************************************************************************************
 208:..\..\..\..\..\..\Software\uCOS-II\Source/os_task.c **** */
 209:..\..\..\..\..\..\Software\uCOS-II\Source/os_task.c **** 
 210:..\..\..\..\..\..\Software\uCOS-II\Source/os_task.c **** #if OS_TASK_CREATE_EN > 0u
 211:..\..\..\..\..\..\Software\uCOS-II\Source/os_task.c **** INT8U  OSTaskCreate (void   (*task)(void *p_arg),
 212:..\..\..\..\..\..\Software\uCOS-II\Source/os_task.c ****                      void    *p_arg,
 213:..\..\..\..\..\..\Software\uCOS-II\Source/os_task.c ****                      OS_STK  *ptos,
 214:..\..\..\..\..\..\Software\uCOS-II\Source/os_task.c ****                      INT8U    prio)
 215:..\..\..\..\..\..\Software\uCOS-II\Source/os_task.c **** {
 540              		.loc 1 215 0
 541              		.cfi_startproc
 542              		@ args = 0, pretend = 0, frame = 32
 543              		@ frame_needed = 1, uses_anonymous_args = 0
 544 0000 90B5     		push	{r4, r7, lr}
 545              		.cfi_def_cfa_offset 12
 546              		.cfi_offset 4, -12
 547              		.cfi_offset 7, -8
 548              		.cfi_offset 14, -4
 549 0002 8DB0     		sub	sp, sp, #52
 550              		.cfi_def_cfa_offset 64
 551 0004 04AF     		add	r7, sp, #16
 552              		.cfi_def_cfa 7, 48
 553 0006 F860     		str	r0, [r7, #12]
 554 0008 B960     		str	r1, [r7, #8]
 555 000a 7A60     		str	r2, [r7, #4]
 556 000c 1A00     		movs	r2, r3
 557 000e FB1C     		adds	r3, r7, #3
 558 0010 1A70     		strb	r2, [r3]
 216:..\..\..\..\..\..\Software\uCOS-II\Source/os_task.c ****     OS_STK     *psp;
 217:..\..\..\..\..\..\Software\uCOS-II\Source/os_task.c ****     INT8U       err;
 218:..\..\..\..\..\..\Software\uCOS-II\Source/os_task.c **** #if OS_CRITICAL_METHOD == 3u                 /* Allocate storage for CPU status register           
 219:..\..\..\..\..\..\Software\uCOS-II\Source/os_task.c ****     OS_CPU_SR   cpu_sr = 0u;
 559              		.loc 1 219 0
 560 0012 0023     		movs	r3, #0
 561 0014 FB61     		str	r3, [r7, #28]
 220:..\..\..\..\..\..\Software\uCOS-II\Source/os_task.c **** #endif
 221:..\..\..\..\..\..\Software\uCOS-II\Source/os_task.c **** 
 222:..\..\..\..\..\..\Software\uCOS-II\Source/os_task.c **** 
 223:..\..\..\..\..\..\Software\uCOS-II\Source/os_task.c **** 
 224:..\..\..\..\..\..\Software\uCOS-II\Source/os_task.c **** #ifdef OS_SAFETY_CRITICAL_IEC61508
 225:..\..\..\..\..\..\Software\uCOS-II\Source/os_task.c ****     if (OSSafetyCriticalStartFlag == OS_TRUE) {
 226:..\..\..\..\..\..\Software\uCOS-II\Source/os_task.c ****         OS_SAFETY_CRITICAL_EXCEPTION();
 227:..\..\..\..\..\..\Software\uCOS-II\Source/os_task.c ****         return (OS_ERR_ILLEGAL_CREATE_RUN_TIME);
 228:..\..\..\..\..\..\Software\uCOS-II\Source/os_task.c ****     }
 229:..\..\..\..\..\..\Software\uCOS-II\Source/os_task.c **** #endif
 230:..\..\..\..\..\..\Software\uCOS-II\Source/os_task.c **** 
 231:..\..\..\..\..\..\Software\uCOS-II\Source/os_task.c **** #if OS_ARG_CHK_EN > 0u
 232:..\..\..\..\..\..\Software\uCOS-II\Source/os_task.c ****     if (prio > OS_LOWEST_PRIO) {             /* Make sure priority is within allowable range       
 562              		.loc 1 232 0
 563 0016 FB1C     		adds	r3, r7, #3
 564 0018 1B78     		ldrb	r3, [r3]
 565 001a 3F2B     		cmp	r3, #63
ARM GAS  C:\Users\ADMINI~1\AppData\Local\Temp\cc4JwS65.s 			page 15


 566 001c 01D9     		bls	.L21
 233:..\..\..\..\..\..\Software\uCOS-II\Source/os_task.c ****         return (OS_ERR_PRIO_INVALID);
 567              		.loc 1 233 0
 568 001e 2A23     		movs	r3, #42
 569 0020 5AE0     		b	.L22
 570              	.L21:
 234:..\..\..\..\..\..\Software\uCOS-II\Source/os_task.c ****     }
 235:..\..\..\..\..\..\Software\uCOS-II\Source/os_task.c **** #endif
 236:..\..\..\..\..\..\Software\uCOS-II\Source/os_task.c ****     OS_ENTER_CRITICAL();
 571              		.loc 1 236 0
 572 0022 FFF7FEFF 		bl	OS_CPU_SR_Save
 573 0026 0300     		movs	r3, r0
 574 0028 FB61     		str	r3, [r7, #28]
 237:..\..\..\..\..\..\Software\uCOS-II\Source/os_task.c ****     if (OSIntNesting > 0u) {                 /* Make sure we don't create the task from within an I
 575              		.loc 1 237 0
 576 002a 2D4B     		ldr	r3, .L28
 577 002c 1B78     		ldrb	r3, [r3]
 578 002e 002B     		cmp	r3, #0
 579 0030 05D0     		beq	.L23
 238:..\..\..\..\..\..\Software\uCOS-II\Source/os_task.c ****         OS_EXIT_CRITICAL();
 580              		.loc 1 238 0
 581 0032 FB69     		ldr	r3, [r7, #28]
 582 0034 1800     		movs	r0, r3
 583 0036 FFF7FEFF 		bl	OS_CPU_SR_Restore
 239:..\..\..\..\..\..\Software\uCOS-II\Source/os_task.c ****         return (OS_ERR_TASK_CREATE_ISR);
 584              		.loc 1 239 0
 585 003a 3C23     		movs	r3, #60
 586 003c 4CE0     		b	.L22
 587              	.L23:
 240:..\..\..\..\..\..\Software\uCOS-II\Source/os_task.c ****     }
 241:..\..\..\..\..\..\Software\uCOS-II\Source/os_task.c ****     if (OSTCBPrioTbl[prio] == (OS_TCB *)0) { /* Make sure task doesn't already exist at this priori
 588              		.loc 1 241 0
 589 003e FB1C     		adds	r3, r7, #3
 590 0040 1A78     		ldrb	r2, [r3]
 591 0042 284B     		ldr	r3, .L28+4
 592 0044 9200     		lsls	r2, r2, #2
 593 0046 D358     		ldr	r3, [r2, r3]
 594 0048 002B     		cmp	r3, #0
 595 004a 40D1     		bne	.L24
 242:..\..\..\..\..\..\Software\uCOS-II\Source/os_task.c ****         OSTCBPrioTbl[prio] = OS_TCB_RESERVED;/* Reserve the priority to prevent others from doing .
 596              		.loc 1 242 0
 597 004c FB1C     		adds	r3, r7, #3
 598 004e 1A78     		ldrb	r2, [r3]
 599 0050 244B     		ldr	r3, .L28+4
 600 0052 9200     		lsls	r2, r2, #2
 601 0054 0121     		movs	r1, #1
 602 0056 D150     		str	r1, [r2, r3]
 243:..\..\..\..\..\..\Software\uCOS-II\Source/os_task.c ****                                              /* ... the same thing until task is created.          
 244:..\..\..\..\..\..\Software\uCOS-II\Source/os_task.c ****         OS_EXIT_CRITICAL();
 603              		.loc 1 244 0
 604 0058 FB69     		ldr	r3, [r7, #28]
 605 005a 1800     		movs	r0, r3
 606 005c FFF7FEFF 		bl	OS_CPU_SR_Restore
 245:..\..\..\..\..\..\Software\uCOS-II\Source/os_task.c ****         psp = OSTaskStkInit(task, p_arg, ptos, 0u);             /* Initialize the task's stack     
 607              		.loc 1 245 0
 608 0060 7A68     		ldr	r2, [r7, #4]
 609 0062 B968     		ldr	r1, [r7, #8]
ARM GAS  C:\Users\ADMINI~1\AppData\Local\Temp\cc4JwS65.s 			page 16


 610 0064 F868     		ldr	r0, [r7, #12]
 611 0066 0023     		movs	r3, #0
 612 0068 FFF7FEFF 		bl	OSTaskStkInit
 613 006c 0300     		movs	r3, r0
 614 006e BB61     		str	r3, [r7, #24]
 246:..\..\..\..\..\..\Software\uCOS-II\Source/os_task.c ****         err = OS_TCBInit(prio, psp, (OS_STK *)0, 0u, 0u, (void *)0, 0u);
 615              		.loc 1 246 0
 616 0070 1723     		movs	r3, #23
 617 0072 FC18     		adds	r4, r7, r3
 618 0074 B969     		ldr	r1, [r7, #24]
 619 0076 FB1C     		adds	r3, r7, #3
 620 0078 1878     		ldrb	r0, [r3]
 621 007a 0023     		movs	r3, #0
 622 007c 0293     		str	r3, [sp, #8]
 623 007e 0023     		movs	r3, #0
 624 0080 0193     		str	r3, [sp, #4]
 625 0082 0023     		movs	r3, #0
 626 0084 0093     		str	r3, [sp]
 627 0086 0023     		movs	r3, #0
 628 0088 0022     		movs	r2, #0
 629 008a FFF7FEFF 		bl	OS_TCBInit
 630 008e 0300     		movs	r3, r0
 631 0090 2370     		strb	r3, [r4]
 247:..\..\..\..\..\..\Software\uCOS-II\Source/os_task.c ****         if (err == OS_ERR_NONE) {
 632              		.loc 1 247 0
 633 0092 1723     		movs	r3, #23
 634 0094 FB18     		adds	r3, r7, r3
 635 0096 1B78     		ldrb	r3, [r3]
 636 0098 002B     		cmp	r3, #0
 637 009a 06D1     		bne	.L25
 248:..\..\..\..\..\..\Software\uCOS-II\Source/os_task.c ****             if (OSRunning == OS_TRUE) {      /* Find highest priority task if multitasking has star
 638              		.loc 1 248 0
 639 009c 124B     		ldr	r3, .L28+8
 640 009e 1B78     		ldrb	r3, [r3]
 641 00a0 012B     		cmp	r3, #1
 642 00a2 10D1     		bne	.L27
 249:..\..\..\..\..\..\Software\uCOS-II\Source/os_task.c ****                 OS_Sched();
 643              		.loc 1 249 0
 644 00a4 FFF7FEFF 		bl	OS_Sched
 645 00a8 0DE0     		b	.L27
 646              	.L25:
 250:..\..\..\..\..\..\Software\uCOS-II\Source/os_task.c ****             }
 251:..\..\..\..\..\..\Software\uCOS-II\Source/os_task.c ****         } else {
 252:..\..\..\..\..\..\Software\uCOS-II\Source/os_task.c ****             OS_ENTER_CRITICAL();
 647              		.loc 1 252 0
 648 00aa FFF7FEFF 		bl	OS_CPU_SR_Save
 649 00ae 0300     		movs	r3, r0
 650 00b0 FB61     		str	r3, [r7, #28]
 253:..\..\..\..\..\..\Software\uCOS-II\Source/os_task.c ****             OSTCBPrioTbl[prio] = (OS_TCB *)0;/* Make this priority available to others             
 651              		.loc 1 253 0
 652 00b2 FB1C     		adds	r3, r7, #3
 653 00b4 1A78     		ldrb	r2, [r3]
 654 00b6 0B4B     		ldr	r3, .L28+4
 655 00b8 9200     		lsls	r2, r2, #2
 656 00ba 0021     		movs	r1, #0
 657 00bc D150     		str	r1, [r2, r3]
 254:..\..\..\..\..\..\Software\uCOS-II\Source/os_task.c ****             OS_EXIT_CRITICAL();
ARM GAS  C:\Users\ADMINI~1\AppData\Local\Temp\cc4JwS65.s 			page 17


 658              		.loc 1 254 0
 659 00be FB69     		ldr	r3, [r7, #28]
 660 00c0 1800     		movs	r0, r3
 661 00c2 FFF7FEFF 		bl	OS_CPU_SR_Restore
 662              	.L27:
 255:..\..\..\..\..\..\Software\uCOS-II\Source/os_task.c ****         }
 256:..\..\..\..\..\..\Software\uCOS-II\Source/os_task.c ****         return (err);
 663              		.loc 1 256 0
 664 00c6 1723     		movs	r3, #23
 665 00c8 FB18     		adds	r3, r7, r3
 666 00ca 1B78     		ldrb	r3, [r3]
 667 00cc 04E0     		b	.L22
 668              	.L24:
 257:..\..\..\..\..\..\Software\uCOS-II\Source/os_task.c ****     }
 258:..\..\..\..\..\..\Software\uCOS-II\Source/os_task.c ****     OS_EXIT_CRITICAL();
 669              		.loc 1 258 0
 670 00ce FB69     		ldr	r3, [r7, #28]
 671 00d0 1800     		movs	r0, r3
 672 00d2 FFF7FEFF 		bl	OS_CPU_SR_Restore
 259:..\..\..\..\..\..\Software\uCOS-II\Source/os_task.c ****     return (OS_ERR_PRIO_EXIST);
 673              		.loc 1 259 0
 674 00d6 2823     		movs	r3, #40
 675              	.L22:
 260:..\..\..\..\..\..\Software\uCOS-II\Source/os_task.c **** }
 676              		.loc 1 260 0
 677 00d8 1800     		movs	r0, r3
 678 00da BD46     		mov	sp, r7
 679 00dc 09B0     		add	sp, sp, #36
 680              		@ sp needed
 681 00de 90BD     		pop	{r4, r7, pc}
 682              	.L29:
 683              		.align	2
 684              	.L28:
 685 00e0 00000000 		.word	OSIntNesting
 686 00e4 00000000 		.word	OSTCBPrioTbl
 687 00e8 00000000 		.word	OSRunning
 688              		.cfi_endproc
 689              	.LFE2:
 690              		.size	OSTaskCreate, .-OSTaskCreate
 691              		.section	.text.OSTaskCreateExt,"ax",%progbits
 692              		.align	2
 693              		.global	OSTaskCreateExt
 694              		.code	16
 695              		.thumb_func
 696              		.type	OSTaskCreateExt, %function
 697              	OSTaskCreateExt:
 698              	.LFB3:
 261:..\..\..\..\..\..\Software\uCOS-II\Source/os_task.c **** #endif
 262:..\..\..\..\..\..\Software\uCOS-II\Source/os_task.c **** /*$PAGE*/
 263:..\..\..\..\..\..\Software\uCOS-II\Source/os_task.c **** /*
 264:..\..\..\..\..\..\Software\uCOS-II\Source/os_task.c **** ***************************************************************************************************
 265:..\..\..\..\..\..\Software\uCOS-II\Source/os_task.c **** *                                  CREATE A TASK (Extended Version)
 266:..\..\..\..\..\..\Software\uCOS-II\Source/os_task.c **** *
 267:..\..\..\..\..\..\Software\uCOS-II\Source/os_task.c **** * Description: This function is used to have uC/OS-II manage the execution of a task.  Tasks can ei
 268:..\..\..\..\..\..\Software\uCOS-II\Source/os_task.c **** *              be created prior to the start of multitasking or by a running task.  A task cannot b
 269:..\..\..\..\..\..\Software\uCOS-II\Source/os_task.c **** *              created by an ISR.  This function is similar to OSTaskCreate() except that it allows
 270:..\..\..\..\..\..\Software\uCOS-II\Source/os_task.c **** *              additional information about a task to be specified.
ARM GAS  C:\Users\ADMINI~1\AppData\Local\Temp\cc4JwS65.s 			page 18


 271:..\..\..\..\..\..\Software\uCOS-II\Source/os_task.c **** *
 272:..\..\..\..\..\..\Software\uCOS-II\Source/os_task.c **** * Arguments  : task      is a pointer to the task's code
 273:..\..\..\..\..\..\Software\uCOS-II\Source/os_task.c **** *
 274:..\..\..\..\..\..\Software\uCOS-II\Source/os_task.c **** *              p_arg     is a pointer to an optional data area which can be used to pass parameters
 275:..\..\..\..\..\..\Software\uCOS-II\Source/os_task.c **** *                        the task when the task first executes.  Where the task is concerned it thi
 276:..\..\..\..\..\..\Software\uCOS-II\Source/os_task.c **** *                        it was invoked and passed the argument 'p_arg' as follows:
 277:..\..\..\..\..\..\Software\uCOS-II\Source/os_task.c **** *
 278:..\..\..\..\..\..\Software\uCOS-II\Source/os_task.c **** *                            void Task (void *p_arg)
 279:..\..\..\..\..\..\Software\uCOS-II\Source/os_task.c **** *                            {
 280:..\..\..\..\..\..\Software\uCOS-II\Source/os_task.c **** *                                for (;;) {
 281:..\..\..\..\..\..\Software\uCOS-II\Source/os_task.c **** *                                    Task code;
 282:..\..\..\..\..\..\Software\uCOS-II\Source/os_task.c **** *                                }
 283:..\..\..\..\..\..\Software\uCOS-II\Source/os_task.c **** *                            }
 284:..\..\..\..\..\..\Software\uCOS-II\Source/os_task.c **** *
 285:..\..\..\..\..\..\Software\uCOS-II\Source/os_task.c **** *              ptos      is a pointer to the task's top of stack.  If the configuration constant
 286:..\..\..\..\..\..\Software\uCOS-II\Source/os_task.c **** *                        OS_STK_GROWTH is set to 1, the stack is assumed to grow downward (i.e. fro
 287:..\..\..\..\..\..\Software\uCOS-II\Source/os_task.c **** *                        memory to low memory).  'ptos' will thus point to the highest (valid) memo
 288:..\..\..\..\..\..\Software\uCOS-II\Source/os_task.c **** *                        location of the stack.  If OS_STK_GROWTH is set to 0, 'ptos' will point to
 289:..\..\..\..\..\..\Software\uCOS-II\Source/os_task.c **** *                        lowest memory location of the stack and the stack will grow with increasin
 290:..\..\..\..\..\..\Software\uCOS-II\Source/os_task.c **** *                        memory locations.  'ptos' MUST point to a valid 'free' data item.
 291:..\..\..\..\..\..\Software\uCOS-II\Source/os_task.c **** *
 292:..\..\..\..\..\..\Software\uCOS-II\Source/os_task.c **** *              prio      is the task's priority.  A unique priority MUST be assigned to each task a
 293:..\..\..\..\..\..\Software\uCOS-II\Source/os_task.c **** *                        lower the number, the higher the priority.
 294:..\..\..\..\..\..\Software\uCOS-II\Source/os_task.c **** *
 295:..\..\..\..\..\..\Software\uCOS-II\Source/os_task.c **** *              id        is the task's ID (0..65535)
 296:..\..\..\..\..\..\Software\uCOS-II\Source/os_task.c **** *
 297:..\..\..\..\..\..\Software\uCOS-II\Source/os_task.c **** *              pbos      is a pointer to the task's bottom of stack.  If the configuration constant
 298:..\..\..\..\..\..\Software\uCOS-II\Source/os_task.c **** *                        OS_STK_GROWTH is set to 1, the stack is assumed to grow downward (i.e. fro
 299:..\..\..\..\..\..\Software\uCOS-II\Source/os_task.c **** *                        memory to low memory).  'pbos' will thus point to the LOWEST (valid) memor
 300:..\..\..\..\..\..\Software\uCOS-II\Source/os_task.c **** *                        location of the stack.  If OS_STK_GROWTH is set to 0, 'pbos' will point to
 301:..\..\..\..\..\..\Software\uCOS-II\Source/os_task.c **** *                        HIGHEST memory location of the stack and the stack will grow with increasi
 302:..\..\..\..\..\..\Software\uCOS-II\Source/os_task.c **** *                        memory locations.  'pbos' MUST point to a valid 'free' data item.
 303:..\..\..\..\..\..\Software\uCOS-II\Source/os_task.c **** *
 304:..\..\..\..\..\..\Software\uCOS-II\Source/os_task.c **** *              stk_size  is the size of the stack in number of elements.  If OS_STK is set to INT8U
 305:..\..\..\..\..\..\Software\uCOS-II\Source/os_task.c **** *                        'stk_size' corresponds to the number of bytes available.  If OS_STK is set
 306:..\..\..\..\..\..\Software\uCOS-II\Source/os_task.c **** *                        INT16U, 'stk_size' contains the number of 16-bit entries available.  Final
 307:..\..\..\..\..\..\Software\uCOS-II\Source/os_task.c **** *                        OS_STK is set to INT32U, 'stk_size' contains the number of 32-bit entries
 308:..\..\..\..\..\..\Software\uCOS-II\Source/os_task.c **** *                        available on the stack.
 309:..\..\..\..\..\..\Software\uCOS-II\Source/os_task.c **** *
 310:..\..\..\..\..\..\Software\uCOS-II\Source/os_task.c **** *              pext      is a pointer to a user supplied memory location which is used as a TCB ext
 311:..\..\..\..\..\..\Software\uCOS-II\Source/os_task.c **** *                        For example, this user memory can hold the contents of floating-point regi
 312:..\..\..\..\..\..\Software\uCOS-II\Source/os_task.c **** *                        during a context switch, the time each task takes to execute, the number o
 313:..\..\..\..\..\..\Software\uCOS-II\Source/os_task.c **** *                        the task has been switched-in, etc.
 314:..\..\..\..\..\..\Software\uCOS-II\Source/os_task.c **** *
 315:..\..\..\..\..\..\Software\uCOS-II\Source/os_task.c **** *              opt       contains additional information (or options) about the behavior of the tas
 316:..\..\..\..\..\..\Software\uCOS-II\Source/os_task.c **** *                        LOWER 8-bits are reserved by uC/OS-II while the upper 8 bits can be applic
 317:..\..\..\..\..\..\Software\uCOS-II\Source/os_task.c **** *                        specific.  See OS_TASK_OPT_??? in uCOS-II.H.  Current choices are:
 318:..\..\..\..\..\..\Software\uCOS-II\Source/os_task.c **** *
 319:..\..\..\..\..\..\Software\uCOS-II\Source/os_task.c **** *                        OS_TASK_OPT_STK_CHK      Stack checking to be allowed for the task
 320:..\..\..\..\..\..\Software\uCOS-II\Source/os_task.c **** *                        OS_TASK_OPT_STK_CLR      Clear the stack when the task is created
 321:..\..\..\..\..\..\Software\uCOS-II\Source/os_task.c **** *                        OS_TASK_OPT_SAVE_FP      If the CPU has floating-point registers, save the
 322:..\..\..\..\..\..\Software\uCOS-II\Source/os_task.c **** *                                                 during a context switch.
 323:..\..\..\..\..\..\Software\uCOS-II\Source/os_task.c **** *
 324:..\..\..\..\..\..\Software\uCOS-II\Source/os_task.c **** * Returns    : OS_ERR_NONE                      if the function was successful.
 325:..\..\..\..\..\..\Software\uCOS-II\Source/os_task.c **** *              OS_ERR_PRIO_EXIST                if the task priority already exist
 326:..\..\..\..\..\..\Software\uCOS-II\Source/os_task.c **** *                                               (each task MUST have a unique priority).
 327:..\..\..\..\..\..\Software\uCOS-II\Source/os_task.c **** *              OS_ERR_PRIO_INVALID              if the priority you specify is higher that the maxi
ARM GAS  C:\Users\ADMINI~1\AppData\Local\Temp\cc4JwS65.s 			page 19


 328:..\..\..\..\..\..\Software\uCOS-II\Source/os_task.c **** *                                               allowed (i.e. > OS_LOWEST_PRIO)
 329:..\..\..\..\..\..\Software\uCOS-II\Source/os_task.c **** *              OS_ERR_TASK_CREATE_ISR           if you tried to create a task from an ISR.
 330:..\..\..\..\..\..\Software\uCOS-II\Source/os_task.c **** *              OS_ERR_ILLEGAL_CREATE_RUN_TIME   if you tried to create a task after safety critical
 331:..\..\..\..\..\..\Software\uCOS-II\Source/os_task.c **** *                                               operation started.
 332:..\..\..\..\..\..\Software\uCOS-II\Source/os_task.c **** ***************************************************************************************************
 333:..\..\..\..\..\..\Software\uCOS-II\Source/os_task.c **** */
 334:..\..\..\..\..\..\Software\uCOS-II\Source/os_task.c **** /*$PAGE*/
 335:..\..\..\..\..\..\Software\uCOS-II\Source/os_task.c **** #if OS_TASK_CREATE_EXT_EN > 0u
 336:..\..\..\..\..\..\Software\uCOS-II\Source/os_task.c **** INT8U  OSTaskCreateExt (void   (*task)(void *p_arg),
 337:..\..\..\..\..\..\Software\uCOS-II\Source/os_task.c ****                         void    *p_arg,
 338:..\..\..\..\..\..\Software\uCOS-II\Source/os_task.c ****                         OS_STK  *ptos,
 339:..\..\..\..\..\..\Software\uCOS-II\Source/os_task.c ****                         INT8U    prio,
 340:..\..\..\..\..\..\Software\uCOS-II\Source/os_task.c ****                         INT16U   id,
 341:..\..\..\..\..\..\Software\uCOS-II\Source/os_task.c ****                         OS_STK  *pbos,
 342:..\..\..\..\..\..\Software\uCOS-II\Source/os_task.c ****                         INT32U   stk_size,
 343:..\..\..\..\..\..\Software\uCOS-II\Source/os_task.c ****                         void    *pext,
 344:..\..\..\..\..\..\Software\uCOS-II\Source/os_task.c ****                         INT16U   opt)
 345:..\..\..\..\..\..\Software\uCOS-II\Source/os_task.c **** {
 699              		.loc 1 345 0
 700              		.cfi_startproc
 701              		@ args = 20, pretend = 0, frame = 32
 702              		@ frame_needed = 1, uses_anonymous_args = 0
 703 0000 B0B5     		push	{r4, r5, r7, lr}
 704              		.cfi_def_cfa_offset 16
 705              		.cfi_offset 4, -16
 706              		.cfi_offset 5, -12
 707              		.cfi_offset 7, -8
 708              		.cfi_offset 14, -4
 709 0002 8CB0     		sub	sp, sp, #48
 710              		.cfi_def_cfa_offset 64
 711 0004 04AF     		add	r7, sp, #16
 712              		.cfi_def_cfa 7, 48
 713 0006 F860     		str	r0, [r7, #12]
 714 0008 B960     		str	r1, [r7, #8]
 715 000a 7A60     		str	r2, [r7, #4]
 716 000c 1A00     		movs	r2, r3
 717 000e FB1C     		adds	r3, r7, #3
 718 0010 1A70     		strb	r2, [r3]
 346:..\..\..\..\..\..\Software\uCOS-II\Source/os_task.c ****     OS_STK     *psp;
 347:..\..\..\..\..\..\Software\uCOS-II\Source/os_task.c ****     INT8U       err;
 348:..\..\..\..\..\..\Software\uCOS-II\Source/os_task.c **** #if OS_CRITICAL_METHOD == 3u                 /* Allocate storage for CPU status register           
 349:..\..\..\..\..\..\Software\uCOS-II\Source/os_task.c ****     OS_CPU_SR   cpu_sr = 0u;
 719              		.loc 1 349 0
 720 0012 0023     		movs	r3, #0
 721 0014 FB61     		str	r3, [r7, #28]
 350:..\..\..\..\..\..\Software\uCOS-II\Source/os_task.c **** #endif
 351:..\..\..\..\..\..\Software\uCOS-II\Source/os_task.c **** 
 352:..\..\..\..\..\..\Software\uCOS-II\Source/os_task.c **** 
 353:..\..\..\..\..\..\Software\uCOS-II\Source/os_task.c **** 
 354:..\..\..\..\..\..\Software\uCOS-II\Source/os_task.c **** #ifdef OS_SAFETY_CRITICAL_IEC61508
 355:..\..\..\..\..\..\Software\uCOS-II\Source/os_task.c ****     if (OSSafetyCriticalStartFlag == OS_TRUE) {
 356:..\..\..\..\..\..\Software\uCOS-II\Source/os_task.c ****         OS_SAFETY_CRITICAL_EXCEPTION();
 357:..\..\..\..\..\..\Software\uCOS-II\Source/os_task.c ****         return (OS_ERR_ILLEGAL_CREATE_RUN_TIME);
 358:..\..\..\..\..\..\Software\uCOS-II\Source/os_task.c ****     }
 359:..\..\..\..\..\..\Software\uCOS-II\Source/os_task.c **** #endif
 360:..\..\..\..\..\..\Software\uCOS-II\Source/os_task.c **** 
 361:..\..\..\..\..\..\Software\uCOS-II\Source/os_task.c **** #if OS_ARG_CHK_EN > 0u
ARM GAS  C:\Users\ADMINI~1\AppData\Local\Temp\cc4JwS65.s 			page 20


 362:..\..\..\..\..\..\Software\uCOS-II\Source/os_task.c ****     if (prio > OS_LOWEST_PRIO) {             /* Make sure priority is within allowable range       
 722              		.loc 1 362 0
 723 0016 FB1C     		adds	r3, r7, #3
 724 0018 1B78     		ldrb	r3, [r3]
 725 001a 3F2B     		cmp	r3, #63
 726 001c 01D9     		bls	.L31
 363:..\..\..\..\..\..\Software\uCOS-II\Source/os_task.c ****         return (OS_ERR_PRIO_INVALID);
 727              		.loc 1 363 0
 728 001e 2A23     		movs	r3, #42
 729 0020 69E0     		b	.L32
 730              	.L31:
 364:..\..\..\..\..\..\Software\uCOS-II\Source/os_task.c ****     }
 365:..\..\..\..\..\..\Software\uCOS-II\Source/os_task.c **** #endif
 366:..\..\..\..\..\..\Software\uCOS-II\Source/os_task.c ****     OS_ENTER_CRITICAL();
 731              		.loc 1 366 0
 732 0022 FFF7FEFF 		bl	OS_CPU_SR_Save
 733 0026 0300     		movs	r3, r0
 734 0028 FB61     		str	r3, [r7, #28]
 367:..\..\..\..\..\..\Software\uCOS-II\Source/os_task.c ****     if (OSIntNesting > 0u) {                 /* Make sure we don't create the task from within an I
 735              		.loc 1 367 0
 736 002a 354B     		ldr	r3, .L38
 737 002c 1B78     		ldrb	r3, [r3]
 738 002e 002B     		cmp	r3, #0
 739 0030 05D0     		beq	.L33
 368:..\..\..\..\..\..\Software\uCOS-II\Source/os_task.c ****         OS_EXIT_CRITICAL();
 740              		.loc 1 368 0
 741 0032 FB69     		ldr	r3, [r7, #28]
 742 0034 1800     		movs	r0, r3
 743 0036 FFF7FEFF 		bl	OS_CPU_SR_Restore
 369:..\..\..\..\..\..\Software\uCOS-II\Source/os_task.c ****         return (OS_ERR_TASK_CREATE_ISR);
 744              		.loc 1 369 0
 745 003a 3C23     		movs	r3, #60
 746 003c 5BE0     		b	.L32
 747              	.L33:
 370:..\..\..\..\..\..\Software\uCOS-II\Source/os_task.c ****     }
 371:..\..\..\..\..\..\Software\uCOS-II\Source/os_task.c ****     if (OSTCBPrioTbl[prio] == (OS_TCB *)0) { /* Make sure task doesn't already exist at this priori
 748              		.loc 1 371 0
 749 003e FB1C     		adds	r3, r7, #3
 750 0040 1A78     		ldrb	r2, [r3]
 751 0042 304B     		ldr	r3, .L38+4
 752 0044 9200     		lsls	r2, r2, #2
 753 0046 D358     		ldr	r3, [r2, r3]
 754 0048 002B     		cmp	r3, #0
 755 004a 4FD1     		bne	.L34
 372:..\..\..\..\..\..\Software\uCOS-II\Source/os_task.c ****         OSTCBPrioTbl[prio] = OS_TCB_RESERVED;/* Reserve the priority to prevent others from doing .
 756              		.loc 1 372 0
 757 004c FB1C     		adds	r3, r7, #3
 758 004e 1A78     		ldrb	r2, [r3]
 759 0050 2C4B     		ldr	r3, .L38+4
 760 0052 9200     		lsls	r2, r2, #2
 761 0054 0121     		movs	r1, #1
 762 0056 D150     		str	r1, [r2, r3]
 373:..\..\..\..\..\..\Software\uCOS-II\Source/os_task.c ****                                              /* ... the same thing until task is created.          
 374:..\..\..\..\..\..\Software\uCOS-II\Source/os_task.c ****         OS_EXIT_CRITICAL();
 763              		.loc 1 374 0
 764 0058 FB69     		ldr	r3, [r7, #28]
 765 005a 1800     		movs	r0, r3
ARM GAS  C:\Users\ADMINI~1\AppData\Local\Temp\cc4JwS65.s 			page 21


 766 005c FFF7FEFF 		bl	OS_CPU_SR_Restore
 375:..\..\..\..\..\..\Software\uCOS-II\Source/os_task.c **** 
 376:..\..\..\..\..\..\Software\uCOS-II\Source/os_task.c **** #if (OS_TASK_STAT_STK_CHK_EN > 0u)
 377:..\..\..\..\..\..\Software\uCOS-II\Source/os_task.c ****         OS_TaskStkClr(pbos, stk_size, opt);                    /* Clear the task stack (if needed) 
 767              		.loc 1 377 0
 768 0060 4023     		movs	r3, #64
 769 0062 FB18     		adds	r3, r7, r3
 770 0064 1A88     		ldrh	r2, [r3]
 771 0066 B96B     		ldr	r1, [r7, #56]
 772 0068 7B6B     		ldr	r3, [r7, #52]
 773 006a 1800     		movs	r0, r3
 774 006c FFF7FEFF 		bl	OS_TaskStkClr
 378:..\..\..\..\..\..\Software\uCOS-II\Source/os_task.c **** #endif
 379:..\..\..\..\..\..\Software\uCOS-II\Source/os_task.c **** 
 380:..\..\..\..\..\..\Software\uCOS-II\Source/os_task.c ****         psp = OSTaskStkInit(task, p_arg, ptos, opt);           /* Initialize the task's stack      
 775              		.loc 1 380 0
 776 0070 4023     		movs	r3, #64
 777 0072 FB18     		adds	r3, r7, r3
 778 0074 1B88     		ldrh	r3, [r3]
 779 0076 7A68     		ldr	r2, [r7, #4]
 780 0078 B968     		ldr	r1, [r7, #8]
 781 007a F868     		ldr	r0, [r7, #12]
 782 007c FFF7FEFF 		bl	OSTaskStkInit
 783 0080 0300     		movs	r3, r0
 784 0082 BB61     		str	r3, [r7, #24]
 381:..\..\..\..\..\..\Software\uCOS-II\Source/os_task.c ****         err = OS_TCBInit(prio, psp, pbos, id, stk_size, pext, opt);
 785              		.loc 1 381 0
 786 0084 1723     		movs	r3, #23
 787 0086 FC18     		adds	r4, r7, r3
 788 0088 3023     		movs	r3, #48
 789 008a FB18     		adds	r3, r7, r3
 790 008c 1D88     		ldrh	r5, [r3]
 791 008e 7A6B     		ldr	r2, [r7, #52]
 792 0090 B969     		ldr	r1, [r7, #24]
 793 0092 FB1C     		adds	r3, r7, #3
 794 0094 1878     		ldrb	r0, [r3]
 795 0096 4023     		movs	r3, #64
 796 0098 FB18     		adds	r3, r7, r3
 797 009a 1B88     		ldrh	r3, [r3]
 798 009c 0293     		str	r3, [sp, #8]
 799 009e FB6B     		ldr	r3, [r7, #60]
 800 00a0 0193     		str	r3, [sp, #4]
 801 00a2 BB6B     		ldr	r3, [r7, #56]
 802 00a4 0093     		str	r3, [sp]
 803 00a6 2B00     		movs	r3, r5
 804 00a8 FFF7FEFF 		bl	OS_TCBInit
 805 00ac 0300     		movs	r3, r0
 806 00ae 2370     		strb	r3, [r4]
 382:..\..\..\..\..\..\Software\uCOS-II\Source/os_task.c ****         if (err == OS_ERR_NONE) {
 807              		.loc 1 382 0
 808 00b0 1723     		movs	r3, #23
 809 00b2 FB18     		adds	r3, r7, r3
 810 00b4 1B78     		ldrb	r3, [r3]
 811 00b6 002B     		cmp	r3, #0
 812 00b8 06D1     		bne	.L35
 383:..\..\..\..\..\..\Software\uCOS-II\Source/os_task.c ****             if (OSRunning == OS_TRUE) {                        /* Find HPT if multitasking has star
 813              		.loc 1 383 0
ARM GAS  C:\Users\ADMINI~1\AppData\Local\Temp\cc4JwS65.s 			page 22


 814 00ba 134B     		ldr	r3, .L38+8
 815 00bc 1B78     		ldrb	r3, [r3]
 816 00be 012B     		cmp	r3, #1
 817 00c0 10D1     		bne	.L37
 384:..\..\..\..\..\..\Software\uCOS-II\Source/os_task.c ****                 OS_Sched();
 818              		.loc 1 384 0
 819 00c2 FFF7FEFF 		bl	OS_Sched
 820 00c6 0DE0     		b	.L37
 821              	.L35:
 385:..\..\..\..\..\..\Software\uCOS-II\Source/os_task.c ****             }
 386:..\..\..\..\..\..\Software\uCOS-II\Source/os_task.c ****         } else {
 387:..\..\..\..\..\..\Software\uCOS-II\Source/os_task.c ****             OS_ENTER_CRITICAL();
 822              		.loc 1 387 0
 823 00c8 FFF7FEFF 		bl	OS_CPU_SR_Save
 824 00cc 0300     		movs	r3, r0
 825 00ce FB61     		str	r3, [r7, #28]
 388:..\..\..\..\..\..\Software\uCOS-II\Source/os_task.c ****             OSTCBPrioTbl[prio] = (OS_TCB *)0;                  /* Make this priority avail. to othe
 826              		.loc 1 388 0
 827 00d0 FB1C     		adds	r3, r7, #3
 828 00d2 1A78     		ldrb	r2, [r3]
 829 00d4 0B4B     		ldr	r3, .L38+4
 830 00d6 9200     		lsls	r2, r2, #2
 831 00d8 0021     		movs	r1, #0
 832 00da D150     		str	r1, [r2, r3]
 389:..\..\..\..\..\..\Software\uCOS-II\Source/os_task.c ****             OS_EXIT_CRITICAL();
 833              		.loc 1 389 0
 834 00dc FB69     		ldr	r3, [r7, #28]
 835 00de 1800     		movs	r0, r3
 836 00e0 FFF7FEFF 		bl	OS_CPU_SR_Restore
 837              	.L37:
 390:..\..\..\..\..\..\Software\uCOS-II\Source/os_task.c ****         }
 391:..\..\..\..\..\..\Software\uCOS-II\Source/os_task.c ****         return (err);
 838              		.loc 1 391 0
 839 00e4 1723     		movs	r3, #23
 840 00e6 FB18     		adds	r3, r7, r3
 841 00e8 1B78     		ldrb	r3, [r3]
 842 00ea 04E0     		b	.L32
 843              	.L34:
 392:..\..\..\..\..\..\Software\uCOS-II\Source/os_task.c ****     }
 393:..\..\..\..\..\..\Software\uCOS-II\Source/os_task.c ****     OS_EXIT_CRITICAL();
 844              		.loc 1 393 0
 845 00ec FB69     		ldr	r3, [r7, #28]
 846 00ee 1800     		movs	r0, r3
 847 00f0 FFF7FEFF 		bl	OS_CPU_SR_Restore
 394:..\..\..\..\..\..\Software\uCOS-II\Source/os_task.c ****     return (OS_ERR_PRIO_EXIST);
 848              		.loc 1 394 0
 849 00f4 2823     		movs	r3, #40
 850              	.L32:
 395:..\..\..\..\..\..\Software\uCOS-II\Source/os_task.c **** }
 851              		.loc 1 395 0
 852 00f6 1800     		movs	r0, r3
 853 00f8 BD46     		mov	sp, r7
 854 00fa 08B0     		add	sp, sp, #32
 855              		@ sp needed
 856 00fc B0BD     		pop	{r4, r5, r7, pc}
 857              	.L39:
 858 00fe C046     		.align	2
ARM GAS  C:\Users\ADMINI~1\AppData\Local\Temp\cc4JwS65.s 			page 23


 859              	.L38:
 860 0100 00000000 		.word	OSIntNesting
 861 0104 00000000 		.word	OSTCBPrioTbl
 862 0108 00000000 		.word	OSRunning
 863              		.cfi_endproc
 864              	.LFE3:
 865              		.size	OSTaskCreateExt, .-OSTaskCreateExt
 866              		.section	.rodata
 867              		.align	2
 868              	.LC20:
 869 0000 3F00     		.ascii	"?\000"
 870              		.section	.text.OSTaskDel,"ax",%progbits
 871              		.align	2
 872              		.global	OSTaskDel
 873              		.code	16
 874              		.thumb_func
 875              		.type	OSTaskDel, %function
 876              	OSTaskDel:
 877              	.LFB4:
 396:..\..\..\..\..\..\Software\uCOS-II\Source/os_task.c **** #endif
 397:..\..\..\..\..\..\Software\uCOS-II\Source/os_task.c **** /*$PAGE*/
 398:..\..\..\..\..\..\Software\uCOS-II\Source/os_task.c **** /*
 399:..\..\..\..\..\..\Software\uCOS-II\Source/os_task.c **** ***************************************************************************************************
 400:..\..\..\..\..\..\Software\uCOS-II\Source/os_task.c **** *                                            DELETE A TASK
 401:..\..\..\..\..\..\Software\uCOS-II\Source/os_task.c **** *
 402:..\..\..\..\..\..\Software\uCOS-II\Source/os_task.c **** * Description: This function allows you to delete a task.  The calling task can delete itself by
 403:..\..\..\..\..\..\Software\uCOS-II\Source/os_task.c **** *              its own priority number.  The deleted task is returned to the dormant state and can 
 404:..\..\..\..\..\..\Software\uCOS-II\Source/os_task.c **** *              re-activated by creating the deleted task again.
 405:..\..\..\..\..\..\Software\uCOS-II\Source/os_task.c **** *
 406:..\..\..\..\..\..\Software\uCOS-II\Source/os_task.c **** * Arguments  : prio    is the priority of the task to delete.  Note that you can explicitly delete
 407:..\..\..\..\..\..\Software\uCOS-II\Source/os_task.c **** *                      the current task without knowing its priority level by setting 'prio' to
 408:..\..\..\..\..\..\Software\uCOS-II\Source/os_task.c **** *                      OS_PRIO_SELF.
 409:..\..\..\..\..\..\Software\uCOS-II\Source/os_task.c **** *
 410:..\..\..\..\..\..\Software\uCOS-II\Source/os_task.c **** * Returns    : OS_ERR_NONE             if the call is successful
 411:..\..\..\..\..\..\Software\uCOS-II\Source/os_task.c **** *              OS_ERR_TASK_DEL_IDLE    if you attempted to delete uC/OS-II's idle task
 412:..\..\..\..\..\..\Software\uCOS-II\Source/os_task.c **** *              OS_ERR_PRIO_INVALID     if the priority you specify is higher that the maximum allow
 413:..\..\..\..\..\..\Software\uCOS-II\Source/os_task.c **** *                                      (i.e. >= OS_LOWEST_PRIO) or, you have not specified OS_PRIO_
 414:..\..\..\..\..\..\Software\uCOS-II\Source/os_task.c **** *              OS_ERR_TASK_DEL         if the task is assigned to a Mutex PIP.
 415:..\..\..\..\..\..\Software\uCOS-II\Source/os_task.c **** *              OS_ERR_TASK_NOT_EXIST   if the task you want to delete does not exist.
 416:..\..\..\..\..\..\Software\uCOS-II\Source/os_task.c **** *              OS_ERR_TASK_DEL_ISR     if you tried to delete a task from an ISR
 417:..\..\..\..\..\..\Software\uCOS-II\Source/os_task.c **** *
 418:..\..\..\..\..\..\Software\uCOS-II\Source/os_task.c **** * Notes      : 1) To reduce interrupt latency, OSTaskDel() 'disables' the task:
 419:..\..\..\..\..\..\Software\uCOS-II\Source/os_task.c **** *                    a) by making it not ready
 420:..\..\..\..\..\..\Software\uCOS-II\Source/os_task.c **** *                    b) by removing it from any wait lists
 421:..\..\..\..\..\..\Software\uCOS-II\Source/os_task.c **** *                    c) by preventing OSTimeTick() from making the task ready to run.
 422:..\..\..\..\..\..\Software\uCOS-II\Source/os_task.c **** *                 The task can then be 'unlinked' from the miscellaneous structures in uC/OS-II.
 423:..\..\..\..\..\..\Software\uCOS-II\Source/os_task.c **** *              2) The function OS_Dummy() is called after OS_EXIT_CRITICAL() because, on most proce
 424:..\..\..\..\..\..\Software\uCOS-II\Source/os_task.c **** *                 the next instruction following the enable interrupt instruction is ignored.
 425:..\..\..\..\..\..\Software\uCOS-II\Source/os_task.c **** *              3) An ISR cannot delete a task.
 426:..\..\..\..\..\..\Software\uCOS-II\Source/os_task.c **** *              4) The lock nesting counter is incremented because, for a brief instant, if the curr
 427:..\..\..\..\..\..\Software\uCOS-II\Source/os_task.c **** *                 task is being deleted, the current task would not be able to be rescheduled becau
 428:..\..\..\..\..\..\Software\uCOS-II\Source/os_task.c **** *                 is removed from the ready list.  Incrementing the nesting counter prevents anothe
 429:..\..\..\..\..\..\Software\uCOS-II\Source/os_task.c **** *                 from being schedule.  This means that an ISR would return to the current task whi
 430:..\..\..\..\..\..\Software\uCOS-II\Source/os_task.c **** *                 being deleted.  The rest of the deletion would thus be able to be completed.
 431:..\..\..\..\..\..\Software\uCOS-II\Source/os_task.c **** ***************************************************************************************************
 432:..\..\..\..\..\..\Software\uCOS-II\Source/os_task.c **** */
 433:..\..\..\..\..\..\Software\uCOS-II\Source/os_task.c **** 
ARM GAS  C:\Users\ADMINI~1\AppData\Local\Temp\cc4JwS65.s 			page 24


 434:..\..\..\..\..\..\Software\uCOS-II\Source/os_task.c **** #if OS_TASK_DEL_EN > 0u
 435:..\..\..\..\..\..\Software\uCOS-II\Source/os_task.c **** INT8U  OSTaskDel (INT8U prio)
 436:..\..\..\..\..\..\Software\uCOS-II\Source/os_task.c **** {
 878              		.loc 1 436 0
 879              		.cfi_startproc
 880              		@ args = 0, pretend = 0, frame = 24
 881              		@ frame_needed = 1, uses_anonymous_args = 0
 882 0000 80B5     		push	{r7, lr}
 883              		.cfi_def_cfa_offset 8
 884              		.cfi_offset 7, -8
 885              		.cfi_offset 14, -4
 886 0002 86B0     		sub	sp, sp, #24
 887              		.cfi_def_cfa_offset 32
 888 0004 00AF     		add	r7, sp, #0
 889              		.cfi_def_cfa_register 7
 890 0006 0200     		movs	r2, r0
 891 0008 FB1D     		adds	r3, r7, #7
 892 000a 1A70     		strb	r2, [r3]
 437:..\..\..\..\..\..\Software\uCOS-II\Source/os_task.c **** #if (OS_FLAG_EN > 0u) && (OS_MAX_FLAGS > 0u)
 438:..\..\..\..\..\..\Software\uCOS-II\Source/os_task.c ****     OS_FLAG_NODE *pnode;
 439:..\..\..\..\..\..\Software\uCOS-II\Source/os_task.c **** #endif
 440:..\..\..\..\..\..\Software\uCOS-II\Source/os_task.c ****     OS_TCB       *ptcb;
 441:..\..\..\..\..\..\Software\uCOS-II\Source/os_task.c **** #if OS_CRITICAL_METHOD == 3u                            /* Allocate storage for CPU status register
 442:..\..\..\..\..\..\Software\uCOS-II\Source/os_task.c ****     OS_CPU_SR     cpu_sr = 0u;
 893              		.loc 1 442 0
 894 000c 0023     		movs	r3, #0
 895 000e 7B61     		str	r3, [r7, #20]
 443:..\..\..\..\..\..\Software\uCOS-II\Source/os_task.c **** #endif
 444:..\..\..\..\..\..\Software\uCOS-II\Source/os_task.c **** 
 445:..\..\..\..\..\..\Software\uCOS-II\Source/os_task.c **** 
 446:..\..\..\..\..\..\Software\uCOS-II\Source/os_task.c **** 
 447:..\..\..\..\..\..\Software\uCOS-II\Source/os_task.c ****     if (OSIntNesting > 0u) {                            /* See if trying to delete from ISR        
 896              		.loc 1 447 0
 897 0010 754B     		ldr	r3, .L57
 898 0012 1B78     		ldrb	r3, [r3]
 899 0014 002B     		cmp	r3, #0
 900 0016 01D0     		beq	.L41
 448:..\..\..\..\..\..\Software\uCOS-II\Source/os_task.c ****         return (OS_ERR_TASK_DEL_ISR);
 901              		.loc 1 448 0
 902 0018 4023     		movs	r3, #64
 903 001a E0E0     		b	.L42
 904              	.L41:
 449:..\..\..\..\..\..\Software\uCOS-II\Source/os_task.c ****     }
 450:..\..\..\..\..\..\Software\uCOS-II\Source/os_task.c ****     if (prio == OS_TASK_IDLE_PRIO) {                    /* Not allowed to delete idle task         
 905              		.loc 1 450 0
 906 001c FB1D     		adds	r3, r7, #7
 907 001e 1B78     		ldrb	r3, [r3]
 908 0020 3F2B     		cmp	r3, #63
 909 0022 01D1     		bne	.L43
 451:..\..\..\..\..\..\Software\uCOS-II\Source/os_task.c ****         return (OS_ERR_TASK_DEL_IDLE);
 910              		.loc 1 451 0
 911 0024 3E23     		movs	r3, #62
 912 0026 DAE0     		b	.L42
 913              	.L43:
 452:..\..\..\..\..\..\Software\uCOS-II\Source/os_task.c ****     }
 453:..\..\..\..\..\..\Software\uCOS-II\Source/os_task.c **** #if OS_ARG_CHK_EN > 0u
 454:..\..\..\..\..\..\Software\uCOS-II\Source/os_task.c ****     if (prio >= OS_LOWEST_PRIO) {                       /* Task priority valid ?                   
ARM GAS  C:\Users\ADMINI~1\AppData\Local\Temp\cc4JwS65.s 			page 25


 914              		.loc 1 454 0
 915 0028 FB1D     		adds	r3, r7, #7
 916 002a 1B78     		ldrb	r3, [r3]
 917 002c 3E2B     		cmp	r3, #62
 918 002e 05D9     		bls	.L44
 455:..\..\..\..\..\..\Software\uCOS-II\Source/os_task.c ****         if (prio != OS_PRIO_SELF) {
 919              		.loc 1 455 0
 920 0030 FB1D     		adds	r3, r7, #7
 921 0032 1B78     		ldrb	r3, [r3]
 922 0034 FF2B     		cmp	r3, #255
 923 0036 01D0     		beq	.L44
 456:..\..\..\..\..\..\Software\uCOS-II\Source/os_task.c ****             return (OS_ERR_PRIO_INVALID);
 924              		.loc 1 456 0
 925 0038 2A23     		movs	r3, #42
 926 003a D0E0     		b	.L42
 927              	.L44:
 457:..\..\..\..\..\..\Software\uCOS-II\Source/os_task.c ****         }
 458:..\..\..\..\..\..\Software\uCOS-II\Source/os_task.c ****     }
 459:..\..\..\..\..\..\Software\uCOS-II\Source/os_task.c **** #endif
 460:..\..\..\..\..\..\Software\uCOS-II\Source/os_task.c **** 
 461:..\..\..\..\..\..\Software\uCOS-II\Source/os_task.c **** /*$PAGE*/
 462:..\..\..\..\..\..\Software\uCOS-II\Source/os_task.c ****     OS_ENTER_CRITICAL();
 928              		.loc 1 462 0
 929 003c FFF7FEFF 		bl	OS_CPU_SR_Save
 930 0040 0300     		movs	r3, r0
 931 0042 7B61     		str	r3, [r7, #20]
 463:..\..\..\..\..\..\Software\uCOS-II\Source/os_task.c ****     if (prio == OS_PRIO_SELF) {                         /* See if requesting to delete self        
 932              		.loc 1 463 0
 933 0044 FB1D     		adds	r3, r7, #7
 934 0046 1B78     		ldrb	r3, [r3]
 935 0048 FF2B     		cmp	r3, #255
 936 004a 05D1     		bne	.L45
 464:..\..\..\..\..\..\Software\uCOS-II\Source/os_task.c ****         prio = OSTCBCur->OSTCBPrio;                     /* Set priority to delete to current       
 937              		.loc 1 464 0
 938 004c 674B     		ldr	r3, .L57+4
 939 004e 1A68     		ldr	r2, [r3]
 940 0050 FB1D     		adds	r3, r7, #7
 941 0052 3621     		movs	r1, #54
 942 0054 525C     		ldrb	r2, [r2, r1]
 943 0056 1A70     		strb	r2, [r3]
 944              	.L45:
 465:..\..\..\..\..\..\Software\uCOS-II\Source/os_task.c ****     }
 466:..\..\..\..\..\..\Software\uCOS-II\Source/os_task.c ****     ptcb = OSTCBPrioTbl[prio];
 945              		.loc 1 466 0
 946 0058 FB1D     		adds	r3, r7, #7
 947 005a 1A78     		ldrb	r2, [r3]
 948 005c 644B     		ldr	r3, .L57+8
 949 005e 9200     		lsls	r2, r2, #2
 950 0060 D358     		ldr	r3, [r2, r3]
 951 0062 3B61     		str	r3, [r7, #16]
 467:..\..\..\..\..\..\Software\uCOS-II\Source/os_task.c ****     if (ptcb == (OS_TCB *)0) {                          /* Task to delete must exist               
 952              		.loc 1 467 0
 953 0064 3B69     		ldr	r3, [r7, #16]
 954 0066 002B     		cmp	r3, #0
 955 0068 05D1     		bne	.L46
 468:..\..\..\..\..\..\Software\uCOS-II\Source/os_task.c ****         OS_EXIT_CRITICAL();
 956              		.loc 1 468 0
ARM GAS  C:\Users\ADMINI~1\AppData\Local\Temp\cc4JwS65.s 			page 26


 957 006a 7B69     		ldr	r3, [r7, #20]
 958 006c 1800     		movs	r0, r3
 959 006e FFF7FEFF 		bl	OS_CPU_SR_Restore
 469:..\..\..\..\..\..\Software\uCOS-II\Source/os_task.c ****         return (OS_ERR_TASK_NOT_EXIST);
 960              		.loc 1 469 0
 961 0072 4323     		movs	r3, #67
 962 0074 B3E0     		b	.L42
 963              	.L46:
 470:..\..\..\..\..\..\Software\uCOS-II\Source/os_task.c ****     }
 471:..\..\..\..\..\..\Software\uCOS-II\Source/os_task.c ****     if (ptcb == OS_TCB_RESERVED) {                      /* Must not be assigned to Mutex           
 964              		.loc 1 471 0
 965 0076 3B69     		ldr	r3, [r7, #16]
 966 0078 012B     		cmp	r3, #1
 967 007a 05D1     		bne	.L47
 472:..\..\..\..\..\..\Software\uCOS-II\Source/os_task.c ****         OS_EXIT_CRITICAL();
 968              		.loc 1 472 0
 969 007c 7B69     		ldr	r3, [r7, #20]
 970 007e 1800     		movs	r0, r3
 971 0080 FFF7FEFF 		bl	OS_CPU_SR_Restore
 473:..\..\..\..\..\..\Software\uCOS-II\Source/os_task.c ****         return (OS_ERR_TASK_DEL);
 972              		.loc 1 473 0
 973 0084 3D23     		movs	r3, #61
 974 0086 AAE0     		b	.L42
 975              	.L47:
 474:..\..\..\..\..\..\Software\uCOS-II\Source/os_task.c ****     }
 475:..\..\..\..\..\..\Software\uCOS-II\Source/os_task.c **** 
 476:..\..\..\..\..\..\Software\uCOS-II\Source/os_task.c ****     OSRdyTbl[ptcb->OSTCBY] &= (OS_PRIO)~ptcb->OSTCBBitX;
 976              		.loc 1 476 0
 977 0088 3B69     		ldr	r3, [r7, #16]
 978 008a 3822     		movs	r2, #56
 979 008c 9B5C     		ldrb	r3, [r3, r2]
 980 008e 1800     		movs	r0, r3
 981 0090 3B69     		ldr	r3, [r7, #16]
 982 0092 3822     		movs	r2, #56
 983 0094 9B5C     		ldrb	r3, [r3, r2]
 984 0096 1A00     		movs	r2, r3
 985 0098 564B     		ldr	r3, .L57+12
 986 009a 9B5C     		ldrb	r3, [r3, r2]
 987 009c 3A69     		ldr	r2, [r7, #16]
 988 009e 3921     		movs	r1, #57
 989 00a0 525C     		ldrb	r2, [r2, r1]
 990 00a2 D243     		mvns	r2, r2
 991 00a4 D2B2     		uxtb	r2, r2
 992 00a6 1340     		ands	r3, r2
 993 00a8 DAB2     		uxtb	r2, r3
 994 00aa 524B     		ldr	r3, .L57+12
 995 00ac 1A54     		strb	r2, [r3, r0]
 477:..\..\..\..\..\..\Software\uCOS-II\Source/os_task.c ****     if (OSRdyTbl[ptcb->OSTCBY] == 0u) {                 /* Make task not ready                     
 996              		.loc 1 477 0
 997 00ae 3B69     		ldr	r3, [r7, #16]
 998 00b0 3822     		movs	r2, #56
 999 00b2 9B5C     		ldrb	r3, [r3, r2]
 1000 00b4 1A00     		movs	r2, r3
 1001 00b6 4F4B     		ldr	r3, .L57+12
 1002 00b8 9B5C     		ldrb	r3, [r3, r2]
 1003 00ba 002B     		cmp	r3, #0
 1004 00bc 0AD1     		bne	.L48
ARM GAS  C:\Users\ADMINI~1\AppData\Local\Temp\cc4JwS65.s 			page 27


 478:..\..\..\..\..\..\Software\uCOS-II\Source/os_task.c ****         OSRdyGrp           &= (OS_PRIO)~ptcb->OSTCBBitY;
 1005              		.loc 1 478 0
 1006 00be 3B69     		ldr	r3, [r7, #16]
 1007 00c0 3A22     		movs	r2, #58
 1008 00c2 9B5C     		ldrb	r3, [r3, r2]
 1009 00c4 DB43     		mvns	r3, r3
 1010 00c6 DBB2     		uxtb	r3, r3
 1011 00c8 4B4A     		ldr	r2, .L57+16
 1012 00ca 1278     		ldrb	r2, [r2]
 1013 00cc 1340     		ands	r3, r2
 1014 00ce DAB2     		uxtb	r2, r3
 1015 00d0 494B     		ldr	r3, .L57+16
 1016 00d2 1A70     		strb	r2, [r3]
 1017              	.L48:
 479:..\..\..\..\..\..\Software\uCOS-II\Source/os_task.c ****     }
 480:..\..\..\..\..\..\Software\uCOS-II\Source/os_task.c **** 
 481:..\..\..\..\..\..\Software\uCOS-II\Source/os_task.c **** #if (OS_EVENT_EN)
 482:..\..\..\..\..\..\Software\uCOS-II\Source/os_task.c ****     if (ptcb->OSTCBEventPtr != (OS_EVENT *)0) {
 1018              		.loc 1 482 0
 1019 00d4 3B69     		ldr	r3, [r7, #16]
 1020 00d6 DB69     		ldr	r3, [r3, #28]
 1021 00d8 002B     		cmp	r3, #0
 1022 00da 06D0     		beq	.L49
 483:..\..\..\..\..\..\Software\uCOS-II\Source/os_task.c ****         OS_EventTaskRemove(ptcb, ptcb->OSTCBEventPtr);  /* Remove this task from any event   wait l
 1023              		.loc 1 483 0
 1024 00dc 3B69     		ldr	r3, [r7, #16]
 1025 00de DA69     		ldr	r2, [r3, #28]
 1026 00e0 3B69     		ldr	r3, [r7, #16]
 1027 00e2 1100     		movs	r1, r2
 1028 00e4 1800     		movs	r0, r3
 1029 00e6 FFF7FEFF 		bl	OS_EventTaskRemove
 1030              	.L49:
 484:..\..\..\..\..\..\Software\uCOS-II\Source/os_task.c ****     }
 485:..\..\..\..\..\..\Software\uCOS-II\Source/os_task.c **** #if (OS_EVENT_MULTI_EN > 0u)
 486:..\..\..\..\..\..\Software\uCOS-II\Source/os_task.c ****     if (ptcb->OSTCBEventMultiPtr != (OS_EVENT **)0) {   /* Remove this task from any events' wait l
 1031              		.loc 1 486 0
 1032 00ea 3B69     		ldr	r3, [r7, #16]
 1033 00ec 1B6A     		ldr	r3, [r3, #32]
 1034 00ee 002B     		cmp	r3, #0
 1035 00f0 06D0     		beq	.L50
 487:..\..\..\..\..\..\Software\uCOS-II\Source/os_task.c ****         OS_EventTaskRemoveMulti(ptcb, ptcb->OSTCBEventMultiPtr);
 1036              		.loc 1 487 0
 1037 00f2 3B69     		ldr	r3, [r7, #16]
 1038 00f4 1A6A     		ldr	r2, [r3, #32]
 1039 00f6 3B69     		ldr	r3, [r7, #16]
 1040 00f8 1100     		movs	r1, r2
 1041 00fa 1800     		movs	r0, r3
 1042 00fc FFF7FEFF 		bl	OS_EventTaskRemoveMulti
 1043              	.L50:
 488:..\..\..\..\..\..\Software\uCOS-II\Source/os_task.c ****     }
 489:..\..\..\..\..\..\Software\uCOS-II\Source/os_task.c **** #endif
 490:..\..\..\..\..\..\Software\uCOS-II\Source/os_task.c **** #endif
 491:..\..\..\..\..\..\Software\uCOS-II\Source/os_task.c **** 
 492:..\..\..\..\..\..\Software\uCOS-II\Source/os_task.c **** #if (OS_FLAG_EN > 0u) && (OS_MAX_FLAGS > 0u)
 493:..\..\..\..\..\..\Software\uCOS-II\Source/os_task.c ****     pnode = ptcb->OSTCBFlagNode;
 1044              		.loc 1 493 0
 1045 0100 3B69     		ldr	r3, [r7, #16]
ARM GAS  C:\Users\ADMINI~1\AppData\Local\Temp\cc4JwS65.s 			page 28


 1046 0102 9B6A     		ldr	r3, [r3, #40]
 1047 0104 FB60     		str	r3, [r7, #12]
 494:..\..\..\..\..\..\Software\uCOS-II\Source/os_task.c ****     if (pnode != (OS_FLAG_NODE *)0) {                   /* If task is waiting on event flag        
 1048              		.loc 1 494 0
 1049 0106 FB68     		ldr	r3, [r7, #12]
 1050 0108 002B     		cmp	r3, #0
 1051 010a 03D0     		beq	.L51
 495:..\..\..\..\..\..\Software\uCOS-II\Source/os_task.c ****         OS_FlagUnlink(pnode);                           /* Remove from wait list                   
 1052              		.loc 1 495 0
 1053 010c FB68     		ldr	r3, [r7, #12]
 1054 010e 1800     		movs	r0, r3
 1055 0110 FFF7FEFF 		bl	OS_FlagUnlink
 1056              	.L51:
 496:..\..\..\..\..\..\Software\uCOS-II\Source/os_task.c ****     }
 497:..\..\..\..\..\..\Software\uCOS-II\Source/os_task.c **** #endif
 498:..\..\..\..\..\..\Software\uCOS-II\Source/os_task.c **** 
 499:..\..\..\..\..\..\Software\uCOS-II\Source/os_task.c ****     ptcb->OSTCBDly      = 0u;                           /* Prevent OSTimeTick() from updating      
 1057              		.loc 1 499 0
 1058 0114 3B69     		ldr	r3, [r7, #16]
 1059 0116 0022     		movs	r2, #0
 1060 0118 1A63     		str	r2, [r3, #48]
 500:..\..\..\..\..\..\Software\uCOS-II\Source/os_task.c ****     ptcb->OSTCBStat     = OS_STAT_RDY;                  /* Prevent task from being resumed         
 1061              		.loc 1 500 0
 1062 011a 3B69     		ldr	r3, [r7, #16]
 1063 011c 3422     		movs	r2, #52
 1064 011e 0021     		movs	r1, #0
 1065 0120 9954     		strb	r1, [r3, r2]
 501:..\..\..\..\..\..\Software\uCOS-II\Source/os_task.c ****     ptcb->OSTCBStatPend = OS_STAT_PEND_OK;
 1066              		.loc 1 501 0
 1067 0122 3B69     		ldr	r3, [r7, #16]
 1068 0124 3522     		movs	r2, #53
 1069 0126 0021     		movs	r1, #0
 1070 0128 9954     		strb	r1, [r3, r2]
 502:..\..\..\..\..\..\Software\uCOS-II\Source/os_task.c ****     if (OSLockNesting < 255u) {                         /* Make sure we don't context switch       
 1071              		.loc 1 502 0
 1072 012a 344B     		ldr	r3, .L57+20
 1073 012c 1B78     		ldrb	r3, [r3]
 1074 012e FF2B     		cmp	r3, #255
 1075 0130 05D0     		beq	.L52
 503:..\..\..\..\..\..\Software\uCOS-II\Source/os_task.c ****         OSLockNesting++;
 1076              		.loc 1 503 0
 1077 0132 324B     		ldr	r3, .L57+20
 1078 0134 1B78     		ldrb	r3, [r3]
 1079 0136 0133     		adds	r3, r3, #1
 1080 0138 DAB2     		uxtb	r2, r3
 1081 013a 304B     		ldr	r3, .L57+20
 1082 013c 1A70     		strb	r2, [r3]
 1083              	.L52:
 504:..\..\..\..\..\..\Software\uCOS-II\Source/os_task.c ****     }
 505:..\..\..\..\..\..\Software\uCOS-II\Source/os_task.c ****     OS_EXIT_CRITICAL();                                 /* Enabling INT. ignores next instruc.     
 1084              		.loc 1 505 0
 1085 013e 7B69     		ldr	r3, [r7, #20]
 1086 0140 1800     		movs	r0, r3
 1087 0142 FFF7FEFF 		bl	OS_CPU_SR_Restore
 506:..\..\..\..\..\..\Software\uCOS-II\Source/os_task.c ****     OS_Dummy();                                         /* ... Dummy ensures that INTs will be     
 1088              		.loc 1 506 0
 1089 0146 FFF7FEFF 		bl	OS_Dummy
ARM GAS  C:\Users\ADMINI~1\AppData\Local\Temp\cc4JwS65.s 			page 29


 507:..\..\..\..\..\..\Software\uCOS-II\Source/os_task.c ****     OS_ENTER_CRITICAL();                                /* ... disabled HERE!                      
 1090              		.loc 1 507 0
 1091 014a FFF7FEFF 		bl	OS_CPU_SR_Save
 1092 014e 0300     		movs	r3, r0
 1093 0150 7B61     		str	r3, [r7, #20]
 508:..\..\..\..\..\..\Software\uCOS-II\Source/os_task.c ****     if (OSLockNesting > 0u) {                           /* Remove context switch lock              
 1094              		.loc 1 508 0
 1095 0152 2A4B     		ldr	r3, .L57+20
 1096 0154 1B78     		ldrb	r3, [r3]
 1097 0156 002B     		cmp	r3, #0
 1098 0158 05D0     		beq	.L53
 509:..\..\..\..\..\..\Software\uCOS-II\Source/os_task.c ****         OSLockNesting--;
 1099              		.loc 1 509 0
 1100 015a 284B     		ldr	r3, .L57+20
 1101 015c 1B78     		ldrb	r3, [r3]
 1102 015e 013B     		subs	r3, r3, #1
 1103 0160 DAB2     		uxtb	r2, r3
 1104 0162 264B     		ldr	r3, .L57+20
 1105 0164 1A70     		strb	r2, [r3]
 1106              	.L53:
 510:..\..\..\..\..\..\Software\uCOS-II\Source/os_task.c ****     }
 511:..\..\..\..\..\..\Software\uCOS-II\Source/os_task.c ****     OSTaskDelHook(ptcb);                                /* Call user defined hook                  
 1107              		.loc 1 511 0
 1108 0166 3B69     		ldr	r3, [r7, #16]
 1109 0168 1800     		movs	r0, r3
 1110 016a FFF7FEFF 		bl	OSTaskDelHook
 512:..\..\..\..\..\..\Software\uCOS-II\Source/os_task.c **** 
 513:..\..\..\..\..\..\Software\uCOS-II\Source/os_task.c **** #if OS_TASK_CREATE_EXT_EN > 0u
 514:..\..\..\..\..\..\Software\uCOS-II\Source/os_task.c **** #if defined(OS_TLS_TBL_SIZE) && (OS_TLS_TBL_SIZE > 0u)
 515:..\..\..\..\..\..\Software\uCOS-II\Source/os_task.c ****     OS_TLS_TaskDel(ptcb);                               /* Call TLS hook                           
 516:..\..\..\..\..\..\Software\uCOS-II\Source/os_task.c **** #endif
 517:..\..\..\..\..\..\Software\uCOS-II\Source/os_task.c **** #endif
 518:..\..\..\..\..\..\Software\uCOS-II\Source/os_task.c **** 
 519:..\..\..\..\..\..\Software\uCOS-II\Source/os_task.c ****     OSTaskCtr--;                                        /* One less task being managed             
 1111              		.loc 1 519 0
 1112 016e 244B     		ldr	r3, .L57+24
 1113 0170 1B78     		ldrb	r3, [r3]
 1114 0172 013B     		subs	r3, r3, #1
 1115 0174 DAB2     		uxtb	r2, r3
 1116 0176 224B     		ldr	r3, .L57+24
 1117 0178 1A70     		strb	r2, [r3]
 520:..\..\..\..\..\..\Software\uCOS-II\Source/os_task.c ****     OSTCBPrioTbl[prio] = (OS_TCB *)0;                   /* Clear old priority entry                
 1118              		.loc 1 520 0
 1119 017a FB1D     		adds	r3, r7, #7
 1120 017c 1A78     		ldrb	r2, [r3]
 1121 017e 1C4B     		ldr	r3, .L57+8
 1122 0180 9200     		lsls	r2, r2, #2
 1123 0182 0021     		movs	r1, #0
 1124 0184 D150     		str	r1, [r2, r3]
 521:..\..\..\..\..\..\Software\uCOS-II\Source/os_task.c ****     if (ptcb->OSTCBPrev == (OS_TCB *)0) {               /* Remove from TCB chain                   
 1125              		.loc 1 521 0
 1126 0186 3B69     		ldr	r3, [r7, #16]
 1127 0188 9B69     		ldr	r3, [r3, #24]
 1128 018a 002B     		cmp	r3, #0
 1129 018c 08D1     		bne	.L54
 522:..\..\..\..\..\..\Software\uCOS-II\Source/os_task.c ****         ptcb->OSTCBNext->OSTCBPrev = (OS_TCB *)0;
 1130              		.loc 1 522 0
ARM GAS  C:\Users\ADMINI~1\AppData\Local\Temp\cc4JwS65.s 			page 30


 1131 018e 3B69     		ldr	r3, [r7, #16]
 1132 0190 5B69     		ldr	r3, [r3, #20]
 1133 0192 0022     		movs	r2, #0
 1134 0194 9A61     		str	r2, [r3, #24]
 523:..\..\..\..\..\..\Software\uCOS-II\Source/os_task.c ****         OSTCBList                  = ptcb->OSTCBNext;
 1135              		.loc 1 523 0
 1136 0196 3B69     		ldr	r3, [r7, #16]
 1137 0198 5A69     		ldr	r2, [r3, #20]
 1138 019a 1A4B     		ldr	r3, .L57+28
 1139 019c 1A60     		str	r2, [r3]
 1140 019e 09E0     		b	.L55
 1141              	.L54:
 524:..\..\..\..\..\..\Software\uCOS-II\Source/os_task.c ****     } else {
 525:..\..\..\..\..\..\Software\uCOS-II\Source/os_task.c ****         ptcb->OSTCBPrev->OSTCBNext = ptcb->OSTCBNext;
 1142              		.loc 1 525 0
 1143 01a0 3B69     		ldr	r3, [r7, #16]
 1144 01a2 9B69     		ldr	r3, [r3, #24]
 1145 01a4 3A69     		ldr	r2, [r7, #16]
 1146 01a6 5269     		ldr	r2, [r2, #20]
 1147 01a8 5A61     		str	r2, [r3, #20]
 526:..\..\..\..\..\..\Software\uCOS-II\Source/os_task.c ****         ptcb->OSTCBNext->OSTCBPrev = ptcb->OSTCBPrev;
 1148              		.loc 1 526 0
 1149 01aa 3B69     		ldr	r3, [r7, #16]
 1150 01ac 5B69     		ldr	r3, [r3, #20]
 1151 01ae 3A69     		ldr	r2, [r7, #16]
 1152 01b0 9269     		ldr	r2, [r2, #24]
 1153 01b2 9A61     		str	r2, [r3, #24]
 1154              	.L55:
 527:..\..\..\..\..\..\Software\uCOS-II\Source/os_task.c ****     }
 528:..\..\..\..\..\..\Software\uCOS-II\Source/os_task.c ****     ptcb->OSTCBNext     = OSTCBFreeList;                /* Return TCB to free TCB list             
 1155              		.loc 1 528 0
 1156 01b4 144B     		ldr	r3, .L57+32
 1157 01b6 1A68     		ldr	r2, [r3]
 1158 01b8 3B69     		ldr	r3, [r7, #16]
 1159 01ba 5A61     		str	r2, [r3, #20]
 529:..\..\..\..\..\..\Software\uCOS-II\Source/os_task.c ****     OSTCBFreeList       = ptcb;
 1160              		.loc 1 529 0
 1161 01bc 124B     		ldr	r3, .L57+32
 1162 01be 3A69     		ldr	r2, [r7, #16]
 1163 01c0 1A60     		str	r2, [r3]
 530:..\..\..\..\..\..\Software\uCOS-II\Source/os_task.c **** #if OS_TASK_NAME_EN > 0u
 531:..\..\..\..\..\..\Software\uCOS-II\Source/os_task.c ****     ptcb->OSTCBTaskName = (INT8U *)(void *)"?";
 1164              		.loc 1 531 0
 1165 01c2 3B69     		ldr	r3, [r7, #16]
 1166 01c4 114A     		ldr	r2, .L57+36
 1167 01c6 1A65     		str	r2, [r3, #80]
 532:..\..\..\..\..\..\Software\uCOS-II\Source/os_task.c **** #endif
 533:..\..\..\..\..\..\Software\uCOS-II\Source/os_task.c ****     OS_EXIT_CRITICAL();
 1168              		.loc 1 533 0
 1169 01c8 7B69     		ldr	r3, [r7, #20]
 1170 01ca 1800     		movs	r0, r3
 1171 01cc FFF7FEFF 		bl	OS_CPU_SR_Restore
 534:..\..\..\..\..\..\Software\uCOS-II\Source/os_task.c ****     if (OSRunning == OS_TRUE) {
 1172              		.loc 1 534 0
 1173 01d0 0F4B     		ldr	r3, .L57+40
 1174 01d2 1B78     		ldrb	r3, [r3]
 1175 01d4 012B     		cmp	r3, #1
ARM GAS  C:\Users\ADMINI~1\AppData\Local\Temp\cc4JwS65.s 			page 31


 1176 01d6 01D1     		bne	.L56
 535:..\..\..\..\..\..\Software\uCOS-II\Source/os_task.c ****         OS_Sched();                                     /* Find new highest priority task          
 1177              		.loc 1 535 0
 1178 01d8 FFF7FEFF 		bl	OS_Sched
 1179              	.L56:
 536:..\..\..\..\..\..\Software\uCOS-II\Source/os_task.c ****     }
 537:..\..\..\..\..\..\Software\uCOS-II\Source/os_task.c ****     return (OS_ERR_NONE);
 1180              		.loc 1 537 0
 1181 01dc 0023     		movs	r3, #0
 1182              	.L42:
 538:..\..\..\..\..\..\Software\uCOS-II\Source/os_task.c **** }
 1183              		.loc 1 538 0
 1184 01de 1800     		movs	r0, r3
 1185 01e0 BD46     		mov	sp, r7
 1186 01e2 06B0     		add	sp, sp, #24
 1187              		@ sp needed
 1188 01e4 80BD     		pop	{r7, pc}
 1189              	.L58:
 1190 01e6 C046     		.align	2
 1191              	.L57:
 1192 01e8 00000000 		.word	OSIntNesting
 1193 01ec 00000000 		.word	OSTCBCur
 1194 01f0 00000000 		.word	OSTCBPrioTbl
 1195 01f4 00000000 		.word	OSRdyTbl
 1196 01f8 00000000 		.word	OSRdyGrp
 1197 01fc 00000000 		.word	OSLockNesting
 1198 0200 00000000 		.word	OSTaskCtr
 1199 0204 00000000 		.word	OSTCBList
 1200 0208 00000000 		.word	OSTCBFreeList
 1201 020c 00000000 		.word	.LC20
 1202 0210 00000000 		.word	OSRunning
 1203              		.cfi_endproc
 1204              	.LFE4:
 1205              		.size	OSTaskDel, .-OSTaskDel
 1206              		.section	.text.OSTaskDelReq,"ax",%progbits
 1207              		.align	2
 1208              		.global	OSTaskDelReq
 1209              		.code	16
 1210              		.thumb_func
 1211              		.type	OSTaskDelReq, %function
 1212              	OSTaskDelReq:
 1213              	.LFB5:
 539:..\..\..\..\..\..\Software\uCOS-II\Source/os_task.c **** #endif
 540:..\..\..\..\..\..\Software\uCOS-II\Source/os_task.c **** /*$PAGE*/
 541:..\..\..\..\..\..\Software\uCOS-II\Source/os_task.c **** /*
 542:..\..\..\..\..\..\Software\uCOS-II\Source/os_task.c **** ***************************************************************************************************
 543:..\..\..\..\..\..\Software\uCOS-II\Source/os_task.c **** *                                  REQUEST THAT A TASK DELETE ITSELF
 544:..\..\..\..\..\..\Software\uCOS-II\Source/os_task.c **** *
 545:..\..\..\..\..\..\Software\uCOS-II\Source/os_task.c **** * Description: This function is used to:
 546:..\..\..\..\..\..\Software\uCOS-II\Source/os_task.c **** *                   a) notify a task to delete itself.
 547:..\..\..\..\..\..\Software\uCOS-II\Source/os_task.c **** *                   b) to see if a task requested that the current task delete itself.
 548:..\..\..\..\..\..\Software\uCOS-II\Source/os_task.c **** *              This function is a little tricky to understand.  Basically, you have a task that nee
 549:..\..\..\..\..\..\Software\uCOS-II\Source/os_task.c **** *              to be deleted however, this task has resources that it has allocated (memory buffers
 550:..\..\..\..\..\..\Software\uCOS-II\Source/os_task.c **** *              semaphores, mailboxes, queues etc.).  The task cannot be deleted otherwise these
 551:..\..\..\..\..\..\Software\uCOS-II\Source/os_task.c **** *              resources would not be freed.  The requesting task calls OSTaskDelReq() to indicate 
 552:..\..\..\..\..\..\Software\uCOS-II\Source/os_task.c **** *              the task needs to be deleted.  Deleting of the task is however, deferred to the task
 553:..\..\..\..\..\..\Software\uCOS-II\Source/os_task.c **** *              be deleted.  For example, suppose that task #10 needs to be deleted.  The requesting
ARM GAS  C:\Users\ADMINI~1\AppData\Local\Temp\cc4JwS65.s 			page 32


 554:..\..\..\..\..\..\Software\uCOS-II\Source/os_task.c **** *              example, task #5, would call OSTaskDelReq(10).  When task #10 gets to execute, it ca
 555:..\..\..\..\..\..\Software\uCOS-II\Source/os_task.c **** *              this function by specifying OS_PRIO_SELF and monitors the returned value.  If the re
 556:..\..\..\..\..\..\Software\uCOS-II\Source/os_task.c **** *              value is OS_ERR_TASK_DEL_REQ, another task requested a task delete.  Task #10 would 
 557:..\..\..\..\..\..\Software\uCOS-II\Source/os_task.c **** *              this:
 558:..\..\..\..\..\..\Software\uCOS-II\Source/os_task.c **** *
 559:..\..\..\..\..\..\Software\uCOS-II\Source/os_task.c **** *                   void Task(void *p_arg)
 560:..\..\..\..\..\..\Software\uCOS-II\Source/os_task.c **** *                   {
 561:..\..\..\..\..\..\Software\uCOS-II\Source/os_task.c **** *                       .
 562:..\..\..\..\..\..\Software\uCOS-II\Source/os_task.c **** *                       .
 563:..\..\..\..\..\..\Software\uCOS-II\Source/os_task.c **** *                       while (1) {
 564:..\..\..\..\..\..\Software\uCOS-II\Source/os_task.c **** *                           OSTimeDly(1);
 565:..\..\..\..\..\..\Software\uCOS-II\Source/os_task.c **** *                           if (OSTaskDelReq(OS_PRIO_SELF) == OS_ERR_TASK_DEL_REQ) {
 566:..\..\..\..\..\..\Software\uCOS-II\Source/os_task.c **** *                               Release any owned resources;
 567:..\..\..\..\..\..\Software\uCOS-II\Source/os_task.c **** *                               De-allocate any dynamic memory;
 568:..\..\..\..\..\..\Software\uCOS-II\Source/os_task.c **** *                               OSTaskDel(OS_PRIO_SELF);
 569:..\..\..\..\..\..\Software\uCOS-II\Source/os_task.c **** *                           }
 570:..\..\..\..\..\..\Software\uCOS-II\Source/os_task.c **** *                       }
 571:..\..\..\..\..\..\Software\uCOS-II\Source/os_task.c **** *                   }
 572:..\..\..\..\..\..\Software\uCOS-II\Source/os_task.c **** *
 573:..\..\..\..\..\..\Software\uCOS-II\Source/os_task.c **** * Arguments  : prio    is the priority of the task to request the delete from
 574:..\..\..\..\..\..\Software\uCOS-II\Source/os_task.c **** *
 575:..\..\..\..\..\..\Software\uCOS-II\Source/os_task.c **** * Returns    : OS_ERR_NONE            if the task exist and the request has been registered
 576:..\..\..\..\..\..\Software\uCOS-II\Source/os_task.c **** *              OS_ERR_TASK_NOT_EXIST  if the task has been deleted.  This allows the caller to know
 577:..\..\..\..\..\..\Software\uCOS-II\Source/os_task.c **** *                                     the request has been executed.
 578:..\..\..\..\..\..\Software\uCOS-II\Source/os_task.c **** *              OS_ERR_TASK_DEL        if the task is assigned to a Mutex.
 579:..\..\..\..\..\..\Software\uCOS-II\Source/os_task.c **** *              OS_ERR_TASK_DEL_IDLE   if you requested to delete uC/OS-II's idle task
 580:..\..\..\..\..\..\Software\uCOS-II\Source/os_task.c **** *              OS_ERR_PRIO_INVALID    if the priority you specify is higher that the maximum allowe
 581:..\..\..\..\..\..\Software\uCOS-II\Source/os_task.c **** *                                     (i.e. >= OS_LOWEST_PRIO) or, you have not specified OS_PRIO_S
 582:..\..\..\..\..\..\Software\uCOS-II\Source/os_task.c **** *              OS_ERR_TASK_DEL_REQ    if a task (possibly another task) requested that the running 
 583:..\..\..\..\..\..\Software\uCOS-II\Source/os_task.c **** *                                     deleted.
 584:..\..\..\..\..\..\Software\uCOS-II\Source/os_task.c **** ***************************************************************************************************
 585:..\..\..\..\..\..\Software\uCOS-II\Source/os_task.c **** */
 586:..\..\..\..\..\..\Software\uCOS-II\Source/os_task.c **** /*$PAGE*/
 587:..\..\..\..\..\..\Software\uCOS-II\Source/os_task.c **** #if OS_TASK_DEL_EN > 0u
 588:..\..\..\..\..\..\Software\uCOS-II\Source/os_task.c **** INT8U  OSTaskDelReq (INT8U prio)
 589:..\..\..\..\..\..\Software\uCOS-II\Source/os_task.c **** {
 1214              		.loc 1 589 0
 1215              		.cfi_startproc
 1216              		@ args = 0, pretend = 0, frame = 24
 1217              		@ frame_needed = 1, uses_anonymous_args = 0
 1218 0000 80B5     		push	{r7, lr}
 1219              		.cfi_def_cfa_offset 8
 1220              		.cfi_offset 7, -8
 1221              		.cfi_offset 14, -4
 1222 0002 86B0     		sub	sp, sp, #24
 1223              		.cfi_def_cfa_offset 32
 1224 0004 00AF     		add	r7, sp, #0
 1225              		.cfi_def_cfa_register 7
 1226 0006 0200     		movs	r2, r0
 1227 0008 FB1D     		adds	r3, r7, #7
 1228 000a 1A70     		strb	r2, [r3]
 590:..\..\..\..\..\..\Software\uCOS-II\Source/os_task.c ****     INT8U      stat;
 591:..\..\..\..\..\..\Software\uCOS-II\Source/os_task.c ****     OS_TCB    *ptcb;
 592:..\..\..\..\..\..\Software\uCOS-II\Source/os_task.c **** #if OS_CRITICAL_METHOD == 3u                     /* Allocate storage for CPU status register       
 593:..\..\..\..\..\..\Software\uCOS-II\Source/os_task.c ****     OS_CPU_SR  cpu_sr = 0u;
 1229              		.loc 1 593 0
 1230 000c 0023     		movs	r3, #0
ARM GAS  C:\Users\ADMINI~1\AppData\Local\Temp\cc4JwS65.s 			page 33


 1231 000e 7B61     		str	r3, [r7, #20]
 594:..\..\..\..\..\..\Software\uCOS-II\Source/os_task.c **** #endif
 595:..\..\..\..\..\..\Software\uCOS-II\Source/os_task.c **** 
 596:..\..\..\..\..\..\Software\uCOS-II\Source/os_task.c **** 
 597:..\..\..\..\..\..\Software\uCOS-II\Source/os_task.c **** 
 598:..\..\..\..\..\..\Software\uCOS-II\Source/os_task.c ****     if (prio == OS_TASK_IDLE_PRIO) {                            /* Not allowed to delete idle task 
 1232              		.loc 1 598 0
 1233 0010 FB1D     		adds	r3, r7, #7
 1234 0012 1B78     		ldrb	r3, [r3]
 1235 0014 3F2B     		cmp	r3, #63
 1236 0016 01D1     		bne	.L60
 599:..\..\..\..\..\..\Software\uCOS-II\Source/os_task.c ****         return (OS_ERR_TASK_DEL_IDLE);
 1237              		.loc 1 599 0
 1238 0018 3E23     		movs	r3, #62
 1239 001a 45E0     		b	.L61
 1240              	.L60:
 600:..\..\..\..\..\..\Software\uCOS-II\Source/os_task.c ****     }
 601:..\..\..\..\..\..\Software\uCOS-II\Source/os_task.c **** #if OS_ARG_CHK_EN > 0u
 602:..\..\..\..\..\..\Software\uCOS-II\Source/os_task.c ****     if (prio >= OS_LOWEST_PRIO) {                               /* Task priority valid ?           
 1241              		.loc 1 602 0
 1242 001c FB1D     		adds	r3, r7, #7
 1243 001e 1B78     		ldrb	r3, [r3]
 1244 0020 3E2B     		cmp	r3, #62
 1245 0022 05D9     		bls	.L62
 603:..\..\..\..\..\..\Software\uCOS-II\Source/os_task.c ****         if (prio != OS_PRIO_SELF) {
 1246              		.loc 1 603 0
 1247 0024 FB1D     		adds	r3, r7, #7
 1248 0026 1B78     		ldrb	r3, [r3]
 1249 0028 FF2B     		cmp	r3, #255
 1250 002a 01D0     		beq	.L62
 604:..\..\..\..\..\..\Software\uCOS-II\Source/os_task.c ****             return (OS_ERR_PRIO_INVALID);
 1251              		.loc 1 604 0
 1252 002c 2A23     		movs	r3, #42
 1253 002e 3BE0     		b	.L61
 1254              	.L62:
 605:..\..\..\..\..\..\Software\uCOS-II\Source/os_task.c ****         }
 606:..\..\..\..\..\..\Software\uCOS-II\Source/os_task.c ****     }
 607:..\..\..\..\..\..\Software\uCOS-II\Source/os_task.c **** #endif
 608:..\..\..\..\..\..\Software\uCOS-II\Source/os_task.c ****     if (prio == OS_PRIO_SELF) {                                 /* See if a task is requesting to .
 1255              		.loc 1 608 0
 1256 0030 FB1D     		adds	r3, r7, #7
 1257 0032 1B78     		ldrb	r3, [r3]
 1258 0034 FF2B     		cmp	r3, #255
 1259 0036 12D1     		bne	.L63
 609:..\..\..\..\..\..\Software\uCOS-II\Source/os_task.c ****         OS_ENTER_CRITICAL();                                    /* ... this task to delete itself  
 1260              		.loc 1 609 0
 1261 0038 FFF7FEFF 		bl	OS_CPU_SR_Save
 1262 003c 0300     		movs	r3, r0
 1263 003e 7B61     		str	r3, [r7, #20]
 610:..\..\..\..\..\..\Software\uCOS-II\Source/os_task.c ****         stat = OSTCBCur->OSTCBDelReq;                           /* Return request status to caller 
 1264              		.loc 1 610 0
 1265 0040 1B4B     		ldr	r3, .L66
 1266 0042 1A68     		ldr	r2, [r3]
 1267 0044 1323     		movs	r3, #19
 1268 0046 FB18     		adds	r3, r7, r3
 1269 0048 3B21     		movs	r1, #59
 1270 004a 525C     		ldrb	r2, [r2, r1]
ARM GAS  C:\Users\ADMINI~1\AppData\Local\Temp\cc4JwS65.s 			page 34


 1271 004c 1A70     		strb	r2, [r3]
 611:..\..\..\..\..\..\Software\uCOS-II\Source/os_task.c ****         OS_EXIT_CRITICAL();
 1272              		.loc 1 611 0
 1273 004e 7B69     		ldr	r3, [r7, #20]
 1274 0050 1800     		movs	r0, r3
 1275 0052 FFF7FEFF 		bl	OS_CPU_SR_Restore
 612:..\..\..\..\..\..\Software\uCOS-II\Source/os_task.c ****         return (stat);
 1276              		.loc 1 612 0
 1277 0056 1323     		movs	r3, #19
 1278 0058 FB18     		adds	r3, r7, r3
 1279 005a 1B78     		ldrb	r3, [r3]
 1280 005c 24E0     		b	.L61
 1281              	.L63:
 613:..\..\..\..\..\..\Software\uCOS-II\Source/os_task.c ****     }
 614:..\..\..\..\..\..\Software\uCOS-II\Source/os_task.c ****     OS_ENTER_CRITICAL();
 1282              		.loc 1 614 0
 1283 005e FFF7FEFF 		bl	OS_CPU_SR_Save
 1284 0062 0300     		movs	r3, r0
 1285 0064 7B61     		str	r3, [r7, #20]
 615:..\..\..\..\..\..\Software\uCOS-II\Source/os_task.c ****     ptcb = OSTCBPrioTbl[prio];
 1286              		.loc 1 615 0
 1287 0066 FB1D     		adds	r3, r7, #7
 1288 0068 1A78     		ldrb	r2, [r3]
 1289 006a 124B     		ldr	r3, .L66+4
 1290 006c 9200     		lsls	r2, r2, #2
 1291 006e D358     		ldr	r3, [r2, r3]
 1292 0070 FB60     		str	r3, [r7, #12]
 616:..\..\..\..\..\..\Software\uCOS-II\Source/os_task.c ****     if (ptcb == (OS_TCB *)0) {                                  /* Task to delete must exist       
 1293              		.loc 1 616 0
 1294 0072 FB68     		ldr	r3, [r7, #12]
 1295 0074 002B     		cmp	r3, #0
 1296 0076 05D1     		bne	.L64
 617:..\..\..\..\..\..\Software\uCOS-II\Source/os_task.c ****         OS_EXIT_CRITICAL();
 1297              		.loc 1 617 0
 1298 0078 7B69     		ldr	r3, [r7, #20]
 1299 007a 1800     		movs	r0, r3
 1300 007c FFF7FEFF 		bl	OS_CPU_SR_Restore
 618:..\..\..\..\..\..\Software\uCOS-II\Source/os_task.c ****         return (OS_ERR_TASK_NOT_EXIST);                         /* Task must already be deleted    
 1301              		.loc 1 618 0
 1302 0080 4323     		movs	r3, #67
 1303 0082 11E0     		b	.L61
 1304              	.L64:
 619:..\..\..\..\..\..\Software\uCOS-II\Source/os_task.c ****     }
 620:..\..\..\..\..\..\Software\uCOS-II\Source/os_task.c ****     if (ptcb == OS_TCB_RESERVED) {                              /* Must NOT be assigned to a Mutex 
 1305              		.loc 1 620 0
 1306 0084 FB68     		ldr	r3, [r7, #12]
 1307 0086 012B     		cmp	r3, #1
 1308 0088 05D1     		bne	.L65
 621:..\..\..\..\..\..\Software\uCOS-II\Source/os_task.c ****         OS_EXIT_CRITICAL();
 1309              		.loc 1 621 0
 1310 008a 7B69     		ldr	r3, [r7, #20]
 1311 008c 1800     		movs	r0, r3
 1312 008e FFF7FEFF 		bl	OS_CPU_SR_Restore
 622:..\..\..\..\..\..\Software\uCOS-II\Source/os_task.c ****         return (OS_ERR_TASK_DEL);
 1313              		.loc 1 622 0
 1314 0092 3D23     		movs	r3, #61
 1315 0094 08E0     		b	.L61
ARM GAS  C:\Users\ADMINI~1\AppData\Local\Temp\cc4JwS65.s 			page 35


 1316              	.L65:
 623:..\..\..\..\..\..\Software\uCOS-II\Source/os_task.c ****     }
 624:..\..\..\..\..\..\Software\uCOS-II\Source/os_task.c ****     ptcb->OSTCBDelReq = OS_ERR_TASK_DEL_REQ;                    /* Set flag indicating task to be D
 1317              		.loc 1 624 0
 1318 0096 FB68     		ldr	r3, [r7, #12]
 1319 0098 3B22     		movs	r2, #59
 1320 009a 3F21     		movs	r1, #63
 1321 009c 9954     		strb	r1, [r3, r2]
 625:..\..\..\..\..\..\Software\uCOS-II\Source/os_task.c ****     OS_EXIT_CRITICAL();
 1322              		.loc 1 625 0
 1323 009e 7B69     		ldr	r3, [r7, #20]
 1324 00a0 1800     		movs	r0, r3
 1325 00a2 FFF7FEFF 		bl	OS_CPU_SR_Restore
 626:..\..\..\..\..\..\Software\uCOS-II\Source/os_task.c ****     return (OS_ERR_NONE);
 1326              		.loc 1 626 0
 1327 00a6 0023     		movs	r3, #0
 1328              	.L61:
 627:..\..\..\..\..\..\Software\uCOS-II\Source/os_task.c **** }
 1329              		.loc 1 627 0
 1330 00a8 1800     		movs	r0, r3
 1331 00aa BD46     		mov	sp, r7
 1332 00ac 06B0     		add	sp, sp, #24
 1333              		@ sp needed
 1334 00ae 80BD     		pop	{r7, pc}
 1335              	.L67:
 1336              		.align	2
 1337              	.L66:
 1338 00b0 00000000 		.word	OSTCBCur
 1339 00b4 00000000 		.word	OSTCBPrioTbl
 1340              		.cfi_endproc
 1341              	.LFE5:
 1342              		.size	OSTaskDelReq, .-OSTaskDelReq
 1343              		.section	.text.OSTaskNameGet,"ax",%progbits
 1344              		.align	2
 1345              		.global	OSTaskNameGet
 1346              		.code	16
 1347              		.thumb_func
 1348              		.type	OSTaskNameGet, %function
 1349              	OSTaskNameGet:
 1350              	.LFB6:
 628:..\..\..\..\..\..\Software\uCOS-II\Source/os_task.c **** #endif
 629:..\..\..\..\..\..\Software\uCOS-II\Source/os_task.c **** /*$PAGE*/
 630:..\..\..\..\..\..\Software\uCOS-II\Source/os_task.c **** /*
 631:..\..\..\..\..\..\Software\uCOS-II\Source/os_task.c **** ***************************************************************************************************
 632:..\..\..\..\..\..\Software\uCOS-II\Source/os_task.c **** *                                       GET THE NAME OF A TASK
 633:..\..\..\..\..\..\Software\uCOS-II\Source/os_task.c **** *
 634:..\..\..\..\..\..\Software\uCOS-II\Source/os_task.c **** * Description: This function is called to obtain the name of a task.
 635:..\..\..\..\..\..\Software\uCOS-II\Source/os_task.c **** *
 636:..\..\..\..\..\..\Software\uCOS-II\Source/os_task.c **** * Arguments  : prio      is the priority of the task that you want to obtain the name from.
 637:..\..\..\..\..\..\Software\uCOS-II\Source/os_task.c **** *
 638:..\..\..\..\..\..\Software\uCOS-II\Source/os_task.c **** *              pname     is a pointer to a pointer to an ASCII string that will receive the name of
 639:..\..\..\..\..\..\Software\uCOS-II\Source/os_task.c **** *
 640:..\..\..\..\..\..\Software\uCOS-II\Source/os_task.c **** *              perr      is a pointer to an error code that can contain one of the following values
 641:..\..\..\..\..\..\Software\uCOS-II\Source/os_task.c **** *
 642:..\..\..\..\..\..\Software\uCOS-II\Source/os_task.c **** *                        OS_ERR_NONE                if the requested task is resumed
 643:..\..\..\..\..\..\Software\uCOS-II\Source/os_task.c **** *                        OS_ERR_TASK_NOT_EXIST      if the task has not been created or is assigned
 644:..\..\..\..\..\..\Software\uCOS-II\Source/os_task.c **** *                        OS_ERR_PRIO_INVALID        if you specified an invalid priority:
ARM GAS  C:\Users\ADMINI~1\AppData\Local\Temp\cc4JwS65.s 			page 36


 645:..\..\..\..\..\..\Software\uCOS-II\Source/os_task.c **** *                                                   A higher value than the idle task or not OS_PRI
 646:..\..\..\..\..\..\Software\uCOS-II\Source/os_task.c **** *                        OS_ERR_PNAME_NULL          You passed a NULL pointer for 'pname'
 647:..\..\..\..\..\..\Software\uCOS-II\Source/os_task.c **** *                        OS_ERR_NAME_GET_ISR        You called this function from an ISR
 648:..\..\..\..\..\..\Software\uCOS-II\Source/os_task.c **** *
 649:..\..\..\..\..\..\Software\uCOS-II\Source/os_task.c **** *
 650:..\..\..\..\..\..\Software\uCOS-II\Source/os_task.c **** * Returns    : The length of the string or 0 if the task does not exist.
 651:..\..\..\..\..\..\Software\uCOS-II\Source/os_task.c **** ***************************************************************************************************
 652:..\..\..\..\..\..\Software\uCOS-II\Source/os_task.c **** */
 653:..\..\..\..\..\..\Software\uCOS-II\Source/os_task.c **** 
 654:..\..\..\..\..\..\Software\uCOS-II\Source/os_task.c **** #if OS_TASK_NAME_EN > 0u
 655:..\..\..\..\..\..\Software\uCOS-II\Source/os_task.c **** INT8U  OSTaskNameGet (INT8U    prio,
 656:..\..\..\..\..\..\Software\uCOS-II\Source/os_task.c ****                       INT8U  **pname,
 657:..\..\..\..\..\..\Software\uCOS-II\Source/os_task.c ****                       INT8U   *perr)
 658:..\..\..\..\..\..\Software\uCOS-II\Source/os_task.c **** {
 1351              		.loc 1 658 0
 1352              		.cfi_startproc
 1353              		@ args = 0, pretend = 0, frame = 32
 1354              		@ frame_needed = 1, uses_anonymous_args = 0
 1355 0000 90B5     		push	{r4, r7, lr}
 1356              		.cfi_def_cfa_offset 12
 1357              		.cfi_offset 4, -12
 1358              		.cfi_offset 7, -8
 1359              		.cfi_offset 14, -4
 1360 0002 89B0     		sub	sp, sp, #36
 1361              		.cfi_def_cfa_offset 48
 1362 0004 00AF     		add	r7, sp, #0
 1363              		.cfi_def_cfa_register 7
 1364 0006 B960     		str	r1, [r7, #8]
 1365 0008 7A60     		str	r2, [r7, #4]
 1366 000a 0F23     		movs	r3, #15
 1367 000c FB18     		adds	r3, r7, r3
 1368 000e 021C     		adds	r2, r0, #0
 1369 0010 1A70     		strb	r2, [r3]
 659:..\..\..\..\..\..\Software\uCOS-II\Source/os_task.c ****     OS_TCB    *ptcb;
 660:..\..\..\..\..\..\Software\uCOS-II\Source/os_task.c ****     INT8U      len;
 661:..\..\..\..\..\..\Software\uCOS-II\Source/os_task.c **** #if OS_CRITICAL_METHOD == 3u                             /* Allocate storage for CPU status registe
 662:..\..\..\..\..\..\Software\uCOS-II\Source/os_task.c ****     OS_CPU_SR  cpu_sr = 0u;
 1370              		.loc 1 662 0
 1371 0012 0023     		movs	r3, #0
 1372 0014 FB61     		str	r3, [r7, #28]
 663:..\..\..\..\..\..\Software\uCOS-II\Source/os_task.c **** #endif
 664:..\..\..\..\..\..\Software\uCOS-II\Source/os_task.c **** 
 665:..\..\..\..\..\..\Software\uCOS-II\Source/os_task.c **** 
 666:..\..\..\..\..\..\Software\uCOS-II\Source/os_task.c **** 
 667:..\..\..\..\..\..\Software\uCOS-II\Source/os_task.c **** #ifdef OS_SAFETY_CRITICAL
 668:..\..\..\..\..\..\Software\uCOS-II\Source/os_task.c ****     if (perr == (INT8U *)0) {
 669:..\..\..\..\..\..\Software\uCOS-II\Source/os_task.c ****         OS_SAFETY_CRITICAL_EXCEPTION();
 670:..\..\..\..\..\..\Software\uCOS-II\Source/os_task.c ****         return (0u);
 671:..\..\..\..\..\..\Software\uCOS-II\Source/os_task.c ****     }
 672:..\..\..\..\..\..\Software\uCOS-II\Source/os_task.c **** #endif
 673:..\..\..\..\..\..\Software\uCOS-II\Source/os_task.c **** 
 674:..\..\..\..\..\..\Software\uCOS-II\Source/os_task.c **** #if OS_ARG_CHK_EN > 0u
 675:..\..\..\..\..\..\Software\uCOS-II\Source/os_task.c ****     if (prio > OS_LOWEST_PRIO) {                         /* Task priority valid ?                  
 1373              		.loc 1 675 0
 1374 0016 0F23     		movs	r3, #15
 1375 0018 FB18     		adds	r3, r7, r3
 1376 001a 1B78     		ldrb	r3, [r3]
ARM GAS  C:\Users\ADMINI~1\AppData\Local\Temp\cc4JwS65.s 			page 37


 1377 001c 3F2B     		cmp	r3, #63
 1378 001e 09D9     		bls	.L69
 676:..\..\..\..\..\..\Software\uCOS-II\Source/os_task.c ****         if (prio != OS_PRIO_SELF) {
 1379              		.loc 1 676 0
 1380 0020 0F23     		movs	r3, #15
 1381 0022 FB18     		adds	r3, r7, r3
 1382 0024 1B78     		ldrb	r3, [r3]
 1383 0026 FF2B     		cmp	r3, #255
 1384 0028 04D0     		beq	.L69
 677:..\..\..\..\..\..\Software\uCOS-II\Source/os_task.c ****             *perr = OS_ERR_PRIO_INVALID;                 /* No                                     
 1385              		.loc 1 677 0
 1386 002a 7B68     		ldr	r3, [r7, #4]
 1387 002c 2A22     		movs	r2, #42
 1388 002e 1A70     		strb	r2, [r3]
 678:..\..\..\..\..\..\Software\uCOS-II\Source/os_task.c ****             return (0u);
 1389              		.loc 1 678 0
 1390 0030 0023     		movs	r3, #0
 1391 0032 56E0     		b	.L70
 1392              	.L69:
 679:..\..\..\..\..\..\Software\uCOS-II\Source/os_task.c ****         }
 680:..\..\..\..\..\..\Software\uCOS-II\Source/os_task.c ****     }
 681:..\..\..\..\..\..\Software\uCOS-II\Source/os_task.c ****     if (pname == (INT8U **)0) {                          /* Is 'pname' a NULL pointer?             
 1393              		.loc 1 681 0
 1394 0034 BB68     		ldr	r3, [r7, #8]
 1395 0036 002B     		cmp	r3, #0
 1396 0038 04D1     		bne	.L71
 682:..\..\..\..\..\..\Software\uCOS-II\Source/os_task.c ****         *perr = OS_ERR_PNAME_NULL;                       /* Yes                                    
 1397              		.loc 1 682 0
 1398 003a 7B68     		ldr	r3, [r7, #4]
 1399 003c 0C22     		movs	r2, #12
 1400 003e 1A70     		strb	r2, [r3]
 683:..\..\..\..\..\..\Software\uCOS-II\Source/os_task.c ****         return (0u);
 1401              		.loc 1 683 0
 1402 0040 0023     		movs	r3, #0
 1403 0042 4EE0     		b	.L70
 1404              	.L71:
 684:..\..\..\..\..\..\Software\uCOS-II\Source/os_task.c ****     }
 685:..\..\..\..\..\..\Software\uCOS-II\Source/os_task.c **** #endif
 686:..\..\..\..\..\..\Software\uCOS-II\Source/os_task.c ****     if (OSIntNesting > 0u) {                              /* See if trying to call from an ISR     
 1405              		.loc 1 686 0
 1406 0044 294B     		ldr	r3, .L76
 1407 0046 1B78     		ldrb	r3, [r3]
 1408 0048 002B     		cmp	r3, #0
 1409 004a 04D0     		beq	.L72
 687:..\..\..\..\..\..\Software\uCOS-II\Source/os_task.c ****         *perr = OS_ERR_NAME_GET_ISR;
 1410              		.loc 1 687 0
 1411 004c 7B68     		ldr	r3, [r7, #4]
 1412 004e 1122     		movs	r2, #17
 1413 0050 1A70     		strb	r2, [r3]
 688:..\..\..\..\..\..\Software\uCOS-II\Source/os_task.c ****         return (0u);
 1414              		.loc 1 688 0
 1415 0052 0023     		movs	r3, #0
 1416 0054 45E0     		b	.L70
 1417              	.L72:
 689:..\..\..\..\..\..\Software\uCOS-II\Source/os_task.c ****     }
 690:..\..\..\..\..\..\Software\uCOS-II\Source/os_task.c ****     OS_ENTER_CRITICAL();
 1418              		.loc 1 690 0
ARM GAS  C:\Users\ADMINI~1\AppData\Local\Temp\cc4JwS65.s 			page 38


 1419 0056 FFF7FEFF 		bl	OS_CPU_SR_Save
 1420 005a 0300     		movs	r3, r0
 1421 005c FB61     		str	r3, [r7, #28]
 691:..\..\..\..\..\..\Software\uCOS-II\Source/os_task.c ****     if (prio == OS_PRIO_SELF) {                          /* See if caller desires it's own name    
 1422              		.loc 1 691 0
 1423 005e 0F23     		movs	r3, #15
 1424 0060 FB18     		adds	r3, r7, r3
 1425 0062 1B78     		ldrb	r3, [r3]
 1426 0064 FF2B     		cmp	r3, #255
 1427 0066 06D1     		bne	.L73
 692:..\..\..\..\..\..\Software\uCOS-II\Source/os_task.c ****         prio = OSTCBCur->OSTCBPrio;
 1428              		.loc 1 692 0
 1429 0068 214B     		ldr	r3, .L76+4
 1430 006a 1A68     		ldr	r2, [r3]
 1431 006c 0F23     		movs	r3, #15
 1432 006e FB18     		adds	r3, r7, r3
 1433 0070 3621     		movs	r1, #54
 1434 0072 525C     		ldrb	r2, [r2, r1]
 1435 0074 1A70     		strb	r2, [r3]
 1436              	.L73:
 693:..\..\..\..\..\..\Software\uCOS-II\Source/os_task.c ****     }
 694:..\..\..\..\..\..\Software\uCOS-II\Source/os_task.c ****     ptcb = OSTCBPrioTbl[prio];
 1437              		.loc 1 694 0
 1438 0076 0F23     		movs	r3, #15
 1439 0078 FB18     		adds	r3, r7, r3
 1440 007a 1A78     		ldrb	r2, [r3]
 1441 007c 1D4B     		ldr	r3, .L76+8
 1442 007e 9200     		lsls	r2, r2, #2
 1443 0080 D358     		ldr	r3, [r2, r3]
 1444 0082 BB61     		str	r3, [r7, #24]
 695:..\..\..\..\..\..\Software\uCOS-II\Source/os_task.c ****     if (ptcb == (OS_TCB *)0) {                           /* Does task exist?                       
 1445              		.loc 1 695 0
 1446 0084 BB69     		ldr	r3, [r7, #24]
 1447 0086 002B     		cmp	r3, #0
 1448 0088 08D1     		bne	.L74
 696:..\..\..\..\..\..\Software\uCOS-II\Source/os_task.c ****         OS_EXIT_CRITICAL();                              /* No                                     
 1449              		.loc 1 696 0
 1450 008a FB69     		ldr	r3, [r7, #28]
 1451 008c 1800     		movs	r0, r3
 1452 008e FFF7FEFF 		bl	OS_CPU_SR_Restore
 697:..\..\..\..\..\..\Software\uCOS-II\Source/os_task.c ****         *perr = OS_ERR_TASK_NOT_EXIST;
 1453              		.loc 1 697 0
 1454 0092 7B68     		ldr	r3, [r7, #4]
 1455 0094 4322     		movs	r2, #67
 1456 0096 1A70     		strb	r2, [r3]
 698:..\..\..\..\..\..\Software\uCOS-II\Source/os_task.c ****         return (0u);
 1457              		.loc 1 698 0
 1458 0098 0023     		movs	r3, #0
 1459 009a 22E0     		b	.L70
 1460              	.L74:
 699:..\..\..\..\..\..\Software\uCOS-II\Source/os_task.c ****     }
 700:..\..\..\..\..\..\Software\uCOS-II\Source/os_task.c ****     if (ptcb == OS_TCB_RESERVED) {                       /* Task assigned to a Mutex?              
 1461              		.loc 1 700 0
 1462 009c BB69     		ldr	r3, [r7, #24]
 1463 009e 012B     		cmp	r3, #1
 1464 00a0 08D1     		bne	.L75
 701:..\..\..\..\..\..\Software\uCOS-II\Source/os_task.c ****         OS_EXIT_CRITICAL();                              /* Yes                                    
ARM GAS  C:\Users\ADMINI~1\AppData\Local\Temp\cc4JwS65.s 			page 39


 1465              		.loc 1 701 0
 1466 00a2 FB69     		ldr	r3, [r7, #28]
 1467 00a4 1800     		movs	r0, r3
 1468 00a6 FFF7FEFF 		bl	OS_CPU_SR_Restore
 702:..\..\..\..\..\..\Software\uCOS-II\Source/os_task.c ****         *perr = OS_ERR_TASK_NOT_EXIST;
 1469              		.loc 1 702 0
 1470 00aa 7B68     		ldr	r3, [r7, #4]
 1471 00ac 4322     		movs	r2, #67
 1472 00ae 1A70     		strb	r2, [r3]
 703:..\..\..\..\..\..\Software\uCOS-II\Source/os_task.c ****         return (0u);
 1473              		.loc 1 703 0
 1474 00b0 0023     		movs	r3, #0
 1475 00b2 16E0     		b	.L70
 1476              	.L75:
 704:..\..\..\..\..\..\Software\uCOS-II\Source/os_task.c ****     }
 705:..\..\..\..\..\..\Software\uCOS-II\Source/os_task.c ****     *pname = ptcb->OSTCBTaskName;
 1477              		.loc 1 705 0
 1478 00b4 BB69     		ldr	r3, [r7, #24]
 1479 00b6 1A6D     		ldr	r2, [r3, #80]
 1480 00b8 BB68     		ldr	r3, [r7, #8]
 1481 00ba 1A60     		str	r2, [r3]
 706:..\..\..\..\..\..\Software\uCOS-II\Source/os_task.c ****     len    = OS_StrLen(*pname);
 1482              		.loc 1 706 0
 1483 00bc BB68     		ldr	r3, [r7, #8]
 1484 00be 1B68     		ldr	r3, [r3]
 1485 00c0 1722     		movs	r2, #23
 1486 00c2 BC18     		adds	r4, r7, r2
 1487 00c4 1800     		movs	r0, r3
 1488 00c6 FFF7FEFF 		bl	OS_StrLen
 1489 00ca 0300     		movs	r3, r0
 1490 00cc 2370     		strb	r3, [r4]
 707:..\..\..\..\..\..\Software\uCOS-II\Source/os_task.c ****     OS_EXIT_CRITICAL();
 1491              		.loc 1 707 0
 1492 00ce FB69     		ldr	r3, [r7, #28]
 1493 00d0 1800     		movs	r0, r3
 1494 00d2 FFF7FEFF 		bl	OS_CPU_SR_Restore
 708:..\..\..\..\..\..\Software\uCOS-II\Source/os_task.c ****     *perr  = OS_ERR_NONE;
 1495              		.loc 1 708 0
 1496 00d6 7B68     		ldr	r3, [r7, #4]
 1497 00d8 0022     		movs	r2, #0
 1498 00da 1A70     		strb	r2, [r3]
 709:..\..\..\..\..\..\Software\uCOS-II\Source/os_task.c ****     return (len);
 1499              		.loc 1 709 0
 1500 00dc 1723     		movs	r3, #23
 1501 00de FB18     		adds	r3, r7, r3
 1502 00e0 1B78     		ldrb	r3, [r3]
 1503              	.L70:
 710:..\..\..\..\..\..\Software\uCOS-II\Source/os_task.c **** }
 1504              		.loc 1 710 0
 1505 00e2 1800     		movs	r0, r3
 1506 00e4 BD46     		mov	sp, r7
 1507 00e6 09B0     		add	sp, sp, #36
 1508              		@ sp needed
 1509 00e8 90BD     		pop	{r4, r7, pc}
 1510              	.L77:
 1511 00ea C046     		.align	2
 1512              	.L76:
ARM GAS  C:\Users\ADMINI~1\AppData\Local\Temp\cc4JwS65.s 			page 40


 1513 00ec 00000000 		.word	OSIntNesting
 1514 00f0 00000000 		.word	OSTCBCur
 1515 00f4 00000000 		.word	OSTCBPrioTbl
 1516              		.cfi_endproc
 1517              	.LFE6:
 1518              		.size	OSTaskNameGet, .-OSTaskNameGet
 1519              		.section	.text.OSTaskNameSet,"ax",%progbits
 1520              		.align	2
 1521              		.global	OSTaskNameSet
 1522              		.code	16
 1523              		.thumb_func
 1524              		.type	OSTaskNameSet, %function
 1525              	OSTaskNameSet:
 1526              	.LFB7:
 711:..\..\..\..\..\..\Software\uCOS-II\Source/os_task.c **** #endif
 712:..\..\..\..\..\..\Software\uCOS-II\Source/os_task.c **** 
 713:..\..\..\..\..\..\Software\uCOS-II\Source/os_task.c **** /*$PAGE*/
 714:..\..\..\..\..\..\Software\uCOS-II\Source/os_task.c **** /*
 715:..\..\..\..\..\..\Software\uCOS-II\Source/os_task.c **** ***************************************************************************************************
 716:..\..\..\..\..\..\Software\uCOS-II\Source/os_task.c **** *                                       ASSIGN A NAME TO A TASK
 717:..\..\..\..\..\..\Software\uCOS-II\Source/os_task.c **** *
 718:..\..\..\..\..\..\Software\uCOS-II\Source/os_task.c **** * Description: This function is used to set the name of a task.
 719:..\..\..\..\..\..\Software\uCOS-II\Source/os_task.c **** *
 720:..\..\..\..\..\..\Software\uCOS-II\Source/os_task.c **** * Arguments  : prio      is the priority of the task that you want the assign a name to.
 721:..\..\..\..\..\..\Software\uCOS-II\Source/os_task.c **** *
 722:..\..\..\..\..\..\Software\uCOS-II\Source/os_task.c **** *              pname     is a pointer to an ASCII string that contains the name of the task.
 723:..\..\..\..\..\..\Software\uCOS-II\Source/os_task.c **** *
 724:..\..\..\..\..\..\Software\uCOS-II\Source/os_task.c **** *              perr       is a pointer to an error code that can contain one of the following value
 725:..\..\..\..\..\..\Software\uCOS-II\Source/os_task.c **** *
 726:..\..\..\..\..\..\Software\uCOS-II\Source/os_task.c **** *                        OS_ERR_NONE                if the requested task is resumed
 727:..\..\..\..\..\..\Software\uCOS-II\Source/os_task.c **** *                        OS_ERR_TASK_NOT_EXIST      if the task has not been created or is assigned
 728:..\..\..\..\..\..\Software\uCOS-II\Source/os_task.c **** *                        OS_ERR_PNAME_NULL          You passed a NULL pointer for 'pname'
 729:..\..\..\..\..\..\Software\uCOS-II\Source/os_task.c **** *                        OS_ERR_PRIO_INVALID        if you specified an invalid priority:
 730:..\..\..\..\..\..\Software\uCOS-II\Source/os_task.c **** *                                                   A higher value than the idle task or not OS_PRI
 731:..\..\..\..\..\..\Software\uCOS-II\Source/os_task.c **** *                        OS_ERR_NAME_SET_ISR        if you called this function from an ISR
 732:..\..\..\..\..\..\Software\uCOS-II\Source/os_task.c **** *
 733:..\..\..\..\..\..\Software\uCOS-II\Source/os_task.c **** * Returns    : None
 734:..\..\..\..\..\..\Software\uCOS-II\Source/os_task.c **** ***************************************************************************************************
 735:..\..\..\..\..\..\Software\uCOS-II\Source/os_task.c **** */
 736:..\..\..\..\..\..\Software\uCOS-II\Source/os_task.c **** #if OS_TASK_NAME_EN > 0u
 737:..\..\..\..\..\..\Software\uCOS-II\Source/os_task.c **** void  OSTaskNameSet (INT8U   prio,
 738:..\..\..\..\..\..\Software\uCOS-II\Source/os_task.c ****                      INT8U  *pname,
 739:..\..\..\..\..\..\Software\uCOS-II\Source/os_task.c ****                      INT8U  *perr)
 740:..\..\..\..\..\..\Software\uCOS-II\Source/os_task.c **** {
 1527              		.loc 1 740 0
 1528              		.cfi_startproc
 1529              		@ args = 0, pretend = 0, frame = 24
 1530              		@ frame_needed = 1, uses_anonymous_args = 0
 1531 0000 80B5     		push	{r7, lr}
 1532              		.cfi_def_cfa_offset 8
 1533              		.cfi_offset 7, -8
 1534              		.cfi_offset 14, -4
 1535 0002 86B0     		sub	sp, sp, #24
 1536              		.cfi_def_cfa_offset 32
 1537 0004 00AF     		add	r7, sp, #0
 1538              		.cfi_def_cfa_register 7
 1539 0006 B960     		str	r1, [r7, #8]
ARM GAS  C:\Users\ADMINI~1\AppData\Local\Temp\cc4JwS65.s 			page 41


 1540 0008 7A60     		str	r2, [r7, #4]
 1541 000a 0F23     		movs	r3, #15
 1542 000c FB18     		adds	r3, r7, r3
 1543 000e 021C     		adds	r2, r0, #0
 1544 0010 1A70     		strb	r2, [r3]
 741:..\..\..\..\..\..\Software\uCOS-II\Source/os_task.c ****     OS_TCB    *ptcb;
 742:..\..\..\..\..\..\Software\uCOS-II\Source/os_task.c **** #if OS_CRITICAL_METHOD == 3u                         /* Allocate storage for CPU status register   
 743:..\..\..\..\..\..\Software\uCOS-II\Source/os_task.c ****     OS_CPU_SR  cpu_sr = 0u;
 1545              		.loc 1 743 0
 1546 0012 0023     		movs	r3, #0
 1547 0014 7B61     		str	r3, [r7, #20]
 744:..\..\..\..\..\..\Software\uCOS-II\Source/os_task.c **** #endif
 745:..\..\..\..\..\..\Software\uCOS-II\Source/os_task.c **** 
 746:..\..\..\..\..\..\Software\uCOS-II\Source/os_task.c **** 
 747:..\..\..\..\..\..\Software\uCOS-II\Source/os_task.c **** 
 748:..\..\..\..\..\..\Software\uCOS-II\Source/os_task.c **** #ifdef OS_SAFETY_CRITICAL
 749:..\..\..\..\..\..\Software\uCOS-II\Source/os_task.c ****     if (perr == (INT8U *)0) {
 750:..\..\..\..\..\..\Software\uCOS-II\Source/os_task.c ****         OS_SAFETY_CRITICAL_EXCEPTION();
 751:..\..\..\..\..\..\Software\uCOS-II\Source/os_task.c ****         return;
 752:..\..\..\..\..\..\Software\uCOS-II\Source/os_task.c ****     }
 753:..\..\..\..\..\..\Software\uCOS-II\Source/os_task.c **** #endif
 754:..\..\..\..\..\..\Software\uCOS-II\Source/os_task.c **** 
 755:..\..\..\..\..\..\Software\uCOS-II\Source/os_task.c **** #if OS_ARG_CHK_EN > 0u
 756:..\..\..\..\..\..\Software\uCOS-II\Source/os_task.c ****     if (prio > OS_LOWEST_PRIO) {                     /* Task priority valid ?                      
 1548              		.loc 1 756 0
 1549 0016 0F23     		movs	r3, #15
 1550 0018 FB18     		adds	r3, r7, r3
 1551 001a 1B78     		ldrb	r3, [r3]
 1552 001c 3F2B     		cmp	r3, #63
 1553 001e 08D9     		bls	.L79
 757:..\..\..\..\..\..\Software\uCOS-II\Source/os_task.c ****         if (prio != OS_PRIO_SELF) {
 1554              		.loc 1 757 0
 1555 0020 0F23     		movs	r3, #15
 1556 0022 FB18     		adds	r3, r7, r3
 1557 0024 1B78     		ldrb	r3, [r3]
 1558 0026 FF2B     		cmp	r3, #255
 1559 0028 03D0     		beq	.L79
 758:..\..\..\..\..\..\Software\uCOS-II\Source/os_task.c ****             *perr = OS_ERR_PRIO_INVALID;             /* No                                         
 1560              		.loc 1 758 0
 1561 002a 7B68     		ldr	r3, [r7, #4]
 1562 002c 2A22     		movs	r2, #42
 1563 002e 1A70     		strb	r2, [r3]
 759:..\..\..\..\..\..\Software\uCOS-II\Source/os_task.c ****             return;
 1564              		.loc 1 759 0
 1565 0030 45E0     		b	.L78
 1566              	.L79:
 760:..\..\..\..\..\..\Software\uCOS-II\Source/os_task.c ****         }
 761:..\..\..\..\..\..\Software\uCOS-II\Source/os_task.c ****     }
 762:..\..\..\..\..\..\Software\uCOS-II\Source/os_task.c ****     if (pname == (INT8U *)0) {                       /* Is 'pname' a NULL pointer?                 
 1567              		.loc 1 762 0
 1568 0032 BB68     		ldr	r3, [r7, #8]
 1569 0034 002B     		cmp	r3, #0
 1570 0036 03D1     		bne	.L81
 763:..\..\..\..\..\..\Software\uCOS-II\Source/os_task.c ****         *perr = OS_ERR_PNAME_NULL;                   /* Yes                                        
 1571              		.loc 1 763 0
 1572 0038 7B68     		ldr	r3, [r7, #4]
 1573 003a 0C22     		movs	r2, #12
ARM GAS  C:\Users\ADMINI~1\AppData\Local\Temp\cc4JwS65.s 			page 42


 1574 003c 1A70     		strb	r2, [r3]
 764:..\..\..\..\..\..\Software\uCOS-II\Source/os_task.c ****         return;
 1575              		.loc 1 764 0
 1576 003e 3EE0     		b	.L78
 1577              	.L81:
 765:..\..\..\..\..\..\Software\uCOS-II\Source/os_task.c ****     }
 766:..\..\..\..\..\..\Software\uCOS-II\Source/os_task.c **** #endif
 767:..\..\..\..\..\..\Software\uCOS-II\Source/os_task.c ****     if (OSIntNesting > 0u) {                         /* See if trying to call from an ISR          
 1578              		.loc 1 767 0
 1579 0040 204B     		ldr	r3, .L86
 1580 0042 1B78     		ldrb	r3, [r3]
 1581 0044 002B     		cmp	r3, #0
 1582 0046 03D0     		beq	.L82
 768:..\..\..\..\..\..\Software\uCOS-II\Source/os_task.c ****         *perr = OS_ERR_NAME_SET_ISR;
 1583              		.loc 1 768 0
 1584 0048 7B68     		ldr	r3, [r7, #4]
 1585 004a 1222     		movs	r2, #18
 1586 004c 1A70     		strb	r2, [r3]
 769:..\..\..\..\..\..\Software\uCOS-II\Source/os_task.c ****         return;
 1587              		.loc 1 769 0
 1588 004e 36E0     		b	.L78
 1589              	.L82:
 770:..\..\..\..\..\..\Software\uCOS-II\Source/os_task.c ****     }
 771:..\..\..\..\..\..\Software\uCOS-II\Source/os_task.c ****     OS_ENTER_CRITICAL();
 1590              		.loc 1 771 0
 1591 0050 FFF7FEFF 		bl	OS_CPU_SR_Save
 1592 0054 0300     		movs	r3, r0
 1593 0056 7B61     		str	r3, [r7, #20]
 772:..\..\..\..\..\..\Software\uCOS-II\Source/os_task.c ****     if (prio == OS_PRIO_SELF) {                      /* See if caller desires to set it's own name 
 1594              		.loc 1 772 0
 1595 0058 0F23     		movs	r3, #15
 1596 005a FB18     		adds	r3, r7, r3
 1597 005c 1B78     		ldrb	r3, [r3]
 1598 005e FF2B     		cmp	r3, #255
 1599 0060 06D1     		bne	.L83
 773:..\..\..\..\..\..\Software\uCOS-II\Source/os_task.c ****         prio = OSTCBCur->OSTCBPrio;
 1600              		.loc 1 773 0
 1601 0062 194B     		ldr	r3, .L86+4
 1602 0064 1A68     		ldr	r2, [r3]
 1603 0066 0F23     		movs	r3, #15
 1604 0068 FB18     		adds	r3, r7, r3
 1605 006a 3621     		movs	r1, #54
 1606 006c 525C     		ldrb	r2, [r2, r1]
 1607 006e 1A70     		strb	r2, [r3]
 1608              	.L83:
 774:..\..\..\..\..\..\Software\uCOS-II\Source/os_task.c ****     }
 775:..\..\..\..\..\..\Software\uCOS-II\Source/os_task.c ****     ptcb = OSTCBPrioTbl[prio];
 1609              		.loc 1 775 0
 1610 0070 0F23     		movs	r3, #15
 1611 0072 FB18     		adds	r3, r7, r3
 1612 0074 1A78     		ldrb	r2, [r3]
 1613 0076 154B     		ldr	r3, .L86+8
 1614 0078 9200     		lsls	r2, r2, #2
 1615 007a D358     		ldr	r3, [r2, r3]
 1616 007c 3B61     		str	r3, [r7, #16]
 776:..\..\..\..\..\..\Software\uCOS-II\Source/os_task.c ****     if (ptcb == (OS_TCB *)0) {                       /* Does task exist?                           
 1617              		.loc 1 776 0
ARM GAS  C:\Users\ADMINI~1\AppData\Local\Temp\cc4JwS65.s 			page 43


 1618 007e 3B69     		ldr	r3, [r7, #16]
 1619 0080 002B     		cmp	r3, #0
 1620 0082 07D1     		bne	.L84
 777:..\..\..\..\..\..\Software\uCOS-II\Source/os_task.c ****         OS_EXIT_CRITICAL();                          /* No                                         
 1621              		.loc 1 777 0
 1622 0084 7B69     		ldr	r3, [r7, #20]
 1623 0086 1800     		movs	r0, r3
 1624 0088 FFF7FEFF 		bl	OS_CPU_SR_Restore
 778:..\..\..\..\..\..\Software\uCOS-II\Source/os_task.c ****         *perr = OS_ERR_TASK_NOT_EXIST;
 1625              		.loc 1 778 0
 1626 008c 7B68     		ldr	r3, [r7, #4]
 1627 008e 4322     		movs	r2, #67
 1628 0090 1A70     		strb	r2, [r3]
 779:..\..\..\..\..\..\Software\uCOS-II\Source/os_task.c ****         return;
 1629              		.loc 1 779 0
 1630 0092 14E0     		b	.L78
 1631              	.L84:
 780:..\..\..\..\..\..\Software\uCOS-II\Source/os_task.c ****     }
 781:..\..\..\..\..\..\Software\uCOS-II\Source/os_task.c ****     if (ptcb == OS_TCB_RESERVED) {                   /* Task assigned to a Mutex?                  
 1632              		.loc 1 781 0
 1633 0094 3B69     		ldr	r3, [r7, #16]
 1634 0096 012B     		cmp	r3, #1
 1635 0098 07D1     		bne	.L85
 782:..\..\..\..\..\..\Software\uCOS-II\Source/os_task.c ****         OS_EXIT_CRITICAL();                          /* Yes                                        
 1636              		.loc 1 782 0
 1637 009a 7B69     		ldr	r3, [r7, #20]
 1638 009c 1800     		movs	r0, r3
 1639 009e FFF7FEFF 		bl	OS_CPU_SR_Restore
 783:..\..\..\..\..\..\Software\uCOS-II\Source/os_task.c ****         *perr = OS_ERR_TASK_NOT_EXIST;
 1640              		.loc 1 783 0
 1641 00a2 7B68     		ldr	r3, [r7, #4]
 1642 00a4 4322     		movs	r2, #67
 1643 00a6 1A70     		strb	r2, [r3]
 784:..\..\..\..\..\..\Software\uCOS-II\Source/os_task.c ****         return;
 1644              		.loc 1 784 0
 1645 00a8 09E0     		b	.L78
 1646              	.L85:
 785:..\..\..\..\..\..\Software\uCOS-II\Source/os_task.c ****     }
 786:..\..\..\..\..\..\Software\uCOS-II\Source/os_task.c ****     ptcb->OSTCBTaskName = pname;
 1647              		.loc 1 786 0
 1648 00aa 3B69     		ldr	r3, [r7, #16]
 1649 00ac BA68     		ldr	r2, [r7, #8]
 1650 00ae 1A65     		str	r2, [r3, #80]
 787:..\..\..\..\..\..\Software\uCOS-II\Source/os_task.c ****     OS_EXIT_CRITICAL();
 1651              		.loc 1 787 0
 1652 00b0 7B69     		ldr	r3, [r7, #20]
 1653 00b2 1800     		movs	r0, r3
 1654 00b4 FFF7FEFF 		bl	OS_CPU_SR_Restore
 788:..\..\..\..\..\..\Software\uCOS-II\Source/os_task.c ****     *perr               = OS_ERR_NONE;
 1655              		.loc 1 788 0
 1656 00b8 7B68     		ldr	r3, [r7, #4]
 1657 00ba 0022     		movs	r2, #0
 1658 00bc 1A70     		strb	r2, [r3]
 1659              	.L78:
 789:..\..\..\..\..\..\Software\uCOS-II\Source/os_task.c **** }
 1660              		.loc 1 789 0
 1661 00be BD46     		mov	sp, r7
ARM GAS  C:\Users\ADMINI~1\AppData\Local\Temp\cc4JwS65.s 			page 44


 1662 00c0 06B0     		add	sp, sp, #24
 1663              		@ sp needed
 1664 00c2 80BD     		pop	{r7, pc}
 1665              	.L87:
 1666              		.align	2
 1667              	.L86:
 1668 00c4 00000000 		.word	OSIntNesting
 1669 00c8 00000000 		.word	OSTCBCur
 1670 00cc 00000000 		.word	OSTCBPrioTbl
 1671              		.cfi_endproc
 1672              	.LFE7:
 1673              		.size	OSTaskNameSet, .-OSTaskNameSet
 1674              		.section	.text.OSTaskResume,"ax",%progbits
 1675              		.align	2
 1676              		.global	OSTaskResume
 1677              		.code	16
 1678              		.thumb_func
 1679              		.type	OSTaskResume, %function
 1680              	OSTaskResume:
 1681              	.LFB8:
 790:..\..\..\..\..\..\Software\uCOS-II\Source/os_task.c **** #endif
 791:..\..\..\..\..\..\Software\uCOS-II\Source/os_task.c **** 
 792:..\..\..\..\..\..\Software\uCOS-II\Source/os_task.c **** /*$PAGE*/
 793:..\..\..\..\..\..\Software\uCOS-II\Source/os_task.c **** /*
 794:..\..\..\..\..\..\Software\uCOS-II\Source/os_task.c **** ***************************************************************************************************
 795:..\..\..\..\..\..\Software\uCOS-II\Source/os_task.c **** *                                       RESUME A SUSPENDED TASK
 796:..\..\..\..\..\..\Software\uCOS-II\Source/os_task.c **** *
 797:..\..\..\..\..\..\Software\uCOS-II\Source/os_task.c **** * Description: This function is called to resume a previously suspended task.  This is the only cal
 798:..\..\..\..\..\..\Software\uCOS-II\Source/os_task.c **** *              will remove an explicit task suspension.
 799:..\..\..\..\..\..\Software\uCOS-II\Source/os_task.c **** *
 800:..\..\..\..\..\..\Software\uCOS-II\Source/os_task.c **** * Arguments  : prio     is the priority of the task to resume.
 801:..\..\..\..\..\..\Software\uCOS-II\Source/os_task.c **** *
 802:..\..\..\..\..\..\Software\uCOS-II\Source/os_task.c **** * Returns    : OS_ERR_NONE                if the requested task is resumed
 803:..\..\..\..\..\..\Software\uCOS-II\Source/os_task.c **** *              OS_ERR_PRIO_INVALID        if the priority you specify is higher that the maximum al
 804:..\..\..\..\..\..\Software\uCOS-II\Source/os_task.c **** *                                         (i.e. >= OS_LOWEST_PRIO)
 805:..\..\..\..\..\..\Software\uCOS-II\Source/os_task.c **** *              OS_ERR_TASK_RESUME_PRIO    if the task to resume does not exist
 806:..\..\..\..\..\..\Software\uCOS-II\Source/os_task.c **** *              OS_ERR_TASK_NOT_EXIST      if the task is assigned to a Mutex PIP
 807:..\..\..\..\..\..\Software\uCOS-II\Source/os_task.c **** *              OS_ERR_TASK_NOT_SUSPENDED  if the task to resume has not been suspended
 808:..\..\..\..\..\..\Software\uCOS-II\Source/os_task.c **** ***************************************************************************************************
 809:..\..\..\..\..\..\Software\uCOS-II\Source/os_task.c **** */
 810:..\..\..\..\..\..\Software\uCOS-II\Source/os_task.c **** 
 811:..\..\..\..\..\..\Software\uCOS-II\Source/os_task.c **** #if OS_TASK_SUSPEND_EN > 0u
 812:..\..\..\..\..\..\Software\uCOS-II\Source/os_task.c **** INT8U  OSTaskResume (INT8U prio)
 813:..\..\..\..\..\..\Software\uCOS-II\Source/os_task.c **** {
 1682              		.loc 1 813 0
 1683              		.cfi_startproc
 1684              		@ args = 0, pretend = 0, frame = 16
 1685              		@ frame_needed = 1, uses_anonymous_args = 0
 1686 0000 80B5     		push	{r7, lr}
 1687              		.cfi_def_cfa_offset 8
 1688              		.cfi_offset 7, -8
 1689              		.cfi_offset 14, -4
 1690 0002 84B0     		sub	sp, sp, #16
 1691              		.cfi_def_cfa_offset 24
 1692 0004 00AF     		add	r7, sp, #0
 1693              		.cfi_def_cfa_register 7
 1694 0006 0200     		movs	r2, r0
ARM GAS  C:\Users\ADMINI~1\AppData\Local\Temp\cc4JwS65.s 			page 45


 1695 0008 FB1D     		adds	r3, r7, #7
 1696 000a 1A70     		strb	r2, [r3]
 814:..\..\..\..\..\..\Software\uCOS-II\Source/os_task.c ****     OS_TCB    *ptcb;
 815:..\..\..\..\..\..\Software\uCOS-II\Source/os_task.c **** #if OS_CRITICAL_METHOD == 3u                                  /* Storage for CPU status register   
 816:..\..\..\..\..\..\Software\uCOS-II\Source/os_task.c ****     OS_CPU_SR  cpu_sr = 0u;
 1697              		.loc 1 816 0
 1698 000c 0023     		movs	r3, #0
 1699 000e FB60     		str	r3, [r7, #12]
 817:..\..\..\..\..\..\Software\uCOS-II\Source/os_task.c **** #endif
 818:..\..\..\..\..\..\Software\uCOS-II\Source/os_task.c **** 
 819:..\..\..\..\..\..\Software\uCOS-II\Source/os_task.c **** 
 820:..\..\..\..\..\..\Software\uCOS-II\Source/os_task.c **** 
 821:..\..\..\..\..\..\Software\uCOS-II\Source/os_task.c **** #if OS_ARG_CHK_EN > 0u
 822:..\..\..\..\..\..\Software\uCOS-II\Source/os_task.c ****     if (prio >= OS_LOWEST_PRIO) {                             /* Make sure task priority is valid  
 1700              		.loc 1 822 0
 1701 0010 FB1D     		adds	r3, r7, #7
 1702 0012 1B78     		ldrb	r3, [r3]
 1703 0014 3E2B     		cmp	r3, #62
 1704 0016 01D9     		bls	.L89
 823:..\..\..\..\..\..\Software\uCOS-II\Source/os_task.c ****         return (OS_ERR_PRIO_INVALID);
 1705              		.loc 1 823 0
 1706 0018 2A23     		movs	r3, #42
 1707 001a 6BE0     		b	.L90
 1708              	.L89:
 824:..\..\..\..\..\..\Software\uCOS-II\Source/os_task.c ****     }
 825:..\..\..\..\..\..\Software\uCOS-II\Source/os_task.c **** #endif
 826:..\..\..\..\..\..\Software\uCOS-II\Source/os_task.c ****     OS_ENTER_CRITICAL();
 1709              		.loc 1 826 0
 1710 001c FFF7FEFF 		bl	OS_CPU_SR_Save
 1711 0020 0300     		movs	r3, r0
 1712 0022 FB60     		str	r3, [r7, #12]
 827:..\..\..\..\..\..\Software\uCOS-II\Source/os_task.c ****     ptcb = OSTCBPrioTbl[prio];
 1713              		.loc 1 827 0
 1714 0024 FB1D     		adds	r3, r7, #7
 1715 0026 1A78     		ldrb	r2, [r3]
 1716 0028 344B     		ldr	r3, .L99
 1717 002a 9200     		lsls	r2, r2, #2
 1718 002c D358     		ldr	r3, [r2, r3]
 1719 002e BB60     		str	r3, [r7, #8]
 828:..\..\..\..\..\..\Software\uCOS-II\Source/os_task.c ****     if (ptcb == (OS_TCB *)0) {                                /* Task to suspend must exist        
 1720              		.loc 1 828 0
 1721 0030 BB68     		ldr	r3, [r7, #8]
 1722 0032 002B     		cmp	r3, #0
 1723 0034 05D1     		bne	.L91
 829:..\..\..\..\..\..\Software\uCOS-II\Source/os_task.c ****         OS_EXIT_CRITICAL();
 1724              		.loc 1 829 0
 1725 0036 FB68     		ldr	r3, [r7, #12]
 1726 0038 1800     		movs	r0, r3
 1727 003a FFF7FEFF 		bl	OS_CPU_SR_Restore
 830:..\..\..\..\..\..\Software\uCOS-II\Source/os_task.c ****         return (OS_ERR_TASK_RESUME_PRIO);
 1728              		.loc 1 830 0
 1729 003e 4623     		movs	r3, #70
 1730 0040 58E0     		b	.L90
 1731              	.L91:
 831:..\..\..\..\..\..\Software\uCOS-II\Source/os_task.c ****     }
 832:..\..\..\..\..\..\Software\uCOS-II\Source/os_task.c ****     if (ptcb == OS_TCB_RESERVED) {                            /* See if assigned to Mutex          
 1732              		.loc 1 832 0
ARM GAS  C:\Users\ADMINI~1\AppData\Local\Temp\cc4JwS65.s 			page 46


 1733 0042 BB68     		ldr	r3, [r7, #8]
 1734 0044 012B     		cmp	r3, #1
 1735 0046 05D1     		bne	.L92
 833:..\..\..\..\..\..\Software\uCOS-II\Source/os_task.c ****         OS_EXIT_CRITICAL();
 1736              		.loc 1 833 0
 1737 0048 FB68     		ldr	r3, [r7, #12]
 1738 004a 1800     		movs	r0, r3
 1739 004c FFF7FEFF 		bl	OS_CPU_SR_Restore
 834:..\..\..\..\..\..\Software\uCOS-II\Source/os_task.c ****         return (OS_ERR_TASK_NOT_EXIST);
 1740              		.loc 1 834 0
 1741 0050 4323     		movs	r3, #67
 1742 0052 4FE0     		b	.L90
 1743              	.L92:
 835:..\..\..\..\..\..\Software\uCOS-II\Source/os_task.c ****     }
 836:..\..\..\..\..\..\Software\uCOS-II\Source/os_task.c ****     if ((ptcb->OSTCBStat & OS_STAT_SUSPEND) != OS_STAT_RDY) { /* Task must be suspended            
 1744              		.loc 1 836 0
 1745 0054 BB68     		ldr	r3, [r7, #8]
 1746 0056 3422     		movs	r2, #52
 1747 0058 9B5C     		ldrb	r3, [r3, r2]
 1748 005a 1A00     		movs	r2, r3
 1749 005c 0823     		movs	r3, #8
 1750 005e 1340     		ands	r3, r2
 1751 0060 43D0     		beq	.L93
 837:..\..\..\..\..\..\Software\uCOS-II\Source/os_task.c ****         ptcb->OSTCBStat &= (INT8U)~(INT8U)OS_STAT_SUSPEND;    /* Remove suspension                 
 1752              		.loc 1 837 0
 1753 0062 BB68     		ldr	r3, [r7, #8]
 1754 0064 3422     		movs	r2, #52
 1755 0066 9B5C     		ldrb	r3, [r3, r2]
 1756 0068 0822     		movs	r2, #8
 1757 006a 9343     		bics	r3, r2
 1758 006c D9B2     		uxtb	r1, r3
 1759 006e BB68     		ldr	r3, [r7, #8]
 1760 0070 3422     		movs	r2, #52
 1761 0072 9954     		strb	r1, [r3, r2]
 838:..\..\..\..\..\..\Software\uCOS-II\Source/os_task.c ****         if ((ptcb->OSTCBStat & OS_STAT_PEND_ANY) == OS_STAT_RDY) { /* See if task is now ready     
 1762              		.loc 1 838 0
 1763 0074 BB68     		ldr	r3, [r7, #8]
 1764 0076 3422     		movs	r2, #52
 1765 0078 9B5C     		ldrb	r3, [r3, r2]
 1766 007a 1A00     		movs	r2, r3
 1767 007c 3723     		movs	r3, #55
 1768 007e 1340     		ands	r3, r2
 1769 0080 2DD1     		bne	.L94
 839:..\..\..\..\..\..\Software\uCOS-II\Source/os_task.c ****             if (ptcb->OSTCBDly == 0u) {
 1770              		.loc 1 839 0
 1771 0082 BB68     		ldr	r3, [r7, #8]
 1772 0084 1B6B     		ldr	r3, [r3, #48]
 1773 0086 002B     		cmp	r3, #0
 1774 0088 24D1     		bne	.L95
 840:..\..\..\..\..\..\Software\uCOS-II\Source/os_task.c ****                 OSRdyGrp               |= ptcb->OSTCBBitY;    /* Yes, Make task ready to run       
 1775              		.loc 1 840 0
 1776 008a BB68     		ldr	r3, [r7, #8]
 1777 008c 3A22     		movs	r2, #58
 1778 008e 9A5C     		ldrb	r2, [r3, r2]
 1779 0090 1B4B     		ldr	r3, .L99+4
 1780 0092 1B78     		ldrb	r3, [r3]
 1781 0094 1343     		orrs	r3, r2
ARM GAS  C:\Users\ADMINI~1\AppData\Local\Temp\cc4JwS65.s 			page 47


 1782 0096 DAB2     		uxtb	r2, r3
 1783 0098 194B     		ldr	r3, .L99+4
 1784 009a 1A70     		strb	r2, [r3]
 841:..\..\..\..\..\..\Software\uCOS-II\Source/os_task.c ****                 OSRdyTbl[ptcb->OSTCBY] |= ptcb->OSTCBBitX;
 1785              		.loc 1 841 0
 1786 009c BB68     		ldr	r3, [r7, #8]
 1787 009e 3822     		movs	r2, #56
 1788 00a0 9B5C     		ldrb	r3, [r3, r2]
 1789 00a2 1800     		movs	r0, r3
 1790 00a4 BB68     		ldr	r3, [r7, #8]
 1791 00a6 3822     		movs	r2, #56
 1792 00a8 9B5C     		ldrb	r3, [r3, r2]
 1793 00aa 1A00     		movs	r2, r3
 1794 00ac 154B     		ldr	r3, .L99+8
 1795 00ae 9A5C     		ldrb	r2, [r3, r2]
 1796 00b0 BB68     		ldr	r3, [r7, #8]
 1797 00b2 3921     		movs	r1, #57
 1798 00b4 5B5C     		ldrb	r3, [r3, r1]
 1799 00b6 1343     		orrs	r3, r2
 1800 00b8 DAB2     		uxtb	r2, r3
 1801 00ba 124B     		ldr	r3, .L99+8
 1802 00bc 1A54     		strb	r2, [r3, r0]
 842:..\..\..\..\..\..\Software\uCOS-II\Source/os_task.c ****                 OS_EXIT_CRITICAL();
 1803              		.loc 1 842 0
 1804 00be FB68     		ldr	r3, [r7, #12]
 1805 00c0 1800     		movs	r0, r3
 1806 00c2 FFF7FEFF 		bl	OS_CPU_SR_Restore
 843:..\..\..\..\..\..\Software\uCOS-II\Source/os_task.c ****                 if (OSRunning == OS_TRUE) {
 1807              		.loc 1 843 0
 1808 00c6 104B     		ldr	r3, .L99+12
 1809 00c8 1B78     		ldrb	r3, [r3]
 1810 00ca 012B     		cmp	r3, #1
 1811 00cc 0BD1     		bne	.L98
 844:..\..\..\..\..\..\Software\uCOS-II\Source/os_task.c ****                     OS_Sched();                               /* Find new highest priority task    
 1812              		.loc 1 844 0
 1813 00ce FFF7FEFF 		bl	OS_Sched
 1814 00d2 08E0     		b	.L98
 1815              	.L95:
 845:..\..\..\..\..\..\Software\uCOS-II\Source/os_task.c ****                 }
 846:..\..\..\..\..\..\Software\uCOS-II\Source/os_task.c ****             } else {
 847:..\..\..\..\..\..\Software\uCOS-II\Source/os_task.c ****                 OS_EXIT_CRITICAL();
 1816              		.loc 1 847 0
 1817 00d4 FB68     		ldr	r3, [r7, #12]
 1818 00d6 1800     		movs	r0, r3
 1819 00d8 FFF7FEFF 		bl	OS_CPU_SR_Restore
 1820 00dc 03E0     		b	.L98
 1821              	.L94:
 848:..\..\..\..\..\..\Software\uCOS-II\Source/os_task.c ****             }
 849:..\..\..\..\..\..\Software\uCOS-II\Source/os_task.c ****         } else {                                              /* Must be pending on event          
 850:..\..\..\..\..\..\Software\uCOS-II\Source/os_task.c ****             OS_EXIT_CRITICAL();
 1822              		.loc 1 850 0
 1823 00de FB68     		ldr	r3, [r7, #12]
 1824 00e0 1800     		movs	r0, r3
 1825 00e2 FFF7FEFF 		bl	OS_CPU_SR_Restore
 1826              	.L98:
 851:..\..\..\..\..\..\Software\uCOS-II\Source/os_task.c ****         }
 852:..\..\..\..\..\..\Software\uCOS-II\Source/os_task.c ****         return (OS_ERR_NONE);
ARM GAS  C:\Users\ADMINI~1\AppData\Local\Temp\cc4JwS65.s 			page 48


 1827              		.loc 1 852 0
 1828 00e6 0023     		movs	r3, #0
 1829 00e8 04E0     		b	.L90
 1830              	.L93:
 853:..\..\..\..\..\..\Software\uCOS-II\Source/os_task.c ****     }
 854:..\..\..\..\..\..\Software\uCOS-II\Source/os_task.c ****     OS_EXIT_CRITICAL();
 1831              		.loc 1 854 0
 1832 00ea FB68     		ldr	r3, [r7, #12]
 1833 00ec 1800     		movs	r0, r3
 1834 00ee FFF7FEFF 		bl	OS_CPU_SR_Restore
 855:..\..\..\..\..\..\Software\uCOS-II\Source/os_task.c ****     return (OS_ERR_TASK_NOT_SUSPENDED);
 1835              		.loc 1 855 0
 1836 00f2 4423     		movs	r3, #68
 1837              	.L90:
 856:..\..\..\..\..\..\Software\uCOS-II\Source/os_task.c **** }
 1838              		.loc 1 856 0
 1839 00f4 1800     		movs	r0, r3
 1840 00f6 BD46     		mov	sp, r7
 1841 00f8 04B0     		add	sp, sp, #16
 1842              		@ sp needed
 1843 00fa 80BD     		pop	{r7, pc}
 1844              	.L100:
 1845              		.align	2
 1846              	.L99:
 1847 00fc 00000000 		.word	OSTCBPrioTbl
 1848 0100 00000000 		.word	OSRdyGrp
 1849 0104 00000000 		.word	OSRdyTbl
 1850 0108 00000000 		.word	OSRunning
 1851              		.cfi_endproc
 1852              	.LFE8:
 1853              		.size	OSTaskResume, .-OSTaskResume
 1854              		.section	.text.OSTaskStkChk,"ax",%progbits
 1855              		.align	2
 1856              		.global	OSTaskStkChk
 1857              		.code	16
 1858              		.thumb_func
 1859              		.type	OSTaskStkChk, %function
 1860              	OSTaskStkChk:
 1861              	.LFB9:
 857:..\..\..\..\..\..\Software\uCOS-II\Source/os_task.c **** #endif
 858:..\..\..\..\..\..\Software\uCOS-II\Source/os_task.c **** /*$PAGE*/
 859:..\..\..\..\..\..\Software\uCOS-II\Source/os_task.c **** /*
 860:..\..\..\..\..\..\Software\uCOS-II\Source/os_task.c **** ***************************************************************************************************
 861:..\..\..\..\..\..\Software\uCOS-II\Source/os_task.c **** *                                           STACK CHECKING
 862:..\..\..\..\..\..\Software\uCOS-II\Source/os_task.c **** *
 863:..\..\..\..\..\..\Software\uCOS-II\Source/os_task.c **** * Description: This function is called to check the amount of free memory left on the specified tas
 864:..\..\..\..\..\..\Software\uCOS-II\Source/os_task.c **** *              stack.
 865:..\..\..\..\..\..\Software\uCOS-II\Source/os_task.c **** *
 866:..\..\..\..\..\..\Software\uCOS-II\Source/os_task.c **** * Arguments  : prio          is the task priority
 867:..\..\..\..\..\..\Software\uCOS-II\Source/os_task.c **** *
 868:..\..\..\..\..\..\Software\uCOS-II\Source/os_task.c **** *              p_stk_data    is a pointer to a data structure of type OS_STK_DATA.
 869:..\..\..\..\..\..\Software\uCOS-II\Source/os_task.c **** *
 870:..\..\..\..\..\..\Software\uCOS-II\Source/os_task.c **** * Returns    : OS_ERR_NONE            upon success
 871:..\..\..\..\..\..\Software\uCOS-II\Source/os_task.c **** *              OS_ERR_PRIO_INVALID    if the priority you specify is higher that the maximum allowe
 872:..\..\..\..\..\..\Software\uCOS-II\Source/os_task.c **** *                                     (i.e. > OS_LOWEST_PRIO) or, you have not specified OS_PRIO_SE
 873:..\..\..\..\..\..\Software\uCOS-II\Source/os_task.c **** *              OS_ERR_TASK_NOT_EXIST  if the desired task has not been created or is assigned to a 
 874:..\..\..\..\..\..\Software\uCOS-II\Source/os_task.c **** *              OS_ERR_TASK_OPT        if you did NOT specified OS_TASK_OPT_STK_CHK when the task wa
ARM GAS  C:\Users\ADMINI~1\AppData\Local\Temp\cc4JwS65.s 			page 49


 875:..\..\..\..\..\..\Software\uCOS-II\Source/os_task.c **** *              OS_ERR_PDATA_NULL      if 'p_stk_data' is a NULL pointer
 876:..\..\..\..\..\..\Software\uCOS-II\Source/os_task.c **** ***************************************************************************************************
 877:..\..\..\..\..\..\Software\uCOS-II\Source/os_task.c **** */
 878:..\..\..\..\..\..\Software\uCOS-II\Source/os_task.c **** #if (OS_TASK_STAT_STK_CHK_EN > 0u) && (OS_TASK_CREATE_EXT_EN > 0u)
 879:..\..\..\..\..\..\Software\uCOS-II\Source/os_task.c **** INT8U  OSTaskStkChk (INT8U         prio,
 880:..\..\..\..\..\..\Software\uCOS-II\Source/os_task.c ****                      OS_STK_DATA  *p_stk_data)
 881:..\..\..\..\..\..\Software\uCOS-II\Source/os_task.c **** {
 1862              		.loc 1 881 0
 1863              		.cfi_startproc
 1864              		@ args = 0, pretend = 0, frame = 32
 1865              		@ frame_needed = 1, uses_anonymous_args = 0
 1866 0000 80B5     		push	{r7, lr}
 1867              		.cfi_def_cfa_offset 8
 1868              		.cfi_offset 7, -8
 1869              		.cfi_offset 14, -4
 1870 0002 88B0     		sub	sp, sp, #32
 1871              		.cfi_def_cfa_offset 40
 1872 0004 00AF     		add	r7, sp, #0
 1873              		.cfi_def_cfa_register 7
 1874 0006 0200     		movs	r2, r0
 1875 0008 3960     		str	r1, [r7]
 1876 000a FB1D     		adds	r3, r7, #7
 1877 000c 1A70     		strb	r2, [r3]
 882:..\..\..\..\..\..\Software\uCOS-II\Source/os_task.c ****     OS_TCB    *ptcb;
 883:..\..\..\..\..\..\Software\uCOS-II\Source/os_task.c ****     OS_STK    *pchk;
 884:..\..\..\..\..\..\Software\uCOS-II\Source/os_task.c ****     INT32U     nfree;
 885:..\..\..\..\..\..\Software\uCOS-II\Source/os_task.c ****     INT32U     size;
 886:..\..\..\..\..\..\Software\uCOS-II\Source/os_task.c **** #if OS_CRITICAL_METHOD == 3u                           /* Allocate storage for CPU status register 
 887:..\..\..\..\..\..\Software\uCOS-II\Source/os_task.c ****     OS_CPU_SR  cpu_sr = 0u;
 1878              		.loc 1 887 0
 1879 000e 0023     		movs	r3, #0
 1880 0010 7B61     		str	r3, [r7, #20]
 888:..\..\..\..\..\..\Software\uCOS-II\Source/os_task.c **** #endif
 889:..\..\..\..\..\..\Software\uCOS-II\Source/os_task.c **** 
 890:..\..\..\..\..\..\Software\uCOS-II\Source/os_task.c **** 
 891:..\..\..\..\..\..\Software\uCOS-II\Source/os_task.c **** 
 892:..\..\..\..\..\..\Software\uCOS-II\Source/os_task.c **** #if OS_ARG_CHK_EN > 0u
 893:..\..\..\..\..\..\Software\uCOS-II\Source/os_task.c ****     if (prio > OS_LOWEST_PRIO) {                       /* Make sure task priority is valid         
 1881              		.loc 1 893 0
 1882 0012 FB1D     		adds	r3, r7, #7
 1883 0014 1B78     		ldrb	r3, [r3]
 1884 0016 3F2B     		cmp	r3, #63
 1885 0018 05D9     		bls	.L102
 894:..\..\..\..\..\..\Software\uCOS-II\Source/os_task.c ****         if (prio != OS_PRIO_SELF) {
 1886              		.loc 1 894 0
 1887 001a FB1D     		adds	r3, r7, #7
 1888 001c 1B78     		ldrb	r3, [r3]
 1889 001e FF2B     		cmp	r3, #255
 1890 0020 01D0     		beq	.L102
 895:..\..\..\..\..\..\Software\uCOS-II\Source/os_task.c ****             return (OS_ERR_PRIO_INVALID);
 1891              		.loc 1 895 0
 1892 0022 2A23     		movs	r3, #42
 1893 0024 5BE0     		b	.L103
 1894              	.L102:
 896:..\..\..\..\..\..\Software\uCOS-II\Source/os_task.c ****         }
 897:..\..\..\..\..\..\Software\uCOS-II\Source/os_task.c ****     }
 898:..\..\..\..\..\..\Software\uCOS-II\Source/os_task.c ****     if (p_stk_data == (OS_STK_DATA *)0) {              /* Validate 'p_stk_data'                    
ARM GAS  C:\Users\ADMINI~1\AppData\Local\Temp\cc4JwS65.s 			page 50


 1895              		.loc 1 898 0
 1896 0026 3B68     		ldr	r3, [r7]
 1897 0028 002B     		cmp	r3, #0
 1898 002a 01D1     		bne	.L104
 899:..\..\..\..\..\..\Software\uCOS-II\Source/os_task.c ****         return (OS_ERR_PDATA_NULL);
 1899              		.loc 1 899 0
 1900 002c 0923     		movs	r3, #9
 1901 002e 56E0     		b	.L103
 1902              	.L104:
 900:..\..\..\..\..\..\Software\uCOS-II\Source/os_task.c ****     }
 901:..\..\..\..\..\..\Software\uCOS-II\Source/os_task.c **** #endif
 902:..\..\..\..\..\..\Software\uCOS-II\Source/os_task.c ****     p_stk_data->OSFree = 0u;                           /* Assume failure, set to 0 size            
 1903              		.loc 1 902 0
 1904 0030 3B68     		ldr	r3, [r7]
 1905 0032 0022     		movs	r2, #0
 1906 0034 1A60     		str	r2, [r3]
 903:..\..\..\..\..\..\Software\uCOS-II\Source/os_task.c ****     p_stk_data->OSUsed = 0u;
 1907              		.loc 1 903 0
 1908 0036 3B68     		ldr	r3, [r7]
 1909 0038 0022     		movs	r2, #0
 1910 003a 5A60     		str	r2, [r3, #4]
 904:..\..\..\..\..\..\Software\uCOS-II\Source/os_task.c ****     OS_ENTER_CRITICAL();
 1911              		.loc 1 904 0
 1912 003c FFF7FEFF 		bl	OS_CPU_SR_Save
 1913 0040 0300     		movs	r3, r0
 1914 0042 7B61     		str	r3, [r7, #20]
 905:..\..\..\..\..\..\Software\uCOS-II\Source/os_task.c ****     if (prio == OS_PRIO_SELF) {                        /* See if check for SELF                    
 1915              		.loc 1 905 0
 1916 0044 FB1D     		adds	r3, r7, #7
 1917 0046 1B78     		ldrb	r3, [r3]
 1918 0048 FF2B     		cmp	r3, #255
 1919 004a 05D1     		bne	.L105
 906:..\..\..\..\..\..\Software\uCOS-II\Source/os_task.c ****         prio = OSTCBCur->OSTCBPrio;
 1920              		.loc 1 906 0
 1921 004c 264B     		ldr	r3, .L111
 1922 004e 1A68     		ldr	r2, [r3]
 1923 0050 FB1D     		adds	r3, r7, #7
 1924 0052 3621     		movs	r1, #54
 1925 0054 525C     		ldrb	r2, [r2, r1]
 1926 0056 1A70     		strb	r2, [r3]
 1927              	.L105:
 907:..\..\..\..\..\..\Software\uCOS-II\Source/os_task.c ****     }
 908:..\..\..\..\..\..\Software\uCOS-II\Source/os_task.c ****     ptcb = OSTCBPrioTbl[prio];
 1928              		.loc 1 908 0
 1929 0058 FB1D     		adds	r3, r7, #7
 1930 005a 1A78     		ldrb	r2, [r3]
 1931 005c 234B     		ldr	r3, .L111+4
 1932 005e 9200     		lsls	r2, r2, #2
 1933 0060 D358     		ldr	r3, [r2, r3]
 1934 0062 3B61     		str	r3, [r7, #16]
 909:..\..\..\..\..\..\Software\uCOS-II\Source/os_task.c ****     if (ptcb == (OS_TCB *)0) {                         /* Make sure task exist                     
 1935              		.loc 1 909 0
 1936 0064 3B69     		ldr	r3, [r7, #16]
 1937 0066 002B     		cmp	r3, #0
 1938 0068 05D1     		bne	.L106
 910:..\..\..\..\..\..\Software\uCOS-II\Source/os_task.c ****         OS_EXIT_CRITICAL();
 1939              		.loc 1 910 0
ARM GAS  C:\Users\ADMINI~1\AppData\Local\Temp\cc4JwS65.s 			page 51


 1940 006a 7B69     		ldr	r3, [r7, #20]
 1941 006c 1800     		movs	r0, r3
 1942 006e FFF7FEFF 		bl	OS_CPU_SR_Restore
 911:..\..\..\..\..\..\Software\uCOS-II\Source/os_task.c ****         return (OS_ERR_TASK_NOT_EXIST);
 1943              		.loc 1 911 0
 1944 0072 4323     		movs	r3, #67
 1945 0074 33E0     		b	.L103
 1946              	.L106:
 912:..\..\..\..\..\..\Software\uCOS-II\Source/os_task.c ****     }
 913:..\..\..\..\..\..\Software\uCOS-II\Source/os_task.c ****     if (ptcb == OS_TCB_RESERVED) {
 1947              		.loc 1 913 0
 1948 0076 3B69     		ldr	r3, [r7, #16]
 1949 0078 012B     		cmp	r3, #1
 1950 007a 05D1     		bne	.L107
 914:..\..\..\..\..\..\Software\uCOS-II\Source/os_task.c ****         OS_EXIT_CRITICAL();
 1951              		.loc 1 914 0
 1952 007c 7B69     		ldr	r3, [r7, #20]
 1953 007e 1800     		movs	r0, r3
 1954 0080 FFF7FEFF 		bl	OS_CPU_SR_Restore
 915:..\..\..\..\..\..\Software\uCOS-II\Source/os_task.c ****         return (OS_ERR_TASK_NOT_EXIST);
 1955              		.loc 1 915 0
 1956 0084 4323     		movs	r3, #67
 1957 0086 2AE0     		b	.L103
 1958              	.L107:
 916:..\..\..\..\..\..\Software\uCOS-II\Source/os_task.c ****     }
 917:..\..\..\..\..\..\Software\uCOS-II\Source/os_task.c ****     if ((ptcb->OSTCBOpt & OS_TASK_OPT_STK_CHK) == 0u) { /* Make sure stack checking option is set  
 1959              		.loc 1 917 0
 1960 0088 3B69     		ldr	r3, [r7, #16]
 1961 008a 1B8A     		ldrh	r3, [r3, #16]
 1962 008c 1A00     		movs	r2, r3
 1963 008e 0123     		movs	r3, #1
 1964 0090 1340     		ands	r3, r2
 1965 0092 05D1     		bne	.L108
 918:..\..\..\..\..\..\Software\uCOS-II\Source/os_task.c ****         OS_EXIT_CRITICAL();
 1966              		.loc 1 918 0
 1967 0094 7B69     		ldr	r3, [r7, #20]
 1968 0096 1800     		movs	r0, r3
 1969 0098 FFF7FEFF 		bl	OS_CPU_SR_Restore
 919:..\..\..\..\..\..\Software\uCOS-II\Source/os_task.c ****         return (OS_ERR_TASK_OPT);
 1970              		.loc 1 919 0
 1971 009c 4523     		movs	r3, #69
 1972 009e 1EE0     		b	.L103
 1973              	.L108:
 920:..\..\..\..\..\..\Software\uCOS-II\Source/os_task.c ****     }
 921:..\..\..\..\..\..\Software\uCOS-II\Source/os_task.c ****     nfree = 0u;
 1974              		.loc 1 921 0
 1975 00a0 0023     		movs	r3, #0
 1976 00a2 BB61     		str	r3, [r7, #24]
 922:..\..\..\..\..\..\Software\uCOS-II\Source/os_task.c ****     size  = ptcb->OSTCBStkSize;
 1977              		.loc 1 922 0
 1978 00a4 3B69     		ldr	r3, [r7, #16]
 1979 00a6 DB68     		ldr	r3, [r3, #12]
 1980 00a8 FB60     		str	r3, [r7, #12]
 923:..\..\..\..\..\..\Software\uCOS-II\Source/os_task.c ****     pchk  = ptcb->OSTCBStkBottom;
 1981              		.loc 1 923 0
 1982 00aa 3B69     		ldr	r3, [r7, #16]
 1983 00ac 9B68     		ldr	r3, [r3, #8]
ARM GAS  C:\Users\ADMINI~1\AppData\Local\Temp\cc4JwS65.s 			page 52


 1984 00ae FB61     		str	r3, [r7, #28]
 924:..\..\..\..\..\..\Software\uCOS-II\Source/os_task.c ****     OS_EXIT_CRITICAL();
 1985              		.loc 1 924 0
 1986 00b0 7B69     		ldr	r3, [r7, #20]
 1987 00b2 1800     		movs	r0, r3
 1988 00b4 FFF7FEFF 		bl	OS_CPU_SR_Restore
 925:..\..\..\..\..\..\Software\uCOS-II\Source/os_task.c **** #if OS_STK_GROWTH == 1u
 926:..\..\..\..\..\..\Software\uCOS-II\Source/os_task.c ****     while (*pchk++ == (OS_STK)0) {                    /* Compute the number of zero entries on the 
 1989              		.loc 1 926 0
 1990 00b8 02E0     		b	.L109
 1991              	.L110:
 927:..\..\..\..\..\..\Software\uCOS-II\Source/os_task.c ****         nfree++;
 1992              		.loc 1 927 0
 1993 00ba BB69     		ldr	r3, [r7, #24]
 1994 00bc 0133     		adds	r3, r3, #1
 1995 00be BB61     		str	r3, [r7, #24]
 1996              	.L109:
 926:..\..\..\..\..\..\Software\uCOS-II\Source/os_task.c ****         nfree++;
 1997              		.loc 1 926 0
 1998 00c0 FB69     		ldr	r3, [r7, #28]
 1999 00c2 1A1D     		adds	r2, r3, #4
 2000 00c4 FA61     		str	r2, [r7, #28]
 2001 00c6 1B68     		ldr	r3, [r3]
 2002 00c8 002B     		cmp	r3, #0
 2003 00ca F6D0     		beq	.L110
 928:..\..\..\..\..\..\Software\uCOS-II\Source/os_task.c ****     }
 929:..\..\..\..\..\..\Software\uCOS-II\Source/os_task.c **** #else
 930:..\..\..\..\..\..\Software\uCOS-II\Source/os_task.c ****     while (*pchk-- == (OS_STK)0) {
 931:..\..\..\..\..\..\Software\uCOS-II\Source/os_task.c ****         nfree++;
 932:..\..\..\..\..\..\Software\uCOS-II\Source/os_task.c ****     }
 933:..\..\..\..\..\..\Software\uCOS-II\Source/os_task.c **** #endif
 934:..\..\..\..\..\..\Software\uCOS-II\Source/os_task.c ****     p_stk_data->OSFree = nfree;                       /* Store   number of free entries on the stk 
 2004              		.loc 1 934 0
 2005 00cc 3B68     		ldr	r3, [r7]
 2006 00ce BA69     		ldr	r2, [r7, #24]
 2007 00d0 1A60     		str	r2, [r3]
 935:..\..\..\..\..\..\Software\uCOS-II\Source/os_task.c ****     p_stk_data->OSUsed = size - nfree;                /* Compute number of entries used on the stk 
 2008              		.loc 1 935 0
 2009 00d2 FA68     		ldr	r2, [r7, #12]
 2010 00d4 BB69     		ldr	r3, [r7, #24]
 2011 00d6 D21A     		subs	r2, r2, r3
 2012 00d8 3B68     		ldr	r3, [r7]
 2013 00da 5A60     		str	r2, [r3, #4]
 936:..\..\..\..\..\..\Software\uCOS-II\Source/os_task.c ****     return (OS_ERR_NONE);
 2014              		.loc 1 936 0
 2015 00dc 0023     		movs	r3, #0
 2016              	.L103:
 937:..\..\..\..\..\..\Software\uCOS-II\Source/os_task.c **** }
 2017              		.loc 1 937 0
 2018 00de 1800     		movs	r0, r3
 2019 00e0 BD46     		mov	sp, r7
 2020 00e2 08B0     		add	sp, sp, #32
 2021              		@ sp needed
 2022 00e4 80BD     		pop	{r7, pc}
 2023              	.L112:
 2024 00e6 C046     		.align	2
 2025              	.L111:
ARM GAS  C:\Users\ADMINI~1\AppData\Local\Temp\cc4JwS65.s 			page 53


 2026 00e8 00000000 		.word	OSTCBCur
 2027 00ec 00000000 		.word	OSTCBPrioTbl
 2028              		.cfi_endproc
 2029              	.LFE9:
 2030              		.size	OSTaskStkChk, .-OSTaskStkChk
 2031              		.section	.text.OSTaskSuspend,"ax",%progbits
 2032              		.align	2
 2033              		.global	OSTaskSuspend
 2034              		.code	16
 2035              		.thumb_func
 2036              		.type	OSTaskSuspend, %function
 2037              	OSTaskSuspend:
 2038              	.LFB10:
 938:..\..\..\..\..\..\Software\uCOS-II\Source/os_task.c **** #endif
 939:..\..\..\..\..\..\Software\uCOS-II\Source/os_task.c **** /*$PAGE*/
 940:..\..\..\..\..\..\Software\uCOS-II\Source/os_task.c **** /*
 941:..\..\..\..\..\..\Software\uCOS-II\Source/os_task.c **** ***************************************************************************************************
 942:..\..\..\..\..\..\Software\uCOS-II\Source/os_task.c **** *                                           SUSPEND A TASK
 943:..\..\..\..\..\..\Software\uCOS-II\Source/os_task.c **** *
 944:..\..\..\..\..\..\Software\uCOS-II\Source/os_task.c **** * Description: This function is called to suspend a task.  The task can be the calling task if the
 945:..\..\..\..\..\..\Software\uCOS-II\Source/os_task.c **** *              priority passed to OSTaskSuspend() is the priority of the calling task or OS_PRIO_SE
 946:..\..\..\..\..\..\Software\uCOS-II\Source/os_task.c **** *
 947:..\..\..\..\..\..\Software\uCOS-II\Source/os_task.c **** * Arguments  : prio     is the priority of the task to suspend.  If you specify OS_PRIO_SELF, the
 948:..\..\..\..\..\..\Software\uCOS-II\Source/os_task.c **** *                       calling task will suspend itself and rescheduling will occur.
 949:..\..\..\..\..\..\Software\uCOS-II\Source/os_task.c **** *
 950:..\..\..\..\..\..\Software\uCOS-II\Source/os_task.c **** * Returns    : OS_ERR_NONE               if the requested task is suspended
 951:..\..\..\..\..\..\Software\uCOS-II\Source/os_task.c **** *              OS_ERR_TASK_SUSPEND_IDLE  if you attempted to suspend the idle task which is not all
 952:..\..\..\..\..\..\Software\uCOS-II\Source/os_task.c **** *              OS_ERR_PRIO_INVALID       if the priority you specify is higher that the maximum all
 953:..\..\..\..\..\..\Software\uCOS-II\Source/os_task.c **** *                                        (i.e. >= OS_LOWEST_PRIO) or, you have not specified OS_PRI
 954:..\..\..\..\..\..\Software\uCOS-II\Source/os_task.c **** *              OS_ERR_TASK_SUSPEND_PRIO  if the task to suspend does not exist
 955:..\..\..\..\..\..\Software\uCOS-II\Source/os_task.c **** *              OS_ERR_TASK_NOT_EXITS     if the task is assigned to a Mutex PIP
 956:..\..\..\..\..\..\Software\uCOS-II\Source/os_task.c **** *
 957:..\..\..\..\..\..\Software\uCOS-II\Source/os_task.c **** * Note       : You should use this function with great care.  If you suspend a task that is waiting
 958:..\..\..\..\..\..\Software\uCOS-II\Source/os_task.c **** *              an event (i.e. a message, a semaphore, a queue ...) you will prevent this task from
 959:..\..\..\..\..\..\Software\uCOS-II\Source/os_task.c **** *              running when the event arrives.
 960:..\..\..\..\..\..\Software\uCOS-II\Source/os_task.c **** ***************************************************************************************************
 961:..\..\..\..\..\..\Software\uCOS-II\Source/os_task.c **** */
 962:..\..\..\..\..\..\Software\uCOS-II\Source/os_task.c **** 
 963:..\..\..\..\..\..\Software\uCOS-II\Source/os_task.c **** #if OS_TASK_SUSPEND_EN > 0u
 964:..\..\..\..\..\..\Software\uCOS-II\Source/os_task.c **** INT8U  OSTaskSuspend (INT8U prio)
 965:..\..\..\..\..\..\Software\uCOS-II\Source/os_task.c **** {
 2039              		.loc 1 965 0
 2040              		.cfi_startproc
 2041              		@ args = 0, pretend = 0, frame = 24
 2042              		@ frame_needed = 1, uses_anonymous_args = 0
 2043 0000 80B5     		push	{r7, lr}
 2044              		.cfi_def_cfa_offset 8
 2045              		.cfi_offset 7, -8
 2046              		.cfi_offset 14, -4
 2047 0002 86B0     		sub	sp, sp, #24
 2048              		.cfi_def_cfa_offset 32
 2049 0004 00AF     		add	r7, sp, #0
 2050              		.cfi_def_cfa_register 7
 2051 0006 0200     		movs	r2, r0
 2052 0008 FB1D     		adds	r3, r7, #7
 2053 000a 1A70     		strb	r2, [r3]
 966:..\..\..\..\..\..\Software\uCOS-II\Source/os_task.c ****     BOOLEAN    self;
ARM GAS  C:\Users\ADMINI~1\AppData\Local\Temp\cc4JwS65.s 			page 54


 967:..\..\..\..\..\..\Software\uCOS-II\Source/os_task.c ****     OS_TCB    *ptcb;
 968:..\..\..\..\..\..\Software\uCOS-II\Source/os_task.c ****     INT8U      y;
 969:..\..\..\..\..\..\Software\uCOS-II\Source/os_task.c **** #if OS_CRITICAL_METHOD == 3u                     /* Allocate storage for CPU status register       
 970:..\..\..\..\..\..\Software\uCOS-II\Source/os_task.c ****     OS_CPU_SR  cpu_sr = 0u;
 2054              		.loc 1 970 0
 2055 000c 0023     		movs	r3, #0
 2056 000e 3B61     		str	r3, [r7, #16]
 971:..\..\..\..\..\..\Software\uCOS-II\Source/os_task.c **** #endif
 972:..\..\..\..\..\..\Software\uCOS-II\Source/os_task.c **** 
 973:..\..\..\..\..\..\Software\uCOS-II\Source/os_task.c **** 
 974:..\..\..\..\..\..\Software\uCOS-II\Source/os_task.c **** 
 975:..\..\..\..\..\..\Software\uCOS-II\Source/os_task.c **** #if OS_ARG_CHK_EN > 0u
 976:..\..\..\..\..\..\Software\uCOS-II\Source/os_task.c ****     if (prio == OS_TASK_IDLE_PRIO) {                            /* Not allowed to suspend idle task
 2057              		.loc 1 976 0
 2058 0010 FB1D     		adds	r3, r7, #7
 2059 0012 1B78     		ldrb	r3, [r3]
 2060 0014 3F2B     		cmp	r3, #63
 2061 0016 01D1     		bne	.L114
 977:..\..\..\..\..\..\Software\uCOS-II\Source/os_task.c ****         return (OS_ERR_TASK_SUSPEND_IDLE);
 2062              		.loc 1 977 0
 2063 0018 4723     		movs	r3, #71
 2064 001a 83E0     		b	.L115
 2065              	.L114:
 978:..\..\..\..\..\..\Software\uCOS-II\Source/os_task.c ****     }
 979:..\..\..\..\..\..\Software\uCOS-II\Source/os_task.c ****     if (prio >= OS_LOWEST_PRIO) {                               /* Task priority valid ?           
 2066              		.loc 1 979 0
 2067 001c FB1D     		adds	r3, r7, #7
 2068 001e 1B78     		ldrb	r3, [r3]
 2069 0020 3E2B     		cmp	r3, #62
 2070 0022 05D9     		bls	.L116
 980:..\..\..\..\..\..\Software\uCOS-II\Source/os_task.c ****         if (prio != OS_PRIO_SELF) {
 2071              		.loc 1 980 0
 2072 0024 FB1D     		adds	r3, r7, #7
 2073 0026 1B78     		ldrb	r3, [r3]
 2074 0028 FF2B     		cmp	r3, #255
 2075 002a 01D0     		beq	.L116
 981:..\..\..\..\..\..\Software\uCOS-II\Source/os_task.c ****             return (OS_ERR_PRIO_INVALID);
 2076              		.loc 1 981 0
 2077 002c 2A23     		movs	r3, #42
 2078 002e 79E0     		b	.L115
 2079              	.L116:
 982:..\..\..\..\..\..\Software\uCOS-II\Source/os_task.c ****         }
 983:..\..\..\..\..\..\Software\uCOS-II\Source/os_task.c ****     }
 984:..\..\..\..\..\..\Software\uCOS-II\Source/os_task.c **** #endif
 985:..\..\..\..\..\..\Software\uCOS-II\Source/os_task.c ****     OS_ENTER_CRITICAL();
 2080              		.loc 1 985 0
 2081 0030 FFF7FEFF 		bl	OS_CPU_SR_Save
 2082 0034 0300     		movs	r3, r0
 2083 0036 3B61     		str	r3, [r7, #16]
 986:..\..\..\..\..\..\Software\uCOS-II\Source/os_task.c ****     if (prio == OS_PRIO_SELF) {                                 /* See if suspend SELF             
 2084              		.loc 1 986 0
 2085 0038 FB1D     		adds	r3, r7, #7
 2086 003a 1B78     		ldrb	r3, [r3]
 2087 003c FF2B     		cmp	r3, #255
 2088 003e 0AD1     		bne	.L117
 987:..\..\..\..\..\..\Software\uCOS-II\Source/os_task.c ****         prio = OSTCBCur->OSTCBPrio;
 2089              		.loc 1 987 0
ARM GAS  C:\Users\ADMINI~1\AppData\Local\Temp\cc4JwS65.s 			page 55


 2090 0040 3A4B     		ldr	r3, .L124
 2091 0042 1A68     		ldr	r2, [r3]
 2092 0044 FB1D     		adds	r3, r7, #7
 2093 0046 3621     		movs	r1, #54
 2094 0048 525C     		ldrb	r2, [r2, r1]
 2095 004a 1A70     		strb	r2, [r3]
 988:..\..\..\..\..\..\Software\uCOS-II\Source/os_task.c ****         self = OS_TRUE;
 2096              		.loc 1 988 0
 2097 004c 1723     		movs	r3, #23
 2098 004e FB18     		adds	r3, r7, r3
 2099 0050 0122     		movs	r2, #1
 2100 0052 1A70     		strb	r2, [r3]
 2101 0054 10E0     		b	.L118
 2102              	.L117:
 989:..\..\..\..\..\..\Software\uCOS-II\Source/os_task.c ****     } else if (prio == OSTCBCur->OSTCBPrio) {                   /* See if suspending self          
 2103              		.loc 1 989 0
 2104 0056 354B     		ldr	r3, .L124
 2105 0058 1B68     		ldr	r3, [r3]
 2106 005a 3622     		movs	r2, #54
 2107 005c 9B5C     		ldrb	r3, [r3, r2]
 2108 005e FA1D     		adds	r2, r7, #7
 2109 0060 1278     		ldrb	r2, [r2]
 2110 0062 9A42     		cmp	r2, r3
 2111 0064 04D1     		bne	.L119
 990:..\..\..\..\..\..\Software\uCOS-II\Source/os_task.c ****         self = OS_TRUE;
 2112              		.loc 1 990 0
 2113 0066 1723     		movs	r3, #23
 2114 0068 FB18     		adds	r3, r7, r3
 2115 006a 0122     		movs	r2, #1
 2116 006c 1A70     		strb	r2, [r3]
 2117 006e 03E0     		b	.L118
 2118              	.L119:
 991:..\..\..\..\..\..\Software\uCOS-II\Source/os_task.c ****     } else {
 992:..\..\..\..\..\..\Software\uCOS-II\Source/os_task.c ****         self = OS_FALSE;                                        /* No suspending another task      
 2119              		.loc 1 992 0
 2120 0070 1723     		movs	r3, #23
 2121 0072 FB18     		adds	r3, r7, r3
 2122 0074 0022     		movs	r2, #0
 2123 0076 1A70     		strb	r2, [r3]
 2124              	.L118:
 993:..\..\..\..\..\..\Software\uCOS-II\Source/os_task.c ****     }
 994:..\..\..\..\..\..\Software\uCOS-II\Source/os_task.c ****     ptcb = OSTCBPrioTbl[prio];
 2125              		.loc 1 994 0
 2126 0078 FB1D     		adds	r3, r7, #7
 2127 007a 1A78     		ldrb	r2, [r3]
 2128 007c 2C4B     		ldr	r3, .L124+4
 2129 007e 9200     		lsls	r2, r2, #2
 2130 0080 D358     		ldr	r3, [r2, r3]
 2131 0082 FB60     		str	r3, [r7, #12]
 995:..\..\..\..\..\..\Software\uCOS-II\Source/os_task.c ****     if (ptcb == (OS_TCB *)0) {                                  /* Task to suspend must exist      
 2132              		.loc 1 995 0
 2133 0084 FB68     		ldr	r3, [r7, #12]
 2134 0086 002B     		cmp	r3, #0
 2135 0088 05D1     		bne	.L120
 996:..\..\..\..\..\..\Software\uCOS-II\Source/os_task.c ****         OS_EXIT_CRITICAL();
 2136              		.loc 1 996 0
 2137 008a 3B69     		ldr	r3, [r7, #16]
ARM GAS  C:\Users\ADMINI~1\AppData\Local\Temp\cc4JwS65.s 			page 56


 2138 008c 1800     		movs	r0, r3
 2139 008e FFF7FEFF 		bl	OS_CPU_SR_Restore
 997:..\..\..\..\..\..\Software\uCOS-II\Source/os_task.c ****         return (OS_ERR_TASK_SUSPEND_PRIO);
 2140              		.loc 1 997 0
 2141 0092 4823     		movs	r3, #72
 2142 0094 46E0     		b	.L115
 2143              	.L120:
 998:..\..\..\..\..\..\Software\uCOS-II\Source/os_task.c ****     }
 999:..\..\..\..\..\..\Software\uCOS-II\Source/os_task.c ****     if (ptcb == OS_TCB_RESERVED) {                              /* See if assigned to Mutex        
 2144              		.loc 1 999 0
 2145 0096 FB68     		ldr	r3, [r7, #12]
 2146 0098 012B     		cmp	r3, #1
 2147 009a 05D1     		bne	.L121
1000:..\..\..\..\..\..\Software\uCOS-II\Source/os_task.c ****         OS_EXIT_CRITICAL();
 2148              		.loc 1 1000 0
 2149 009c 3B69     		ldr	r3, [r7, #16]
 2150 009e 1800     		movs	r0, r3
 2151 00a0 FFF7FEFF 		bl	OS_CPU_SR_Restore
1001:..\..\..\..\..\..\Software\uCOS-II\Source/os_task.c ****         return (OS_ERR_TASK_NOT_EXIST);
 2152              		.loc 1 1001 0
 2153 00a4 4323     		movs	r3, #67
 2154 00a6 3DE0     		b	.L115
 2155              	.L121:
1002:..\..\..\..\..\..\Software\uCOS-II\Source/os_task.c ****     }
1003:..\..\..\..\..\..\Software\uCOS-II\Source/os_task.c ****     y            = ptcb->OSTCBY;
 2156              		.loc 1 1003 0
 2157 00a8 0B23     		movs	r3, #11
 2158 00aa FB18     		adds	r3, r7, r3
 2159 00ac FA68     		ldr	r2, [r7, #12]
 2160 00ae 3821     		movs	r1, #56
 2161 00b0 525C     		ldrb	r2, [r2, r1]
 2162 00b2 1A70     		strb	r2, [r3]
1004:..\..\..\..\..\..\Software\uCOS-II\Source/os_task.c ****     OSRdyTbl[y] &= (OS_PRIO)~ptcb->OSTCBBitX;                   /* Make task not ready             
 2163              		.loc 1 1004 0
 2164 00b4 0B23     		movs	r3, #11
 2165 00b6 FB18     		adds	r3, r7, r3
 2166 00b8 1B78     		ldrb	r3, [r3]
 2167 00ba 0B22     		movs	r2, #11
 2168 00bc BA18     		adds	r2, r7, r2
 2169 00be 1278     		ldrb	r2, [r2]
 2170 00c0 1C49     		ldr	r1, .L124+8
 2171 00c2 8A5C     		ldrb	r2, [r1, r2]
 2172 00c4 F968     		ldr	r1, [r7, #12]
 2173 00c6 3920     		movs	r0, #57
 2174 00c8 095C     		ldrb	r1, [r1, r0]
 2175 00ca C943     		mvns	r1, r1
 2176 00cc C9B2     		uxtb	r1, r1
 2177 00ce 0A40     		ands	r2, r1
 2178 00d0 D1B2     		uxtb	r1, r2
 2179 00d2 184A     		ldr	r2, .L124+8
 2180 00d4 D154     		strb	r1, [r2, r3]
1005:..\..\..\..\..\..\Software\uCOS-II\Source/os_task.c ****     if (OSRdyTbl[y] == 0u) {
 2181              		.loc 1 1005 0
 2182 00d6 0B23     		movs	r3, #11
 2183 00d8 FB18     		adds	r3, r7, r3
 2184 00da 1B78     		ldrb	r3, [r3]
 2185 00dc 154A     		ldr	r2, .L124+8
ARM GAS  C:\Users\ADMINI~1\AppData\Local\Temp\cc4JwS65.s 			page 57


 2186 00de D35C     		ldrb	r3, [r2, r3]
 2187 00e0 002B     		cmp	r3, #0
 2188 00e2 0AD1     		bne	.L122
1006:..\..\..\..\..\..\Software\uCOS-II\Source/os_task.c ****         OSRdyGrp &= (OS_PRIO)~ptcb->OSTCBBitY;
 2189              		.loc 1 1006 0
 2190 00e4 FB68     		ldr	r3, [r7, #12]
 2191 00e6 3A22     		movs	r2, #58
 2192 00e8 9B5C     		ldrb	r3, [r3, r2]
 2193 00ea DB43     		mvns	r3, r3
 2194 00ec DBB2     		uxtb	r3, r3
 2195 00ee 124A     		ldr	r2, .L124+12
 2196 00f0 1278     		ldrb	r2, [r2]
 2197 00f2 1340     		ands	r3, r2
 2198 00f4 DAB2     		uxtb	r2, r3
 2199 00f6 104B     		ldr	r3, .L124+12
 2200 00f8 1A70     		strb	r2, [r3]
 2201              	.L122:
1007:..\..\..\..\..\..\Software\uCOS-II\Source/os_task.c ****     }
1008:..\..\..\..\..\..\Software\uCOS-II\Source/os_task.c ****     ptcb->OSTCBStat |= OS_STAT_SUSPEND;                         /* Status of task is 'SUSPENDED'   
 2202              		.loc 1 1008 0
 2203 00fa FB68     		ldr	r3, [r7, #12]
 2204 00fc 3422     		movs	r2, #52
 2205 00fe 9B5C     		ldrb	r3, [r3, r2]
 2206 0100 0822     		movs	r2, #8
 2207 0102 1343     		orrs	r3, r2
 2208 0104 D9B2     		uxtb	r1, r3
 2209 0106 FB68     		ldr	r3, [r7, #12]
 2210 0108 3422     		movs	r2, #52
 2211 010a 9954     		strb	r1, [r3, r2]
1009:..\..\..\..\..\..\Software\uCOS-II\Source/os_task.c ****     OS_EXIT_CRITICAL();
 2212              		.loc 1 1009 0
 2213 010c 3B69     		ldr	r3, [r7, #16]
 2214 010e 1800     		movs	r0, r3
 2215 0110 FFF7FEFF 		bl	OS_CPU_SR_Restore
1010:..\..\..\..\..\..\Software\uCOS-II\Source/os_task.c ****     if (self == OS_TRUE) {                                      /* Context switch only if SELF     
 2216              		.loc 1 1010 0
 2217 0114 1723     		movs	r3, #23
 2218 0116 FB18     		adds	r3, r7, r3
 2219 0118 1B78     		ldrb	r3, [r3]
 2220 011a 012B     		cmp	r3, #1
 2221 011c 01D1     		bne	.L123
1011:..\..\..\..\..\..\Software\uCOS-II\Source/os_task.c ****         OS_Sched();                                             /* Find new highest priority task  
 2222              		.loc 1 1011 0
 2223 011e FFF7FEFF 		bl	OS_Sched
 2224              	.L123:
1012:..\..\..\..\..\..\Software\uCOS-II\Source/os_task.c ****     }
1013:..\..\..\..\..\..\Software\uCOS-II\Source/os_task.c ****     return (OS_ERR_NONE);
 2225              		.loc 1 1013 0
 2226 0122 0023     		movs	r3, #0
 2227              	.L115:
1014:..\..\..\..\..\..\Software\uCOS-II\Source/os_task.c **** }
 2228              		.loc 1 1014 0
 2229 0124 1800     		movs	r0, r3
 2230 0126 BD46     		mov	sp, r7
 2231 0128 06B0     		add	sp, sp, #24
 2232              		@ sp needed
 2233 012a 80BD     		pop	{r7, pc}
ARM GAS  C:\Users\ADMINI~1\AppData\Local\Temp\cc4JwS65.s 			page 58


 2234              	.L125:
 2235              		.align	2
 2236              	.L124:
 2237 012c 00000000 		.word	OSTCBCur
 2238 0130 00000000 		.word	OSTCBPrioTbl
 2239 0134 00000000 		.word	OSRdyTbl
 2240 0138 00000000 		.word	OSRdyGrp
 2241              		.cfi_endproc
 2242              	.LFE10:
 2243              		.size	OSTaskSuspend, .-OSTaskSuspend
 2244              		.section	.text.OSTaskQuery,"ax",%progbits
 2245              		.align	2
 2246              		.global	OSTaskQuery
 2247              		.code	16
 2248              		.thumb_func
 2249              		.type	OSTaskQuery, %function
 2250              	OSTaskQuery:
 2251              	.LFB11:
1015:..\..\..\..\..\..\Software\uCOS-II\Source/os_task.c **** #endif
1016:..\..\..\..\..\..\Software\uCOS-II\Source/os_task.c **** /*$PAGE*/
1017:..\..\..\..\..\..\Software\uCOS-II\Source/os_task.c **** /*
1018:..\..\..\..\..\..\Software\uCOS-II\Source/os_task.c **** ***************************************************************************************************
1019:..\..\..\..\..\..\Software\uCOS-II\Source/os_task.c **** *                                            QUERY A TASK
1020:..\..\..\..\..\..\Software\uCOS-II\Source/os_task.c **** *
1021:..\..\..\..\..\..\Software\uCOS-II\Source/os_task.c **** * Description: This function is called to obtain a copy of the desired task's TCB.
1022:..\..\..\..\..\..\Software\uCOS-II\Source/os_task.c **** *
1023:..\..\..\..\..\..\Software\uCOS-II\Source/os_task.c **** * Arguments  : prio         is the priority of the task to obtain information from.
1024:..\..\..\..\..\..\Software\uCOS-II\Source/os_task.c **** *
1025:..\..\..\..\..\..\Software\uCOS-II\Source/os_task.c **** *              p_task_data  is a pointer to where the desired task's OS_TCB will be stored.
1026:..\..\..\..\..\..\Software\uCOS-II\Source/os_task.c **** *
1027:..\..\..\..\..\..\Software\uCOS-II\Source/os_task.c **** * Returns    : OS_ERR_NONE            if the requested task is suspended
1028:..\..\..\..\..\..\Software\uCOS-II\Source/os_task.c **** *              OS_ERR_PRIO_INVALID    if the priority you specify is higher that the maximum allowe
1029:..\..\..\..\..\..\Software\uCOS-II\Source/os_task.c **** *                                     (i.e. > OS_LOWEST_PRIO) or, you have not specified OS_PRIO_SE
1030:..\..\..\..\..\..\Software\uCOS-II\Source/os_task.c **** *              OS_ERR_PRIO            if the desired task has not been created
1031:..\..\..\..\..\..\Software\uCOS-II\Source/os_task.c **** *              OS_ERR_TASK_NOT_EXIST  if the task is assigned to a Mutex PIP
1032:..\..\..\..\..\..\Software\uCOS-II\Source/os_task.c **** *              OS_ERR_PDATA_NULL      if 'p_task_data' is a NULL pointer
1033:..\..\..\..\..\..\Software\uCOS-II\Source/os_task.c **** ***************************************************************************************************
1034:..\..\..\..\..\..\Software\uCOS-II\Source/os_task.c **** */
1035:..\..\..\..\..\..\Software\uCOS-II\Source/os_task.c **** 
1036:..\..\..\..\..\..\Software\uCOS-II\Source/os_task.c **** #if OS_TASK_QUERY_EN > 0u
1037:..\..\..\..\..\..\Software\uCOS-II\Source/os_task.c **** INT8U  OSTaskQuery (INT8U    prio,
1038:..\..\..\..\..\..\Software\uCOS-II\Source/os_task.c ****                     OS_TCB  *p_task_data)
1039:..\..\..\..\..\..\Software\uCOS-II\Source/os_task.c **** {
 2252              		.loc 1 1039 0
 2253              		.cfi_startproc
 2254              		@ args = 0, pretend = 0, frame = 16
 2255              		@ frame_needed = 1, uses_anonymous_args = 0
 2256 0000 80B5     		push	{r7, lr}
 2257              		.cfi_def_cfa_offset 8
 2258              		.cfi_offset 7, -8
 2259              		.cfi_offset 14, -4
 2260 0002 84B0     		sub	sp, sp, #16
 2261              		.cfi_def_cfa_offset 24
 2262 0004 00AF     		add	r7, sp, #0
 2263              		.cfi_def_cfa_register 7
 2264 0006 0200     		movs	r2, r0
 2265 0008 3960     		str	r1, [r7]
ARM GAS  C:\Users\ADMINI~1\AppData\Local\Temp\cc4JwS65.s 			page 59


 2266 000a FB1D     		adds	r3, r7, #7
 2267 000c 1A70     		strb	r2, [r3]
1040:..\..\..\..\..\..\Software\uCOS-II\Source/os_task.c ****     OS_TCB    *ptcb;
1041:..\..\..\..\..\..\Software\uCOS-II\Source/os_task.c **** #if OS_CRITICAL_METHOD == 3u                     /* Allocate storage for CPU status register       
1042:..\..\..\..\..\..\Software\uCOS-II\Source/os_task.c ****     OS_CPU_SR  cpu_sr = 0u;
 2268              		.loc 1 1042 0
 2269 000e 0023     		movs	r3, #0
 2270 0010 FB60     		str	r3, [r7, #12]
1043:..\..\..\..\..\..\Software\uCOS-II\Source/os_task.c **** #endif
1044:..\..\..\..\..\..\Software\uCOS-II\Source/os_task.c **** 
1045:..\..\..\..\..\..\Software\uCOS-II\Source/os_task.c **** 
1046:..\..\..\..\..\..\Software\uCOS-II\Source/os_task.c **** 
1047:..\..\..\..\..\..\Software\uCOS-II\Source/os_task.c **** #if OS_ARG_CHK_EN > 0u
1048:..\..\..\..\..\..\Software\uCOS-II\Source/os_task.c ****     if (prio > OS_LOWEST_PRIO) {                 /* Task priority valid ?                          
 2271              		.loc 1 1048 0
 2272 0012 FB1D     		adds	r3, r7, #7
 2273 0014 1B78     		ldrb	r3, [r3]
 2274 0016 3F2B     		cmp	r3, #63
 2275 0018 05D9     		bls	.L127
1049:..\..\..\..\..\..\Software\uCOS-II\Source/os_task.c ****         if (prio != OS_PRIO_SELF) {
 2276              		.loc 1 1049 0
 2277 001a FB1D     		adds	r3, r7, #7
 2278 001c 1B78     		ldrb	r3, [r3]
 2279 001e FF2B     		cmp	r3, #255
 2280 0020 01D0     		beq	.L127
1050:..\..\..\..\..\..\Software\uCOS-II\Source/os_task.c ****             return (OS_ERR_PRIO_INVALID);
 2281              		.loc 1 1050 0
 2282 0022 2A23     		movs	r3, #42
 2283 0024 35E0     		b	.L128
 2284              	.L127:
1051:..\..\..\..\..\..\Software\uCOS-II\Source/os_task.c ****         }
1052:..\..\..\..\..\..\Software\uCOS-II\Source/os_task.c ****     }
1053:..\..\..\..\..\..\Software\uCOS-II\Source/os_task.c ****     if (p_task_data == (OS_TCB *)0) {            /* Validate 'p_task_data'                         
 2285              		.loc 1 1053 0
 2286 0026 3B68     		ldr	r3, [r7]
 2287 0028 002B     		cmp	r3, #0
 2288 002a 01D1     		bne	.L129
1054:..\..\..\..\..\..\Software\uCOS-II\Source/os_task.c ****         return (OS_ERR_PDATA_NULL);
 2289              		.loc 1 1054 0
 2290 002c 0923     		movs	r3, #9
 2291 002e 30E0     		b	.L128
 2292              	.L129:
1055:..\..\..\..\..\..\Software\uCOS-II\Source/os_task.c ****     }
1056:..\..\..\..\..\..\Software\uCOS-II\Source/os_task.c **** #endif
1057:..\..\..\..\..\..\Software\uCOS-II\Source/os_task.c ****     OS_ENTER_CRITICAL();
 2293              		.loc 1 1057 0
 2294 0030 FFF7FEFF 		bl	OS_CPU_SR_Save
 2295 0034 0300     		movs	r3, r0
 2296 0036 FB60     		str	r3, [r7, #12]
1058:..\..\..\..\..\..\Software\uCOS-II\Source/os_task.c ****     if (prio == OS_PRIO_SELF) {                  /* See if suspend SELF                            
 2297              		.loc 1 1058 0
 2298 0038 FB1D     		adds	r3, r7, #7
 2299 003a 1B78     		ldrb	r3, [r3]
 2300 003c FF2B     		cmp	r3, #255
 2301 003e 05D1     		bne	.L130
1059:..\..\..\..\..\..\Software\uCOS-II\Source/os_task.c ****         prio = OSTCBCur->OSTCBPrio;
 2302              		.loc 1 1059 0
ARM GAS  C:\Users\ADMINI~1\AppData\Local\Temp\cc4JwS65.s 			page 60


 2303 0040 164B     		ldr	r3, .L133
 2304 0042 1A68     		ldr	r2, [r3]
 2305 0044 FB1D     		adds	r3, r7, #7
 2306 0046 3621     		movs	r1, #54
 2307 0048 525C     		ldrb	r2, [r2, r1]
 2308 004a 1A70     		strb	r2, [r3]
 2309              	.L130:
1060:..\..\..\..\..\..\Software\uCOS-II\Source/os_task.c ****     }
1061:..\..\..\..\..\..\Software\uCOS-II\Source/os_task.c ****     ptcb = OSTCBPrioTbl[prio];
 2310              		.loc 1 1061 0
 2311 004c FB1D     		adds	r3, r7, #7
 2312 004e 1A78     		ldrb	r2, [r3]
 2313 0050 134B     		ldr	r3, .L133+4
 2314 0052 9200     		lsls	r2, r2, #2
 2315 0054 D358     		ldr	r3, [r2, r3]
 2316 0056 BB60     		str	r3, [r7, #8]
1062:..\..\..\..\..\..\Software\uCOS-II\Source/os_task.c ****     if (ptcb == (OS_TCB *)0) {                   /* Task to query must exist                       
 2317              		.loc 1 1062 0
 2318 0058 BB68     		ldr	r3, [r7, #8]
 2319 005a 002B     		cmp	r3, #0
 2320 005c 05D1     		bne	.L131
1063:..\..\..\..\..\..\Software\uCOS-II\Source/os_task.c ****         OS_EXIT_CRITICAL();
 2321              		.loc 1 1063 0
 2322 005e FB68     		ldr	r3, [r7, #12]
 2323 0060 1800     		movs	r0, r3
 2324 0062 FFF7FEFF 		bl	OS_CPU_SR_Restore
1064:..\..\..\..\..\..\Software\uCOS-II\Source/os_task.c ****         return (OS_ERR_PRIO);
 2325              		.loc 1 1064 0
 2326 0066 2923     		movs	r3, #41
 2327 0068 13E0     		b	.L128
 2328              	.L131:
1065:..\..\..\..\..\..\Software\uCOS-II\Source/os_task.c ****     }
1066:..\..\..\..\..\..\Software\uCOS-II\Source/os_task.c ****     if (ptcb == OS_TCB_RESERVED) {               /* Task to query must not be assigned to a Mutex  
 2329              		.loc 1 1066 0
 2330 006a BB68     		ldr	r3, [r7, #8]
 2331 006c 012B     		cmp	r3, #1
 2332 006e 05D1     		bne	.L132
1067:..\..\..\..\..\..\Software\uCOS-II\Source/os_task.c ****         OS_EXIT_CRITICAL();
 2333              		.loc 1 1067 0
 2334 0070 FB68     		ldr	r3, [r7, #12]
 2335 0072 1800     		movs	r0, r3
 2336 0074 FFF7FEFF 		bl	OS_CPU_SR_Restore
1068:..\..\..\..\..\..\Software\uCOS-II\Source/os_task.c ****         return (OS_ERR_TASK_NOT_EXIST);
 2337              		.loc 1 1068 0
 2338 0078 4323     		movs	r3, #67
 2339 007a 0AE0     		b	.L128
 2340              	.L132:
1069:..\..\..\..\..\..\Software\uCOS-II\Source/os_task.c ****     }
1070:..\..\..\..\..\..\Software\uCOS-II\Source/os_task.c ****                                                  /* Copy TCB into user storage area                
1071:..\..\..\..\..\..\Software\uCOS-II\Source/os_task.c ****     OS_MemCopy((INT8U *)p_task_data, (INT8U *)ptcb, sizeof(OS_TCB));
 2341              		.loc 1 1071 0
 2342 007c B968     		ldr	r1, [r7, #8]
 2343 007e 3B68     		ldr	r3, [r7]
 2344 0080 5822     		movs	r2, #88
 2345 0082 1800     		movs	r0, r3
 2346 0084 FFF7FEFF 		bl	OS_MemCopy
1072:..\..\..\..\..\..\Software\uCOS-II\Source/os_task.c ****     OS_EXIT_CRITICAL();
ARM GAS  C:\Users\ADMINI~1\AppData\Local\Temp\cc4JwS65.s 			page 61


 2347              		.loc 1 1072 0
 2348 0088 FB68     		ldr	r3, [r7, #12]
 2349 008a 1800     		movs	r0, r3
 2350 008c FFF7FEFF 		bl	OS_CPU_SR_Restore
1073:..\..\..\..\..\..\Software\uCOS-II\Source/os_task.c ****     return (OS_ERR_NONE);
 2351              		.loc 1 1073 0
 2352 0090 0023     		movs	r3, #0
 2353              	.L128:
1074:..\..\..\..\..\..\Software\uCOS-II\Source/os_task.c **** }
 2354              		.loc 1 1074 0
 2355 0092 1800     		movs	r0, r3
 2356 0094 BD46     		mov	sp, r7
 2357 0096 04B0     		add	sp, sp, #16
 2358              		@ sp needed
 2359 0098 80BD     		pop	{r7, pc}
 2360              	.L134:
 2361 009a C046     		.align	2
 2362              	.L133:
 2363 009c 00000000 		.word	OSTCBCur
 2364 00a0 00000000 		.word	OSTCBPrioTbl
 2365              		.cfi_endproc
 2366              	.LFE11:
 2367              		.size	OSTaskQuery, .-OSTaskQuery
 2368              		.section	.text.OSTaskRegGet,"ax",%progbits
 2369              		.align	2
 2370              		.global	OSTaskRegGet
 2371              		.code	16
 2372              		.thumb_func
 2373              		.type	OSTaskRegGet, %function
 2374              	OSTaskRegGet:
 2375              	.LFB12:
1075:..\..\..\..\..\..\Software\uCOS-II\Source/os_task.c **** #endif
1076:..\..\..\..\..\..\Software\uCOS-II\Source/os_task.c **** /*$PAGE*/
1077:..\..\..\..\..\..\Software\uCOS-II\Source/os_task.c **** /*
1078:..\..\..\..\..\..\Software\uCOS-II\Source/os_task.c **** ***************************************************************************************************
1079:..\..\..\..\..\..\Software\uCOS-II\Source/os_task.c **** *                              GET THE CURRENT VALUE OF A TASK REGISTER
1080:..\..\..\..\..\..\Software\uCOS-II\Source/os_task.c **** *
1081:..\..\..\..\..\..\Software\uCOS-II\Source/os_task.c **** * Description: This function is called to obtain the current value of a task register.  Task regist
1082:..\..\..\..\..\..\Software\uCOS-II\Source/os_task.c **** *              are application specific and can be used to store task specific values such as 'erro
1083:..\..\..\..\..\..\Software\uCOS-II\Source/os_task.c **** *              numbers' (i.e. errno), statistics, etc.  Each task register can hold a 32-bit value.
1084:..\..\..\..\..\..\Software\uCOS-II\Source/os_task.c **** *
1085:..\..\..\..\..\..\Software\uCOS-II\Source/os_task.c **** * Arguments  : prio      is the priority of the task you want to get the task register from.  If yo
1086:..\..\..\..\..\..\Software\uCOS-II\Source/os_task.c **** *                        specify OS_PRIO_SELF then the task register of the current task will be ob
1087:..\..\..\..\..\..\Software\uCOS-II\Source/os_task.c **** *
1088:..\..\..\..\..\..\Software\uCOS-II\Source/os_task.c **** *              id        is the 'id' of the desired task register.  Note that the 'id' must be less
1089:..\..\..\..\..\..\Software\uCOS-II\Source/os_task.c **** *                        than OS_TASK_REG_TBL_SIZE
1090:..\..\..\..\..\..\Software\uCOS-II\Source/os_task.c **** *
1091:..\..\..\..\..\..\Software\uCOS-II\Source/os_task.c **** *              perr      is a pointer to a variable that will hold an error code related to this ca
1092:..\..\..\..\..\..\Software\uCOS-II\Source/os_task.c **** *
1093:..\..\..\..\..\..\Software\uCOS-II\Source/os_task.c **** *                        OS_ERR_NONE            if the call was successful
1094:..\..\..\..\..\..\Software\uCOS-II\Source/os_task.c **** *                        OS_ERR_PRIO_INVALID    if you specified an invalid priority
1095:..\..\..\..\..\..\Software\uCOS-II\Source/os_task.c **** *                        OS_ERR_ID_INVALID      if the 'id' is not between 0 and OS_TASK_REG_TBL_SI
1096:..\..\..\..\..\..\Software\uCOS-II\Source/os_task.c **** *
1097:..\..\..\..\..\..\Software\uCOS-II\Source/os_task.c **** * Returns    : The current value of the task's register or 0 if an error is detected.
1098:..\..\..\..\..\..\Software\uCOS-II\Source/os_task.c **** *
1099:..\..\..\..\..\..\Software\uCOS-II\Source/os_task.c **** * Note(s)    : The maximum number of task variables is 254
1100:..\..\..\..\..\..\Software\uCOS-II\Source/os_task.c **** ***************************************************************************************************
ARM GAS  C:\Users\ADMINI~1\AppData\Local\Temp\cc4JwS65.s 			page 62


1101:..\..\..\..\..\..\Software\uCOS-II\Source/os_task.c **** */
1102:..\..\..\..\..\..\Software\uCOS-II\Source/os_task.c **** 
1103:..\..\..\..\..\..\Software\uCOS-II\Source/os_task.c **** #if OS_TASK_REG_TBL_SIZE > 0u
1104:..\..\..\..\..\..\Software\uCOS-II\Source/os_task.c **** INT32U  OSTaskRegGet (INT8U   prio,
1105:..\..\..\..\..\..\Software\uCOS-II\Source/os_task.c ****                       INT8U   id,
1106:..\..\..\..\..\..\Software\uCOS-II\Source/os_task.c ****                       INT8U  *perr)
1107:..\..\..\..\..\..\Software\uCOS-II\Source/os_task.c **** {
 2376              		.loc 1 1107 0
 2377              		.cfi_startproc
 2378              		@ args = 0, pretend = 0, frame = 24
 2379              		@ frame_needed = 1, uses_anonymous_args = 0
 2380 0000 80B5     		push	{r7, lr}
 2381              		.cfi_def_cfa_offset 8
 2382              		.cfi_offset 7, -8
 2383              		.cfi_offset 14, -4
 2384 0002 86B0     		sub	sp, sp, #24
 2385              		.cfi_def_cfa_offset 32
 2386 0004 00AF     		add	r7, sp, #0
 2387              		.cfi_def_cfa_register 7
 2388 0006 3A60     		str	r2, [r7]
 2389 0008 FB1D     		adds	r3, r7, #7
 2390 000a 021C     		adds	r2, r0, #0
 2391 000c 1A70     		strb	r2, [r3]
 2392 000e BB1D     		adds	r3, r7, #6
 2393 0010 0A1C     		adds	r2, r1, #0
 2394 0012 1A70     		strb	r2, [r3]
1108:..\..\..\..\..\..\Software\uCOS-II\Source/os_task.c **** #if OS_CRITICAL_METHOD == 3u                     /* Allocate storage for CPU status register       
1109:..\..\..\..\..\..\Software\uCOS-II\Source/os_task.c ****     OS_CPU_SR  cpu_sr = 0u;
 2395              		.loc 1 1109 0
 2396 0014 0023     		movs	r3, #0
 2397 0016 3B61     		str	r3, [r7, #16]
1110:..\..\..\..\..\..\Software\uCOS-II\Source/os_task.c **** #endif
1111:..\..\..\..\..\..\Software\uCOS-II\Source/os_task.c ****     INT32U     value;
1112:..\..\..\..\..\..\Software\uCOS-II\Source/os_task.c ****     OS_TCB    *ptcb;
1113:..\..\..\..\..\..\Software\uCOS-II\Source/os_task.c **** 
1114:..\..\..\..\..\..\Software\uCOS-II\Source/os_task.c **** 
1115:..\..\..\..\..\..\Software\uCOS-II\Source/os_task.c **** 
1116:..\..\..\..\..\..\Software\uCOS-II\Source/os_task.c **** #ifdef OS_SAFETY_CRITICAL
1117:..\..\..\..\..\..\Software\uCOS-II\Source/os_task.c ****     if (perr == (INT8U *)0) {
1118:..\..\..\..\..\..\Software\uCOS-II\Source/os_task.c ****         OS_SAFETY_CRITICAL_EXCEPTION();
1119:..\..\..\..\..\..\Software\uCOS-II\Source/os_task.c ****         return (0u);
1120:..\..\..\..\..\..\Software\uCOS-II\Source/os_task.c ****     }
1121:..\..\..\..\..\..\Software\uCOS-II\Source/os_task.c **** #endif
1122:..\..\..\..\..\..\Software\uCOS-II\Source/os_task.c **** 
1123:..\..\..\..\..\..\Software\uCOS-II\Source/os_task.c **** #if OS_ARG_CHK_EN > 0u
1124:..\..\..\..\..\..\Software\uCOS-II\Source/os_task.c ****     if (prio >= OS_LOWEST_PRIO) {
 2398              		.loc 1 1124 0
 2399 0018 FB1D     		adds	r3, r7, #7
 2400 001a 1B78     		ldrb	r3, [r3]
 2401 001c 3E2B     		cmp	r3, #62
 2402 001e 08D9     		bls	.L136
1125:..\..\..\..\..\..\Software\uCOS-II\Source/os_task.c ****         if (prio != OS_PRIO_SELF) {
 2403              		.loc 1 1125 0
 2404 0020 FB1D     		adds	r3, r7, #7
 2405 0022 1B78     		ldrb	r3, [r3]
 2406 0024 FF2B     		cmp	r3, #255
 2407 0026 04D0     		beq	.L136
ARM GAS  C:\Users\ADMINI~1\AppData\Local\Temp\cc4JwS65.s 			page 63


1126:..\..\..\..\..\..\Software\uCOS-II\Source/os_task.c ****             *perr = OS_ERR_PRIO_INVALID;
 2408              		.loc 1 1126 0
 2409 0028 3B68     		ldr	r3, [r7]
 2410 002a 2A22     		movs	r2, #42
 2411 002c 1A70     		strb	r2, [r3]
1127:..\..\..\..\..\..\Software\uCOS-II\Source/os_task.c ****             return (0u);
 2412              		.loc 1 1127 0
 2413 002e 0023     		movs	r3, #0
 2414 0030 2BE0     		b	.L137
 2415              	.L136:
1128:..\..\..\..\..\..\Software\uCOS-II\Source/os_task.c ****         }
1129:..\..\..\..\..\..\Software\uCOS-II\Source/os_task.c ****     }
1130:..\..\..\..\..\..\Software\uCOS-II\Source/os_task.c ****     if (id >= OS_TASK_REG_TBL_SIZE) {
 2416              		.loc 1 1130 0
 2417 0032 BB1D     		adds	r3, r7, #6
 2418 0034 1B78     		ldrb	r3, [r3]
 2419 0036 002B     		cmp	r3, #0
 2420 0038 04D0     		beq	.L138
1131:..\..\..\..\..\..\Software\uCOS-II\Source/os_task.c ****         *perr = OS_ERR_ID_INVALID;
 2421              		.loc 1 1131 0
 2422 003a 3B68     		ldr	r3, [r7]
 2423 003c 0822     		movs	r2, #8
 2424 003e 1A70     		strb	r2, [r3]
1132:..\..\..\..\..\..\Software\uCOS-II\Source/os_task.c ****         return (0u);
 2425              		.loc 1 1132 0
 2426 0040 0023     		movs	r3, #0
 2427 0042 22E0     		b	.L137
 2428              	.L138:
1133:..\..\..\..\..\..\Software\uCOS-II\Source/os_task.c ****     }
1134:..\..\..\..\..\..\Software\uCOS-II\Source/os_task.c **** #endif
1135:..\..\..\..\..\..\Software\uCOS-II\Source/os_task.c ****     OS_ENTER_CRITICAL();
 2429              		.loc 1 1135 0
 2430 0044 FFF7FEFF 		bl	OS_CPU_SR_Save
 2431 0048 0300     		movs	r3, r0
 2432 004a 3B61     		str	r3, [r7, #16]
1136:..\..\..\..\..\..\Software\uCOS-II\Source/os_task.c ****     if (prio == OS_PRIO_SELF) {                  /* See if need to get register from current task  
 2433              		.loc 1 1136 0
 2434 004c FB1D     		adds	r3, r7, #7
 2435 004e 1B78     		ldrb	r3, [r3]
 2436 0050 FF2B     		cmp	r3, #255
 2437 0052 03D1     		bne	.L139
1137:..\..\..\..\..\..\Software\uCOS-II\Source/os_task.c ****         ptcb = OSTCBCur;
 2438              		.loc 1 1137 0
 2439 0054 0F4B     		ldr	r3, .L141
 2440 0056 1B68     		ldr	r3, [r3]
 2441 0058 7B61     		str	r3, [r7, #20]
 2442 005a 05E0     		b	.L140
 2443              	.L139:
1138:..\..\..\..\..\..\Software\uCOS-II\Source/os_task.c ****     } else {
1139:..\..\..\..\..\..\Software\uCOS-II\Source/os_task.c ****         ptcb = OSTCBPrioTbl[prio];
 2444              		.loc 1 1139 0
 2445 005c FB1D     		adds	r3, r7, #7
 2446 005e 1A78     		ldrb	r2, [r3]
 2447 0060 0D4B     		ldr	r3, .L141+4
 2448 0062 9200     		lsls	r2, r2, #2
 2449 0064 D358     		ldr	r3, [r2, r3]
 2450 0066 7B61     		str	r3, [r7, #20]
ARM GAS  C:\Users\ADMINI~1\AppData\Local\Temp\cc4JwS65.s 			page 64


 2451              	.L140:
1140:..\..\..\..\..\..\Software\uCOS-II\Source/os_task.c ****     }
1141:..\..\..\..\..\..\Software\uCOS-II\Source/os_task.c ****     value = ptcb->OSTCBRegTbl[id];
 2452              		.loc 1 1141 0
 2453 0068 BB1D     		adds	r3, r7, #6
 2454 006a 1B78     		ldrb	r3, [r3]
 2455 006c 7A69     		ldr	r2, [r7, #20]
 2456 006e 1433     		adds	r3, r3, #20
 2457 0070 9B00     		lsls	r3, r3, #2
 2458 0072 D318     		adds	r3, r2, r3
 2459 0074 0433     		adds	r3, r3, #4
 2460 0076 1B68     		ldr	r3, [r3]
 2461 0078 FB60     		str	r3, [r7, #12]
1142:..\..\..\..\..\..\Software\uCOS-II\Source/os_task.c ****     OS_EXIT_CRITICAL();
 2462              		.loc 1 1142 0
 2463 007a 3B69     		ldr	r3, [r7, #16]
 2464 007c 1800     		movs	r0, r3
 2465 007e FFF7FEFF 		bl	OS_CPU_SR_Restore
1143:..\..\..\..\..\..\Software\uCOS-II\Source/os_task.c ****     *perr = OS_ERR_NONE;
 2466              		.loc 1 1143 0
 2467 0082 3B68     		ldr	r3, [r7]
 2468 0084 0022     		movs	r2, #0
 2469 0086 1A70     		strb	r2, [r3]
1144:..\..\..\..\..\..\Software\uCOS-II\Source/os_task.c ****     return (value);
 2470              		.loc 1 1144 0
 2471 0088 FB68     		ldr	r3, [r7, #12]
 2472              	.L137:
1145:..\..\..\..\..\..\Software\uCOS-II\Source/os_task.c **** }
 2473              		.loc 1 1145 0
 2474 008a 1800     		movs	r0, r3
 2475 008c BD46     		mov	sp, r7
 2476 008e 06B0     		add	sp, sp, #24
 2477              		@ sp needed
 2478 0090 80BD     		pop	{r7, pc}
 2479              	.L142:
 2480 0092 C046     		.align	2
 2481              	.L141:
 2482 0094 00000000 		.word	OSTCBCur
 2483 0098 00000000 		.word	OSTCBPrioTbl
 2484              		.cfi_endproc
 2485              	.LFE12:
 2486              		.size	OSTaskRegGet, .-OSTaskRegGet
 2487              		.section	.text.OSTaskRegGetID,"ax",%progbits
 2488              		.align	2
 2489              		.global	OSTaskRegGetID
 2490              		.code	16
 2491              		.thumb_func
 2492              		.type	OSTaskRegGetID, %function
 2493              	OSTaskRegGetID:
 2494              	.LFB13:
1146:..\..\..\..\..\..\Software\uCOS-II\Source/os_task.c **** #endif
1147:..\..\..\..\..\..\Software\uCOS-II\Source/os_task.c **** 
1148:..\..\..\..\..\..\Software\uCOS-II\Source/os_task.c **** /*$PAGE*/
1149:..\..\..\..\..\..\Software\uCOS-II\Source/os_task.c **** /*
1150:..\..\..\..\..\..\Software\uCOS-II\Source/os_task.c **** ***************************************************************************************************
1151:..\..\..\..\..\..\Software\uCOS-II\Source/os_task.c **** *                                    ALLOCATE THE NEXT AVAILABLE TASK REGISTER ID
1152:..\..\..\..\..\..\Software\uCOS-II\Source/os_task.c **** *
ARM GAS  C:\Users\ADMINI~1\AppData\Local\Temp\cc4JwS65.s 			page 65


1153:..\..\..\..\..\..\Software\uCOS-II\Source/os_task.c **** * Description: This function is called to obtain a task register ID.  This function thus allows tas
1154:..\..\..\..\..\..\Software\uCOS-II\Source/os_task.c **** *              allocated dynamically instead of statically.
1155:..\..\..\..\..\..\Software\uCOS-II\Source/os_task.c **** *
1156:..\..\..\..\..\..\Software\uCOS-II\Source/os_task.c **** * Arguments  : p_err       is a pointer to a variable that will hold an error code related to this 
1157:..\..\..\..\..\..\Software\uCOS-II\Source/os_task.c **** *
1158:..\..\..\..\..\..\Software\uCOS-II\Source/os_task.c **** *                            OS_ERR_NONE               if the call was successful
1159:..\..\..\..\..\..\Software\uCOS-II\Source/os_task.c **** *                            OS_ERR_NO_MORE_ID_AVAIL   if you are attempting to assign more task re
1160:..\..\..\..\..\..\Software\uCOS-II\Source/os_task.c **** *                                                           have available through OS_TASK_REG_TBL_
1161:..\..\..\..\..\..\Software\uCOS-II\Source/os_task.c **** *
1162:..\..\..\..\..\..\Software\uCOS-II\Source/os_task.c **** * Returns    : The next available task register 'id' or OS_TASK_REG_TBL_SIZE if an error is detecte
1163:..\..\..\..\..\..\Software\uCOS-II\Source/os_task.c **** ***************************************************************************************************
1164:..\..\..\..\..\..\Software\uCOS-II\Source/os_task.c **** */
1165:..\..\..\..\..\..\Software\uCOS-II\Source/os_task.c **** 
1166:..\..\..\..\..\..\Software\uCOS-II\Source/os_task.c **** #if OS_TASK_REG_TBL_SIZE > 0u
1167:..\..\..\..\..\..\Software\uCOS-II\Source/os_task.c **** INT8U  OSTaskRegGetID (INT8U  *perr)
1168:..\..\..\..\..\..\Software\uCOS-II\Source/os_task.c **** {
 2495              		.loc 1 1168 0
 2496              		.cfi_startproc
 2497              		@ args = 0, pretend = 0, frame = 16
 2498              		@ frame_needed = 1, uses_anonymous_args = 0
 2499 0000 80B5     		push	{r7, lr}
 2500              		.cfi_def_cfa_offset 8
 2501              		.cfi_offset 7, -8
 2502              		.cfi_offset 14, -4
 2503 0002 84B0     		sub	sp, sp, #16
 2504              		.cfi_def_cfa_offset 24
 2505 0004 00AF     		add	r7, sp, #0
 2506              		.cfi_def_cfa_register 7
 2507 0006 7860     		str	r0, [r7, #4]
1169:..\..\..\..\..\..\Software\uCOS-II\Source/os_task.c **** #if OS_CRITICAL_METHOD == 3u                                    /* Allocate storage for CPU status 
1170:..\..\..\..\..\..\Software\uCOS-II\Source/os_task.c ****     OS_CPU_SR  cpu_sr = 0u;
 2508              		.loc 1 1170 0
 2509 0008 0023     		movs	r3, #0
 2510 000a FB60     		str	r3, [r7, #12]
1171:..\..\..\..\..\..\Software\uCOS-II\Source/os_task.c **** #endif
1172:..\..\..\..\..\..\Software\uCOS-II\Source/os_task.c ****     INT8U      id;
1173:..\..\..\..\..\..\Software\uCOS-II\Source/os_task.c **** 
1174:..\..\..\..\..\..\Software\uCOS-II\Source/os_task.c **** 
1175:..\..\..\..\..\..\Software\uCOS-II\Source/os_task.c **** #ifdef OS_SAFETY_CRITICAL
1176:..\..\..\..\..\..\Software\uCOS-II\Source/os_task.c ****     if (perr == (INT8U *)0) {
1177:..\..\..\..\..\..\Software\uCOS-II\Source/os_task.c ****         OS_SAFETY_CRITICAL_EXCEPTION();
1178:..\..\..\..\..\..\Software\uCOS-II\Source/os_task.c ****         return ((INT8U)OS_TASK_REG_TBL_SIZE);
1179:..\..\..\..\..\..\Software\uCOS-II\Source/os_task.c ****     }
1180:..\..\..\..\..\..\Software\uCOS-II\Source/os_task.c **** #endif
1181:..\..\..\..\..\..\Software\uCOS-II\Source/os_task.c **** 
1182:..\..\..\..\..\..\Software\uCOS-II\Source/os_task.c ****     OS_ENTER_CRITICAL();
 2511              		.loc 1 1182 0
 2512 000c FFF7FEFF 		bl	OS_CPU_SR_Save
 2513 0010 0300     		movs	r3, r0
 2514 0012 FB60     		str	r3, [r7, #12]
1183:..\..\..\..\..\..\Software\uCOS-II\Source/os_task.c ****     if (OSTaskRegNextAvailID >= OS_TASK_REG_TBL_SIZE) {         /* See if we exceeded the number of
 2515              		.loc 1 1183 0
 2516 0014 124B     		ldr	r3, .L146
 2517 0016 1B78     		ldrb	r3, [r3]
 2518 0018 002B     		cmp	r3, #0
 2519 001a 08D0     		beq	.L144
1184:..\..\..\..\..\..\Software\uCOS-II\Source/os_task.c ****        *perr = OS_ERR_NO_MORE_ID_AVAIL;                         /* Yes, cannot allocate more task r
ARM GAS  C:\Users\ADMINI~1\AppData\Local\Temp\cc4JwS65.s 			page 66


 2520              		.loc 1 1184 0
 2521 001c 7B68     		ldr	r3, [r7, #4]
 2522 001e 9622     		movs	r2, #150
 2523 0020 1A70     		strb	r2, [r3]
1185:..\..\..\..\..\..\Software\uCOS-II\Source/os_task.c ****         OS_EXIT_CRITICAL();
 2524              		.loc 1 1185 0
 2525 0022 FB68     		ldr	r3, [r7, #12]
 2526 0024 1800     		movs	r0, r3
 2527 0026 FFF7FEFF 		bl	OS_CPU_SR_Restore
1186:..\..\..\..\..\..\Software\uCOS-II\Source/os_task.c ****         return ((INT8U)OS_TASK_REG_TBL_SIZE);
 2528              		.loc 1 1186 0
 2529 002a 0123     		movs	r3, #1
 2530 002c 14E0     		b	.L145
 2531              	.L144:
1187:..\..\..\..\..\..\Software\uCOS-II\Source/os_task.c ****     }
1188:..\..\..\..\..\..\Software\uCOS-II\Source/os_task.c ****      
1189:..\..\..\..\..\..\Software\uCOS-II\Source/os_task.c ****     id   = OSTaskRegNextAvailID;                                /* Assign the next available ID    
 2532              		.loc 1 1189 0
 2533 002e 0B23     		movs	r3, #11
 2534 0030 FB18     		adds	r3, r7, r3
 2535 0032 0B4A     		ldr	r2, .L146
 2536 0034 1278     		ldrb	r2, [r2]
 2537 0036 1A70     		strb	r2, [r3]
1190:..\..\..\..\..\..\Software\uCOS-II\Source/os_task.c ****     OSTaskRegNextAvailID++;                                     /* Increment available ID for next 
 2538              		.loc 1 1190 0
 2539 0038 094B     		ldr	r3, .L146
 2540 003a 1B78     		ldrb	r3, [r3]
 2541 003c 0133     		adds	r3, r3, #1
 2542 003e DAB2     		uxtb	r2, r3
 2543 0040 074B     		ldr	r3, .L146
 2544 0042 1A70     		strb	r2, [r3]
1191:..\..\..\..\..\..\Software\uCOS-II\Source/os_task.c ****     OS_EXIT_CRITICAL();
 2545              		.loc 1 1191 0
 2546 0044 FB68     		ldr	r3, [r7, #12]
 2547 0046 1800     		movs	r0, r3
 2548 0048 FFF7FEFF 		bl	OS_CPU_SR_Restore
1192:..\..\..\..\..\..\Software\uCOS-II\Source/os_task.c ****    *perr = OS_ERR_NONE;
 2549              		.loc 1 1192 0
 2550 004c 7B68     		ldr	r3, [r7, #4]
 2551 004e 0022     		movs	r2, #0
 2552 0050 1A70     		strb	r2, [r3]
1193:..\..\..\..\..\..\Software\uCOS-II\Source/os_task.c ****     return (id);
 2553              		.loc 1 1193 0
 2554 0052 0B23     		movs	r3, #11
 2555 0054 FB18     		adds	r3, r7, r3
 2556 0056 1B78     		ldrb	r3, [r3]
 2557              	.L145:
1194:..\..\..\..\..\..\Software\uCOS-II\Source/os_task.c **** }
 2558              		.loc 1 1194 0
 2559 0058 1800     		movs	r0, r3
 2560 005a BD46     		mov	sp, r7
 2561 005c 04B0     		add	sp, sp, #16
 2562              		@ sp needed
 2563 005e 80BD     		pop	{r7, pc}
 2564              	.L147:
 2565              		.align	2
 2566              	.L146:
ARM GAS  C:\Users\ADMINI~1\AppData\Local\Temp\cc4JwS65.s 			page 67


 2567 0060 00000000 		.word	OSTaskRegNextAvailID
 2568              		.cfi_endproc
 2569              	.LFE13:
 2570              		.size	OSTaskRegGetID, .-OSTaskRegGetID
 2571              		.section	.text.OSTaskRegSet,"ax",%progbits
 2572              		.align	2
 2573              		.global	OSTaskRegSet
 2574              		.code	16
 2575              		.thumb_func
 2576              		.type	OSTaskRegSet, %function
 2577              	OSTaskRegSet:
 2578              	.LFB14:
1195:..\..\..\..\..\..\Software\uCOS-II\Source/os_task.c **** #endif
1196:..\..\..\..\..\..\Software\uCOS-II\Source/os_task.c **** 
1197:..\..\..\..\..\..\Software\uCOS-II\Source/os_task.c **** /*$PAGE*/
1198:..\..\..\..\..\..\Software\uCOS-II\Source/os_task.c **** /*
1199:..\..\..\..\..\..\Software\uCOS-II\Source/os_task.c **** ***************************************************************************************************
1200:..\..\..\..\..\..\Software\uCOS-II\Source/os_task.c **** *                              SET THE CURRENT VALUE OF A TASK VARIABLE
1201:..\..\..\..\..\..\Software\uCOS-II\Source/os_task.c **** *
1202:..\..\..\..\..\..\Software\uCOS-II\Source/os_task.c **** * Description: This function is called to change the current value of a task register.  Task regist
1203:..\..\..\..\..\..\Software\uCOS-II\Source/os_task.c **** *              are application specific and can be used to store task specific values such as 'erro
1204:..\..\..\..\..\..\Software\uCOS-II\Source/os_task.c **** *              numbers' (i.e. errno), statistics, etc.  Each task register can hold a 32-bit value.
1205:..\..\..\..\..\..\Software\uCOS-II\Source/os_task.c **** *
1206:..\..\..\..\..\..\Software\uCOS-II\Source/os_task.c **** * Arguments  : prio      is the priority of the task you want to set the task register for.  If you
1207:..\..\..\..\..\..\Software\uCOS-II\Source/os_task.c **** *                        specify OS_PRIO_SELF then the task register of the current task will be ob
1208:..\..\..\..\..\..\Software\uCOS-II\Source/os_task.c **** *
1209:..\..\..\..\..\..\Software\uCOS-II\Source/os_task.c **** *              id        is the 'id' of the desired task register.  Note that the 'id' must be less
1210:..\..\..\..\..\..\Software\uCOS-II\Source/os_task.c **** *                        than OS_TASK_REG_TBL_SIZE
1211:..\..\..\..\..\..\Software\uCOS-II\Source/os_task.c **** *
1212:..\..\..\..\..\..\Software\uCOS-II\Source/os_task.c **** *              value     is the desired value for the task register.
1213:..\..\..\..\..\..\Software\uCOS-II\Source/os_task.c **** *
1214:..\..\..\..\..\..\Software\uCOS-II\Source/os_task.c **** *              perr      is a pointer to a variable that will hold an error code related to this ca
1215:..\..\..\..\..\..\Software\uCOS-II\Source/os_task.c **** *
1216:..\..\..\..\..\..\Software\uCOS-II\Source/os_task.c **** *                        OS_ERR_NONE            if the call was successful
1217:..\..\..\..\..\..\Software\uCOS-II\Source/os_task.c **** *                        OS_ERR_PRIO_INVALID    if you specified an invalid priority
1218:..\..\..\..\..\..\Software\uCOS-II\Source/os_task.c **** *                        OS_ERR_ID_INVALID      if the 'id' is not between 0 and OS_TASK_REG_TBL_SI
1219:..\..\..\..\..\..\Software\uCOS-II\Source/os_task.c **** *
1220:..\..\..\..\..\..\Software\uCOS-II\Source/os_task.c **** * Returns    : The current value of the task's variable or 0 if an error is detected.
1221:..\..\..\..\..\..\Software\uCOS-II\Source/os_task.c **** *
1222:..\..\..\..\..\..\Software\uCOS-II\Source/os_task.c **** * Note(s)    : The maximum number of task variables is 254
1223:..\..\..\..\..\..\Software\uCOS-II\Source/os_task.c **** ***************************************************************************************************
1224:..\..\..\..\..\..\Software\uCOS-II\Source/os_task.c **** */
1225:..\..\..\..\..\..\Software\uCOS-II\Source/os_task.c **** 
1226:..\..\..\..\..\..\Software\uCOS-II\Source/os_task.c **** #if OS_TASK_REG_TBL_SIZE > 0u
1227:..\..\..\..\..\..\Software\uCOS-II\Source/os_task.c **** void  OSTaskRegSet (INT8U    prio,
1228:..\..\..\..\..\..\Software\uCOS-II\Source/os_task.c ****                     INT8U    id,
1229:..\..\..\..\..\..\Software\uCOS-II\Source/os_task.c ****                     INT32U   value,
1230:..\..\..\..\..\..\Software\uCOS-II\Source/os_task.c ****                     INT8U   *perr)
1231:..\..\..\..\..\..\Software\uCOS-II\Source/os_task.c **** {
 2579              		.loc 1 1231 0
 2580              		.cfi_startproc
 2581              		@ args = 0, pretend = 0, frame = 24
 2582              		@ frame_needed = 1, uses_anonymous_args = 0
 2583 0000 80B5     		push	{r7, lr}
 2584              		.cfi_def_cfa_offset 8
 2585              		.cfi_offset 7, -8
 2586              		.cfi_offset 14, -4
ARM GAS  C:\Users\ADMINI~1\AppData\Local\Temp\cc4JwS65.s 			page 68


 2587 0002 86B0     		sub	sp, sp, #24
 2588              		.cfi_def_cfa_offset 32
 2589 0004 00AF     		add	r7, sp, #0
 2590              		.cfi_def_cfa_register 7
 2591 0006 BA60     		str	r2, [r7, #8]
 2592 0008 7B60     		str	r3, [r7, #4]
 2593 000a 0F23     		movs	r3, #15
 2594 000c FB18     		adds	r3, r7, r3
 2595 000e 021C     		adds	r2, r0, #0
 2596 0010 1A70     		strb	r2, [r3]
 2597 0012 0E23     		movs	r3, #14
 2598 0014 FB18     		adds	r3, r7, r3
 2599 0016 0A1C     		adds	r2, r1, #0
 2600 0018 1A70     		strb	r2, [r3]
1232:..\..\..\..\..\..\Software\uCOS-II\Source/os_task.c **** #if OS_CRITICAL_METHOD == 3u                     /* Allocate storage for CPU status register       
1233:..\..\..\..\..\..\Software\uCOS-II\Source/os_task.c ****     OS_CPU_SR  cpu_sr = 0u;
 2601              		.loc 1 1233 0
 2602 001a 0023     		movs	r3, #0
 2603 001c 3B61     		str	r3, [r7, #16]
1234:..\..\..\..\..\..\Software\uCOS-II\Source/os_task.c **** #endif
1235:..\..\..\..\..\..\Software\uCOS-II\Source/os_task.c ****     OS_TCB    *ptcb;
1236:..\..\..\..\..\..\Software\uCOS-II\Source/os_task.c **** 
1237:..\..\..\..\..\..\Software\uCOS-II\Source/os_task.c **** 
1238:..\..\..\..\..\..\Software\uCOS-II\Source/os_task.c **** #ifdef OS_SAFETY_CRITICAL
1239:..\..\..\..\..\..\Software\uCOS-II\Source/os_task.c ****     if (perr == (INT8U *)0) {
1240:..\..\..\..\..\..\Software\uCOS-II\Source/os_task.c ****         OS_SAFETY_CRITICAL_EXCEPTION();
1241:..\..\..\..\..\..\Software\uCOS-II\Source/os_task.c ****         return;
1242:..\..\..\..\..\..\Software\uCOS-II\Source/os_task.c ****     }
1243:..\..\..\..\..\..\Software\uCOS-II\Source/os_task.c **** #endif
1244:..\..\..\..\..\..\Software\uCOS-II\Source/os_task.c **** 
1245:..\..\..\..\..\..\Software\uCOS-II\Source/os_task.c **** #if OS_ARG_CHK_EN > 0u
1246:..\..\..\..\..\..\Software\uCOS-II\Source/os_task.c ****     if (prio >= OS_LOWEST_PRIO) {
 2604              		.loc 1 1246 0
 2605 001e 0F23     		movs	r3, #15
 2606 0020 FB18     		adds	r3, r7, r3
 2607 0022 1B78     		ldrb	r3, [r3]
 2608 0024 3E2B     		cmp	r3, #62
 2609 0026 08D9     		bls	.L149
1247:..\..\..\..\..\..\Software\uCOS-II\Source/os_task.c ****         if (prio != OS_PRIO_SELF) {
 2610              		.loc 1 1247 0
 2611 0028 0F23     		movs	r3, #15
 2612 002a FB18     		adds	r3, r7, r3
 2613 002c 1B78     		ldrb	r3, [r3]
 2614 002e FF2B     		cmp	r3, #255
 2615 0030 03D0     		beq	.L149
1248:..\..\..\..\..\..\Software\uCOS-II\Source/os_task.c ****             *perr = OS_ERR_PRIO_INVALID;
 2616              		.loc 1 1248 0
 2617 0032 7B68     		ldr	r3, [r7, #4]
 2618 0034 2A22     		movs	r2, #42
 2619 0036 1A70     		strb	r2, [r3]
1249:..\..\..\..\..\..\Software\uCOS-II\Source/os_task.c ****             return;
 2620              		.loc 1 1249 0
 2621 0038 2DE0     		b	.L148
 2622              	.L149:
1250:..\..\..\..\..\..\Software\uCOS-II\Source/os_task.c ****         }
1251:..\..\..\..\..\..\Software\uCOS-II\Source/os_task.c ****     }
1252:..\..\..\..\..\..\Software\uCOS-II\Source/os_task.c ****     if (id >= OS_TASK_REG_TBL_SIZE) {
ARM GAS  C:\Users\ADMINI~1\AppData\Local\Temp\cc4JwS65.s 			page 69


 2623              		.loc 1 1252 0
 2624 003a 0E23     		movs	r3, #14
 2625 003c FB18     		adds	r3, r7, r3
 2626 003e 1B78     		ldrb	r3, [r3]
 2627 0040 002B     		cmp	r3, #0
 2628 0042 03D0     		beq	.L151
1253:..\..\..\..\..\..\Software\uCOS-II\Source/os_task.c ****         *perr = OS_ERR_ID_INVALID;
 2629              		.loc 1 1253 0
 2630 0044 7B68     		ldr	r3, [r7, #4]
 2631 0046 0822     		movs	r2, #8
 2632 0048 1A70     		strb	r2, [r3]
1254:..\..\..\..\..\..\Software\uCOS-II\Source/os_task.c ****         return;
 2633              		.loc 1 1254 0
 2634 004a 24E0     		b	.L148
 2635              	.L151:
1255:..\..\..\..\..\..\Software\uCOS-II\Source/os_task.c ****     }
1256:..\..\..\..\..\..\Software\uCOS-II\Source/os_task.c **** #endif
1257:..\..\..\..\..\..\Software\uCOS-II\Source/os_task.c ****     OS_ENTER_CRITICAL();
 2636              		.loc 1 1257 0
 2637 004c FFF7FEFF 		bl	OS_CPU_SR_Save
 2638 0050 0300     		movs	r3, r0
 2639 0052 3B61     		str	r3, [r7, #16]
1258:..\..\..\..\..\..\Software\uCOS-II\Source/os_task.c ****     if (prio == OS_PRIO_SELF) {                  /* See if need to get register from current task  
 2640              		.loc 1 1258 0
 2641 0054 0F23     		movs	r3, #15
 2642 0056 FB18     		adds	r3, r7, r3
 2643 0058 1B78     		ldrb	r3, [r3]
 2644 005a FF2B     		cmp	r3, #255
 2645 005c 03D1     		bne	.L152
1259:..\..\..\..\..\..\Software\uCOS-II\Source/os_task.c ****         ptcb = OSTCBCur;
 2646              		.loc 1 1259 0
 2647 005e 0F4B     		ldr	r3, .L154
 2648 0060 1B68     		ldr	r3, [r3]
 2649 0062 7B61     		str	r3, [r7, #20]
 2650 0064 06E0     		b	.L153
 2651              	.L152:
1260:..\..\..\..\..\..\Software\uCOS-II\Source/os_task.c ****     } else {
1261:..\..\..\..\..\..\Software\uCOS-II\Source/os_task.c ****         ptcb = OSTCBPrioTbl[prio];
 2652              		.loc 1 1261 0
 2653 0066 0F23     		movs	r3, #15
 2654 0068 FB18     		adds	r3, r7, r3
 2655 006a 1A78     		ldrb	r2, [r3]
 2656 006c 0C4B     		ldr	r3, .L154+4
 2657 006e 9200     		lsls	r2, r2, #2
 2658 0070 D358     		ldr	r3, [r2, r3]
 2659 0072 7B61     		str	r3, [r7, #20]
 2660              	.L153:
1262:..\..\..\..\..\..\Software\uCOS-II\Source/os_task.c ****     }
1263:..\..\..\..\..\..\Software\uCOS-II\Source/os_task.c ****     ptcb->OSTCBRegTbl[id] = value;
 2661              		.loc 1 1263 0
 2662 0074 0E23     		movs	r3, #14
 2663 0076 FB18     		adds	r3, r7, r3
 2664 0078 1B78     		ldrb	r3, [r3]
 2665 007a 7A69     		ldr	r2, [r7, #20]
 2666 007c 1433     		adds	r3, r3, #20
 2667 007e 9B00     		lsls	r3, r3, #2
 2668 0080 D318     		adds	r3, r2, r3
ARM GAS  C:\Users\ADMINI~1\AppData\Local\Temp\cc4JwS65.s 			page 70


 2669 0082 0433     		adds	r3, r3, #4
 2670 0084 BA68     		ldr	r2, [r7, #8]
 2671 0086 1A60     		str	r2, [r3]
1264:..\..\..\..\..\..\Software\uCOS-II\Source/os_task.c ****     OS_EXIT_CRITICAL();
 2672              		.loc 1 1264 0
 2673 0088 3B69     		ldr	r3, [r7, #16]
 2674 008a 1800     		movs	r0, r3
 2675 008c FFF7FEFF 		bl	OS_CPU_SR_Restore
1265:..\..\..\..\..\..\Software\uCOS-II\Source/os_task.c ****     *perr                 = OS_ERR_NONE;
 2676              		.loc 1 1265 0
 2677 0090 7B68     		ldr	r3, [r7, #4]
 2678 0092 0022     		movs	r2, #0
 2679 0094 1A70     		strb	r2, [r3]
 2680              	.L148:
1266:..\..\..\..\..\..\Software\uCOS-II\Source/os_task.c **** }
 2681              		.loc 1 1266 0
 2682 0096 BD46     		mov	sp, r7
 2683 0098 06B0     		add	sp, sp, #24
 2684              		@ sp needed
 2685 009a 80BD     		pop	{r7, pc}
 2686              	.L155:
 2687              		.align	2
 2688              	.L154:
 2689 009c 00000000 		.word	OSTCBCur
 2690 00a0 00000000 		.word	OSTCBPrioTbl
 2691              		.cfi_endproc
 2692              	.LFE14:
 2693              		.size	OSTaskRegSet, .-OSTaskRegSet
 2694              		.section	.text.OS_TaskReturn,"ax",%progbits
 2695              		.align	2
 2696              		.global	OS_TaskReturn
 2697              		.code	16
 2698              		.thumb_func
 2699              		.type	OS_TaskReturn, %function
 2700              	OS_TaskReturn:
 2701              	.LFB15:
1267:..\..\..\..\..\..\Software\uCOS-II\Source/os_task.c **** #endif
1268:..\..\..\..\..\..\Software\uCOS-II\Source/os_task.c **** 
1269:..\..\..\..\..\..\Software\uCOS-II\Source/os_task.c **** /*$PAGE*/
1270:..\..\..\..\..\..\Software\uCOS-II\Source/os_task.c **** /*
1271:..\..\..\..\..\..\Software\uCOS-II\Source/os_task.c **** ***************************************************************************************************
1272:..\..\..\..\..\..\Software\uCOS-II\Source/os_task.c **** *                                    CATCH ACCIDENTAL TASK RETURN
1273:..\..\..\..\..\..\Software\uCOS-II\Source/os_task.c **** *
1274:..\..\..\..\..\..\Software\uCOS-II\Source/os_task.c **** * Description: This function is called if a task accidentally returns without deleting itself.  In 
1275:..\..\..\..\..\..\Software\uCOS-II\Source/os_task.c **** *              words, a task should either be an infinite loop or delete itself if it's done.
1276:..\..\..\..\..\..\Software\uCOS-II\Source/os_task.c **** *
1277:..\..\..\..\..\..\Software\uCOS-II\Source/os_task.c **** * Arguments  : none
1278:..\..\..\..\..\..\Software\uCOS-II\Source/os_task.c **** *
1279:..\..\..\..\..\..\Software\uCOS-II\Source/os_task.c **** * Returns    : none
1280:..\..\..\..\..\..\Software\uCOS-II\Source/os_task.c **** *
1281:..\..\..\..\..\..\Software\uCOS-II\Source/os_task.c **** * Note(s)    : This function is INTERNAL to uC/OS-II and your application should not call it.
1282:..\..\..\..\..\..\Software\uCOS-II\Source/os_task.c **** ***************************************************************************************************
1283:..\..\..\..\..\..\Software\uCOS-II\Source/os_task.c **** */
1284:..\..\..\..\..\..\Software\uCOS-II\Source/os_task.c **** 
1285:..\..\..\..\..\..\Software\uCOS-II\Source/os_task.c **** void  OS_TaskReturn (void)
1286:..\..\..\..\..\..\Software\uCOS-II\Source/os_task.c **** {
 2702              		.loc 1 1286 0
ARM GAS  C:\Users\ADMINI~1\AppData\Local\Temp\cc4JwS65.s 			page 71


 2703              		.cfi_startproc
 2704              		@ args = 0, pretend = 0, frame = 0
 2705              		@ frame_needed = 1, uses_anonymous_args = 0
 2706 0000 80B5     		push	{r7, lr}
 2707              		.cfi_def_cfa_offset 8
 2708              		.cfi_offset 7, -8
 2709              		.cfi_offset 14, -4
 2710 0002 00AF     		add	r7, sp, #0
 2711              		.cfi_def_cfa_register 7
1287:..\..\..\..\..\..\Software\uCOS-II\Source/os_task.c ****     OSTaskReturnHook(OSTCBCur);                   /* Call hook to let user decide on what to do    
 2712              		.loc 1 1287 0
 2713 0004 054B     		ldr	r3, .L157
 2714 0006 1B68     		ldr	r3, [r3]
 2715 0008 1800     		movs	r0, r3
 2716 000a FFF7FEFF 		bl	OSTaskReturnHook
1288:..\..\..\..\..\..\Software\uCOS-II\Source/os_task.c **** 
1289:..\..\..\..\..\..\Software\uCOS-II\Source/os_task.c **** #if OS_TASK_DEL_EN > 0u
1290:..\..\..\..\..\..\Software\uCOS-II\Source/os_task.c ****     (void)OSTaskDel(OS_PRIO_SELF);                /* Delete task if it accidentally returns!       
 2717              		.loc 1 1290 0
 2718 000e FF20     		movs	r0, #255
 2719 0010 FFF7FEFF 		bl	OSTaskDel
1291:..\..\..\..\..\..\Software\uCOS-II\Source/os_task.c **** #else
1292:..\..\..\..\..\..\Software\uCOS-II\Source/os_task.c ****     for (;;) {
1293:..\..\..\..\..\..\Software\uCOS-II\Source/os_task.c ****         OSTimeDly(OS_TICKS_PER_SEC);
1294:..\..\..\..\..\..\Software\uCOS-II\Source/os_task.c ****     }
1295:..\..\..\..\..\..\Software\uCOS-II\Source/os_task.c **** #endif
1296:..\..\..\..\..\..\Software\uCOS-II\Source/os_task.c **** }
 2720              		.loc 1 1296 0
 2721 0014 C046     		nop
 2722 0016 BD46     		mov	sp, r7
 2723              		@ sp needed
 2724 0018 80BD     		pop	{r7, pc}
 2725              	.L158:
 2726 001a C046     		.align	2
 2727              	.L157:
 2728 001c 00000000 		.word	OSTCBCur
 2729              		.cfi_endproc
 2730              	.LFE15:
 2731              		.size	OS_TaskReturn, .-OS_TaskReturn
 2732              		.section	.text.OS_TaskStkClr,"ax",%progbits
 2733              		.align	2
 2734              		.global	OS_TaskStkClr
 2735              		.code	16
 2736              		.thumb_func
 2737              		.type	OS_TaskStkClr, %function
 2738              	OS_TaskStkClr:
 2739              	.LFB16:
1297:..\..\..\..\..\..\Software\uCOS-II\Source/os_task.c **** 
1298:..\..\..\..\..\..\Software\uCOS-II\Source/os_task.c **** /*$PAGE*/
1299:..\..\..\..\..\..\Software\uCOS-II\Source/os_task.c **** /*
1300:..\..\..\..\..\..\Software\uCOS-II\Source/os_task.c **** ***************************************************************************************************
1301:..\..\..\..\..\..\Software\uCOS-II\Source/os_task.c **** *                                          CLEAR TASK STACK
1302:..\..\..\..\..\..\Software\uCOS-II\Source/os_task.c **** *
1303:..\..\..\..\..\..\Software\uCOS-II\Source/os_task.c **** * Description: This function is used to clear the stack of a task (i.e. write all zeros)
1304:..\..\..\..\..\..\Software\uCOS-II\Source/os_task.c **** *
1305:..\..\..\..\..\..\Software\uCOS-II\Source/os_task.c **** * Arguments  : pbos     is a pointer to the task's bottom of stack.  If the configuration constant
1306:..\..\..\..\..\..\Software\uCOS-II\Source/os_task.c **** *                       OS_STK_GROWTH is set to 1, the stack is assumed to grow downward (i.e. from
ARM GAS  C:\Users\ADMINI~1\AppData\Local\Temp\cc4JwS65.s 			page 72


1307:..\..\..\..\..\..\Software\uCOS-II\Source/os_task.c **** *                       memory to low memory).  'pbos' will thus point to the lowest (valid) memory
1308:..\..\..\..\..\..\Software\uCOS-II\Source/os_task.c **** *                       location of the stack.  If OS_STK_GROWTH is set to 0, 'pbos' will point to 
1309:..\..\..\..\..\..\Software\uCOS-II\Source/os_task.c **** *                       highest memory location of the stack and the stack will grow with increasin
1310:..\..\..\..\..\..\Software\uCOS-II\Source/os_task.c **** *                       memory locations.  'pbos' MUST point to a valid 'free' data item.
1311:..\..\..\..\..\..\Software\uCOS-II\Source/os_task.c **** *
1312:..\..\..\..\..\..\Software\uCOS-II\Source/os_task.c **** *              size     is the number of 'stack elements' to clear.
1313:..\..\..\..\..\..\Software\uCOS-II\Source/os_task.c **** *
1314:..\..\..\..\..\..\Software\uCOS-II\Source/os_task.c **** *              opt      contains additional information (or options) about the behavior of the task
1315:..\..\..\..\..\..\Software\uCOS-II\Source/os_task.c **** *                       LOWER 8-bits are reserved by uC/OS-II while the upper 8 bits can be applica
1316:..\..\..\..\..\..\Software\uCOS-II\Source/os_task.c **** *                       specific.  See OS_TASK_OPT_??? in uCOS-II.H.
1317:..\..\..\..\..\..\Software\uCOS-II\Source/os_task.c **** *
1318:..\..\..\..\..\..\Software\uCOS-II\Source/os_task.c **** * Returns    : none
1319:..\..\..\..\..\..\Software\uCOS-II\Source/os_task.c **** ***************************************************************************************************
1320:..\..\..\..\..\..\Software\uCOS-II\Source/os_task.c **** */
1321:..\..\..\..\..\..\Software\uCOS-II\Source/os_task.c **** #if (OS_TASK_STAT_STK_CHK_EN > 0u) && (OS_TASK_CREATE_EXT_EN > 0u)
1322:..\..\..\..\..\..\Software\uCOS-II\Source/os_task.c **** void  OS_TaskStkClr (OS_STK  *pbos,
1323:..\..\..\..\..\..\Software\uCOS-II\Source/os_task.c ****                      INT32U   size,
1324:..\..\..\..\..\..\Software\uCOS-II\Source/os_task.c ****                      INT16U   opt)
1325:..\..\..\..\..\..\Software\uCOS-II\Source/os_task.c **** {
 2740              		.loc 1 1325 0
 2741              		.cfi_startproc
 2742              		@ args = 0, pretend = 0, frame = 16
 2743              		@ frame_needed = 1, uses_anonymous_args = 0
 2744 0000 80B5     		push	{r7, lr}
 2745              		.cfi_def_cfa_offset 8
 2746              		.cfi_offset 7, -8
 2747              		.cfi_offset 14, -4
 2748 0002 84B0     		sub	sp, sp, #16
 2749              		.cfi_def_cfa_offset 24
 2750 0004 00AF     		add	r7, sp, #0
 2751              		.cfi_def_cfa_register 7
 2752 0006 F860     		str	r0, [r7, #12]
 2753 0008 B960     		str	r1, [r7, #8]
 2754 000a BB1D     		adds	r3, r7, #6
 2755 000c 1A80     		strh	r2, [r3]
1326:..\..\..\..\..\..\Software\uCOS-II\Source/os_task.c ****     if ((opt & OS_TASK_OPT_STK_CHK) != 0x0000u) {      /* See if stack checking has been enabled   
 2756              		.loc 1 1326 0
 2757 000e BB1D     		adds	r3, r7, #6
 2758 0010 1B88     		ldrh	r3, [r3]
 2759 0012 0122     		movs	r2, #1
 2760 0014 1340     		ands	r3, r2
 2761 0016 10D0     		beq	.L163
1327:..\..\..\..\..\..\Software\uCOS-II\Source/os_task.c ****         if ((opt & OS_TASK_OPT_STK_CLR) != 0x0000u) {  /* See if stack needs to be cleared         
 2762              		.loc 1 1327 0
 2763 0018 BB1D     		adds	r3, r7, #6
 2764 001a 1B88     		ldrh	r3, [r3]
 2765 001c 0222     		movs	r2, #2
 2766 001e 1340     		ands	r3, r2
 2767 0020 0BD0     		beq	.L163
1328:..\..\..\..\..\..\Software\uCOS-II\Source/os_task.c **** #if OS_STK_GROWTH == 1u
1329:..\..\..\..\..\..\Software\uCOS-II\Source/os_task.c ****             while (size > 0u) {                        /* Stack grows from HIGH to LOW memory      
 2768              		.loc 1 1329 0
 2769 0022 07E0     		b	.L161
 2770              	.L162:
1330:..\..\..\..\..\..\Software\uCOS-II\Source/os_task.c ****                 size--;
 2771              		.loc 1 1330 0
 2772 0024 BB68     		ldr	r3, [r7, #8]
ARM GAS  C:\Users\ADMINI~1\AppData\Local\Temp\cc4JwS65.s 			page 73


 2773 0026 013B     		subs	r3, r3, #1
 2774 0028 BB60     		str	r3, [r7, #8]
1331:..\..\..\..\..\..\Software\uCOS-II\Source/os_task.c ****                 *pbos++ = (OS_STK)0;                   /* Clear from bottom of stack and up!       
 2775              		.loc 1 1331 0
 2776 002a FB68     		ldr	r3, [r7, #12]
 2777 002c 1A1D     		adds	r2, r3, #4
 2778 002e FA60     		str	r2, [r7, #12]
 2779 0030 0022     		movs	r2, #0
 2780 0032 1A60     		str	r2, [r3]
 2781              	.L161:
1329:..\..\..\..\..\..\Software\uCOS-II\Source/os_task.c ****                 size--;
 2782              		.loc 1 1329 0
 2783 0034 BB68     		ldr	r3, [r7, #8]
 2784 0036 002B     		cmp	r3, #0
 2785 0038 F4D1     		bne	.L162
 2786              	.L163:
1332:..\..\..\..\..\..\Software\uCOS-II\Source/os_task.c ****             }
1333:..\..\..\..\..\..\Software\uCOS-II\Source/os_task.c **** #else
1334:..\..\..\..\..\..\Software\uCOS-II\Source/os_task.c ****             while (size > 0u) {                        /* Stack grows from LOW to HIGH memory      
1335:..\..\..\..\..\..\Software\uCOS-II\Source/os_task.c ****                 size--;
1336:..\..\..\..\..\..\Software\uCOS-II\Source/os_task.c ****                 *pbos-- = (OS_STK)0;                   /* Clear from bottom of stack and down      
1337:..\..\..\..\..\..\Software\uCOS-II\Source/os_task.c ****             }
1338:..\..\..\..\..\..\Software\uCOS-II\Source/os_task.c **** #endif
1339:..\..\..\..\..\..\Software\uCOS-II\Source/os_task.c ****         }
1340:..\..\..\..\..\..\Software\uCOS-II\Source/os_task.c ****     }
1341:..\..\..\..\..\..\Software\uCOS-II\Source/os_task.c **** }
 2787              		.loc 1 1341 0
 2788 003a C046     		nop
 2789 003c BD46     		mov	sp, r7
 2790 003e 04B0     		add	sp, sp, #16
 2791              		@ sp needed
 2792 0040 80BD     		pop	{r7, pc}
 2793              		.cfi_endproc
 2794              	.LFE16:
 2795              		.size	OS_TaskStkClr, .-OS_TaskStkClr
 2796 0042 C046     		.text
 2797              	.Letext0:
 2798              		.file 2 "..\\..\\..\\..\\..\\..\\Software\\uCOS-II\\Ports\\ARM-Cortex-M0\\Generic\\GNU/os_cpu.h"
 2799              		.file 3 "..\\..\\..\\..\\..\\..\\Software\\uCOS-II\\Source/ucos_ii.h"