ARM GAS  C:\Users\ADMINI~1\AppData\Local\Temp\ccuQ0kDm.s 			page 1


   1              		.syntax unified
   2              		.cpu cortex-m0
   3              		.fpu softvfp
   4              		.eabi_attribute 20, 1
   5              		.eabi_attribute 21, 1
   6              		.eabi_attribute 23, 3
   7              		.eabi_attribute 24, 1
   8              		.eabi_attribute 25, 1
   9              		.eabi_attribute 26, 1
  10              		.eabi_attribute 30, 6
  11              		.eabi_attribute 34, 0
  12              		.eabi_attribute 18, 4
  13              		.thumb
  14              		.syntax unified
  15              		.file	"PWM_Red.c"
  16              		.text
  17              	.Ltext0:
  18              		.cfi_sections	.debug_frame
  19              		.global	PWM_Red_initVar
  20              		.bss
  21              		.type	PWM_Red_initVar, %object
  22              		.size	PWM_Red_initVar, 1
  23              	PWM_Red_initVar:
  24 0000 00       		.space	1
  25              		.section	.text.PWM_Red_Init,"ax",%progbits
  26              		.align	2
  27              		.global	PWM_Red_Init
  28              		.code	16
  29              		.thumb_func
  30              		.type	PWM_Red_Init, %function
  31              	PWM_Red_Init:
  32              	.LFB1:
  33              		.file 1 "Generated_Source\\PSoC4\\PWM_Red.c"
   1:Generated_Source\PSoC4/PWM_Red.c **** /*******************************************************************************
   2:Generated_Source\PSoC4/PWM_Red.c **** * File Name: PWM_Red.c
   3:Generated_Source\PSoC4/PWM_Red.c **** * Version 2.0
   4:Generated_Source\PSoC4/PWM_Red.c **** *
   5:Generated_Source\PSoC4/PWM_Red.c **** * Description:
   6:Generated_Source\PSoC4/PWM_Red.c **** *  This file provides the source code to the API for the PWM_Red
   7:Generated_Source\PSoC4/PWM_Red.c **** *  component
   8:Generated_Source\PSoC4/PWM_Red.c **** *
   9:Generated_Source\PSoC4/PWM_Red.c **** * Note:
  10:Generated_Source\PSoC4/PWM_Red.c **** *  None
  11:Generated_Source\PSoC4/PWM_Red.c **** *
  12:Generated_Source\PSoC4/PWM_Red.c **** ********************************************************************************
  13:Generated_Source\PSoC4/PWM_Red.c **** * Copyright 2013-2014, Cypress Semiconductor Corporation.  All rights reserved.
  14:Generated_Source\PSoC4/PWM_Red.c **** * You may use this file only in accordance with the license, terms, conditions,
  15:Generated_Source\PSoC4/PWM_Red.c **** * disclaimers, and limitations in the end user license agreement accompanying
  16:Generated_Source\PSoC4/PWM_Red.c **** * the software package with which this file was provided.
  17:Generated_Source\PSoC4/PWM_Red.c **** *******************************************************************************/
  18:Generated_Source\PSoC4/PWM_Red.c **** 
  19:Generated_Source\PSoC4/PWM_Red.c **** #include "PWM_Red.h"
  20:Generated_Source\PSoC4/PWM_Red.c **** 
  21:Generated_Source\PSoC4/PWM_Red.c **** uint8 PWM_Red_initVar = 0u;
  22:Generated_Source\PSoC4/PWM_Red.c **** 
  23:Generated_Source\PSoC4/PWM_Red.c **** 
  24:Generated_Source\PSoC4/PWM_Red.c **** /*******************************************************************************
ARM GAS  C:\Users\ADMINI~1\AppData\Local\Temp\ccuQ0kDm.s 			page 2


  25:Generated_Source\PSoC4/PWM_Red.c **** * Function Name: PWM_Red_Init
  26:Generated_Source\PSoC4/PWM_Red.c **** ********************************************************************************
  27:Generated_Source\PSoC4/PWM_Red.c **** *
  28:Generated_Source\PSoC4/PWM_Red.c **** * Summary:
  29:Generated_Source\PSoC4/PWM_Red.c **** *  Initialize/Restore default PWM_Red configuration.
  30:Generated_Source\PSoC4/PWM_Red.c **** *
  31:Generated_Source\PSoC4/PWM_Red.c **** * Parameters:
  32:Generated_Source\PSoC4/PWM_Red.c **** *  None
  33:Generated_Source\PSoC4/PWM_Red.c **** *
  34:Generated_Source\PSoC4/PWM_Red.c **** * Return:
  35:Generated_Source\PSoC4/PWM_Red.c **** *  None
  36:Generated_Source\PSoC4/PWM_Red.c **** *
  37:Generated_Source\PSoC4/PWM_Red.c **** *******************************************************************************/
  38:Generated_Source\PSoC4/PWM_Red.c **** void PWM_Red_Init(void)
  39:Generated_Source\PSoC4/PWM_Red.c **** {
  34              		.loc 1 39 0
  35              		.cfi_startproc
  36              		@ args = 0, pretend = 0, frame = 0
  37              		@ frame_needed = 1, uses_anonymous_args = 0
  38 0000 80B5     		push	{r7, lr}
  39              		.cfi_def_cfa_offset 8
  40              		.cfi_offset 7, -8
  41              		.cfi_offset 14, -4
  42 0002 00AF     		add	r7, sp, #0
  43              		.cfi_def_cfa_register 7
  40:Generated_Source\PSoC4/PWM_Red.c **** 
  41:Generated_Source\PSoC4/PWM_Red.c ****     /* Set values from customizer to CTRL */
  42:Generated_Source\PSoC4/PWM_Red.c ****     #if (PWM_Red__QUAD == PWM_Red_CONFIG)
  43:Generated_Source\PSoC4/PWM_Red.c ****         PWM_Red_CONTROL_REG = PWM_Red_CTRL_QUAD_BASE_CONFIG;
  44:Generated_Source\PSoC4/PWM_Red.c ****         
  45:Generated_Source\PSoC4/PWM_Red.c ****         /* Set values from customizer to CTRL1 */
  46:Generated_Source\PSoC4/PWM_Red.c ****         PWM_Red_TRIG_CONTROL1_REG  = PWM_Red_QUAD_SIGNALS_MODES;
  47:Generated_Source\PSoC4/PWM_Red.c **** 
  48:Generated_Source\PSoC4/PWM_Red.c ****         /* Set values from customizer to INTR */
  49:Generated_Source\PSoC4/PWM_Red.c ****         PWM_Red_SetInterruptMode(PWM_Red_QUAD_INTERRUPT_MASK);
  50:Generated_Source\PSoC4/PWM_Red.c ****         
  51:Generated_Source\PSoC4/PWM_Red.c ****          /* Set other values */
  52:Generated_Source\PSoC4/PWM_Red.c ****         PWM_Red_SetCounterMode(PWM_Red_COUNT_DOWN);
  53:Generated_Source\PSoC4/PWM_Red.c ****         PWM_Red_WritePeriod(PWM_Red_QUAD_PERIOD_INIT_VALUE);
  54:Generated_Source\PSoC4/PWM_Red.c ****         PWM_Red_WriteCounter(PWM_Red_QUAD_PERIOD_INIT_VALUE);
  55:Generated_Source\PSoC4/PWM_Red.c ****     #endif  /* (PWM_Red__QUAD == PWM_Red_CONFIG) */
  56:Generated_Source\PSoC4/PWM_Red.c **** 
  57:Generated_Source\PSoC4/PWM_Red.c ****     #if (PWM_Red__TIMER == PWM_Red_CONFIG)
  58:Generated_Source\PSoC4/PWM_Red.c ****         PWM_Red_CONTROL_REG = PWM_Red_CTRL_TIMER_BASE_CONFIG;
  59:Generated_Source\PSoC4/PWM_Red.c ****         
  60:Generated_Source\PSoC4/PWM_Red.c ****         /* Set values from customizer to CTRL1 */
  61:Generated_Source\PSoC4/PWM_Red.c ****         PWM_Red_TRIG_CONTROL1_REG  = PWM_Red_TIMER_SIGNALS_MODES;
  62:Generated_Source\PSoC4/PWM_Red.c ****     
  63:Generated_Source\PSoC4/PWM_Red.c ****         /* Set values from customizer to INTR */
  64:Generated_Source\PSoC4/PWM_Red.c ****         PWM_Red_SetInterruptMode(PWM_Red_TC_INTERRUPT_MASK);
  65:Generated_Source\PSoC4/PWM_Red.c ****         
  66:Generated_Source\PSoC4/PWM_Red.c ****         /* Set other values from customizer */
  67:Generated_Source\PSoC4/PWM_Red.c ****         PWM_Red_WritePeriod(PWM_Red_TC_PERIOD_VALUE );
  68:Generated_Source\PSoC4/PWM_Red.c **** 
  69:Generated_Source\PSoC4/PWM_Red.c ****         #if (PWM_Red__COMPARE == PWM_Red_TC_COMP_CAP_MODE)
  70:Generated_Source\PSoC4/PWM_Red.c ****             PWM_Red_WriteCompare(PWM_Red_TC_COMPARE_VALUE);
  71:Generated_Source\PSoC4/PWM_Red.c **** 
ARM GAS  C:\Users\ADMINI~1\AppData\Local\Temp\ccuQ0kDm.s 			page 3


  72:Generated_Source\PSoC4/PWM_Red.c ****             #if (1u == PWM_Red_TC_COMPARE_SWAP)
  73:Generated_Source\PSoC4/PWM_Red.c ****                 PWM_Red_SetCompareSwap(1u);
  74:Generated_Source\PSoC4/PWM_Red.c ****                 PWM_Red_WriteCompareBuf(PWM_Red_TC_COMPARE_BUF_VALUE);
  75:Generated_Source\PSoC4/PWM_Red.c ****             #endif  /* (1u == PWM_Red_TC_COMPARE_SWAP) */
  76:Generated_Source\PSoC4/PWM_Red.c ****         #endif  /* (PWM_Red__COMPARE == PWM_Red_TC_COMP_CAP_MODE) */
  77:Generated_Source\PSoC4/PWM_Red.c **** 
  78:Generated_Source\PSoC4/PWM_Red.c ****         /* Initialize counter value */
  79:Generated_Source\PSoC4/PWM_Red.c ****         #if (PWM_Red_CY_TCPWM_V2 && PWM_Red_TIMER_UPDOWN_CNT_USED && !PWM_Red_CY_TCPWM_4000)
  80:Generated_Source\PSoC4/PWM_Red.c ****             PWM_Red_WriteCounter(1u);
  81:Generated_Source\PSoC4/PWM_Red.c ****         #elif(PWM_Red__COUNT_DOWN == PWM_Red_TC_COUNTER_MODE)
  82:Generated_Source\PSoC4/PWM_Red.c ****             PWM_Red_WriteCounter(PWM_Red_TC_PERIOD_VALUE);
  83:Generated_Source\PSoC4/PWM_Red.c ****         #else
  84:Generated_Source\PSoC4/PWM_Red.c ****             PWM_Red_WriteCounter(0u);
  85:Generated_Source\PSoC4/PWM_Red.c ****         #endif /* (PWM_Red_CY_TCPWM_V2 && PWM_Red_TIMER_UPDOWN_CNT_USED && !PWM_Red_CY_TCPWM_4000) 
  86:Generated_Source\PSoC4/PWM_Red.c ****     #endif  /* (PWM_Red__TIMER == PWM_Red_CONFIG) */
  87:Generated_Source\PSoC4/PWM_Red.c **** 
  88:Generated_Source\PSoC4/PWM_Red.c ****     #if (PWM_Red__PWM_SEL == PWM_Red_CONFIG)
  89:Generated_Source\PSoC4/PWM_Red.c ****         PWM_Red_CONTROL_REG = PWM_Red_CTRL_PWM_BASE_CONFIG;
  44              		.loc 1 89 0
  45 0004 0F4B     		ldr	r3, .L2
  46 0006 C022     		movs	r2, #192
  47 0008 D204     		lsls	r2, r2, #19
  48 000a 1A60     		str	r2, [r3]
  90:Generated_Source\PSoC4/PWM_Red.c **** 
  91:Generated_Source\PSoC4/PWM_Red.c ****         #if (PWM_Red__PWM_PR == PWM_Red_PWM_MODE)
  92:Generated_Source\PSoC4/PWM_Red.c ****             PWM_Red_CONTROL_REG |= PWM_Red_CTRL_PWM_RUN_MODE;
  49              		.loc 1 92 0
  50 000c 0D4B     		ldr	r3, .L2
  51 000e 0D4A     		ldr	r2, .L2
  52 0010 1268     		ldr	r2, [r2]
  53 0012 1A60     		str	r2, [r3]
  93:Generated_Source\PSoC4/PWM_Red.c ****             PWM_Red_WriteCounter(PWM_Red_PWM_PR_INIT_VALUE);
  54              		.loc 1 93 0
  55 0014 0120     		movs	r0, #1
  56 0016 FFF7FEFF 		bl	PWM_Red_WriteCounter
  94:Generated_Source\PSoC4/PWM_Red.c ****         #else
  95:Generated_Source\PSoC4/PWM_Red.c ****             PWM_Red_CONTROL_REG |= PWM_Red_CTRL_PWM_ALIGN | PWM_Red_CTRL_PWM_KILL_EVENT;
  96:Generated_Source\PSoC4/PWM_Red.c ****             
  97:Generated_Source\PSoC4/PWM_Red.c ****             /* Initialize counter value */
  98:Generated_Source\PSoC4/PWM_Red.c ****             #if (PWM_Red_CY_TCPWM_V2 && PWM_Red_PWM_UPDOWN_CNT_USED && !PWM_Red_CY_TCPWM_4000)
  99:Generated_Source\PSoC4/PWM_Red.c ****                 PWM_Red_WriteCounter(1u);
 100:Generated_Source\PSoC4/PWM_Red.c ****             #elif (PWM_Red__RIGHT == PWM_Red_PWM_ALIGN)
 101:Generated_Source\PSoC4/PWM_Red.c ****                 PWM_Red_WriteCounter(PWM_Red_PWM_PERIOD_VALUE);
 102:Generated_Source\PSoC4/PWM_Red.c ****             #else 
 103:Generated_Source\PSoC4/PWM_Red.c ****                 PWM_Red_WriteCounter(0u);
 104:Generated_Source\PSoC4/PWM_Red.c ****             #endif  /* (PWM_Red_CY_TCPWM_V2 && PWM_Red_PWM_UPDOWN_CNT_USED && !PWM_Red_CY_TCPWM_400
 105:Generated_Source\PSoC4/PWM_Red.c ****         #endif  /* (PWM_Red__PWM_PR == PWM_Red_PWM_MODE) */
 106:Generated_Source\PSoC4/PWM_Red.c **** 
 107:Generated_Source\PSoC4/PWM_Red.c ****         #if (PWM_Red__PWM_DT == PWM_Red_PWM_MODE)
 108:Generated_Source\PSoC4/PWM_Red.c ****             PWM_Red_CONTROL_REG |= PWM_Red_CTRL_PWM_DEAD_TIME_CYCLE;
 109:Generated_Source\PSoC4/PWM_Red.c ****         #endif  /* (PWM_Red__PWM_DT == PWM_Red_PWM_MODE) */
 110:Generated_Source\PSoC4/PWM_Red.c **** 
 111:Generated_Source\PSoC4/PWM_Red.c ****         #if (PWM_Red__PWM == PWM_Red_PWM_MODE)
 112:Generated_Source\PSoC4/PWM_Red.c ****             PWM_Red_CONTROL_REG |= PWM_Red_CTRL_PWM_PRESCALER;
 113:Generated_Source\PSoC4/PWM_Red.c ****         #endif  /* (PWM_Red__PWM == PWM_Red_PWM_MODE) */
 114:Generated_Source\PSoC4/PWM_Red.c **** 
 115:Generated_Source\PSoC4/PWM_Red.c ****         /* Set values from customizer to CTRL1 */
ARM GAS  C:\Users\ADMINI~1\AppData\Local\Temp\ccuQ0kDm.s 			page 4


 116:Generated_Source\PSoC4/PWM_Red.c ****         PWM_Red_TRIG_CONTROL1_REG  = PWM_Red_PWM_SIGNALS_MODES;
  57              		.loc 1 116 0
  58 001a 0B4B     		ldr	r3, .L2+4
  59 001c 0C22     		movs	r2, #12
  60 001e 1A60     		str	r2, [r3]
 117:Generated_Source\PSoC4/PWM_Red.c ****     
 118:Generated_Source\PSoC4/PWM_Red.c ****         /* Set values from customizer to INTR */
 119:Generated_Source\PSoC4/PWM_Red.c ****         PWM_Red_SetInterruptMode(PWM_Red_PWM_INTERRUPT_MASK);
  61              		.loc 1 119 0
  62 0020 0020     		movs	r0, #0
  63 0022 FFF7FEFF 		bl	PWM_Red_SetInterruptMode
 120:Generated_Source\PSoC4/PWM_Red.c **** 
 121:Generated_Source\PSoC4/PWM_Red.c ****         /* Set values from customizer to CTRL2 */
 122:Generated_Source\PSoC4/PWM_Red.c ****         #if (PWM_Red__PWM_PR == PWM_Red_PWM_MODE)
 123:Generated_Source\PSoC4/PWM_Red.c ****             PWM_Red_TRIG_CONTROL2_REG =
  64              		.loc 1 123 0
  65 0026 094B     		ldr	r3, .L2+8
  66 0028 3F22     		movs	r2, #63
  67 002a 1A60     		str	r2, [r3]
 124:Generated_Source\PSoC4/PWM_Red.c ****                     (PWM_Red_CC_MATCH_NO_CHANGE    |
 125:Generated_Source\PSoC4/PWM_Red.c ****                     PWM_Red_OVERLOW_NO_CHANGE      |
 126:Generated_Source\PSoC4/PWM_Red.c ****                     PWM_Red_UNDERFLOW_NO_CHANGE);
 127:Generated_Source\PSoC4/PWM_Red.c ****         #else
 128:Generated_Source\PSoC4/PWM_Red.c ****             #if (PWM_Red__LEFT == PWM_Red_PWM_ALIGN)
 129:Generated_Source\PSoC4/PWM_Red.c ****                 PWM_Red_TRIG_CONTROL2_REG = PWM_Red_PWM_MODE_LEFT;
 130:Generated_Source\PSoC4/PWM_Red.c ****             #endif  /* ( PWM_Red_PWM_LEFT == PWM_Red_PWM_ALIGN) */
 131:Generated_Source\PSoC4/PWM_Red.c **** 
 132:Generated_Source\PSoC4/PWM_Red.c ****             #if (PWM_Red__RIGHT == PWM_Red_PWM_ALIGN)
 133:Generated_Source\PSoC4/PWM_Red.c ****                 PWM_Red_TRIG_CONTROL2_REG = PWM_Red_PWM_MODE_RIGHT;
 134:Generated_Source\PSoC4/PWM_Red.c ****             #endif  /* ( PWM_Red_PWM_RIGHT == PWM_Red_PWM_ALIGN) */
 135:Generated_Source\PSoC4/PWM_Red.c **** 
 136:Generated_Source\PSoC4/PWM_Red.c ****             #if (PWM_Red__CENTER == PWM_Red_PWM_ALIGN)
 137:Generated_Source\PSoC4/PWM_Red.c ****                 PWM_Red_TRIG_CONTROL2_REG = PWM_Red_PWM_MODE_CENTER;
 138:Generated_Source\PSoC4/PWM_Red.c ****             #endif  /* ( PWM_Red_PWM_CENTER == PWM_Red_PWM_ALIGN) */
 139:Generated_Source\PSoC4/PWM_Red.c **** 
 140:Generated_Source\PSoC4/PWM_Red.c ****             #if (PWM_Red__ASYMMETRIC == PWM_Red_PWM_ALIGN)
 141:Generated_Source\PSoC4/PWM_Red.c ****                 PWM_Red_TRIG_CONTROL2_REG = PWM_Red_PWM_MODE_ASYM;
 142:Generated_Source\PSoC4/PWM_Red.c ****             #endif  /* (PWM_Red__ASYMMETRIC == PWM_Red_PWM_ALIGN) */
 143:Generated_Source\PSoC4/PWM_Red.c ****         #endif  /* (PWM_Red__PWM_PR == PWM_Red_PWM_MODE) */
 144:Generated_Source\PSoC4/PWM_Red.c **** 
 145:Generated_Source\PSoC4/PWM_Red.c ****         /* Set other values from customizer */
 146:Generated_Source\PSoC4/PWM_Red.c ****         PWM_Red_WritePeriod(PWM_Red_PWM_PERIOD_VALUE );
  68              		.loc 1 146 0
  69 002c 084B     		ldr	r3, .L2+12
  70 002e 1800     		movs	r0, r3
  71 0030 FFF7FEFF 		bl	PWM_Red_WritePeriod
 147:Generated_Source\PSoC4/PWM_Red.c ****         PWM_Red_WriteCompare(PWM_Red_PWM_COMPARE_VALUE);
  72              		.loc 1 147 0
  73 0034 074B     		ldr	r3, .L2+16
  74 0036 1800     		movs	r0, r3
  75 0038 FFF7FEFF 		bl	PWM_Red_WriteCompare
 148:Generated_Source\PSoC4/PWM_Red.c **** 
 149:Generated_Source\PSoC4/PWM_Red.c ****         #if (1u == PWM_Red_PWM_COMPARE_SWAP)
 150:Generated_Source\PSoC4/PWM_Red.c ****             PWM_Red_SetCompareSwap(1u);
 151:Generated_Source\PSoC4/PWM_Red.c ****             PWM_Red_WriteCompareBuf(PWM_Red_PWM_COMPARE_BUF_VALUE);
 152:Generated_Source\PSoC4/PWM_Red.c ****         #endif  /* (1u == PWM_Red_PWM_COMPARE_SWAP) */
 153:Generated_Source\PSoC4/PWM_Red.c **** 
ARM GAS  C:\Users\ADMINI~1\AppData\Local\Temp\ccuQ0kDm.s 			page 5


 154:Generated_Source\PSoC4/PWM_Red.c ****         #if (1u == PWM_Red_PWM_PERIOD_SWAP)
 155:Generated_Source\PSoC4/PWM_Red.c ****             PWM_Red_SetPeriodSwap(1u);
 156:Generated_Source\PSoC4/PWM_Red.c ****             PWM_Red_WritePeriodBuf(PWM_Red_PWM_PERIOD_BUF_VALUE);
 157:Generated_Source\PSoC4/PWM_Red.c ****         #endif  /* (1u == PWM_Red_PWM_PERIOD_SWAP) */
 158:Generated_Source\PSoC4/PWM_Red.c ****     #endif  /* (PWM_Red__PWM_SEL == PWM_Red_CONFIG) */
 159:Generated_Source\PSoC4/PWM_Red.c ****     
 160:Generated_Source\PSoC4/PWM_Red.c **** }
  76              		.loc 1 160 0
  77 003c C046     		nop
  78 003e BD46     		mov	sp, r7
  79              		@ sp needed
  80 0040 80BD     		pop	{r7, pc}
  81              	.L3:
  82 0042 C046     		.align	2
  83              	.L2:
  84 0044 40012040 		.word	1075839296
  85 0048 64012040 		.word	1075839332
  86 004c 68012040 		.word	1075839336
  87 0050 FFFF0000 		.word	65535
  88 0054 FF7F0000 		.word	32767
  89              		.cfi_endproc
  90              	.LFE1:
  91              		.size	PWM_Red_Init, .-PWM_Red_Init
  92              		.section	.text.PWM_Red_Enable,"ax",%progbits
  93              		.align	2
  94              		.global	PWM_Red_Enable
  95              		.code	16
  96              		.thumb_func
  97              		.type	PWM_Red_Enable, %function
  98              	PWM_Red_Enable:
  99              	.LFB2:
 161:Generated_Source\PSoC4/PWM_Red.c **** 
 162:Generated_Source\PSoC4/PWM_Red.c **** 
 163:Generated_Source\PSoC4/PWM_Red.c **** /*******************************************************************************
 164:Generated_Source\PSoC4/PWM_Red.c **** * Function Name: PWM_Red_Enable
 165:Generated_Source\PSoC4/PWM_Red.c **** ********************************************************************************
 166:Generated_Source\PSoC4/PWM_Red.c **** *
 167:Generated_Source\PSoC4/PWM_Red.c **** * Summary:
 168:Generated_Source\PSoC4/PWM_Red.c **** *  Enables the PWM_Red.
 169:Generated_Source\PSoC4/PWM_Red.c **** *
 170:Generated_Source\PSoC4/PWM_Red.c **** * Parameters:
 171:Generated_Source\PSoC4/PWM_Red.c **** *  None
 172:Generated_Source\PSoC4/PWM_Red.c **** *
 173:Generated_Source\PSoC4/PWM_Red.c **** * Return:
 174:Generated_Source\PSoC4/PWM_Red.c **** *  None
 175:Generated_Source\PSoC4/PWM_Red.c **** *
 176:Generated_Source\PSoC4/PWM_Red.c **** *******************************************************************************/
 177:Generated_Source\PSoC4/PWM_Red.c **** void PWM_Red_Enable(void)
 178:Generated_Source\PSoC4/PWM_Red.c **** {
 100              		.loc 1 178 0
 101              		.cfi_startproc
 102              		@ args = 0, pretend = 0, frame = 8
 103              		@ frame_needed = 1, uses_anonymous_args = 0
 104 0000 90B5     		push	{r4, r7, lr}
 105              		.cfi_def_cfa_offset 12
 106              		.cfi_offset 4, -12
 107              		.cfi_offset 7, -8
ARM GAS  C:\Users\ADMINI~1\AppData\Local\Temp\ccuQ0kDm.s 			page 6


 108              		.cfi_offset 14, -4
 109 0002 83B0     		sub	sp, sp, #12
 110              		.cfi_def_cfa_offset 24
 111 0004 00AF     		add	r7, sp, #0
 112              		.cfi_def_cfa_register 7
 179:Generated_Source\PSoC4/PWM_Red.c ****     uint8 enableInterrupts;
 180:Generated_Source\PSoC4/PWM_Red.c **** 
 181:Generated_Source\PSoC4/PWM_Red.c ****     enableInterrupts = CyEnterCriticalSection();
 113              		.loc 1 181 0
 114 0006 FC1D     		adds	r4, r7, #7
 115 0008 FFF7FEFF 		bl	CyEnterCriticalSection
 116 000c 0300     		movs	r3, r0
 117 000e 2370     		strb	r3, [r4]
 182:Generated_Source\PSoC4/PWM_Red.c ****     PWM_Red_BLOCK_CONTROL_REG |= PWM_Red_MASK;
 118              		.loc 1 182 0
 119 0010 094B     		ldr	r3, .L5
 120 0012 094A     		ldr	r2, .L5
 121 0014 1268     		ldr	r2, [r2]
 122 0016 0221     		movs	r1, #2
 123 0018 0A43     		orrs	r2, r1
 124 001a 1A60     		str	r2, [r3]
 183:Generated_Source\PSoC4/PWM_Red.c ****     CyExitCriticalSection(enableInterrupts);
 125              		.loc 1 183 0
 126 001c FB1D     		adds	r3, r7, #7
 127 001e 1B78     		ldrb	r3, [r3]
 128 0020 1800     		movs	r0, r3
 129 0022 FFF7FEFF 		bl	CyExitCriticalSection
 184:Generated_Source\PSoC4/PWM_Red.c **** 
 185:Generated_Source\PSoC4/PWM_Red.c ****     /* Start Timer or PWM if start input is absent */
 186:Generated_Source\PSoC4/PWM_Red.c ****     #if (PWM_Red__PWM_SEL == PWM_Red_CONFIG)
 187:Generated_Source\PSoC4/PWM_Red.c ****         #if (0u == PWM_Red_PWM_START_SIGNAL_PRESENT)
 188:Generated_Source\PSoC4/PWM_Red.c ****             PWM_Red_TriggerCommand(PWM_Red_MASK, PWM_Red_CMD_START);
 130              		.loc 1 188 0
 131 0026 1821     		movs	r1, #24
 132 0028 0220     		movs	r0, #2
 133 002a FFF7FEFF 		bl	PWM_Red_TriggerCommand
 189:Generated_Source\PSoC4/PWM_Red.c ****         #endif /* (0u == PWM_Red_PWM_START_SIGNAL_PRESENT) */
 190:Generated_Source\PSoC4/PWM_Red.c ****     #endif /* (PWM_Red__PWM_SEL == PWM_Red_CONFIG) */
 191:Generated_Source\PSoC4/PWM_Red.c **** 
 192:Generated_Source\PSoC4/PWM_Red.c ****     #if (PWM_Red__TIMER == PWM_Red_CONFIG)
 193:Generated_Source\PSoC4/PWM_Red.c ****         #if (0u == PWM_Red_TC_START_SIGNAL_PRESENT)
 194:Generated_Source\PSoC4/PWM_Red.c ****             PWM_Red_TriggerCommand(PWM_Red_MASK, PWM_Red_CMD_START);
 195:Generated_Source\PSoC4/PWM_Red.c ****         #endif /* (0u == PWM_Red_TC_START_SIGNAL_PRESENT) */
 196:Generated_Source\PSoC4/PWM_Red.c ****     #endif /* (PWM_Red__TIMER == PWM_Red_CONFIG) */
 197:Generated_Source\PSoC4/PWM_Red.c **** }
 134              		.loc 1 197 0
 135 002e C046     		nop
 136 0030 BD46     		mov	sp, r7
 137 0032 03B0     		add	sp, sp, #12
 138              		@ sp needed
 139 0034 90BD     		pop	{r4, r7, pc}
 140              	.L6:
 141 0036 C046     		.align	2
 142              	.L5:
 143 0038 00002040 		.word	1075838976
 144              		.cfi_endproc
 145              	.LFE2:
ARM GAS  C:\Users\ADMINI~1\AppData\Local\Temp\ccuQ0kDm.s 			page 7


 146              		.size	PWM_Red_Enable, .-PWM_Red_Enable
 147              		.section	.text.PWM_Red_Start,"ax",%progbits
 148              		.align	2
 149              		.global	PWM_Red_Start
 150              		.code	16
 151              		.thumb_func
 152              		.type	PWM_Red_Start, %function
 153              	PWM_Red_Start:
 154              	.LFB3:
 198:Generated_Source\PSoC4/PWM_Red.c **** 
 199:Generated_Source\PSoC4/PWM_Red.c **** 
 200:Generated_Source\PSoC4/PWM_Red.c **** /*******************************************************************************
 201:Generated_Source\PSoC4/PWM_Red.c **** * Function Name: PWM_Red_Start
 202:Generated_Source\PSoC4/PWM_Red.c **** ********************************************************************************
 203:Generated_Source\PSoC4/PWM_Red.c **** *
 204:Generated_Source\PSoC4/PWM_Red.c **** * Summary:
 205:Generated_Source\PSoC4/PWM_Red.c **** *  Initializes the PWM_Red with default customizer
 206:Generated_Source\PSoC4/PWM_Red.c **** *  values when called the first time and enables the PWM_Red.
 207:Generated_Source\PSoC4/PWM_Red.c **** *  For subsequent calls the configuration is left unchanged and the component is
 208:Generated_Source\PSoC4/PWM_Red.c **** *  just enabled.
 209:Generated_Source\PSoC4/PWM_Red.c **** *
 210:Generated_Source\PSoC4/PWM_Red.c **** * Parameters:
 211:Generated_Source\PSoC4/PWM_Red.c **** *  None
 212:Generated_Source\PSoC4/PWM_Red.c **** *
 213:Generated_Source\PSoC4/PWM_Red.c **** * Return:
 214:Generated_Source\PSoC4/PWM_Red.c **** *  None
 215:Generated_Source\PSoC4/PWM_Red.c **** *
 216:Generated_Source\PSoC4/PWM_Red.c **** * Global variables:
 217:Generated_Source\PSoC4/PWM_Red.c **** *  PWM_Red_initVar: global variable is used to indicate initial
 218:Generated_Source\PSoC4/PWM_Red.c **** *  configuration of this component.  The variable is initialized to zero and set
 219:Generated_Source\PSoC4/PWM_Red.c **** *  to 1 the first time PWM_Red_Start() is called. This allows
 220:Generated_Source\PSoC4/PWM_Red.c **** *  enabling/disabling a component without re-initialization in all subsequent
 221:Generated_Source\PSoC4/PWM_Red.c **** *  calls to the PWM_Red_Start() routine.
 222:Generated_Source\PSoC4/PWM_Red.c **** *
 223:Generated_Source\PSoC4/PWM_Red.c **** *******************************************************************************/
 224:Generated_Source\PSoC4/PWM_Red.c **** void PWM_Red_Start(void)
 225:Generated_Source\PSoC4/PWM_Red.c **** {
 155              		.loc 1 225 0
 156              		.cfi_startproc
 157              		@ args = 0, pretend = 0, frame = 0
 158              		@ frame_needed = 1, uses_anonymous_args = 0
 159 0000 80B5     		push	{r7, lr}
 160              		.cfi_def_cfa_offset 8
 161              		.cfi_offset 7, -8
 162              		.cfi_offset 14, -4
 163 0002 00AF     		add	r7, sp, #0
 164              		.cfi_def_cfa_register 7
 226:Generated_Source\PSoC4/PWM_Red.c ****     if (0u == PWM_Red_initVar)
 165              		.loc 1 226 0
 166 0004 064B     		ldr	r3, .L9
 167 0006 1B78     		ldrb	r3, [r3]
 168 0008 002B     		cmp	r3, #0
 169 000a 04D1     		bne	.L8
 227:Generated_Source\PSoC4/PWM_Red.c ****     {
 228:Generated_Source\PSoC4/PWM_Red.c ****         PWM_Red_Init();
 170              		.loc 1 228 0
 171 000c FFF7FEFF 		bl	PWM_Red_Init
ARM GAS  C:\Users\ADMINI~1\AppData\Local\Temp\ccuQ0kDm.s 			page 8


 229:Generated_Source\PSoC4/PWM_Red.c ****         PWM_Red_initVar = 1u;
 172              		.loc 1 229 0
 173 0010 034B     		ldr	r3, .L9
 174 0012 0122     		movs	r2, #1
 175 0014 1A70     		strb	r2, [r3]
 176              	.L8:
 230:Generated_Source\PSoC4/PWM_Red.c ****     }
 231:Generated_Source\PSoC4/PWM_Red.c **** 
 232:Generated_Source\PSoC4/PWM_Red.c ****     PWM_Red_Enable();
 177              		.loc 1 232 0
 178 0016 FFF7FEFF 		bl	PWM_Red_Enable
 233:Generated_Source\PSoC4/PWM_Red.c **** }
 179              		.loc 1 233 0
 180 001a C046     		nop
 181 001c BD46     		mov	sp, r7
 182              		@ sp needed
 183 001e 80BD     		pop	{r7, pc}
 184              	.L10:
 185              		.align	2
 186              	.L9:
 187 0020 00000000 		.word	PWM_Red_initVar
 188              		.cfi_endproc
 189              	.LFE3:
 190              		.size	PWM_Red_Start, .-PWM_Red_Start
 191              		.section	.text.PWM_Red_Stop,"ax",%progbits
 192              		.align	2
 193              		.global	PWM_Red_Stop
 194              		.code	16
 195              		.thumb_func
 196              		.type	PWM_Red_Stop, %function
 197              	PWM_Red_Stop:
 198              	.LFB4:
 234:Generated_Source\PSoC4/PWM_Red.c **** 
 235:Generated_Source\PSoC4/PWM_Red.c **** 
 236:Generated_Source\PSoC4/PWM_Red.c **** /*******************************************************************************
 237:Generated_Source\PSoC4/PWM_Red.c **** * Function Name: PWM_Red_Stop
 238:Generated_Source\PSoC4/PWM_Red.c **** ********************************************************************************
 239:Generated_Source\PSoC4/PWM_Red.c **** *
 240:Generated_Source\PSoC4/PWM_Red.c **** * Summary:
 241:Generated_Source\PSoC4/PWM_Red.c **** *  Disables the PWM_Red.
 242:Generated_Source\PSoC4/PWM_Red.c **** *
 243:Generated_Source\PSoC4/PWM_Red.c **** * Parameters:
 244:Generated_Source\PSoC4/PWM_Red.c **** *  None
 245:Generated_Source\PSoC4/PWM_Red.c **** *
 246:Generated_Source\PSoC4/PWM_Red.c **** * Return:
 247:Generated_Source\PSoC4/PWM_Red.c **** *  None
 248:Generated_Source\PSoC4/PWM_Red.c **** *
 249:Generated_Source\PSoC4/PWM_Red.c **** *******************************************************************************/
 250:Generated_Source\PSoC4/PWM_Red.c **** void PWM_Red_Stop(void)
 251:Generated_Source\PSoC4/PWM_Red.c **** {
 199              		.loc 1 251 0
 200              		.cfi_startproc
 201              		@ args = 0, pretend = 0, frame = 8
 202              		@ frame_needed = 1, uses_anonymous_args = 0
 203 0000 90B5     		push	{r4, r7, lr}
 204              		.cfi_def_cfa_offset 12
 205              		.cfi_offset 4, -12
ARM GAS  C:\Users\ADMINI~1\AppData\Local\Temp\ccuQ0kDm.s 			page 9


 206              		.cfi_offset 7, -8
 207              		.cfi_offset 14, -4
 208 0002 83B0     		sub	sp, sp, #12
 209              		.cfi_def_cfa_offset 24
 210 0004 00AF     		add	r7, sp, #0
 211              		.cfi_def_cfa_register 7
 252:Generated_Source\PSoC4/PWM_Red.c ****     uint8 enableInterrupts;
 253:Generated_Source\PSoC4/PWM_Red.c **** 
 254:Generated_Source\PSoC4/PWM_Red.c ****     enableInterrupts = CyEnterCriticalSection();
 212              		.loc 1 254 0
 213 0006 FC1D     		adds	r4, r7, #7
 214 0008 FFF7FEFF 		bl	CyEnterCriticalSection
 215 000c 0300     		movs	r3, r0
 216 000e 2370     		strb	r3, [r4]
 255:Generated_Source\PSoC4/PWM_Red.c **** 
 256:Generated_Source\PSoC4/PWM_Red.c ****     PWM_Red_BLOCK_CONTROL_REG &= (uint32)~PWM_Red_MASK;
 217              		.loc 1 256 0
 218 0010 074B     		ldr	r3, .L12
 219 0012 074A     		ldr	r2, .L12
 220 0014 1268     		ldr	r2, [r2]
 221 0016 0221     		movs	r1, #2
 222 0018 8A43     		bics	r2, r1
 223 001a 1A60     		str	r2, [r3]
 257:Generated_Source\PSoC4/PWM_Red.c **** 
 258:Generated_Source\PSoC4/PWM_Red.c ****     CyExitCriticalSection(enableInterrupts);
 224              		.loc 1 258 0
 225 001c FB1D     		adds	r3, r7, #7
 226 001e 1B78     		ldrb	r3, [r3]
 227 0020 1800     		movs	r0, r3
 228 0022 FFF7FEFF 		bl	CyExitCriticalSection
 259:Generated_Source\PSoC4/PWM_Red.c **** }
 229              		.loc 1 259 0
 230 0026 C046     		nop
 231 0028 BD46     		mov	sp, r7
 232 002a 03B0     		add	sp, sp, #12
 233              		@ sp needed
 234 002c 90BD     		pop	{r4, r7, pc}
 235              	.L13:
 236 002e C046     		.align	2
 237              	.L12:
 238 0030 00002040 		.word	1075838976
 239              		.cfi_endproc
 240              	.LFE4:
 241              		.size	PWM_Red_Stop, .-PWM_Red_Stop
 242              		.section	.text.PWM_Red_SetMode,"ax",%progbits
 243              		.align	2
 244              		.global	PWM_Red_SetMode
 245              		.code	16
 246              		.thumb_func
 247              		.type	PWM_Red_SetMode, %function
 248              	PWM_Red_SetMode:
 249              	.LFB5:
 260:Generated_Source\PSoC4/PWM_Red.c **** 
 261:Generated_Source\PSoC4/PWM_Red.c **** 
 262:Generated_Source\PSoC4/PWM_Red.c **** /*******************************************************************************
 263:Generated_Source\PSoC4/PWM_Red.c **** * Function Name: PWM_Red_SetMode
 264:Generated_Source\PSoC4/PWM_Red.c **** ********************************************************************************
ARM GAS  C:\Users\ADMINI~1\AppData\Local\Temp\ccuQ0kDm.s 			page 10


 265:Generated_Source\PSoC4/PWM_Red.c **** *
 266:Generated_Source\PSoC4/PWM_Red.c **** * Summary:
 267:Generated_Source\PSoC4/PWM_Red.c **** *  Sets the operation mode of the PWM_Red. This function is used when
 268:Generated_Source\PSoC4/PWM_Red.c **** *  configured as a generic PWM_Red and the actual mode of operation is
 269:Generated_Source\PSoC4/PWM_Red.c **** *  set at runtime. The mode must be set while the component is disabled.
 270:Generated_Source\PSoC4/PWM_Red.c **** *
 271:Generated_Source\PSoC4/PWM_Red.c **** * Parameters:
 272:Generated_Source\PSoC4/PWM_Red.c **** *  mode: Mode for the PWM_Red to operate in
 273:Generated_Source\PSoC4/PWM_Red.c **** *   Values:
 274:Generated_Source\PSoC4/PWM_Red.c **** *   - PWM_Red_MODE_TIMER_COMPARE - Timer / Counter with
 275:Generated_Source\PSoC4/PWM_Red.c **** *                                                 compare capability
 276:Generated_Source\PSoC4/PWM_Red.c **** *         - PWM_Red_MODE_TIMER_CAPTURE - Timer / Counter with
 277:Generated_Source\PSoC4/PWM_Red.c **** *                                                 capture capability
 278:Generated_Source\PSoC4/PWM_Red.c **** *         - PWM_Red_MODE_QUAD - Quadrature decoder
 279:Generated_Source\PSoC4/PWM_Red.c **** *         - PWM_Red_MODE_PWM - PWM
 280:Generated_Source\PSoC4/PWM_Red.c **** *         - PWM_Red_MODE_PWM_DT - PWM with dead time
 281:Generated_Source\PSoC4/PWM_Red.c **** *         - PWM_Red_MODE_PWM_PR - PWM with pseudo random capability
 282:Generated_Source\PSoC4/PWM_Red.c **** *
 283:Generated_Source\PSoC4/PWM_Red.c **** * Return:
 284:Generated_Source\PSoC4/PWM_Red.c **** *  None
 285:Generated_Source\PSoC4/PWM_Red.c **** *
 286:Generated_Source\PSoC4/PWM_Red.c **** *******************************************************************************/
 287:Generated_Source\PSoC4/PWM_Red.c **** void PWM_Red_SetMode(uint32 mode)
 288:Generated_Source\PSoC4/PWM_Red.c **** {
 250              		.loc 1 288 0
 251              		.cfi_startproc
 252              		@ args = 0, pretend = 0, frame = 16
 253              		@ frame_needed = 1, uses_anonymous_args = 0
 254 0000 90B5     		push	{r4, r7, lr}
 255              		.cfi_def_cfa_offset 12
 256              		.cfi_offset 4, -12
 257              		.cfi_offset 7, -8
 258              		.cfi_offset 14, -4
 259 0002 85B0     		sub	sp, sp, #20
 260              		.cfi_def_cfa_offset 32
 261 0004 00AF     		add	r7, sp, #0
 262              		.cfi_def_cfa_register 7
 263 0006 7860     		str	r0, [r7, #4]
 289:Generated_Source\PSoC4/PWM_Red.c ****     uint8 enableInterrupts;
 290:Generated_Source\PSoC4/PWM_Red.c **** 
 291:Generated_Source\PSoC4/PWM_Red.c ****     enableInterrupts = CyEnterCriticalSection();
 264              		.loc 1 291 0
 265 0008 0F23     		movs	r3, #15
 266 000a FC18     		adds	r4, r7, r3
 267 000c FFF7FEFF 		bl	CyEnterCriticalSection
 268 0010 0300     		movs	r3, r0
 269 0012 2370     		strb	r3, [r4]
 292:Generated_Source\PSoC4/PWM_Red.c **** 
 293:Generated_Source\PSoC4/PWM_Red.c ****     PWM_Red_CONTROL_REG &= (uint32)~PWM_Red_MODE_MASK;
 270              		.loc 1 293 0
 271 0014 0A4B     		ldr	r3, .L15
 272 0016 0A4A     		ldr	r2, .L15
 273 0018 1268     		ldr	r2, [r2]
 274 001a 0A49     		ldr	r1, .L15+4
 275 001c 0A40     		ands	r2, r1
 276 001e 1A60     		str	r2, [r3]
 294:Generated_Source\PSoC4/PWM_Red.c ****     PWM_Red_CONTROL_REG |= mode;
ARM GAS  C:\Users\ADMINI~1\AppData\Local\Temp\ccuQ0kDm.s 			page 11


 277              		.loc 1 294 0
 278 0020 074B     		ldr	r3, .L15
 279 0022 074A     		ldr	r2, .L15
 280 0024 1168     		ldr	r1, [r2]
 281 0026 7A68     		ldr	r2, [r7, #4]
 282 0028 0A43     		orrs	r2, r1
 283 002a 1A60     		str	r2, [r3]
 295:Generated_Source\PSoC4/PWM_Red.c **** 
 296:Generated_Source\PSoC4/PWM_Red.c ****     CyExitCriticalSection(enableInterrupts);
 284              		.loc 1 296 0
 285 002c 0F23     		movs	r3, #15
 286 002e FB18     		adds	r3, r7, r3
 287 0030 1B78     		ldrb	r3, [r3]
 288 0032 1800     		movs	r0, r3
 289 0034 FFF7FEFF 		bl	CyExitCriticalSection
 297:Generated_Source\PSoC4/PWM_Red.c **** }
 290              		.loc 1 297 0
 291 0038 C046     		nop
 292 003a BD46     		mov	sp, r7
 293 003c 05B0     		add	sp, sp, #20
 294              		@ sp needed
 295 003e 90BD     		pop	{r4, r7, pc}
 296              	.L16:
 297              		.align	2
 298              	.L15:
 299 0040 40012040 		.word	1075839296
 300 0044 FFFFFFF8 		.word	-117440513
 301              		.cfi_endproc
 302              	.LFE5:
 303              		.size	PWM_Red_SetMode, .-PWM_Red_SetMode
 304              		.section	.text.PWM_Red_SetQDMode,"ax",%progbits
 305              		.align	2
 306              		.global	PWM_Red_SetQDMode
 307              		.code	16
 308              		.thumb_func
 309              		.type	PWM_Red_SetQDMode, %function
 310              	PWM_Red_SetQDMode:
 311              	.LFB6:
 298:Generated_Source\PSoC4/PWM_Red.c **** 
 299:Generated_Source\PSoC4/PWM_Red.c **** 
 300:Generated_Source\PSoC4/PWM_Red.c **** /*******************************************************************************
 301:Generated_Source\PSoC4/PWM_Red.c **** * Function Name: PWM_Red_SetQDMode
 302:Generated_Source\PSoC4/PWM_Red.c **** ********************************************************************************
 303:Generated_Source\PSoC4/PWM_Red.c **** *
 304:Generated_Source\PSoC4/PWM_Red.c **** * Summary:
 305:Generated_Source\PSoC4/PWM_Red.c **** *  Sets the the Quadrature Decoder to one of the 3 supported modes.
 306:Generated_Source\PSoC4/PWM_Red.c **** *  Its functionality is only applicable to Quadrature Decoder operation.
 307:Generated_Source\PSoC4/PWM_Red.c **** *
 308:Generated_Source\PSoC4/PWM_Red.c **** * Parameters:
 309:Generated_Source\PSoC4/PWM_Red.c **** *  qdMode: Quadrature Decoder mode
 310:Generated_Source\PSoC4/PWM_Red.c **** *   Values:
 311:Generated_Source\PSoC4/PWM_Red.c **** *         - PWM_Red_MODE_X1 - Counts on phi 1 rising
 312:Generated_Source\PSoC4/PWM_Red.c **** *         - PWM_Red_MODE_X2 - Counts on both edges of phi1 (2x faster)
 313:Generated_Source\PSoC4/PWM_Red.c **** *         - PWM_Red_MODE_X4 - Counts on both edges of phi1 and phi2
 314:Generated_Source\PSoC4/PWM_Red.c **** *                                        (4x faster)
 315:Generated_Source\PSoC4/PWM_Red.c **** *
 316:Generated_Source\PSoC4/PWM_Red.c **** * Return:
ARM GAS  C:\Users\ADMINI~1\AppData\Local\Temp\ccuQ0kDm.s 			page 12


 317:Generated_Source\PSoC4/PWM_Red.c **** *  None
 318:Generated_Source\PSoC4/PWM_Red.c **** *
 319:Generated_Source\PSoC4/PWM_Red.c **** *******************************************************************************/
 320:Generated_Source\PSoC4/PWM_Red.c **** void PWM_Red_SetQDMode(uint32 qdMode)
 321:Generated_Source\PSoC4/PWM_Red.c **** {
 312              		.loc 1 321 0
 313              		.cfi_startproc
 314              		@ args = 0, pretend = 0, frame = 16
 315              		@ frame_needed = 1, uses_anonymous_args = 0
 316 0000 90B5     		push	{r4, r7, lr}
 317              		.cfi_def_cfa_offset 12
 318              		.cfi_offset 4, -12
 319              		.cfi_offset 7, -8
 320              		.cfi_offset 14, -4
 321 0002 85B0     		sub	sp, sp, #20
 322              		.cfi_def_cfa_offset 32
 323 0004 00AF     		add	r7, sp, #0
 324              		.cfi_def_cfa_register 7
 325 0006 7860     		str	r0, [r7, #4]
 322:Generated_Source\PSoC4/PWM_Red.c ****     uint8 enableInterrupts;
 323:Generated_Source\PSoC4/PWM_Red.c **** 
 324:Generated_Source\PSoC4/PWM_Red.c ****     enableInterrupts = CyEnterCriticalSection();
 326              		.loc 1 324 0
 327 0008 0F23     		movs	r3, #15
 328 000a FC18     		adds	r4, r7, r3
 329 000c FFF7FEFF 		bl	CyEnterCriticalSection
 330 0010 0300     		movs	r3, r0
 331 0012 2370     		strb	r3, [r4]
 325:Generated_Source\PSoC4/PWM_Red.c **** 
 326:Generated_Source\PSoC4/PWM_Red.c ****     PWM_Red_CONTROL_REG &= (uint32)~PWM_Red_QUAD_MODE_MASK;
 332              		.loc 1 326 0
 333 0014 0A4B     		ldr	r3, .L18
 334 0016 0A4A     		ldr	r2, .L18
 335 0018 1268     		ldr	r2, [r2]
 336 001a 0A49     		ldr	r1, .L18+4
 337 001c 0A40     		ands	r2, r1
 338 001e 1A60     		str	r2, [r3]
 327:Generated_Source\PSoC4/PWM_Red.c ****     PWM_Red_CONTROL_REG |= qdMode;
 339              		.loc 1 327 0
 340 0020 074B     		ldr	r3, .L18
 341 0022 074A     		ldr	r2, .L18
 342 0024 1168     		ldr	r1, [r2]
 343 0026 7A68     		ldr	r2, [r7, #4]
 344 0028 0A43     		orrs	r2, r1
 345 002a 1A60     		str	r2, [r3]
 328:Generated_Source\PSoC4/PWM_Red.c **** 
 329:Generated_Source\PSoC4/PWM_Red.c ****     CyExitCriticalSection(enableInterrupts);
 346              		.loc 1 329 0
 347 002c 0F23     		movs	r3, #15
 348 002e FB18     		adds	r3, r7, r3
 349 0030 1B78     		ldrb	r3, [r3]
 350 0032 1800     		movs	r0, r3
 351 0034 FFF7FEFF 		bl	CyExitCriticalSection
 330:Generated_Source\PSoC4/PWM_Red.c **** }
 352              		.loc 1 330 0
 353 0038 C046     		nop
 354 003a BD46     		mov	sp, r7
ARM GAS  C:\Users\ADMINI~1\AppData\Local\Temp\ccuQ0kDm.s 			page 13


 355 003c 05B0     		add	sp, sp, #20
 356              		@ sp needed
 357 003e 90BD     		pop	{r4, r7, pc}
 358              	.L19:
 359              		.align	2
 360              	.L18:
 361 0040 40012040 		.word	1075839296
 362 0044 FFFF8FFF 		.word	-7340033
 363              		.cfi_endproc
 364              	.LFE6:
 365              		.size	PWM_Red_SetQDMode, .-PWM_Red_SetQDMode
 366              		.section	.text.PWM_Red_SetPrescaler,"ax",%progbits
 367              		.align	2
 368              		.global	PWM_Red_SetPrescaler
 369              		.code	16
 370              		.thumb_func
 371              		.type	PWM_Red_SetPrescaler, %function
 372              	PWM_Red_SetPrescaler:
 373              	.LFB7:
 331:Generated_Source\PSoC4/PWM_Red.c **** 
 332:Generated_Source\PSoC4/PWM_Red.c **** 
 333:Generated_Source\PSoC4/PWM_Red.c **** /*******************************************************************************
 334:Generated_Source\PSoC4/PWM_Red.c **** * Function Name: PWM_Red_SetPrescaler
 335:Generated_Source\PSoC4/PWM_Red.c **** ********************************************************************************
 336:Generated_Source\PSoC4/PWM_Red.c **** *
 337:Generated_Source\PSoC4/PWM_Red.c **** * Summary:
 338:Generated_Source\PSoC4/PWM_Red.c **** *  Sets the prescaler value that is applied to the clock input.  Not applicable
 339:Generated_Source\PSoC4/PWM_Red.c **** *  to a PWM with the dead time mode or Quadrature Decoder mode.
 340:Generated_Source\PSoC4/PWM_Red.c **** *
 341:Generated_Source\PSoC4/PWM_Red.c **** * Parameters:
 342:Generated_Source\PSoC4/PWM_Red.c **** *  prescaler: Prescaler divider value
 343:Generated_Source\PSoC4/PWM_Red.c **** *   Values:
 344:Generated_Source\PSoC4/PWM_Red.c **** *         - PWM_Red_PRESCALE_DIVBY1    - Divide by 1 (no prescaling)
 345:Generated_Source\PSoC4/PWM_Red.c **** *         - PWM_Red_PRESCALE_DIVBY2    - Divide by 2
 346:Generated_Source\PSoC4/PWM_Red.c **** *         - PWM_Red_PRESCALE_DIVBY4    - Divide by 4
 347:Generated_Source\PSoC4/PWM_Red.c **** *         - PWM_Red_PRESCALE_DIVBY8    - Divide by 8
 348:Generated_Source\PSoC4/PWM_Red.c **** *         - PWM_Red_PRESCALE_DIVBY16   - Divide by 16
 349:Generated_Source\PSoC4/PWM_Red.c **** *         - PWM_Red_PRESCALE_DIVBY32   - Divide by 32
 350:Generated_Source\PSoC4/PWM_Red.c **** *         - PWM_Red_PRESCALE_DIVBY64   - Divide by 64
 351:Generated_Source\PSoC4/PWM_Red.c **** *         - PWM_Red_PRESCALE_DIVBY128  - Divide by 128
 352:Generated_Source\PSoC4/PWM_Red.c **** *
 353:Generated_Source\PSoC4/PWM_Red.c **** * Return:
 354:Generated_Source\PSoC4/PWM_Red.c **** *  None
 355:Generated_Source\PSoC4/PWM_Red.c **** *
 356:Generated_Source\PSoC4/PWM_Red.c **** *******************************************************************************/
 357:Generated_Source\PSoC4/PWM_Red.c **** void PWM_Red_SetPrescaler(uint32 prescaler)
 358:Generated_Source\PSoC4/PWM_Red.c **** {
 374              		.loc 1 358 0
 375              		.cfi_startproc
 376              		@ args = 0, pretend = 0, frame = 16
 377              		@ frame_needed = 1, uses_anonymous_args = 0
 378 0000 90B5     		push	{r4, r7, lr}
 379              		.cfi_def_cfa_offset 12
 380              		.cfi_offset 4, -12
 381              		.cfi_offset 7, -8
 382              		.cfi_offset 14, -4
 383 0002 85B0     		sub	sp, sp, #20
ARM GAS  C:\Users\ADMINI~1\AppData\Local\Temp\ccuQ0kDm.s 			page 14


 384              		.cfi_def_cfa_offset 32
 385 0004 00AF     		add	r7, sp, #0
 386              		.cfi_def_cfa_register 7
 387 0006 7860     		str	r0, [r7, #4]
 359:Generated_Source\PSoC4/PWM_Red.c ****     uint8 enableInterrupts;
 360:Generated_Source\PSoC4/PWM_Red.c **** 
 361:Generated_Source\PSoC4/PWM_Red.c ****     enableInterrupts = CyEnterCriticalSection();
 388              		.loc 1 361 0
 389 0008 0F23     		movs	r3, #15
 390 000a FC18     		adds	r4, r7, r3
 391 000c FFF7FEFF 		bl	CyEnterCriticalSection
 392 0010 0300     		movs	r3, r0
 393 0012 2370     		strb	r3, [r4]
 362:Generated_Source\PSoC4/PWM_Red.c **** 
 363:Generated_Source\PSoC4/PWM_Red.c ****     PWM_Red_CONTROL_REG &= (uint32)~PWM_Red_PRESCALER_MASK;
 394              		.loc 1 363 0
 395 0014 0A4B     		ldr	r3, .L21
 396 0016 0A4A     		ldr	r2, .L21
 397 0018 1268     		ldr	r2, [r2]
 398 001a 0A49     		ldr	r1, .L21+4
 399 001c 0A40     		ands	r2, r1
 400 001e 1A60     		str	r2, [r3]
 364:Generated_Source\PSoC4/PWM_Red.c ****     PWM_Red_CONTROL_REG |= prescaler;
 401              		.loc 1 364 0
 402 0020 074B     		ldr	r3, .L21
 403 0022 074A     		ldr	r2, .L21
 404 0024 1168     		ldr	r1, [r2]
 405 0026 7A68     		ldr	r2, [r7, #4]
 406 0028 0A43     		orrs	r2, r1
 407 002a 1A60     		str	r2, [r3]
 365:Generated_Source\PSoC4/PWM_Red.c **** 
 366:Generated_Source\PSoC4/PWM_Red.c ****     CyExitCriticalSection(enableInterrupts);
 408              		.loc 1 366 0
 409 002c 0F23     		movs	r3, #15
 410 002e FB18     		adds	r3, r7, r3
 411 0030 1B78     		ldrb	r3, [r3]
 412 0032 1800     		movs	r0, r3
 413 0034 FFF7FEFF 		bl	CyExitCriticalSection
 367:Generated_Source\PSoC4/PWM_Red.c **** }
 414              		.loc 1 367 0
 415 0038 C046     		nop
 416 003a BD46     		mov	sp, r7
 417 003c 05B0     		add	sp, sp, #20
 418              		@ sp needed
 419 003e 90BD     		pop	{r4, r7, pc}
 420              	.L22:
 421              		.align	2
 422              	.L21:
 423 0040 40012040 		.word	1075839296
 424 0044 FF00FFFF 		.word	-65281
 425              		.cfi_endproc
 426              	.LFE7:
 427              		.size	PWM_Red_SetPrescaler, .-PWM_Red_SetPrescaler
 428              		.section	.text.PWM_Red_SetOneShot,"ax",%progbits
 429              		.align	2
 430              		.global	PWM_Red_SetOneShot
 431              		.code	16
ARM GAS  C:\Users\ADMINI~1\AppData\Local\Temp\ccuQ0kDm.s 			page 15


 432              		.thumb_func
 433              		.type	PWM_Red_SetOneShot, %function
 434              	PWM_Red_SetOneShot:
 435              	.LFB8:
 368:Generated_Source\PSoC4/PWM_Red.c **** 
 369:Generated_Source\PSoC4/PWM_Red.c **** 
 370:Generated_Source\PSoC4/PWM_Red.c **** /*******************************************************************************
 371:Generated_Source\PSoC4/PWM_Red.c **** * Function Name: PWM_Red_SetOneShot
 372:Generated_Source\PSoC4/PWM_Red.c **** ********************************************************************************
 373:Generated_Source\PSoC4/PWM_Red.c **** *
 374:Generated_Source\PSoC4/PWM_Red.c **** * Summary:
 375:Generated_Source\PSoC4/PWM_Red.c **** *  Writes the register that controls whether the PWM_Red runs
 376:Generated_Source\PSoC4/PWM_Red.c **** *  continuously or stops when terminal count is reached.  By default the
 377:Generated_Source\PSoC4/PWM_Red.c **** *  PWM_Red operates in the continuous mode.
 378:Generated_Source\PSoC4/PWM_Red.c **** *
 379:Generated_Source\PSoC4/PWM_Red.c **** * Parameters:
 380:Generated_Source\PSoC4/PWM_Red.c **** *  oneShotEnable
 381:Generated_Source\PSoC4/PWM_Red.c **** *   Values:
 382:Generated_Source\PSoC4/PWM_Red.c **** *     - 0 - Continuous
 383:Generated_Source\PSoC4/PWM_Red.c **** *     - 1 - Enable One Shot
 384:Generated_Source\PSoC4/PWM_Red.c **** *
 385:Generated_Source\PSoC4/PWM_Red.c **** * Return:
 386:Generated_Source\PSoC4/PWM_Red.c **** *  None
 387:Generated_Source\PSoC4/PWM_Red.c **** *
 388:Generated_Source\PSoC4/PWM_Red.c **** *******************************************************************************/
 389:Generated_Source\PSoC4/PWM_Red.c **** void PWM_Red_SetOneShot(uint32 oneShotEnable)
 390:Generated_Source\PSoC4/PWM_Red.c **** {
 436              		.loc 1 390 0
 437              		.cfi_startproc
 438              		@ args = 0, pretend = 0, frame = 16
 439              		@ frame_needed = 1, uses_anonymous_args = 0
 440 0000 90B5     		push	{r4, r7, lr}
 441              		.cfi_def_cfa_offset 12
 442              		.cfi_offset 4, -12
 443              		.cfi_offset 7, -8
 444              		.cfi_offset 14, -4
 445 0002 85B0     		sub	sp, sp, #20
 446              		.cfi_def_cfa_offset 32
 447 0004 00AF     		add	r7, sp, #0
 448              		.cfi_def_cfa_register 7
 449 0006 7860     		str	r0, [r7, #4]
 391:Generated_Source\PSoC4/PWM_Red.c ****     uint8 enableInterrupts;
 392:Generated_Source\PSoC4/PWM_Red.c **** 
 393:Generated_Source\PSoC4/PWM_Red.c ****     enableInterrupts = CyEnterCriticalSection();
 450              		.loc 1 393 0
 451 0008 0F23     		movs	r3, #15
 452 000a FC18     		adds	r4, r7, r3
 453 000c FFF7FEFF 		bl	CyEnterCriticalSection
 454 0010 0300     		movs	r3, r0
 455 0012 2370     		strb	r3, [r4]
 394:Generated_Source\PSoC4/PWM_Red.c **** 
 395:Generated_Source\PSoC4/PWM_Red.c ****     PWM_Red_CONTROL_REG &= (uint32)~PWM_Red_ONESHOT_MASK;
 456              		.loc 1 395 0
 457 0014 0C4B     		ldr	r3, .L24
 458 0016 0C4A     		ldr	r2, .L24
 459 0018 1268     		ldr	r2, [r2]
 460 001a 0C49     		ldr	r1, .L24+4
ARM GAS  C:\Users\ADMINI~1\AppData\Local\Temp\ccuQ0kDm.s 			page 16


 461 001c 0A40     		ands	r2, r1
 462 001e 1A60     		str	r2, [r3]
 396:Generated_Source\PSoC4/PWM_Red.c ****     PWM_Red_CONTROL_REG |= ((uint32)((oneShotEnable & PWM_Red_1BIT_MASK) <<
 463              		.loc 1 396 0
 464 0020 094B     		ldr	r3, .L24
 465 0022 094A     		ldr	r2, .L24
 466 0024 1168     		ldr	r1, [r2]
 467 0026 7A68     		ldr	r2, [r7, #4]
 468 0028 9004     		lsls	r0, r2, #18
 469 002a 8022     		movs	r2, #128
 470 002c D202     		lsls	r2, r2, #11
 471 002e 0240     		ands	r2, r0
 472 0030 0A43     		orrs	r2, r1
 473 0032 1A60     		str	r2, [r3]
 397:Generated_Source\PSoC4/PWM_Red.c ****                                                                PWM_Red_ONESHOT_SHIFT));
 398:Generated_Source\PSoC4/PWM_Red.c **** 
 399:Generated_Source\PSoC4/PWM_Red.c ****     CyExitCriticalSection(enableInterrupts);
 474              		.loc 1 399 0
 475 0034 0F23     		movs	r3, #15
 476 0036 FB18     		adds	r3, r7, r3
 477 0038 1B78     		ldrb	r3, [r3]
 478 003a 1800     		movs	r0, r3
 479 003c FFF7FEFF 		bl	CyExitCriticalSection
 400:Generated_Source\PSoC4/PWM_Red.c **** }
 480              		.loc 1 400 0
 481 0040 C046     		nop
 482 0042 BD46     		mov	sp, r7
 483 0044 05B0     		add	sp, sp, #20
 484              		@ sp needed
 485 0046 90BD     		pop	{r4, r7, pc}
 486              	.L25:
 487              		.align	2
 488              	.L24:
 489 0048 40012040 		.word	1075839296
 490 004c FFFFFBFF 		.word	-262145
 491              		.cfi_endproc
 492              	.LFE8:
 493              		.size	PWM_Red_SetOneShot, .-PWM_Red_SetOneShot
 494              		.section	.text.PWM_Red_SetPWMMode,"ax",%progbits
 495              		.align	2
 496              		.global	PWM_Red_SetPWMMode
 497              		.code	16
 498              		.thumb_func
 499              		.type	PWM_Red_SetPWMMode, %function
 500              	PWM_Red_SetPWMMode:
 501              	.LFB9:
 401:Generated_Source\PSoC4/PWM_Red.c **** 
 402:Generated_Source\PSoC4/PWM_Red.c **** 
 403:Generated_Source\PSoC4/PWM_Red.c **** /*******************************************************************************
 404:Generated_Source\PSoC4/PWM_Red.c **** * Function Name: PWM_Red_SetPWMMode
 405:Generated_Source\PSoC4/PWM_Red.c **** ********************************************************************************
 406:Generated_Source\PSoC4/PWM_Red.c **** *
 407:Generated_Source\PSoC4/PWM_Red.c **** * Summary:
 408:Generated_Source\PSoC4/PWM_Red.c **** *  Writes the control register that determines what mode of operation the PWM
 409:Generated_Source\PSoC4/PWM_Red.c **** *  output lines are driven in.  There is a setting for what to do on a
 410:Generated_Source\PSoC4/PWM_Red.c **** *  comparison match (CC_MATCH), on an overflow (OVERFLOW) and on an underflow
 411:Generated_Source\PSoC4/PWM_Red.c **** *  (UNDERFLOW).  The value for each of the three must be ORed together to form
ARM GAS  C:\Users\ADMINI~1\AppData\Local\Temp\ccuQ0kDm.s 			page 17


 412:Generated_Source\PSoC4/PWM_Red.c **** *  the mode.
 413:Generated_Source\PSoC4/PWM_Red.c **** *
 414:Generated_Source\PSoC4/PWM_Red.c **** * Parameters:
 415:Generated_Source\PSoC4/PWM_Red.c **** *  modeMask: A combination of three mode settings.  Mask must include a value
 416:Generated_Source\PSoC4/PWM_Red.c **** *  for each of the three or use one of the preconfigured PWM settings.
 417:Generated_Source\PSoC4/PWM_Red.c **** *   Values:
 418:Generated_Source\PSoC4/PWM_Red.c **** *     - CC_MATCH_SET        - Set on comparison match
 419:Generated_Source\PSoC4/PWM_Red.c **** *     - CC_MATCH_CLEAR      - Clear on comparison match
 420:Generated_Source\PSoC4/PWM_Red.c **** *     - CC_MATCH_INVERT     - Invert on comparison match
 421:Generated_Source\PSoC4/PWM_Red.c **** *     - CC_MATCH_NO_CHANGE  - No change on comparison match
 422:Generated_Source\PSoC4/PWM_Red.c **** *     - OVERLOW_SET         - Set on overflow
 423:Generated_Source\PSoC4/PWM_Red.c **** *     - OVERLOW_CLEAR       - Clear on  overflow
 424:Generated_Source\PSoC4/PWM_Red.c **** *     - OVERLOW_INVERT      - Invert on overflow
 425:Generated_Source\PSoC4/PWM_Red.c **** *     - OVERLOW_NO_CHANGE   - No change on overflow
 426:Generated_Source\PSoC4/PWM_Red.c **** *     - UNDERFLOW_SET       - Set on underflow
 427:Generated_Source\PSoC4/PWM_Red.c **** *     - UNDERFLOW_CLEAR     - Clear on underflow
 428:Generated_Source\PSoC4/PWM_Red.c **** *     - UNDERFLOW_INVERT    - Invert on underflow
 429:Generated_Source\PSoC4/PWM_Red.c **** *     - UNDERFLOW_NO_CHANGE - No change on underflow
 430:Generated_Source\PSoC4/PWM_Red.c **** *     - PWM_MODE_LEFT       - Setting for left aligned PWM.  Should be combined
 431:Generated_Source\PSoC4/PWM_Red.c **** *                             with up counting mode
 432:Generated_Source\PSoC4/PWM_Red.c **** *     - PWM_MODE_RIGHT      - Setting for right aligned PWM.  Should be combined
 433:Generated_Source\PSoC4/PWM_Red.c **** *                             with down counting mode
 434:Generated_Source\PSoC4/PWM_Red.c **** *     - PWM_MODE_CENTER     - Setting for center aligned PWM.  Should be
 435:Generated_Source\PSoC4/PWM_Red.c **** *                             combined with up/down 0 mode
 436:Generated_Source\PSoC4/PWM_Red.c **** *     - PWM_MODE_ASYM       - Setting for asymmetric PWM.  Should be combined
 437:Generated_Source\PSoC4/PWM_Red.c **** *                             with up/down 1 mode
 438:Generated_Source\PSoC4/PWM_Red.c **** *
 439:Generated_Source\PSoC4/PWM_Red.c **** * Return:
 440:Generated_Source\PSoC4/PWM_Red.c **** *  None
 441:Generated_Source\PSoC4/PWM_Red.c **** *
 442:Generated_Source\PSoC4/PWM_Red.c **** *******************************************************************************/
 443:Generated_Source\PSoC4/PWM_Red.c **** void PWM_Red_SetPWMMode(uint32 modeMask)
 444:Generated_Source\PSoC4/PWM_Red.c **** {
 502              		.loc 1 444 0
 503              		.cfi_startproc
 504              		@ args = 0, pretend = 0, frame = 8
 505              		@ frame_needed = 1, uses_anonymous_args = 0
 506 0000 80B5     		push	{r7, lr}
 507              		.cfi_def_cfa_offset 8
 508              		.cfi_offset 7, -8
 509              		.cfi_offset 14, -4
 510 0002 82B0     		sub	sp, sp, #8
 511              		.cfi_def_cfa_offset 16
 512 0004 00AF     		add	r7, sp, #0
 513              		.cfi_def_cfa_register 7
 514 0006 7860     		str	r0, [r7, #4]
 445:Generated_Source\PSoC4/PWM_Red.c ****     PWM_Red_TRIG_CONTROL2_REG = (modeMask & PWM_Red_6BIT_MASK);
 515              		.loc 1 445 0
 516 0008 044B     		ldr	r3, .L27
 517 000a 7A68     		ldr	r2, [r7, #4]
 518 000c 3F21     		movs	r1, #63
 519 000e 0A40     		ands	r2, r1
 520 0010 1A60     		str	r2, [r3]
 446:Generated_Source\PSoC4/PWM_Red.c **** }
 521              		.loc 1 446 0
 522 0012 C046     		nop
 523 0014 BD46     		mov	sp, r7
ARM GAS  C:\Users\ADMINI~1\AppData\Local\Temp\ccuQ0kDm.s 			page 18


 524 0016 02B0     		add	sp, sp, #8
 525              		@ sp needed
 526 0018 80BD     		pop	{r7, pc}
 527              	.L28:
 528 001a C046     		.align	2
 529              	.L27:
 530 001c 68012040 		.word	1075839336
 531              		.cfi_endproc
 532              	.LFE9:
 533              		.size	PWM_Red_SetPWMMode, .-PWM_Red_SetPWMMode
 534              		.section	.text.PWM_Red_SetPWMSyncKill,"ax",%progbits
 535              		.align	2
 536              		.global	PWM_Red_SetPWMSyncKill
 537              		.code	16
 538              		.thumb_func
 539              		.type	PWM_Red_SetPWMSyncKill, %function
 540              	PWM_Red_SetPWMSyncKill:
 541              	.LFB10:
 447:Generated_Source\PSoC4/PWM_Red.c **** 
 448:Generated_Source\PSoC4/PWM_Red.c **** 
 449:Generated_Source\PSoC4/PWM_Red.c **** 
 450:Generated_Source\PSoC4/PWM_Red.c **** /*******************************************************************************
 451:Generated_Source\PSoC4/PWM_Red.c **** * Function Name: PWM_Red_SetPWMSyncKill
 452:Generated_Source\PSoC4/PWM_Red.c **** ********************************************************************************
 453:Generated_Source\PSoC4/PWM_Red.c **** *
 454:Generated_Source\PSoC4/PWM_Red.c **** * Summary:
 455:Generated_Source\PSoC4/PWM_Red.c **** *  Writes the register that controls whether the PWM kill signal (stop input)
 456:Generated_Source\PSoC4/PWM_Red.c **** *  causes asynchronous or synchronous kill operation.  By default the kill
 457:Generated_Source\PSoC4/PWM_Red.c **** *  operation is asynchronous.  This functionality is only applicable to the PWM
 458:Generated_Source\PSoC4/PWM_Red.c **** *  and PWM with dead time modes.
 459:Generated_Source\PSoC4/PWM_Red.c **** *
 460:Generated_Source\PSoC4/PWM_Red.c **** *  For Synchronous mode the kill signal disables both the line and line_n
 461:Generated_Source\PSoC4/PWM_Red.c **** *  signals until the next terminal count.
 462:Generated_Source\PSoC4/PWM_Red.c **** *
 463:Generated_Source\PSoC4/PWM_Red.c **** *  For Asynchronous mode the kill signal disables both the line and line_n
 464:Generated_Source\PSoC4/PWM_Red.c **** *  signals when the kill signal is present.  This mode should only be used
 465:Generated_Source\PSoC4/PWM_Red.c **** *  when the kill signal (stop input) is configured in the pass through mode
 466:Generated_Source\PSoC4/PWM_Red.c **** *  (Level sensitive signal).
 467:Generated_Source\PSoC4/PWM_Red.c **** 
 468:Generated_Source\PSoC4/PWM_Red.c **** *
 469:Generated_Source\PSoC4/PWM_Red.c **** * Parameters:
 470:Generated_Source\PSoC4/PWM_Red.c **** *  syncKillEnable
 471:Generated_Source\PSoC4/PWM_Red.c **** *   Values:
 472:Generated_Source\PSoC4/PWM_Red.c **** *     - 0 - Asynchronous
 473:Generated_Source\PSoC4/PWM_Red.c **** *     - 1 - Synchronous
 474:Generated_Source\PSoC4/PWM_Red.c **** *
 475:Generated_Source\PSoC4/PWM_Red.c **** * Return:
 476:Generated_Source\PSoC4/PWM_Red.c **** *  None
 477:Generated_Source\PSoC4/PWM_Red.c **** *
 478:Generated_Source\PSoC4/PWM_Red.c **** *******************************************************************************/
 479:Generated_Source\PSoC4/PWM_Red.c **** void PWM_Red_SetPWMSyncKill(uint32 syncKillEnable)
 480:Generated_Source\PSoC4/PWM_Red.c **** {
 542              		.loc 1 480 0
 543              		.cfi_startproc
 544              		@ args = 0, pretend = 0, frame = 16
 545              		@ frame_needed = 1, uses_anonymous_args = 0
 546 0000 90B5     		push	{r4, r7, lr}
ARM GAS  C:\Users\ADMINI~1\AppData\Local\Temp\ccuQ0kDm.s 			page 19


 547              		.cfi_def_cfa_offset 12
 548              		.cfi_offset 4, -12
 549              		.cfi_offset 7, -8
 550              		.cfi_offset 14, -4
 551 0002 85B0     		sub	sp, sp, #20
 552              		.cfi_def_cfa_offset 32
 553 0004 00AF     		add	r7, sp, #0
 554              		.cfi_def_cfa_register 7
 555 0006 7860     		str	r0, [r7, #4]
 481:Generated_Source\PSoC4/PWM_Red.c ****     uint8 enableInterrupts;
 482:Generated_Source\PSoC4/PWM_Red.c **** 
 483:Generated_Source\PSoC4/PWM_Red.c ****     enableInterrupts = CyEnterCriticalSection();
 556              		.loc 1 483 0
 557 0008 0F23     		movs	r3, #15
 558 000a FC18     		adds	r4, r7, r3
 559 000c FFF7FEFF 		bl	CyEnterCriticalSection
 560 0010 0300     		movs	r3, r0
 561 0012 2370     		strb	r3, [r4]
 484:Generated_Source\PSoC4/PWM_Red.c **** 
 485:Generated_Source\PSoC4/PWM_Red.c ****     PWM_Red_CONTROL_REG &= (uint32)~PWM_Red_PWM_SYNC_KILL_MASK;
 562              		.loc 1 485 0
 563 0014 0C4B     		ldr	r3, .L30
 564 0016 0C4A     		ldr	r2, .L30
 565 0018 1268     		ldr	r2, [r2]
 566 001a 0421     		movs	r1, #4
 567 001c 8A43     		bics	r2, r1
 568 001e 1A60     		str	r2, [r3]
 486:Generated_Source\PSoC4/PWM_Red.c ****     PWM_Red_CONTROL_REG |= ((uint32)((syncKillEnable & PWM_Red_1BIT_MASK)  <<
 569              		.loc 1 486 0
 570 0020 094B     		ldr	r3, .L30
 571 0022 094A     		ldr	r2, .L30
 572 0024 1168     		ldr	r1, [r2]
 573 0026 7A68     		ldr	r2, [r7, #4]
 574 0028 9200     		lsls	r2, r2, #2
 575 002a 0420     		movs	r0, #4
 576 002c 0240     		ands	r2, r0
 577 002e 0A43     		orrs	r2, r1
 578 0030 1A60     		str	r2, [r3]
 487:Generated_Source\PSoC4/PWM_Red.c ****                                                PWM_Red_PWM_SYNC_KILL_SHIFT));
 488:Generated_Source\PSoC4/PWM_Red.c **** 
 489:Generated_Source\PSoC4/PWM_Red.c ****     CyExitCriticalSection(enableInterrupts);
 579              		.loc 1 489 0
 580 0032 0F23     		movs	r3, #15
 581 0034 FB18     		adds	r3, r7, r3
 582 0036 1B78     		ldrb	r3, [r3]
 583 0038 1800     		movs	r0, r3
 584 003a FFF7FEFF 		bl	CyExitCriticalSection
 490:Generated_Source\PSoC4/PWM_Red.c **** }
 585              		.loc 1 490 0
 586 003e C046     		nop
 587 0040 BD46     		mov	sp, r7
 588 0042 05B0     		add	sp, sp, #20
 589              		@ sp needed
 590 0044 90BD     		pop	{r4, r7, pc}
 591              	.L31:
 592 0046 C046     		.align	2
 593              	.L30:
ARM GAS  C:\Users\ADMINI~1\AppData\Local\Temp\ccuQ0kDm.s 			page 20


 594 0048 40012040 		.word	1075839296
 595              		.cfi_endproc
 596              	.LFE10:
 597              		.size	PWM_Red_SetPWMSyncKill, .-PWM_Red_SetPWMSyncKill
 598              		.section	.text.PWM_Red_SetPWMStopOnKill,"ax",%progbits
 599              		.align	2
 600              		.global	PWM_Red_SetPWMStopOnKill
 601              		.code	16
 602              		.thumb_func
 603              		.type	PWM_Red_SetPWMStopOnKill, %function
 604              	PWM_Red_SetPWMStopOnKill:
 605              	.LFB11:
 491:Generated_Source\PSoC4/PWM_Red.c **** 
 492:Generated_Source\PSoC4/PWM_Red.c **** 
 493:Generated_Source\PSoC4/PWM_Red.c **** /*******************************************************************************
 494:Generated_Source\PSoC4/PWM_Red.c **** * Function Name: PWM_Red_SetPWMStopOnKill
 495:Generated_Source\PSoC4/PWM_Red.c **** ********************************************************************************
 496:Generated_Source\PSoC4/PWM_Red.c **** *
 497:Generated_Source\PSoC4/PWM_Red.c **** * Summary:
 498:Generated_Source\PSoC4/PWM_Red.c **** *  Writes the register that controls whether the PWM kill signal (stop input)
 499:Generated_Source\PSoC4/PWM_Red.c **** *  causes the PWM counter to stop.  By default the kill operation does not stop
 500:Generated_Source\PSoC4/PWM_Red.c **** *  the counter.  This functionality is only applicable to the three PWM modes.
 501:Generated_Source\PSoC4/PWM_Red.c **** *
 502:Generated_Source\PSoC4/PWM_Red.c **** *
 503:Generated_Source\PSoC4/PWM_Red.c **** * Parameters:
 504:Generated_Source\PSoC4/PWM_Red.c **** *  stopOnKillEnable
 505:Generated_Source\PSoC4/PWM_Red.c **** *   Values:
 506:Generated_Source\PSoC4/PWM_Red.c **** *     - 0 - Don't stop
 507:Generated_Source\PSoC4/PWM_Red.c **** *     - 1 - Stop
 508:Generated_Source\PSoC4/PWM_Red.c **** *
 509:Generated_Source\PSoC4/PWM_Red.c **** * Return:
 510:Generated_Source\PSoC4/PWM_Red.c **** *  None
 511:Generated_Source\PSoC4/PWM_Red.c **** *
 512:Generated_Source\PSoC4/PWM_Red.c **** *******************************************************************************/
 513:Generated_Source\PSoC4/PWM_Red.c **** void PWM_Red_SetPWMStopOnKill(uint32 stopOnKillEnable)
 514:Generated_Source\PSoC4/PWM_Red.c **** {
 606              		.loc 1 514 0
 607              		.cfi_startproc
 608              		@ args = 0, pretend = 0, frame = 16
 609              		@ frame_needed = 1, uses_anonymous_args = 0
 610 0000 90B5     		push	{r4, r7, lr}
 611              		.cfi_def_cfa_offset 12
 612              		.cfi_offset 4, -12
 613              		.cfi_offset 7, -8
 614              		.cfi_offset 14, -4
 615 0002 85B0     		sub	sp, sp, #20
 616              		.cfi_def_cfa_offset 32
 617 0004 00AF     		add	r7, sp, #0
 618              		.cfi_def_cfa_register 7
 619 0006 7860     		str	r0, [r7, #4]
 515:Generated_Source\PSoC4/PWM_Red.c ****     uint8 enableInterrupts;
 516:Generated_Source\PSoC4/PWM_Red.c **** 
 517:Generated_Source\PSoC4/PWM_Red.c ****     enableInterrupts = CyEnterCriticalSection();
 620              		.loc 1 517 0
 621 0008 0F23     		movs	r3, #15
 622 000a FC18     		adds	r4, r7, r3
 623 000c FFF7FEFF 		bl	CyEnterCriticalSection
ARM GAS  C:\Users\ADMINI~1\AppData\Local\Temp\ccuQ0kDm.s 			page 21


 624 0010 0300     		movs	r3, r0
 625 0012 2370     		strb	r3, [r4]
 518:Generated_Source\PSoC4/PWM_Red.c **** 
 519:Generated_Source\PSoC4/PWM_Red.c ****     PWM_Red_CONTROL_REG &= (uint32)~PWM_Red_PWM_STOP_KILL_MASK;
 626              		.loc 1 519 0
 627 0014 0C4B     		ldr	r3, .L33
 628 0016 0C4A     		ldr	r2, .L33
 629 0018 1268     		ldr	r2, [r2]
 630 001a 0821     		movs	r1, #8
 631 001c 8A43     		bics	r2, r1
 632 001e 1A60     		str	r2, [r3]
 520:Generated_Source\PSoC4/PWM_Red.c ****     PWM_Red_CONTROL_REG |= ((uint32)((stopOnKillEnable & PWM_Red_1BIT_MASK)  <<
 633              		.loc 1 520 0
 634 0020 094B     		ldr	r3, .L33
 635 0022 094A     		ldr	r2, .L33
 636 0024 1168     		ldr	r1, [r2]
 637 0026 7A68     		ldr	r2, [r7, #4]
 638 0028 D200     		lsls	r2, r2, #3
 639 002a 0820     		movs	r0, #8
 640 002c 0240     		ands	r2, r0
 641 002e 0A43     		orrs	r2, r1
 642 0030 1A60     		str	r2, [r3]
 521:Generated_Source\PSoC4/PWM_Red.c ****                                                          PWM_Red_PWM_STOP_KILL_SHIFT));
 522:Generated_Source\PSoC4/PWM_Red.c **** 
 523:Generated_Source\PSoC4/PWM_Red.c ****     CyExitCriticalSection(enableInterrupts);
 643              		.loc 1 523 0
 644 0032 0F23     		movs	r3, #15
 645 0034 FB18     		adds	r3, r7, r3
 646 0036 1B78     		ldrb	r3, [r3]
 647 0038 1800     		movs	r0, r3
 648 003a FFF7FEFF 		bl	CyExitCriticalSection
 524:Generated_Source\PSoC4/PWM_Red.c **** }
 649              		.loc 1 524 0
 650 003e C046     		nop
 651 0040 BD46     		mov	sp, r7
 652 0042 05B0     		add	sp, sp, #20
 653              		@ sp needed
 654 0044 90BD     		pop	{r4, r7, pc}
 655              	.L34:
 656 0046 C046     		.align	2
 657              	.L33:
 658 0048 40012040 		.word	1075839296
 659              		.cfi_endproc
 660              	.LFE11:
 661              		.size	PWM_Red_SetPWMStopOnKill, .-PWM_Red_SetPWMStopOnKill
 662              		.section	.text.PWM_Red_SetPWMDeadTime,"ax",%progbits
 663              		.align	2
 664              		.global	PWM_Red_SetPWMDeadTime
 665              		.code	16
 666              		.thumb_func
 667              		.type	PWM_Red_SetPWMDeadTime, %function
 668              	PWM_Red_SetPWMDeadTime:
 669              	.LFB12:
 525:Generated_Source\PSoC4/PWM_Red.c **** 
 526:Generated_Source\PSoC4/PWM_Red.c **** 
 527:Generated_Source\PSoC4/PWM_Red.c **** /*******************************************************************************
 528:Generated_Source\PSoC4/PWM_Red.c **** * Function Name: PWM_Red_SetPWMDeadTime
ARM GAS  C:\Users\ADMINI~1\AppData\Local\Temp\ccuQ0kDm.s 			page 22


 529:Generated_Source\PSoC4/PWM_Red.c **** ********************************************************************************
 530:Generated_Source\PSoC4/PWM_Red.c **** *
 531:Generated_Source\PSoC4/PWM_Red.c **** * Summary:
 532:Generated_Source\PSoC4/PWM_Red.c **** *  Writes the dead time control value.  This value delays the rising edge of
 533:Generated_Source\PSoC4/PWM_Red.c **** *  both the line and line_n signals the designated number of cycles resulting
 534:Generated_Source\PSoC4/PWM_Red.c **** *  in both signals being inactive for that many cycles.  This functionality is
 535:Generated_Source\PSoC4/PWM_Red.c **** *  only applicable to the PWM in the dead time mode.
 536:Generated_Source\PSoC4/PWM_Red.c **** 
 537:Generated_Source\PSoC4/PWM_Red.c **** *
 538:Generated_Source\PSoC4/PWM_Red.c **** * Parameters:
 539:Generated_Source\PSoC4/PWM_Red.c **** *  Dead time to insert
 540:Generated_Source\PSoC4/PWM_Red.c **** *   Values: 0 to 255
 541:Generated_Source\PSoC4/PWM_Red.c **** *
 542:Generated_Source\PSoC4/PWM_Red.c **** * Return:
 543:Generated_Source\PSoC4/PWM_Red.c **** *  None
 544:Generated_Source\PSoC4/PWM_Red.c **** *
 545:Generated_Source\PSoC4/PWM_Red.c **** *******************************************************************************/
 546:Generated_Source\PSoC4/PWM_Red.c **** void PWM_Red_SetPWMDeadTime(uint32 deadTime)
 547:Generated_Source\PSoC4/PWM_Red.c **** {
 670              		.loc 1 547 0
 671              		.cfi_startproc
 672              		@ args = 0, pretend = 0, frame = 16
 673              		@ frame_needed = 1, uses_anonymous_args = 0
 674 0000 90B5     		push	{r4, r7, lr}
 675              		.cfi_def_cfa_offset 12
 676              		.cfi_offset 4, -12
 677              		.cfi_offset 7, -8
 678              		.cfi_offset 14, -4
 679 0002 85B0     		sub	sp, sp, #20
 680              		.cfi_def_cfa_offset 32
 681 0004 00AF     		add	r7, sp, #0
 682              		.cfi_def_cfa_register 7
 683 0006 7860     		str	r0, [r7, #4]
 548:Generated_Source\PSoC4/PWM_Red.c ****     uint8 enableInterrupts;
 549:Generated_Source\PSoC4/PWM_Red.c **** 
 550:Generated_Source\PSoC4/PWM_Red.c ****     enableInterrupts = CyEnterCriticalSection();
 684              		.loc 1 550 0
 685 0008 0F23     		movs	r3, #15
 686 000a FC18     		adds	r4, r7, r3
 687 000c FFF7FEFF 		bl	CyEnterCriticalSection
 688 0010 0300     		movs	r3, r0
 689 0012 2370     		strb	r3, [r4]
 551:Generated_Source\PSoC4/PWM_Red.c **** 
 552:Generated_Source\PSoC4/PWM_Red.c ****     PWM_Red_CONTROL_REG &= (uint32)~PWM_Red_PRESCALER_MASK;
 690              		.loc 1 552 0
 691 0014 0C4B     		ldr	r3, .L36
 692 0016 0C4A     		ldr	r2, .L36
 693 0018 1268     		ldr	r2, [r2]
 694 001a 0C49     		ldr	r1, .L36+4
 695 001c 0A40     		ands	r2, r1
 696 001e 1A60     		str	r2, [r3]
 553:Generated_Source\PSoC4/PWM_Red.c ****     PWM_Red_CONTROL_REG |= ((uint32)((deadTime & PWM_Red_8BIT_MASK) <<
 697              		.loc 1 553 0
 698 0020 094B     		ldr	r3, .L36
 699 0022 094A     		ldr	r2, .L36
 700 0024 1168     		ldr	r1, [r2]
 701 0026 7A68     		ldr	r2, [r7, #4]
ARM GAS  C:\Users\ADMINI~1\AppData\Local\Temp\ccuQ0kDm.s 			page 23


 702 0028 1202     		lsls	r2, r2, #8
 703 002a 1204     		lsls	r2, r2, #16
 704 002c 120C     		lsrs	r2, r2, #16
 705 002e 0A43     		orrs	r2, r1
 706 0030 1A60     		str	r2, [r3]
 554:Generated_Source\PSoC4/PWM_Red.c ****                                                           PWM_Red_PRESCALER_SHIFT));
 555:Generated_Source\PSoC4/PWM_Red.c **** 
 556:Generated_Source\PSoC4/PWM_Red.c ****     CyExitCriticalSection(enableInterrupts);
 707              		.loc 1 556 0
 708 0032 0F23     		movs	r3, #15
 709 0034 FB18     		adds	r3, r7, r3
 710 0036 1B78     		ldrb	r3, [r3]
 711 0038 1800     		movs	r0, r3
 712 003a FFF7FEFF 		bl	CyExitCriticalSection
 557:Generated_Source\PSoC4/PWM_Red.c **** }
 713              		.loc 1 557 0
 714 003e C046     		nop
 715 0040 BD46     		mov	sp, r7
 716 0042 05B0     		add	sp, sp, #20
 717              		@ sp needed
 718 0044 90BD     		pop	{r4, r7, pc}
 719              	.L37:
 720 0046 C046     		.align	2
 721              	.L36:
 722 0048 40012040 		.word	1075839296
 723 004c FF00FFFF 		.word	-65281
 724              		.cfi_endproc
 725              	.LFE12:
 726              		.size	PWM_Red_SetPWMDeadTime, .-PWM_Red_SetPWMDeadTime
 727              		.section	.text.PWM_Red_SetPWMInvert,"ax",%progbits
 728              		.align	2
 729              		.global	PWM_Red_SetPWMInvert
 730              		.code	16
 731              		.thumb_func
 732              		.type	PWM_Red_SetPWMInvert, %function
 733              	PWM_Red_SetPWMInvert:
 734              	.LFB13:
 558:Generated_Source\PSoC4/PWM_Red.c **** 
 559:Generated_Source\PSoC4/PWM_Red.c **** 
 560:Generated_Source\PSoC4/PWM_Red.c **** /*******************************************************************************
 561:Generated_Source\PSoC4/PWM_Red.c **** * Function Name: PWM_Red_SetPWMInvert
 562:Generated_Source\PSoC4/PWM_Red.c **** ********************************************************************************
 563:Generated_Source\PSoC4/PWM_Red.c **** *
 564:Generated_Source\PSoC4/PWM_Red.c **** * Summary:
 565:Generated_Source\PSoC4/PWM_Red.c **** *  Writes the bits that control whether the line and line_n outputs are
 566:Generated_Source\PSoC4/PWM_Red.c **** *  inverted from their normal output values.  This functionality is only
 567:Generated_Source\PSoC4/PWM_Red.c **** *  applicable to the three PWM modes.
 568:Generated_Source\PSoC4/PWM_Red.c **** *
 569:Generated_Source\PSoC4/PWM_Red.c **** * Parameters:
 570:Generated_Source\PSoC4/PWM_Red.c **** *  mask: Mask of outputs to invert.
 571:Generated_Source\PSoC4/PWM_Red.c **** *   Values:
 572:Generated_Source\PSoC4/PWM_Red.c **** *         - PWM_Red_INVERT_LINE   - Inverts the line output
 573:Generated_Source\PSoC4/PWM_Red.c **** *         - PWM_Red_INVERT_LINE_N - Inverts the line_n output
 574:Generated_Source\PSoC4/PWM_Red.c **** *
 575:Generated_Source\PSoC4/PWM_Red.c **** * Return:
 576:Generated_Source\PSoC4/PWM_Red.c **** *  None
 577:Generated_Source\PSoC4/PWM_Red.c **** *
ARM GAS  C:\Users\ADMINI~1\AppData\Local\Temp\ccuQ0kDm.s 			page 24


 578:Generated_Source\PSoC4/PWM_Red.c **** *******************************************************************************/
 579:Generated_Source\PSoC4/PWM_Red.c **** void PWM_Red_SetPWMInvert(uint32 mask)
 580:Generated_Source\PSoC4/PWM_Red.c **** {
 735              		.loc 1 580 0
 736              		.cfi_startproc
 737              		@ args = 0, pretend = 0, frame = 16
 738              		@ frame_needed = 1, uses_anonymous_args = 0
 739 0000 90B5     		push	{r4, r7, lr}
 740              		.cfi_def_cfa_offset 12
 741              		.cfi_offset 4, -12
 742              		.cfi_offset 7, -8
 743              		.cfi_offset 14, -4
 744 0002 85B0     		sub	sp, sp, #20
 745              		.cfi_def_cfa_offset 32
 746 0004 00AF     		add	r7, sp, #0
 747              		.cfi_def_cfa_register 7
 748 0006 7860     		str	r0, [r7, #4]
 581:Generated_Source\PSoC4/PWM_Red.c ****     uint8 enableInterrupts;
 582:Generated_Source\PSoC4/PWM_Red.c **** 
 583:Generated_Source\PSoC4/PWM_Red.c ****     enableInterrupts = CyEnterCriticalSection();
 749              		.loc 1 583 0
 750 0008 0F23     		movs	r3, #15
 751 000a FC18     		adds	r4, r7, r3
 752 000c FFF7FEFF 		bl	CyEnterCriticalSection
 753 0010 0300     		movs	r3, r0
 754 0012 2370     		strb	r3, [r4]
 584:Generated_Source\PSoC4/PWM_Red.c **** 
 585:Generated_Source\PSoC4/PWM_Red.c ****     PWM_Red_CONTROL_REG &= (uint32)~PWM_Red_INV_OUT_MASK;
 755              		.loc 1 585 0
 756 0014 0A4B     		ldr	r3, .L39
 757 0016 0A4A     		ldr	r2, .L39
 758 0018 1268     		ldr	r2, [r2]
 759 001a 0A49     		ldr	r1, .L39+4
 760 001c 0A40     		ands	r2, r1
 761 001e 1A60     		str	r2, [r3]
 586:Generated_Source\PSoC4/PWM_Red.c ****     PWM_Red_CONTROL_REG |= mask;
 762              		.loc 1 586 0
 763 0020 074B     		ldr	r3, .L39
 764 0022 074A     		ldr	r2, .L39
 765 0024 1168     		ldr	r1, [r2]
 766 0026 7A68     		ldr	r2, [r7, #4]
 767 0028 0A43     		orrs	r2, r1
 768 002a 1A60     		str	r2, [r3]
 587:Generated_Source\PSoC4/PWM_Red.c **** 
 588:Generated_Source\PSoC4/PWM_Red.c ****     CyExitCriticalSection(enableInterrupts);
 769              		.loc 1 588 0
 770 002c 0F23     		movs	r3, #15
 771 002e FB18     		adds	r3, r7, r3
 772 0030 1B78     		ldrb	r3, [r3]
 773 0032 1800     		movs	r0, r3
 774 0034 FFF7FEFF 		bl	CyExitCriticalSection
 589:Generated_Source\PSoC4/PWM_Red.c **** }
 775              		.loc 1 589 0
 776 0038 C046     		nop
 777 003a BD46     		mov	sp, r7
 778 003c 05B0     		add	sp, sp, #20
 779              		@ sp needed
ARM GAS  C:\Users\ADMINI~1\AppData\Local\Temp\ccuQ0kDm.s 			page 25


 780 003e 90BD     		pop	{r4, r7, pc}
 781              	.L40:
 782              		.align	2
 783              	.L39:
 784 0040 40012040 		.word	1075839296
 785 0044 FFFFCFFF 		.word	-3145729
 786              		.cfi_endproc
 787              	.LFE13:
 788              		.size	PWM_Red_SetPWMInvert, .-PWM_Red_SetPWMInvert
 789              		.section	.text.PWM_Red_WriteCounter,"ax",%progbits
 790              		.align	2
 791              		.global	PWM_Red_WriteCounter
 792              		.code	16
 793              		.thumb_func
 794              		.type	PWM_Red_WriteCounter, %function
 795              	PWM_Red_WriteCounter:
 796              	.LFB14:
 590:Generated_Source\PSoC4/PWM_Red.c **** 
 591:Generated_Source\PSoC4/PWM_Red.c **** 
 592:Generated_Source\PSoC4/PWM_Red.c **** 
 593:Generated_Source\PSoC4/PWM_Red.c **** /*******************************************************************************
 594:Generated_Source\PSoC4/PWM_Red.c **** * Function Name: PWM_Red_WriteCounter
 595:Generated_Source\PSoC4/PWM_Red.c **** ********************************************************************************
 596:Generated_Source\PSoC4/PWM_Red.c **** *
 597:Generated_Source\PSoC4/PWM_Red.c **** * Summary:
 598:Generated_Source\PSoC4/PWM_Red.c **** *  Writes a new 16bit counter value directly into the counter register, thus
 599:Generated_Source\PSoC4/PWM_Red.c **** *  setting the counter (not the period) to the value written. It is not
 600:Generated_Source\PSoC4/PWM_Red.c **** *  advised to write to this field when the counter is running.
 601:Generated_Source\PSoC4/PWM_Red.c **** *
 602:Generated_Source\PSoC4/PWM_Red.c **** * Parameters:
 603:Generated_Source\PSoC4/PWM_Red.c **** *  count: value to write
 604:Generated_Source\PSoC4/PWM_Red.c **** *
 605:Generated_Source\PSoC4/PWM_Red.c **** * Return:
 606:Generated_Source\PSoC4/PWM_Red.c **** *  None
 607:Generated_Source\PSoC4/PWM_Red.c **** *
 608:Generated_Source\PSoC4/PWM_Red.c **** *******************************************************************************/
 609:Generated_Source\PSoC4/PWM_Red.c **** void PWM_Red_WriteCounter(uint32 count)
 610:Generated_Source\PSoC4/PWM_Red.c **** {
 797              		.loc 1 610 0
 798              		.cfi_startproc
 799              		@ args = 0, pretend = 0, frame = 8
 800              		@ frame_needed = 1, uses_anonymous_args = 0
 801 0000 80B5     		push	{r7, lr}
 802              		.cfi_def_cfa_offset 8
 803              		.cfi_offset 7, -8
 804              		.cfi_offset 14, -4
 805 0002 82B0     		sub	sp, sp, #8
 806              		.cfi_def_cfa_offset 16
 807 0004 00AF     		add	r7, sp, #0
 808              		.cfi_def_cfa_register 7
 809 0006 7860     		str	r0, [r7, #4]
 611:Generated_Source\PSoC4/PWM_Red.c ****     PWM_Red_COUNTER_REG = (count & PWM_Red_16BIT_MASK);
 810              		.loc 1 611 0
 811 0008 044B     		ldr	r3, .L42
 812 000a 7A68     		ldr	r2, [r7, #4]
 813 000c 1204     		lsls	r2, r2, #16
 814 000e 120C     		lsrs	r2, r2, #16
ARM GAS  C:\Users\ADMINI~1\AppData\Local\Temp\ccuQ0kDm.s 			page 26


 815 0010 1A60     		str	r2, [r3]
 612:Generated_Source\PSoC4/PWM_Red.c **** }
 816              		.loc 1 612 0
 817 0012 C046     		nop
 818 0014 BD46     		mov	sp, r7
 819 0016 02B0     		add	sp, sp, #8
 820              		@ sp needed
 821 0018 80BD     		pop	{r7, pc}
 822              	.L43:
 823 001a C046     		.align	2
 824              	.L42:
 825 001c 48012040 		.word	1075839304
 826              		.cfi_endproc
 827              	.LFE14:
 828              		.size	PWM_Red_WriteCounter, .-PWM_Red_WriteCounter
 829              		.section	.text.PWM_Red_ReadCounter,"ax",%progbits
 830              		.align	2
 831              		.global	PWM_Red_ReadCounter
 832              		.code	16
 833              		.thumb_func
 834              		.type	PWM_Red_ReadCounter, %function
 835              	PWM_Red_ReadCounter:
 836              	.LFB15:
 613:Generated_Source\PSoC4/PWM_Red.c **** 
 614:Generated_Source\PSoC4/PWM_Red.c **** 
 615:Generated_Source\PSoC4/PWM_Red.c **** /*******************************************************************************
 616:Generated_Source\PSoC4/PWM_Red.c **** * Function Name: PWM_Red_ReadCounter
 617:Generated_Source\PSoC4/PWM_Red.c **** ********************************************************************************
 618:Generated_Source\PSoC4/PWM_Red.c **** *
 619:Generated_Source\PSoC4/PWM_Red.c **** * Summary:
 620:Generated_Source\PSoC4/PWM_Red.c **** *  Reads the current counter value.
 621:Generated_Source\PSoC4/PWM_Red.c **** *
 622:Generated_Source\PSoC4/PWM_Red.c **** * Parameters:
 623:Generated_Source\PSoC4/PWM_Red.c **** *  None
 624:Generated_Source\PSoC4/PWM_Red.c **** *
 625:Generated_Source\PSoC4/PWM_Red.c **** * Return:
 626:Generated_Source\PSoC4/PWM_Red.c **** *  Current counter value
 627:Generated_Source\PSoC4/PWM_Red.c **** *
 628:Generated_Source\PSoC4/PWM_Red.c **** *******************************************************************************/
 629:Generated_Source\PSoC4/PWM_Red.c **** uint32 PWM_Red_ReadCounter(void)
 630:Generated_Source\PSoC4/PWM_Red.c **** {
 837              		.loc 1 630 0
 838              		.cfi_startproc
 839              		@ args = 0, pretend = 0, frame = 0
 840              		@ frame_needed = 1, uses_anonymous_args = 0
 841 0000 80B5     		push	{r7, lr}
 842              		.cfi_def_cfa_offset 8
 843              		.cfi_offset 7, -8
 844              		.cfi_offset 14, -4
 845 0002 00AF     		add	r7, sp, #0
 846              		.cfi_def_cfa_register 7
 631:Generated_Source\PSoC4/PWM_Red.c ****     return (PWM_Red_COUNTER_REG & PWM_Red_16BIT_MASK);
 847              		.loc 1 631 0
 848 0004 034B     		ldr	r3, .L46
 849 0006 1B68     		ldr	r3, [r3]
 850 0008 1B04     		lsls	r3, r3, #16
 851 000a 1B0C     		lsrs	r3, r3, #16
ARM GAS  C:\Users\ADMINI~1\AppData\Local\Temp\ccuQ0kDm.s 			page 27


 632:Generated_Source\PSoC4/PWM_Red.c **** }
 852              		.loc 1 632 0
 853 000c 1800     		movs	r0, r3
 854 000e BD46     		mov	sp, r7
 855              		@ sp needed
 856 0010 80BD     		pop	{r7, pc}
 857              	.L47:
 858 0012 C046     		.align	2
 859              	.L46:
 860 0014 48012040 		.word	1075839304
 861              		.cfi_endproc
 862              	.LFE15:
 863              		.size	PWM_Red_ReadCounter, .-PWM_Red_ReadCounter
 864              		.section	.text.PWM_Red_SetCounterMode,"ax",%progbits
 865              		.align	2
 866              		.global	PWM_Red_SetCounterMode
 867              		.code	16
 868              		.thumb_func
 869              		.type	PWM_Red_SetCounterMode, %function
 870              	PWM_Red_SetCounterMode:
 871              	.LFB16:
 633:Generated_Source\PSoC4/PWM_Red.c **** 
 634:Generated_Source\PSoC4/PWM_Red.c **** 
 635:Generated_Source\PSoC4/PWM_Red.c **** /*******************************************************************************
 636:Generated_Source\PSoC4/PWM_Red.c **** * Function Name: PWM_Red_SetCounterMode
 637:Generated_Source\PSoC4/PWM_Red.c **** ********************************************************************************
 638:Generated_Source\PSoC4/PWM_Red.c **** *
 639:Generated_Source\PSoC4/PWM_Red.c **** * Summary:
 640:Generated_Source\PSoC4/PWM_Red.c **** *  Sets the counter mode.  Applicable to all modes except Quadrature Decoder
 641:Generated_Source\PSoC4/PWM_Red.c **** *  and the PWM with a pseudo random output.
 642:Generated_Source\PSoC4/PWM_Red.c **** *
 643:Generated_Source\PSoC4/PWM_Red.c **** * Parameters:
 644:Generated_Source\PSoC4/PWM_Red.c **** *  counterMode: Enumerated counter type values
 645:Generated_Source\PSoC4/PWM_Red.c **** *   Values:
 646:Generated_Source\PSoC4/PWM_Red.c **** *     - PWM_Red_COUNT_UP       - Counts up
 647:Generated_Source\PSoC4/PWM_Red.c **** *     - PWM_Red_COUNT_DOWN     - Counts down
 648:Generated_Source\PSoC4/PWM_Red.c **** *     - PWM_Red_COUNT_UPDOWN0  - Counts up and down. Terminal count
 649:Generated_Source\PSoC4/PWM_Red.c **** *                                         generated when counter reaches 0
 650:Generated_Source\PSoC4/PWM_Red.c **** *     - PWM_Red_COUNT_UPDOWN1  - Counts up and down. Terminal count
 651:Generated_Source\PSoC4/PWM_Red.c **** *                                         generated both when counter reaches 0
 652:Generated_Source\PSoC4/PWM_Red.c **** *                                         and period
 653:Generated_Source\PSoC4/PWM_Red.c **** *
 654:Generated_Source\PSoC4/PWM_Red.c **** * Return:
 655:Generated_Source\PSoC4/PWM_Red.c **** *  None
 656:Generated_Source\PSoC4/PWM_Red.c **** *
 657:Generated_Source\PSoC4/PWM_Red.c **** *******************************************************************************/
 658:Generated_Source\PSoC4/PWM_Red.c **** void PWM_Red_SetCounterMode(uint32 counterMode)
 659:Generated_Source\PSoC4/PWM_Red.c **** {
 872              		.loc 1 659 0
 873              		.cfi_startproc
 874              		@ args = 0, pretend = 0, frame = 16
 875              		@ frame_needed = 1, uses_anonymous_args = 0
 876 0000 90B5     		push	{r4, r7, lr}
 877              		.cfi_def_cfa_offset 12
 878              		.cfi_offset 4, -12
 879              		.cfi_offset 7, -8
 880              		.cfi_offset 14, -4
ARM GAS  C:\Users\ADMINI~1\AppData\Local\Temp\ccuQ0kDm.s 			page 28


 881 0002 85B0     		sub	sp, sp, #20
 882              		.cfi_def_cfa_offset 32
 883 0004 00AF     		add	r7, sp, #0
 884              		.cfi_def_cfa_register 7
 885 0006 7860     		str	r0, [r7, #4]
 660:Generated_Source\PSoC4/PWM_Red.c ****     uint8 enableInterrupts;
 661:Generated_Source\PSoC4/PWM_Red.c **** 
 662:Generated_Source\PSoC4/PWM_Red.c ****     enableInterrupts = CyEnterCriticalSection();
 886              		.loc 1 662 0
 887 0008 0F23     		movs	r3, #15
 888 000a FC18     		adds	r4, r7, r3
 889 000c FFF7FEFF 		bl	CyEnterCriticalSection
 890 0010 0300     		movs	r3, r0
 891 0012 2370     		strb	r3, [r4]
 663:Generated_Source\PSoC4/PWM_Red.c **** 
 664:Generated_Source\PSoC4/PWM_Red.c ****     PWM_Red_CONTROL_REG &= (uint32)~PWM_Red_UPDOWN_MASK;
 892              		.loc 1 664 0
 893 0014 0A4B     		ldr	r3, .L49
 894 0016 0A4A     		ldr	r2, .L49
 895 0018 1268     		ldr	r2, [r2]
 896 001a 0A49     		ldr	r1, .L49+4
 897 001c 0A40     		ands	r2, r1
 898 001e 1A60     		str	r2, [r3]
 665:Generated_Source\PSoC4/PWM_Red.c ****     PWM_Red_CONTROL_REG |= counterMode;
 899              		.loc 1 665 0
 900 0020 074B     		ldr	r3, .L49
 901 0022 074A     		ldr	r2, .L49
 902 0024 1168     		ldr	r1, [r2]
 903 0026 7A68     		ldr	r2, [r7, #4]
 904 0028 0A43     		orrs	r2, r1
 905 002a 1A60     		str	r2, [r3]
 666:Generated_Source\PSoC4/PWM_Red.c **** 
 667:Generated_Source\PSoC4/PWM_Red.c ****     CyExitCriticalSection(enableInterrupts);
 906              		.loc 1 667 0
 907 002c 0F23     		movs	r3, #15
 908 002e FB18     		adds	r3, r7, r3
 909 0030 1B78     		ldrb	r3, [r3]
 910 0032 1800     		movs	r0, r3
 911 0034 FFF7FEFF 		bl	CyExitCriticalSection
 668:Generated_Source\PSoC4/PWM_Red.c **** }
 912              		.loc 1 668 0
 913 0038 C046     		nop
 914 003a BD46     		mov	sp, r7
 915 003c 05B0     		add	sp, sp, #20
 916              		@ sp needed
 917 003e 90BD     		pop	{r4, r7, pc}
 918              	.L50:
 919              		.align	2
 920              	.L49:
 921 0040 40012040 		.word	1075839296
 922 0044 FFFFFCFF 		.word	-196609
 923              		.cfi_endproc
 924              	.LFE16:
 925              		.size	PWM_Red_SetCounterMode, .-PWM_Red_SetCounterMode
 926              		.section	.text.PWM_Red_WritePeriod,"ax",%progbits
 927              		.align	2
 928              		.global	PWM_Red_WritePeriod
ARM GAS  C:\Users\ADMINI~1\AppData\Local\Temp\ccuQ0kDm.s 			page 29


 929              		.code	16
 930              		.thumb_func
 931              		.type	PWM_Red_WritePeriod, %function
 932              	PWM_Red_WritePeriod:
 933              	.LFB17:
 669:Generated_Source\PSoC4/PWM_Red.c **** 
 670:Generated_Source\PSoC4/PWM_Red.c **** 
 671:Generated_Source\PSoC4/PWM_Red.c **** /*******************************************************************************
 672:Generated_Source\PSoC4/PWM_Red.c **** * Function Name: PWM_Red_WritePeriod
 673:Generated_Source\PSoC4/PWM_Red.c **** ********************************************************************************
 674:Generated_Source\PSoC4/PWM_Red.c **** *
 675:Generated_Source\PSoC4/PWM_Red.c **** * Summary:
 676:Generated_Source\PSoC4/PWM_Red.c **** *  Writes the 16 bit period register with the new period value.
 677:Generated_Source\PSoC4/PWM_Red.c **** *  To cause the counter to count for N cycles this register should be written
 678:Generated_Source\PSoC4/PWM_Red.c **** *  with N-1 (counts from 0 to period inclusive).
 679:Generated_Source\PSoC4/PWM_Red.c **** *
 680:Generated_Source\PSoC4/PWM_Red.c **** * Parameters:
 681:Generated_Source\PSoC4/PWM_Red.c **** *  period: Period value
 682:Generated_Source\PSoC4/PWM_Red.c **** *
 683:Generated_Source\PSoC4/PWM_Red.c **** * Return:
 684:Generated_Source\PSoC4/PWM_Red.c **** *  None
 685:Generated_Source\PSoC4/PWM_Red.c **** *
 686:Generated_Source\PSoC4/PWM_Red.c **** *******************************************************************************/
 687:Generated_Source\PSoC4/PWM_Red.c **** void PWM_Red_WritePeriod(uint32 period)
 688:Generated_Source\PSoC4/PWM_Red.c **** {
 934              		.loc 1 688 0
 935              		.cfi_startproc
 936              		@ args = 0, pretend = 0, frame = 8
 937              		@ frame_needed = 1, uses_anonymous_args = 0
 938 0000 80B5     		push	{r7, lr}
 939              		.cfi_def_cfa_offset 8
 940              		.cfi_offset 7, -8
 941              		.cfi_offset 14, -4
 942 0002 82B0     		sub	sp, sp, #8
 943              		.cfi_def_cfa_offset 16
 944 0004 00AF     		add	r7, sp, #0
 945              		.cfi_def_cfa_register 7
 946 0006 7860     		str	r0, [r7, #4]
 689:Generated_Source\PSoC4/PWM_Red.c ****     PWM_Red_PERIOD_REG = (period & PWM_Red_16BIT_MASK);
 947              		.loc 1 689 0
 948 0008 044B     		ldr	r3, .L52
 949 000a 7A68     		ldr	r2, [r7, #4]
 950 000c 1204     		lsls	r2, r2, #16
 951 000e 120C     		lsrs	r2, r2, #16
 952 0010 1A60     		str	r2, [r3]
 690:Generated_Source\PSoC4/PWM_Red.c **** }
 953              		.loc 1 690 0
 954 0012 C046     		nop
 955 0014 BD46     		mov	sp, r7
 956 0016 02B0     		add	sp, sp, #8
 957              		@ sp needed
 958 0018 80BD     		pop	{r7, pc}
 959              	.L53:
 960 001a C046     		.align	2
 961              	.L52:
 962 001c 54012040 		.word	1075839316
 963              		.cfi_endproc
ARM GAS  C:\Users\ADMINI~1\AppData\Local\Temp\ccuQ0kDm.s 			page 30


 964              	.LFE17:
 965              		.size	PWM_Red_WritePeriod, .-PWM_Red_WritePeriod
 966              		.section	.text.PWM_Red_ReadPeriod,"ax",%progbits
 967              		.align	2
 968              		.global	PWM_Red_ReadPeriod
 969              		.code	16
 970              		.thumb_func
 971              		.type	PWM_Red_ReadPeriod, %function
 972              	PWM_Red_ReadPeriod:
 973              	.LFB18:
 691:Generated_Source\PSoC4/PWM_Red.c **** 
 692:Generated_Source\PSoC4/PWM_Red.c **** 
 693:Generated_Source\PSoC4/PWM_Red.c **** /*******************************************************************************
 694:Generated_Source\PSoC4/PWM_Red.c **** * Function Name: PWM_Red_ReadPeriod
 695:Generated_Source\PSoC4/PWM_Red.c **** ********************************************************************************
 696:Generated_Source\PSoC4/PWM_Red.c **** *
 697:Generated_Source\PSoC4/PWM_Red.c **** * Summary:
 698:Generated_Source\PSoC4/PWM_Red.c **** *  Reads the 16 bit period register.
 699:Generated_Source\PSoC4/PWM_Red.c **** *
 700:Generated_Source\PSoC4/PWM_Red.c **** * Parameters:
 701:Generated_Source\PSoC4/PWM_Red.c **** *  None
 702:Generated_Source\PSoC4/PWM_Red.c **** *
 703:Generated_Source\PSoC4/PWM_Red.c **** * Return:
 704:Generated_Source\PSoC4/PWM_Red.c **** *  Period value
 705:Generated_Source\PSoC4/PWM_Red.c **** *
 706:Generated_Source\PSoC4/PWM_Red.c **** *******************************************************************************/
 707:Generated_Source\PSoC4/PWM_Red.c **** uint32 PWM_Red_ReadPeriod(void)
 708:Generated_Source\PSoC4/PWM_Red.c **** {
 974              		.loc 1 708 0
 975              		.cfi_startproc
 976              		@ args = 0, pretend = 0, frame = 0
 977              		@ frame_needed = 1, uses_anonymous_args = 0
 978 0000 80B5     		push	{r7, lr}
 979              		.cfi_def_cfa_offset 8
 980              		.cfi_offset 7, -8
 981              		.cfi_offset 14, -4
 982 0002 00AF     		add	r7, sp, #0
 983              		.cfi_def_cfa_register 7
 709:Generated_Source\PSoC4/PWM_Red.c ****     return (PWM_Red_PERIOD_REG & PWM_Red_16BIT_MASK);
 984              		.loc 1 709 0
 985 0004 034B     		ldr	r3, .L56
 986 0006 1B68     		ldr	r3, [r3]
 987 0008 1B04     		lsls	r3, r3, #16
 988 000a 1B0C     		lsrs	r3, r3, #16
 710:Generated_Source\PSoC4/PWM_Red.c **** }
 989              		.loc 1 710 0
 990 000c 1800     		movs	r0, r3
 991 000e BD46     		mov	sp, r7
 992              		@ sp needed
 993 0010 80BD     		pop	{r7, pc}
 994              	.L57:
 995 0012 C046     		.align	2
 996              	.L56:
 997 0014 54012040 		.word	1075839316
 998              		.cfi_endproc
 999              	.LFE18:
 1000              		.size	PWM_Red_ReadPeriod, .-PWM_Red_ReadPeriod
ARM GAS  C:\Users\ADMINI~1\AppData\Local\Temp\ccuQ0kDm.s 			page 31


 1001              		.section	.text.PWM_Red_SetCompareSwap,"ax",%progbits
 1002              		.align	2
 1003              		.global	PWM_Red_SetCompareSwap
 1004              		.code	16
 1005              		.thumb_func
 1006              		.type	PWM_Red_SetCompareSwap, %function
 1007              	PWM_Red_SetCompareSwap:
 1008              	.LFB19:
 711:Generated_Source\PSoC4/PWM_Red.c **** 
 712:Generated_Source\PSoC4/PWM_Red.c **** 
 713:Generated_Source\PSoC4/PWM_Red.c **** /*******************************************************************************
 714:Generated_Source\PSoC4/PWM_Red.c **** * Function Name: PWM_Red_SetCompareSwap
 715:Generated_Source\PSoC4/PWM_Red.c **** ********************************************************************************
 716:Generated_Source\PSoC4/PWM_Red.c **** *
 717:Generated_Source\PSoC4/PWM_Red.c **** * Summary:
 718:Generated_Source\PSoC4/PWM_Red.c **** *  Writes the register that controls whether the compare registers are
 719:Generated_Source\PSoC4/PWM_Red.c **** *  swapped. When enabled in the Timer/Counter mode(without capture) the swap
 720:Generated_Source\PSoC4/PWM_Red.c **** *  occurs at a TC event. In the PWM mode the swap occurs at the next TC event
 721:Generated_Source\PSoC4/PWM_Red.c **** *  following a hardware switch event.
 722:Generated_Source\PSoC4/PWM_Red.c **** *
 723:Generated_Source\PSoC4/PWM_Red.c **** * Parameters:
 724:Generated_Source\PSoC4/PWM_Red.c **** *  swapEnable
 725:Generated_Source\PSoC4/PWM_Red.c **** *   Values:
 726:Generated_Source\PSoC4/PWM_Red.c **** *     - 0 - Disable swap
 727:Generated_Source\PSoC4/PWM_Red.c **** *     - 1 - Enable swap
 728:Generated_Source\PSoC4/PWM_Red.c **** *
 729:Generated_Source\PSoC4/PWM_Red.c **** * Return:
 730:Generated_Source\PSoC4/PWM_Red.c **** *  None
 731:Generated_Source\PSoC4/PWM_Red.c **** *
 732:Generated_Source\PSoC4/PWM_Red.c **** *******************************************************************************/
 733:Generated_Source\PSoC4/PWM_Red.c **** void PWM_Red_SetCompareSwap(uint32 swapEnable)
 734:Generated_Source\PSoC4/PWM_Red.c **** {
 1009              		.loc 1 734 0
 1010              		.cfi_startproc
 1011              		@ args = 0, pretend = 0, frame = 16
 1012              		@ frame_needed = 1, uses_anonymous_args = 0
 1013 0000 90B5     		push	{r4, r7, lr}
 1014              		.cfi_def_cfa_offset 12
 1015              		.cfi_offset 4, -12
 1016              		.cfi_offset 7, -8
 1017              		.cfi_offset 14, -4
 1018 0002 85B0     		sub	sp, sp, #20
 1019              		.cfi_def_cfa_offset 32
 1020 0004 00AF     		add	r7, sp, #0
 1021              		.cfi_def_cfa_register 7
 1022 0006 7860     		str	r0, [r7, #4]
 735:Generated_Source\PSoC4/PWM_Red.c ****     uint8 enableInterrupts;
 736:Generated_Source\PSoC4/PWM_Red.c **** 
 737:Generated_Source\PSoC4/PWM_Red.c ****     enableInterrupts = CyEnterCriticalSection();
 1023              		.loc 1 737 0
 1024 0008 0F23     		movs	r3, #15
 1025 000a FC18     		adds	r4, r7, r3
 1026 000c FFF7FEFF 		bl	CyEnterCriticalSection
 1027 0010 0300     		movs	r3, r0
 1028 0012 2370     		strb	r3, [r4]
 738:Generated_Source\PSoC4/PWM_Red.c **** 
 739:Generated_Source\PSoC4/PWM_Red.c ****     PWM_Red_CONTROL_REG &= (uint32)~PWM_Red_RELOAD_CC_MASK;
ARM GAS  C:\Users\ADMINI~1\AppData\Local\Temp\ccuQ0kDm.s 			page 32


 1029              		.loc 1 739 0
 1030 0014 0B4B     		ldr	r3, .L59
 1031 0016 0B4A     		ldr	r2, .L59
 1032 0018 1268     		ldr	r2, [r2]
 1033 001a 0121     		movs	r1, #1
 1034 001c 8A43     		bics	r2, r1
 1035 001e 1A60     		str	r2, [r3]
 740:Generated_Source\PSoC4/PWM_Red.c ****     PWM_Red_CONTROL_REG |= (swapEnable & PWM_Red_1BIT_MASK);
 1036              		.loc 1 740 0
 1037 0020 084B     		ldr	r3, .L59
 1038 0022 084A     		ldr	r2, .L59
 1039 0024 1168     		ldr	r1, [r2]
 1040 0026 7A68     		ldr	r2, [r7, #4]
 1041 0028 0120     		movs	r0, #1
 1042 002a 0240     		ands	r2, r0
 1043 002c 0A43     		orrs	r2, r1
 1044 002e 1A60     		str	r2, [r3]
 741:Generated_Source\PSoC4/PWM_Red.c **** 
 742:Generated_Source\PSoC4/PWM_Red.c ****     CyExitCriticalSection(enableInterrupts);
 1045              		.loc 1 742 0
 1046 0030 0F23     		movs	r3, #15
 1047 0032 FB18     		adds	r3, r7, r3
 1048 0034 1B78     		ldrb	r3, [r3]
 1049 0036 1800     		movs	r0, r3
 1050 0038 FFF7FEFF 		bl	CyExitCriticalSection
 743:Generated_Source\PSoC4/PWM_Red.c **** }
 1051              		.loc 1 743 0
 1052 003c C046     		nop
 1053 003e BD46     		mov	sp, r7
 1054 0040 05B0     		add	sp, sp, #20
 1055              		@ sp needed
 1056 0042 90BD     		pop	{r4, r7, pc}
 1057              	.L60:
 1058              		.align	2
 1059              	.L59:
 1060 0044 40012040 		.word	1075839296
 1061              		.cfi_endproc
 1062              	.LFE19:
 1063              		.size	PWM_Red_SetCompareSwap, .-PWM_Red_SetCompareSwap
 1064              		.section	.text.PWM_Red_WritePeriodBuf,"ax",%progbits
 1065              		.align	2
 1066              		.global	PWM_Red_WritePeriodBuf
 1067              		.code	16
 1068              		.thumb_func
 1069              		.type	PWM_Red_WritePeriodBuf, %function
 1070              	PWM_Red_WritePeriodBuf:
 1071              	.LFB20:
 744:Generated_Source\PSoC4/PWM_Red.c **** 
 745:Generated_Source\PSoC4/PWM_Red.c **** 
 746:Generated_Source\PSoC4/PWM_Red.c **** /*******************************************************************************
 747:Generated_Source\PSoC4/PWM_Red.c **** * Function Name: PWM_Red_WritePeriodBuf
 748:Generated_Source\PSoC4/PWM_Red.c **** ********************************************************************************
 749:Generated_Source\PSoC4/PWM_Red.c **** *
 750:Generated_Source\PSoC4/PWM_Red.c **** * Summary:
 751:Generated_Source\PSoC4/PWM_Red.c **** *  Writes the 16 bit period buf register with the new period value.
 752:Generated_Source\PSoC4/PWM_Red.c **** *
 753:Generated_Source\PSoC4/PWM_Red.c **** * Parameters:
ARM GAS  C:\Users\ADMINI~1\AppData\Local\Temp\ccuQ0kDm.s 			page 33


 754:Generated_Source\PSoC4/PWM_Red.c **** *  periodBuf: Period value
 755:Generated_Source\PSoC4/PWM_Red.c **** *
 756:Generated_Source\PSoC4/PWM_Red.c **** * Return:
 757:Generated_Source\PSoC4/PWM_Red.c **** *  None
 758:Generated_Source\PSoC4/PWM_Red.c **** *
 759:Generated_Source\PSoC4/PWM_Red.c **** *******************************************************************************/
 760:Generated_Source\PSoC4/PWM_Red.c **** void PWM_Red_WritePeriodBuf(uint32 periodBuf)
 761:Generated_Source\PSoC4/PWM_Red.c **** {
 1072              		.loc 1 761 0
 1073              		.cfi_startproc
 1074              		@ args = 0, pretend = 0, frame = 8
 1075              		@ frame_needed = 1, uses_anonymous_args = 0
 1076 0000 80B5     		push	{r7, lr}
 1077              		.cfi_def_cfa_offset 8
 1078              		.cfi_offset 7, -8
 1079              		.cfi_offset 14, -4
 1080 0002 82B0     		sub	sp, sp, #8
 1081              		.cfi_def_cfa_offset 16
 1082 0004 00AF     		add	r7, sp, #0
 1083              		.cfi_def_cfa_register 7
 1084 0006 7860     		str	r0, [r7, #4]
 762:Generated_Source\PSoC4/PWM_Red.c ****     PWM_Red_PERIOD_BUF_REG = (periodBuf & PWM_Red_16BIT_MASK);
 1085              		.loc 1 762 0
 1086 0008 044B     		ldr	r3, .L62
 1087 000a 7A68     		ldr	r2, [r7, #4]
 1088 000c 1204     		lsls	r2, r2, #16
 1089 000e 120C     		lsrs	r2, r2, #16
 1090 0010 1A60     		str	r2, [r3]
 763:Generated_Source\PSoC4/PWM_Red.c **** }
 1091              		.loc 1 763 0
 1092 0012 C046     		nop
 1093 0014 BD46     		mov	sp, r7
 1094 0016 02B0     		add	sp, sp, #8
 1095              		@ sp needed
 1096 0018 80BD     		pop	{r7, pc}
 1097              	.L63:
 1098 001a C046     		.align	2
 1099              	.L62:
 1100 001c 58012040 		.word	1075839320
 1101              		.cfi_endproc
 1102              	.LFE20:
 1103              		.size	PWM_Red_WritePeriodBuf, .-PWM_Red_WritePeriodBuf
 1104              		.section	.text.PWM_Red_ReadPeriodBuf,"ax",%progbits
 1105              		.align	2
 1106              		.global	PWM_Red_ReadPeriodBuf
 1107              		.code	16
 1108              		.thumb_func
 1109              		.type	PWM_Red_ReadPeriodBuf, %function
 1110              	PWM_Red_ReadPeriodBuf:
 1111              	.LFB21:
 764:Generated_Source\PSoC4/PWM_Red.c **** 
 765:Generated_Source\PSoC4/PWM_Red.c **** 
 766:Generated_Source\PSoC4/PWM_Red.c **** /*******************************************************************************
 767:Generated_Source\PSoC4/PWM_Red.c **** * Function Name: PWM_Red_ReadPeriodBuf
 768:Generated_Source\PSoC4/PWM_Red.c **** ********************************************************************************
 769:Generated_Source\PSoC4/PWM_Red.c **** *
 770:Generated_Source\PSoC4/PWM_Red.c **** * Summary:
ARM GAS  C:\Users\ADMINI~1\AppData\Local\Temp\ccuQ0kDm.s 			page 34


 771:Generated_Source\PSoC4/PWM_Red.c **** *  Reads the 16 bit period buf register.
 772:Generated_Source\PSoC4/PWM_Red.c **** *
 773:Generated_Source\PSoC4/PWM_Red.c **** * Parameters:
 774:Generated_Source\PSoC4/PWM_Red.c **** *  None
 775:Generated_Source\PSoC4/PWM_Red.c **** *
 776:Generated_Source\PSoC4/PWM_Red.c **** * Return:
 777:Generated_Source\PSoC4/PWM_Red.c **** *  Period value
 778:Generated_Source\PSoC4/PWM_Red.c **** *
 779:Generated_Source\PSoC4/PWM_Red.c **** *******************************************************************************/
 780:Generated_Source\PSoC4/PWM_Red.c **** uint32 PWM_Red_ReadPeriodBuf(void)
 781:Generated_Source\PSoC4/PWM_Red.c **** {
 1112              		.loc 1 781 0
 1113              		.cfi_startproc
 1114              		@ args = 0, pretend = 0, frame = 0
 1115              		@ frame_needed = 1, uses_anonymous_args = 0
 1116 0000 80B5     		push	{r7, lr}
 1117              		.cfi_def_cfa_offset 8
 1118              		.cfi_offset 7, -8
 1119              		.cfi_offset 14, -4
 1120 0002 00AF     		add	r7, sp, #0
 1121              		.cfi_def_cfa_register 7
 782:Generated_Source\PSoC4/PWM_Red.c ****     return (PWM_Red_PERIOD_BUF_REG & PWM_Red_16BIT_MASK);
 1122              		.loc 1 782 0
 1123 0004 034B     		ldr	r3, .L66
 1124 0006 1B68     		ldr	r3, [r3]
 1125 0008 1B04     		lsls	r3, r3, #16
 1126 000a 1B0C     		lsrs	r3, r3, #16
 783:Generated_Source\PSoC4/PWM_Red.c **** }
 1127              		.loc 1 783 0
 1128 000c 1800     		movs	r0, r3
 1129 000e BD46     		mov	sp, r7
 1130              		@ sp needed
 1131 0010 80BD     		pop	{r7, pc}
 1132              	.L67:
 1133 0012 C046     		.align	2
 1134              	.L66:
 1135 0014 58012040 		.word	1075839320
 1136              		.cfi_endproc
 1137              	.LFE21:
 1138              		.size	PWM_Red_ReadPeriodBuf, .-PWM_Red_ReadPeriodBuf
 1139              		.section	.text.PWM_Red_SetPeriodSwap,"ax",%progbits
 1140              		.align	2
 1141              		.global	PWM_Red_SetPeriodSwap
 1142              		.code	16
 1143              		.thumb_func
 1144              		.type	PWM_Red_SetPeriodSwap, %function
 1145              	PWM_Red_SetPeriodSwap:
 1146              	.LFB22:
 784:Generated_Source\PSoC4/PWM_Red.c **** 
 785:Generated_Source\PSoC4/PWM_Red.c **** 
 786:Generated_Source\PSoC4/PWM_Red.c **** /*******************************************************************************
 787:Generated_Source\PSoC4/PWM_Red.c **** * Function Name: PWM_Red_SetPeriodSwap
 788:Generated_Source\PSoC4/PWM_Red.c **** ********************************************************************************
 789:Generated_Source\PSoC4/PWM_Red.c **** *
 790:Generated_Source\PSoC4/PWM_Red.c **** * Summary:
 791:Generated_Source\PSoC4/PWM_Red.c **** *  Writes the register that controls whether the period registers are
 792:Generated_Source\PSoC4/PWM_Red.c **** *  swapped. When enabled in Timer/Counter mode the swap occurs at a TC event.
ARM GAS  C:\Users\ADMINI~1\AppData\Local\Temp\ccuQ0kDm.s 			page 35


 793:Generated_Source\PSoC4/PWM_Red.c **** *  In the PWM mode the swap occurs at the next TC event following a hardware
 794:Generated_Source\PSoC4/PWM_Red.c **** *  switch event.
 795:Generated_Source\PSoC4/PWM_Red.c **** *
 796:Generated_Source\PSoC4/PWM_Red.c **** * Parameters:
 797:Generated_Source\PSoC4/PWM_Red.c **** *  swapEnable
 798:Generated_Source\PSoC4/PWM_Red.c **** *   Values:
 799:Generated_Source\PSoC4/PWM_Red.c **** *     - 0 - Disable swap
 800:Generated_Source\PSoC4/PWM_Red.c **** *     - 1 - Enable swap
 801:Generated_Source\PSoC4/PWM_Red.c **** *
 802:Generated_Source\PSoC4/PWM_Red.c **** * Return:
 803:Generated_Source\PSoC4/PWM_Red.c **** *  None
 804:Generated_Source\PSoC4/PWM_Red.c **** *
 805:Generated_Source\PSoC4/PWM_Red.c **** *******************************************************************************/
 806:Generated_Source\PSoC4/PWM_Red.c **** void PWM_Red_SetPeriodSwap(uint32 swapEnable)
 807:Generated_Source\PSoC4/PWM_Red.c **** {
 1147              		.loc 1 807 0
 1148              		.cfi_startproc
 1149              		@ args = 0, pretend = 0, frame = 16
 1150              		@ frame_needed = 1, uses_anonymous_args = 0
 1151 0000 90B5     		push	{r4, r7, lr}
 1152              		.cfi_def_cfa_offset 12
 1153              		.cfi_offset 4, -12
 1154              		.cfi_offset 7, -8
 1155              		.cfi_offset 14, -4
 1156 0002 85B0     		sub	sp, sp, #20
 1157              		.cfi_def_cfa_offset 32
 1158 0004 00AF     		add	r7, sp, #0
 1159              		.cfi_def_cfa_register 7
 1160 0006 7860     		str	r0, [r7, #4]
 808:Generated_Source\PSoC4/PWM_Red.c ****     uint8 enableInterrupts;
 809:Generated_Source\PSoC4/PWM_Red.c **** 
 810:Generated_Source\PSoC4/PWM_Red.c ****     enableInterrupts = CyEnterCriticalSection();
 1161              		.loc 1 810 0
 1162 0008 0F23     		movs	r3, #15
 1163 000a FC18     		adds	r4, r7, r3
 1164 000c FFF7FEFF 		bl	CyEnterCriticalSection
 1165 0010 0300     		movs	r3, r0
 1166 0012 2370     		strb	r3, [r4]
 811:Generated_Source\PSoC4/PWM_Red.c **** 
 812:Generated_Source\PSoC4/PWM_Red.c ****     PWM_Red_CONTROL_REG &= (uint32)~PWM_Red_RELOAD_PERIOD_MASK;
 1167              		.loc 1 812 0
 1168 0014 0C4B     		ldr	r3, .L69
 1169 0016 0C4A     		ldr	r2, .L69
 1170 0018 1268     		ldr	r2, [r2]
 1171 001a 0221     		movs	r1, #2
 1172 001c 8A43     		bics	r2, r1
 1173 001e 1A60     		str	r2, [r3]
 813:Generated_Source\PSoC4/PWM_Red.c ****     PWM_Red_CONTROL_REG |= ((uint32)((swapEnable & PWM_Red_1BIT_MASK) <<
 1174              		.loc 1 813 0
 1175 0020 094B     		ldr	r3, .L69
 1176 0022 094A     		ldr	r2, .L69
 1177 0024 1168     		ldr	r1, [r2]
 1178 0026 7A68     		ldr	r2, [r7, #4]
 1179 0028 5200     		lsls	r2, r2, #1
 1180 002a 0220     		movs	r0, #2
 1181 002c 0240     		ands	r2, r0
 1182 002e 0A43     		orrs	r2, r1
ARM GAS  C:\Users\ADMINI~1\AppData\Local\Temp\ccuQ0kDm.s 			page 36


 1183 0030 1A60     		str	r2, [r3]
 814:Generated_Source\PSoC4/PWM_Red.c ****                                                             PWM_Red_RELOAD_PERIOD_SHIFT));
 815:Generated_Source\PSoC4/PWM_Red.c **** 
 816:Generated_Source\PSoC4/PWM_Red.c ****     CyExitCriticalSection(enableInterrupts);
 1184              		.loc 1 816 0
 1185 0032 0F23     		movs	r3, #15
 1186 0034 FB18     		adds	r3, r7, r3
 1187 0036 1B78     		ldrb	r3, [r3]
 1188 0038 1800     		movs	r0, r3
 1189 003a FFF7FEFF 		bl	CyExitCriticalSection
 817:Generated_Source\PSoC4/PWM_Red.c **** }
 1190              		.loc 1 817 0
 1191 003e C046     		nop
 1192 0040 BD46     		mov	sp, r7
 1193 0042 05B0     		add	sp, sp, #20
 1194              		@ sp needed
 1195 0044 90BD     		pop	{r4, r7, pc}
 1196              	.L70:
 1197 0046 C046     		.align	2
 1198              	.L69:
 1199 0048 40012040 		.word	1075839296
 1200              		.cfi_endproc
 1201              	.LFE22:
 1202              		.size	PWM_Red_SetPeriodSwap, .-PWM_Red_SetPeriodSwap
 1203              		.section	.text.PWM_Red_WriteCompare,"ax",%progbits
 1204              		.align	2
 1205              		.global	PWM_Red_WriteCompare
 1206              		.code	16
 1207              		.thumb_func
 1208              		.type	PWM_Red_WriteCompare, %function
 1209              	PWM_Red_WriteCompare:
 1210              	.LFB23:
 818:Generated_Source\PSoC4/PWM_Red.c **** 
 819:Generated_Source\PSoC4/PWM_Red.c **** 
 820:Generated_Source\PSoC4/PWM_Red.c **** /*******************************************************************************
 821:Generated_Source\PSoC4/PWM_Red.c **** * Function Name: PWM_Red_WriteCompare
 822:Generated_Source\PSoC4/PWM_Red.c **** ********************************************************************************
 823:Generated_Source\PSoC4/PWM_Red.c **** *
 824:Generated_Source\PSoC4/PWM_Red.c **** * Summary:
 825:Generated_Source\PSoC4/PWM_Red.c **** *  Writes the 16 bit compare register with the new compare value. Not
 826:Generated_Source\PSoC4/PWM_Red.c **** *  applicable for Timer/Counter with Capture or in Quadrature Decoder modes.
 827:Generated_Source\PSoC4/PWM_Red.c **** *
 828:Generated_Source\PSoC4/PWM_Red.c **** * Parameters:
 829:Generated_Source\PSoC4/PWM_Red.c **** *  compare: Compare value
 830:Generated_Source\PSoC4/PWM_Red.c **** *
 831:Generated_Source\PSoC4/PWM_Red.c **** * Return:
 832:Generated_Source\PSoC4/PWM_Red.c **** *  None
 833:Generated_Source\PSoC4/PWM_Red.c **** *
 834:Generated_Source\PSoC4/PWM_Red.c **** *******************************************************************************/
 835:Generated_Source\PSoC4/PWM_Red.c **** void PWM_Red_WriteCompare(uint32 compare)
 836:Generated_Source\PSoC4/PWM_Red.c **** {
 1211              		.loc 1 836 0
 1212              		.cfi_startproc
 1213              		@ args = 0, pretend = 0, frame = 8
 1214              		@ frame_needed = 1, uses_anonymous_args = 0
 1215 0000 80B5     		push	{r7, lr}
 1216              		.cfi_def_cfa_offset 8
ARM GAS  C:\Users\ADMINI~1\AppData\Local\Temp\ccuQ0kDm.s 			page 37


 1217              		.cfi_offset 7, -8
 1218              		.cfi_offset 14, -4
 1219 0002 82B0     		sub	sp, sp, #8
 1220              		.cfi_def_cfa_offset 16
 1221 0004 00AF     		add	r7, sp, #0
 1222              		.cfi_def_cfa_register 7
 1223 0006 7860     		str	r0, [r7, #4]
 837:Generated_Source\PSoC4/PWM_Red.c ****     #if (PWM_Red_CY_TCPWM_4000)
 838:Generated_Source\PSoC4/PWM_Red.c ****         uint32 currentMode;
 839:Generated_Source\PSoC4/PWM_Red.c ****     #endif /* (PWM_Red_CY_TCPWM_4000) */
 840:Generated_Source\PSoC4/PWM_Red.c **** 
 841:Generated_Source\PSoC4/PWM_Red.c ****     #if (PWM_Red_CY_TCPWM_4000)
 842:Generated_Source\PSoC4/PWM_Red.c ****         currentMode = ((PWM_Red_CONTROL_REG & PWM_Red_UPDOWN_MASK) >> PWM_Red_UPDOWN_SHIFT);
 843:Generated_Source\PSoC4/PWM_Red.c **** 
 844:Generated_Source\PSoC4/PWM_Red.c ****         if (((uint32)PWM_Red__COUNT_DOWN == currentMode) && (0xFFFFu != compare))
 845:Generated_Source\PSoC4/PWM_Red.c ****         {
 846:Generated_Source\PSoC4/PWM_Red.c ****             compare++;
 847:Generated_Source\PSoC4/PWM_Red.c ****         }
 848:Generated_Source\PSoC4/PWM_Red.c ****         else if (((uint32)PWM_Red__COUNT_UP == currentMode) && (0u != compare))
 849:Generated_Source\PSoC4/PWM_Red.c ****         {
 850:Generated_Source\PSoC4/PWM_Red.c ****             compare--;
 851:Generated_Source\PSoC4/PWM_Red.c ****         }
 852:Generated_Source\PSoC4/PWM_Red.c ****         else
 853:Generated_Source\PSoC4/PWM_Red.c ****         {
 854:Generated_Source\PSoC4/PWM_Red.c ****         }
 855:Generated_Source\PSoC4/PWM_Red.c ****         
 856:Generated_Source\PSoC4/PWM_Red.c ****     
 857:Generated_Source\PSoC4/PWM_Red.c ****     #endif /* (PWM_Red_CY_TCPWM_4000) */
 858:Generated_Source\PSoC4/PWM_Red.c ****     
 859:Generated_Source\PSoC4/PWM_Red.c ****     PWM_Red_COMP_CAP_REG = (compare & PWM_Red_16BIT_MASK);
 1224              		.loc 1 859 0
 1225 0008 044B     		ldr	r3, .L72
 1226 000a 7A68     		ldr	r2, [r7, #4]
 1227 000c 1204     		lsls	r2, r2, #16
 1228 000e 120C     		lsrs	r2, r2, #16
 1229 0010 1A60     		str	r2, [r3]
 860:Generated_Source\PSoC4/PWM_Red.c **** }
 1230              		.loc 1 860 0
 1231 0012 C046     		nop
 1232 0014 BD46     		mov	sp, r7
 1233 0016 02B0     		add	sp, sp, #8
 1234              		@ sp needed
 1235 0018 80BD     		pop	{r7, pc}
 1236              	.L73:
 1237 001a C046     		.align	2
 1238              	.L72:
 1239 001c 4C012040 		.word	1075839308
 1240              		.cfi_endproc
 1241              	.LFE23:
 1242              		.size	PWM_Red_WriteCompare, .-PWM_Red_WriteCompare
 1243              		.section	.text.PWM_Red_ReadCompare,"ax",%progbits
 1244              		.align	2
 1245              		.global	PWM_Red_ReadCompare
 1246              		.code	16
 1247              		.thumb_func
 1248              		.type	PWM_Red_ReadCompare, %function
 1249              	PWM_Red_ReadCompare:
ARM GAS  C:\Users\ADMINI~1\AppData\Local\Temp\ccuQ0kDm.s 			page 38


 1250              	.LFB24:
 861:Generated_Source\PSoC4/PWM_Red.c **** 
 862:Generated_Source\PSoC4/PWM_Red.c **** 
 863:Generated_Source\PSoC4/PWM_Red.c **** /*******************************************************************************
 864:Generated_Source\PSoC4/PWM_Red.c **** * Function Name: PWM_Red_ReadCompare
 865:Generated_Source\PSoC4/PWM_Red.c **** ********************************************************************************
 866:Generated_Source\PSoC4/PWM_Red.c **** *
 867:Generated_Source\PSoC4/PWM_Red.c **** * Summary:
 868:Generated_Source\PSoC4/PWM_Red.c **** *  Reads the compare register. Not applicable for Timer/Counter with Capture
 869:Generated_Source\PSoC4/PWM_Red.c **** *  or in Quadrature Decoder modes.
 870:Generated_Source\PSoC4/PWM_Red.c **** *
 871:Generated_Source\PSoC4/PWM_Red.c **** * Parameters:
 872:Generated_Source\PSoC4/PWM_Red.c **** *  None
 873:Generated_Source\PSoC4/PWM_Red.c **** *
 874:Generated_Source\PSoC4/PWM_Red.c **** * Return:
 875:Generated_Source\PSoC4/PWM_Red.c **** *  Compare value
 876:Generated_Source\PSoC4/PWM_Red.c **** *
 877:Generated_Source\PSoC4/PWM_Red.c **** *******************************************************************************/
 878:Generated_Source\PSoC4/PWM_Red.c **** uint32 PWM_Red_ReadCompare(void)
 879:Generated_Source\PSoC4/PWM_Red.c **** {
 1251              		.loc 1 879 0
 1252              		.cfi_startproc
 1253              		@ args = 0, pretend = 0, frame = 0
 1254              		@ frame_needed = 1, uses_anonymous_args = 0
 1255 0000 80B5     		push	{r7, lr}
 1256              		.cfi_def_cfa_offset 8
 1257              		.cfi_offset 7, -8
 1258              		.cfi_offset 14, -4
 1259 0002 00AF     		add	r7, sp, #0
 1260              		.cfi_def_cfa_register 7
 880:Generated_Source\PSoC4/PWM_Red.c ****     #if (PWM_Red_CY_TCPWM_4000)
 881:Generated_Source\PSoC4/PWM_Red.c ****         uint32 currentMode;
 882:Generated_Source\PSoC4/PWM_Red.c ****         uint32 regVal;
 883:Generated_Source\PSoC4/PWM_Red.c ****     #endif /* (PWM_Red_CY_TCPWM_4000) */
 884:Generated_Source\PSoC4/PWM_Red.c **** 
 885:Generated_Source\PSoC4/PWM_Red.c ****     #if (PWM_Red_CY_TCPWM_4000)
 886:Generated_Source\PSoC4/PWM_Red.c ****         currentMode = ((PWM_Red_CONTROL_REG & PWM_Red_UPDOWN_MASK) >> PWM_Red_UPDOWN_SHIFT);
 887:Generated_Source\PSoC4/PWM_Red.c ****         
 888:Generated_Source\PSoC4/PWM_Red.c ****         regVal = PWM_Red_COMP_CAP_REG;
 889:Generated_Source\PSoC4/PWM_Red.c ****         
 890:Generated_Source\PSoC4/PWM_Red.c ****         if (((uint32)PWM_Red__COUNT_DOWN == currentMode) && (0u != regVal))
 891:Generated_Source\PSoC4/PWM_Red.c ****         {
 892:Generated_Source\PSoC4/PWM_Red.c ****             regVal--;
 893:Generated_Source\PSoC4/PWM_Red.c ****         }
 894:Generated_Source\PSoC4/PWM_Red.c ****         else if (((uint32)PWM_Red__COUNT_UP == currentMode) && (0xFFFFu != regVal))
 895:Generated_Source\PSoC4/PWM_Red.c ****         {
 896:Generated_Source\PSoC4/PWM_Red.c ****             regVal++;
 897:Generated_Source\PSoC4/PWM_Red.c ****         }
 898:Generated_Source\PSoC4/PWM_Red.c ****         else
 899:Generated_Source\PSoC4/PWM_Red.c ****         {
 900:Generated_Source\PSoC4/PWM_Red.c ****         }
 901:Generated_Source\PSoC4/PWM_Red.c **** 
 902:Generated_Source\PSoC4/PWM_Red.c ****         return (regVal & PWM_Red_16BIT_MASK);
 903:Generated_Source\PSoC4/PWM_Red.c ****     #else
 904:Generated_Source\PSoC4/PWM_Red.c ****         return (PWM_Red_COMP_CAP_REG & PWM_Red_16BIT_MASK);
 1261              		.loc 1 904 0
 1262 0004 034B     		ldr	r3, .L76
ARM GAS  C:\Users\ADMINI~1\AppData\Local\Temp\ccuQ0kDm.s 			page 39


 1263 0006 1B68     		ldr	r3, [r3]
 1264 0008 1B04     		lsls	r3, r3, #16
 1265 000a 1B0C     		lsrs	r3, r3, #16
 905:Generated_Source\PSoC4/PWM_Red.c ****     #endif /* (PWM_Red_CY_TCPWM_4000) */
 906:Generated_Source\PSoC4/PWM_Red.c **** }
 1266              		.loc 1 906 0
 1267 000c 1800     		movs	r0, r3
 1268 000e BD46     		mov	sp, r7
 1269              		@ sp needed
 1270 0010 80BD     		pop	{r7, pc}
 1271              	.L77:
 1272 0012 C046     		.align	2
 1273              	.L76:
 1274 0014 4C012040 		.word	1075839308
 1275              		.cfi_endproc
 1276              	.LFE24:
 1277              		.size	PWM_Red_ReadCompare, .-PWM_Red_ReadCompare
 1278              		.section	.text.PWM_Red_WriteCompareBuf,"ax",%progbits
 1279              		.align	2
 1280              		.global	PWM_Red_WriteCompareBuf
 1281              		.code	16
 1282              		.thumb_func
 1283              		.type	PWM_Red_WriteCompareBuf, %function
 1284              	PWM_Red_WriteCompareBuf:
 1285              	.LFB25:
 907:Generated_Source\PSoC4/PWM_Red.c **** 
 908:Generated_Source\PSoC4/PWM_Red.c **** 
 909:Generated_Source\PSoC4/PWM_Red.c **** /*******************************************************************************
 910:Generated_Source\PSoC4/PWM_Red.c **** * Function Name: PWM_Red_WriteCompareBuf
 911:Generated_Source\PSoC4/PWM_Red.c **** ********************************************************************************
 912:Generated_Source\PSoC4/PWM_Red.c **** *
 913:Generated_Source\PSoC4/PWM_Red.c **** * Summary:
 914:Generated_Source\PSoC4/PWM_Red.c **** *  Writes the 16 bit compare buffer register with the new compare value. Not
 915:Generated_Source\PSoC4/PWM_Red.c **** *  applicable for Timer/Counter with Capture or in Quadrature Decoder modes.
 916:Generated_Source\PSoC4/PWM_Red.c **** *
 917:Generated_Source\PSoC4/PWM_Red.c **** * Parameters:
 918:Generated_Source\PSoC4/PWM_Red.c **** *  compareBuf: Compare value
 919:Generated_Source\PSoC4/PWM_Red.c **** *
 920:Generated_Source\PSoC4/PWM_Red.c **** * Return:
 921:Generated_Source\PSoC4/PWM_Red.c **** *  None
 922:Generated_Source\PSoC4/PWM_Red.c **** *
 923:Generated_Source\PSoC4/PWM_Red.c **** *******************************************************************************/
 924:Generated_Source\PSoC4/PWM_Red.c **** void PWM_Red_WriteCompareBuf(uint32 compareBuf)
 925:Generated_Source\PSoC4/PWM_Red.c **** {
 1286              		.loc 1 925 0
 1287              		.cfi_startproc
 1288              		@ args = 0, pretend = 0, frame = 8
 1289              		@ frame_needed = 1, uses_anonymous_args = 0
 1290 0000 80B5     		push	{r7, lr}
 1291              		.cfi_def_cfa_offset 8
 1292              		.cfi_offset 7, -8
 1293              		.cfi_offset 14, -4
 1294 0002 82B0     		sub	sp, sp, #8
 1295              		.cfi_def_cfa_offset 16
 1296 0004 00AF     		add	r7, sp, #0
 1297              		.cfi_def_cfa_register 7
 1298 0006 7860     		str	r0, [r7, #4]
ARM GAS  C:\Users\ADMINI~1\AppData\Local\Temp\ccuQ0kDm.s 			page 40


 926:Generated_Source\PSoC4/PWM_Red.c ****     #if (PWM_Red_CY_TCPWM_4000)
 927:Generated_Source\PSoC4/PWM_Red.c ****         uint32 currentMode;
 928:Generated_Source\PSoC4/PWM_Red.c ****     #endif /* (PWM_Red_CY_TCPWM_4000) */
 929:Generated_Source\PSoC4/PWM_Red.c **** 
 930:Generated_Source\PSoC4/PWM_Red.c ****     #if (PWM_Red_CY_TCPWM_4000)
 931:Generated_Source\PSoC4/PWM_Red.c ****         currentMode = ((PWM_Red_CONTROL_REG & PWM_Red_UPDOWN_MASK) >> PWM_Red_UPDOWN_SHIFT);
 932:Generated_Source\PSoC4/PWM_Red.c **** 
 933:Generated_Source\PSoC4/PWM_Red.c ****         if (((uint32)PWM_Red__COUNT_DOWN == currentMode) && (0xFFFFu != compareBuf))
 934:Generated_Source\PSoC4/PWM_Red.c ****         {
 935:Generated_Source\PSoC4/PWM_Red.c ****             compareBuf++;
 936:Generated_Source\PSoC4/PWM_Red.c ****         }
 937:Generated_Source\PSoC4/PWM_Red.c ****         else if (((uint32)PWM_Red__COUNT_UP == currentMode) && (0u != compareBuf))
 938:Generated_Source\PSoC4/PWM_Red.c ****         {
 939:Generated_Source\PSoC4/PWM_Red.c ****             compareBuf --;
 940:Generated_Source\PSoC4/PWM_Red.c ****         }
 941:Generated_Source\PSoC4/PWM_Red.c ****         else
 942:Generated_Source\PSoC4/PWM_Red.c ****         {
 943:Generated_Source\PSoC4/PWM_Red.c ****         }
 944:Generated_Source\PSoC4/PWM_Red.c ****     #endif /* (PWM_Red_CY_TCPWM_4000) */
 945:Generated_Source\PSoC4/PWM_Red.c ****     
 946:Generated_Source\PSoC4/PWM_Red.c ****     PWM_Red_COMP_CAP_BUF_REG = (compareBuf & PWM_Red_16BIT_MASK);
 1299              		.loc 1 946 0
 1300 0008 044B     		ldr	r3, .L79
 1301 000a 7A68     		ldr	r2, [r7, #4]
 1302 000c 1204     		lsls	r2, r2, #16
 1303 000e 120C     		lsrs	r2, r2, #16
 1304 0010 1A60     		str	r2, [r3]
 947:Generated_Source\PSoC4/PWM_Red.c **** }
 1305              		.loc 1 947 0
 1306 0012 C046     		nop
 1307 0014 BD46     		mov	sp, r7
 1308 0016 02B0     		add	sp, sp, #8
 1309              		@ sp needed
 1310 0018 80BD     		pop	{r7, pc}
 1311              	.L80:
 1312 001a C046     		.align	2
 1313              	.L79:
 1314 001c 50012040 		.word	1075839312
 1315              		.cfi_endproc
 1316              	.LFE25:
 1317              		.size	PWM_Red_WriteCompareBuf, .-PWM_Red_WriteCompareBuf
 1318              		.section	.text.PWM_Red_ReadCompareBuf,"ax",%progbits
 1319              		.align	2
 1320              		.global	PWM_Red_ReadCompareBuf
 1321              		.code	16
 1322              		.thumb_func
 1323              		.type	PWM_Red_ReadCompareBuf, %function
 1324              	PWM_Red_ReadCompareBuf:
 1325              	.LFB26:
 948:Generated_Source\PSoC4/PWM_Red.c **** 
 949:Generated_Source\PSoC4/PWM_Red.c **** 
 950:Generated_Source\PSoC4/PWM_Red.c **** /*******************************************************************************
 951:Generated_Source\PSoC4/PWM_Red.c **** * Function Name: PWM_Red_ReadCompareBuf
 952:Generated_Source\PSoC4/PWM_Red.c **** ********************************************************************************
 953:Generated_Source\PSoC4/PWM_Red.c **** *
 954:Generated_Source\PSoC4/PWM_Red.c **** * Summary:
 955:Generated_Source\PSoC4/PWM_Red.c **** *  Reads the compare buffer register. Not applicable for Timer/Counter with
ARM GAS  C:\Users\ADMINI~1\AppData\Local\Temp\ccuQ0kDm.s 			page 41


 956:Generated_Source\PSoC4/PWM_Red.c **** *  Capture or in Quadrature Decoder modes.
 957:Generated_Source\PSoC4/PWM_Red.c **** *
 958:Generated_Source\PSoC4/PWM_Red.c **** * Parameters:
 959:Generated_Source\PSoC4/PWM_Red.c **** *  None
 960:Generated_Source\PSoC4/PWM_Red.c **** *
 961:Generated_Source\PSoC4/PWM_Red.c **** * Return:
 962:Generated_Source\PSoC4/PWM_Red.c **** *  Compare buffer value
 963:Generated_Source\PSoC4/PWM_Red.c **** *
 964:Generated_Source\PSoC4/PWM_Red.c **** *******************************************************************************/
 965:Generated_Source\PSoC4/PWM_Red.c **** uint32 PWM_Red_ReadCompareBuf(void)
 966:Generated_Source\PSoC4/PWM_Red.c **** {
 1326              		.loc 1 966 0
 1327              		.cfi_startproc
 1328              		@ args = 0, pretend = 0, frame = 0
 1329              		@ frame_needed = 1, uses_anonymous_args = 0
 1330 0000 80B5     		push	{r7, lr}
 1331              		.cfi_def_cfa_offset 8
 1332              		.cfi_offset 7, -8
 1333              		.cfi_offset 14, -4
 1334 0002 00AF     		add	r7, sp, #0
 1335              		.cfi_def_cfa_register 7
 967:Generated_Source\PSoC4/PWM_Red.c ****     #if (PWM_Red_CY_TCPWM_4000)
 968:Generated_Source\PSoC4/PWM_Red.c ****         uint32 currentMode;
 969:Generated_Source\PSoC4/PWM_Red.c ****         uint32 regVal;
 970:Generated_Source\PSoC4/PWM_Red.c ****     #endif /* (PWM_Red_CY_TCPWM_4000) */
 971:Generated_Source\PSoC4/PWM_Red.c **** 
 972:Generated_Source\PSoC4/PWM_Red.c ****     #if (PWM_Red_CY_TCPWM_4000)
 973:Generated_Source\PSoC4/PWM_Red.c ****         currentMode = ((PWM_Red_CONTROL_REG & PWM_Red_UPDOWN_MASK) >> PWM_Red_UPDOWN_SHIFT);
 974:Generated_Source\PSoC4/PWM_Red.c **** 
 975:Generated_Source\PSoC4/PWM_Red.c ****         regVal = PWM_Red_COMP_CAP_BUF_REG;
 976:Generated_Source\PSoC4/PWM_Red.c ****         
 977:Generated_Source\PSoC4/PWM_Red.c ****         if (((uint32)PWM_Red__COUNT_DOWN == currentMode) && (0u != regVal))
 978:Generated_Source\PSoC4/PWM_Red.c ****         {
 979:Generated_Source\PSoC4/PWM_Red.c ****             regVal--;
 980:Generated_Source\PSoC4/PWM_Red.c ****         }
 981:Generated_Source\PSoC4/PWM_Red.c ****         else if (((uint32)PWM_Red__COUNT_UP == currentMode) && (0xFFFFu != regVal))
 982:Generated_Source\PSoC4/PWM_Red.c ****         {
 983:Generated_Source\PSoC4/PWM_Red.c ****             regVal++;
 984:Generated_Source\PSoC4/PWM_Red.c ****         }
 985:Generated_Source\PSoC4/PWM_Red.c ****         else
 986:Generated_Source\PSoC4/PWM_Red.c ****         {
 987:Generated_Source\PSoC4/PWM_Red.c ****         }
 988:Generated_Source\PSoC4/PWM_Red.c **** 
 989:Generated_Source\PSoC4/PWM_Red.c ****         return (regVal & PWM_Red_16BIT_MASK);
 990:Generated_Source\PSoC4/PWM_Red.c ****     #else
 991:Generated_Source\PSoC4/PWM_Red.c ****         return (PWM_Red_COMP_CAP_BUF_REG & PWM_Red_16BIT_MASK);
 1336              		.loc 1 991 0
 1337 0004 034B     		ldr	r3, .L83
 1338 0006 1B68     		ldr	r3, [r3]
 1339 0008 1B04     		lsls	r3, r3, #16
 1340 000a 1B0C     		lsrs	r3, r3, #16
 992:Generated_Source\PSoC4/PWM_Red.c ****     #endif /* (PWM_Red_CY_TCPWM_4000) */
 993:Generated_Source\PSoC4/PWM_Red.c **** }
 1341              		.loc 1 993 0
 1342 000c 1800     		movs	r0, r3
 1343 000e BD46     		mov	sp, r7
 1344              		@ sp needed
ARM GAS  C:\Users\ADMINI~1\AppData\Local\Temp\ccuQ0kDm.s 			page 42


 1345 0010 80BD     		pop	{r7, pc}
 1346              	.L84:
 1347 0012 C046     		.align	2
 1348              	.L83:
 1349 0014 50012040 		.word	1075839312
 1350              		.cfi_endproc
 1351              	.LFE26:
 1352              		.size	PWM_Red_ReadCompareBuf, .-PWM_Red_ReadCompareBuf
 1353              		.section	.text.PWM_Red_ReadCapture,"ax",%progbits
 1354              		.align	2
 1355              		.global	PWM_Red_ReadCapture
 1356              		.code	16
 1357              		.thumb_func
 1358              		.type	PWM_Red_ReadCapture, %function
 1359              	PWM_Red_ReadCapture:
 1360              	.LFB27:
 994:Generated_Source\PSoC4/PWM_Red.c **** 
 995:Generated_Source\PSoC4/PWM_Red.c **** 
 996:Generated_Source\PSoC4/PWM_Red.c **** /*******************************************************************************
 997:Generated_Source\PSoC4/PWM_Red.c **** * Function Name: PWM_Red_ReadCapture
 998:Generated_Source\PSoC4/PWM_Red.c **** ********************************************************************************
 999:Generated_Source\PSoC4/PWM_Red.c **** *
1000:Generated_Source\PSoC4/PWM_Red.c **** * Summary:
1001:Generated_Source\PSoC4/PWM_Red.c **** *  Reads the captured counter value. This API is applicable only for
1002:Generated_Source\PSoC4/PWM_Red.c **** *  Timer/Counter with the capture mode and Quadrature Decoder modes.
1003:Generated_Source\PSoC4/PWM_Red.c **** *
1004:Generated_Source\PSoC4/PWM_Red.c **** * Parameters:
1005:Generated_Source\PSoC4/PWM_Red.c **** *  None
1006:Generated_Source\PSoC4/PWM_Red.c **** *
1007:Generated_Source\PSoC4/PWM_Red.c **** * Return:
1008:Generated_Source\PSoC4/PWM_Red.c **** *  Capture value
1009:Generated_Source\PSoC4/PWM_Red.c **** *
1010:Generated_Source\PSoC4/PWM_Red.c **** *******************************************************************************/
1011:Generated_Source\PSoC4/PWM_Red.c **** uint32 PWM_Red_ReadCapture(void)
1012:Generated_Source\PSoC4/PWM_Red.c **** {
 1361              		.loc 1 1012 0
 1362              		.cfi_startproc
 1363              		@ args = 0, pretend = 0, frame = 0
 1364              		@ frame_needed = 1, uses_anonymous_args = 0
 1365 0000 80B5     		push	{r7, lr}
 1366              		.cfi_def_cfa_offset 8
 1367              		.cfi_offset 7, -8
 1368              		.cfi_offset 14, -4
 1369 0002 00AF     		add	r7, sp, #0
 1370              		.cfi_def_cfa_register 7
1013:Generated_Source\PSoC4/PWM_Red.c ****     return (PWM_Red_COMP_CAP_REG & PWM_Red_16BIT_MASK);
 1371              		.loc 1 1013 0
 1372 0004 034B     		ldr	r3, .L87
 1373 0006 1B68     		ldr	r3, [r3]
 1374 0008 1B04     		lsls	r3, r3, #16
 1375 000a 1B0C     		lsrs	r3, r3, #16
1014:Generated_Source\PSoC4/PWM_Red.c **** }
 1376              		.loc 1 1014 0
 1377 000c 1800     		movs	r0, r3
 1378 000e BD46     		mov	sp, r7
 1379              		@ sp needed
 1380 0010 80BD     		pop	{r7, pc}
ARM GAS  C:\Users\ADMINI~1\AppData\Local\Temp\ccuQ0kDm.s 			page 43


 1381              	.L88:
 1382 0012 C046     		.align	2
 1383              	.L87:
 1384 0014 4C012040 		.word	1075839308
 1385              		.cfi_endproc
 1386              	.LFE27:
 1387              		.size	PWM_Red_ReadCapture, .-PWM_Red_ReadCapture
 1388              		.section	.text.PWM_Red_ReadCaptureBuf,"ax",%progbits
 1389              		.align	2
 1390              		.global	PWM_Red_ReadCaptureBuf
 1391              		.code	16
 1392              		.thumb_func
 1393              		.type	PWM_Red_ReadCaptureBuf, %function
 1394              	PWM_Red_ReadCaptureBuf:
 1395              	.LFB28:
1015:Generated_Source\PSoC4/PWM_Red.c **** 
1016:Generated_Source\PSoC4/PWM_Red.c **** 
1017:Generated_Source\PSoC4/PWM_Red.c **** /*******************************************************************************
1018:Generated_Source\PSoC4/PWM_Red.c **** * Function Name: PWM_Red_ReadCaptureBuf
1019:Generated_Source\PSoC4/PWM_Red.c **** ********************************************************************************
1020:Generated_Source\PSoC4/PWM_Red.c **** *
1021:Generated_Source\PSoC4/PWM_Red.c **** * Summary:
1022:Generated_Source\PSoC4/PWM_Red.c **** *  Reads the capture buffer register. This API is applicable only for
1023:Generated_Source\PSoC4/PWM_Red.c **** *  Timer/Counter with the capture mode and Quadrature Decoder modes.
1024:Generated_Source\PSoC4/PWM_Red.c **** *
1025:Generated_Source\PSoC4/PWM_Red.c **** * Parameters:
1026:Generated_Source\PSoC4/PWM_Red.c **** *  None
1027:Generated_Source\PSoC4/PWM_Red.c **** *
1028:Generated_Source\PSoC4/PWM_Red.c **** * Return:
1029:Generated_Source\PSoC4/PWM_Red.c **** *  Capture buffer value
1030:Generated_Source\PSoC4/PWM_Red.c **** *
1031:Generated_Source\PSoC4/PWM_Red.c **** *******************************************************************************/
1032:Generated_Source\PSoC4/PWM_Red.c **** uint32 PWM_Red_ReadCaptureBuf(void)
1033:Generated_Source\PSoC4/PWM_Red.c **** {
 1396              		.loc 1 1033 0
 1397              		.cfi_startproc
 1398              		@ args = 0, pretend = 0, frame = 0
 1399              		@ frame_needed = 1, uses_anonymous_args = 0
 1400 0000 80B5     		push	{r7, lr}
 1401              		.cfi_def_cfa_offset 8
 1402              		.cfi_offset 7, -8
 1403              		.cfi_offset 14, -4
 1404 0002 00AF     		add	r7, sp, #0
 1405              		.cfi_def_cfa_register 7
1034:Generated_Source\PSoC4/PWM_Red.c ****     return (PWM_Red_COMP_CAP_BUF_REG & PWM_Red_16BIT_MASK);
 1406              		.loc 1 1034 0
 1407 0004 034B     		ldr	r3, .L91
 1408 0006 1B68     		ldr	r3, [r3]
 1409 0008 1B04     		lsls	r3, r3, #16
 1410 000a 1B0C     		lsrs	r3, r3, #16
1035:Generated_Source\PSoC4/PWM_Red.c **** }
 1411              		.loc 1 1035 0
 1412 000c 1800     		movs	r0, r3
 1413 000e BD46     		mov	sp, r7
 1414              		@ sp needed
 1415 0010 80BD     		pop	{r7, pc}
 1416              	.L92:
ARM GAS  C:\Users\ADMINI~1\AppData\Local\Temp\ccuQ0kDm.s 			page 44


 1417 0012 C046     		.align	2
 1418              	.L91:
 1419 0014 50012040 		.word	1075839312
 1420              		.cfi_endproc
 1421              	.LFE28:
 1422              		.size	PWM_Red_ReadCaptureBuf, .-PWM_Red_ReadCaptureBuf
 1423              		.section	.text.PWM_Red_SetCaptureMode,"ax",%progbits
 1424              		.align	2
 1425              		.global	PWM_Red_SetCaptureMode
 1426              		.code	16
 1427              		.thumb_func
 1428              		.type	PWM_Red_SetCaptureMode, %function
 1429              	PWM_Red_SetCaptureMode:
 1430              	.LFB29:
1036:Generated_Source\PSoC4/PWM_Red.c **** 
1037:Generated_Source\PSoC4/PWM_Red.c **** 
1038:Generated_Source\PSoC4/PWM_Red.c **** /*******************************************************************************
1039:Generated_Source\PSoC4/PWM_Red.c **** * Function Name: PWM_Red_SetCaptureMode
1040:Generated_Source\PSoC4/PWM_Red.c **** ********************************************************************************
1041:Generated_Source\PSoC4/PWM_Red.c **** *
1042:Generated_Source\PSoC4/PWM_Red.c **** * Summary:
1043:Generated_Source\PSoC4/PWM_Red.c **** *  Sets the capture trigger mode. For PWM mode this is the switch input.
1044:Generated_Source\PSoC4/PWM_Red.c **** *  This input is not applicable to the Timer/Counter without Capture and
1045:Generated_Source\PSoC4/PWM_Red.c **** *  Quadrature Decoder modes.
1046:Generated_Source\PSoC4/PWM_Red.c **** *
1047:Generated_Source\PSoC4/PWM_Red.c **** * Parameters:
1048:Generated_Source\PSoC4/PWM_Red.c **** *  triggerMode: Enumerated trigger mode value
1049:Generated_Source\PSoC4/PWM_Red.c **** *   Values:
1050:Generated_Source\PSoC4/PWM_Red.c **** *     - PWM_Red_TRIG_LEVEL     - Level
1051:Generated_Source\PSoC4/PWM_Red.c **** *     - PWM_Red_TRIG_RISING    - Rising edge
1052:Generated_Source\PSoC4/PWM_Red.c **** *     - PWM_Red_TRIG_FALLING   - Falling edge
1053:Generated_Source\PSoC4/PWM_Red.c **** *     - PWM_Red_TRIG_BOTH      - Both rising and falling edge
1054:Generated_Source\PSoC4/PWM_Red.c **** *
1055:Generated_Source\PSoC4/PWM_Red.c **** * Return:
1056:Generated_Source\PSoC4/PWM_Red.c **** *  None
1057:Generated_Source\PSoC4/PWM_Red.c **** *
1058:Generated_Source\PSoC4/PWM_Red.c **** *******************************************************************************/
1059:Generated_Source\PSoC4/PWM_Red.c **** void PWM_Red_SetCaptureMode(uint32 triggerMode)
1060:Generated_Source\PSoC4/PWM_Red.c **** {
 1431              		.loc 1 1060 0
 1432              		.cfi_startproc
 1433              		@ args = 0, pretend = 0, frame = 16
 1434              		@ frame_needed = 1, uses_anonymous_args = 0
 1435 0000 90B5     		push	{r4, r7, lr}
 1436              		.cfi_def_cfa_offset 12
 1437              		.cfi_offset 4, -12
 1438              		.cfi_offset 7, -8
 1439              		.cfi_offset 14, -4
 1440 0002 85B0     		sub	sp, sp, #20
 1441              		.cfi_def_cfa_offset 32
 1442 0004 00AF     		add	r7, sp, #0
 1443              		.cfi_def_cfa_register 7
 1444 0006 7860     		str	r0, [r7, #4]
1061:Generated_Source\PSoC4/PWM_Red.c ****     uint8 enableInterrupts;
1062:Generated_Source\PSoC4/PWM_Red.c **** 
1063:Generated_Source\PSoC4/PWM_Red.c ****     enableInterrupts = CyEnterCriticalSection();
 1445              		.loc 1 1063 0
ARM GAS  C:\Users\ADMINI~1\AppData\Local\Temp\ccuQ0kDm.s 			page 45


 1446 0008 0F23     		movs	r3, #15
 1447 000a FC18     		adds	r4, r7, r3
 1448 000c FFF7FEFF 		bl	CyEnterCriticalSection
 1449 0010 0300     		movs	r3, r0
 1450 0012 2370     		strb	r3, [r4]
1064:Generated_Source\PSoC4/PWM_Red.c **** 
1065:Generated_Source\PSoC4/PWM_Red.c ****     PWM_Red_TRIG_CONTROL1_REG &= (uint32)~PWM_Red_CAPTURE_MASK;
 1451              		.loc 1 1065 0
 1452 0014 0A4B     		ldr	r3, .L94
 1453 0016 0A4A     		ldr	r2, .L94
 1454 0018 1268     		ldr	r2, [r2]
 1455 001a 0321     		movs	r1, #3
 1456 001c 8A43     		bics	r2, r1
 1457 001e 1A60     		str	r2, [r3]
1066:Generated_Source\PSoC4/PWM_Red.c ****     PWM_Red_TRIG_CONTROL1_REG |= triggerMode;
 1458              		.loc 1 1066 0
 1459 0020 074B     		ldr	r3, .L94
 1460 0022 074A     		ldr	r2, .L94
 1461 0024 1168     		ldr	r1, [r2]
 1462 0026 7A68     		ldr	r2, [r7, #4]
 1463 0028 0A43     		orrs	r2, r1
 1464 002a 1A60     		str	r2, [r3]
1067:Generated_Source\PSoC4/PWM_Red.c **** 
1068:Generated_Source\PSoC4/PWM_Red.c ****     CyExitCriticalSection(enableInterrupts);
 1465              		.loc 1 1068 0
 1466 002c 0F23     		movs	r3, #15
 1467 002e FB18     		adds	r3, r7, r3
 1468 0030 1B78     		ldrb	r3, [r3]
 1469 0032 1800     		movs	r0, r3
 1470 0034 FFF7FEFF 		bl	CyExitCriticalSection
1069:Generated_Source\PSoC4/PWM_Red.c **** }
 1471              		.loc 1 1069 0
 1472 0038 C046     		nop
 1473 003a BD46     		mov	sp, r7
 1474 003c 05B0     		add	sp, sp, #20
 1475              		@ sp needed
 1476 003e 90BD     		pop	{r4, r7, pc}
 1477              	.L95:
 1478              		.align	2
 1479              	.L94:
 1480 0040 64012040 		.word	1075839332
 1481              		.cfi_endproc
 1482              	.LFE29:
 1483              		.size	PWM_Red_SetCaptureMode, .-PWM_Red_SetCaptureMode
 1484              		.section	.text.PWM_Red_SetReloadMode,"ax",%progbits
 1485              		.align	2
 1486              		.global	PWM_Red_SetReloadMode
 1487              		.code	16
 1488              		.thumb_func
 1489              		.type	PWM_Red_SetReloadMode, %function
 1490              	PWM_Red_SetReloadMode:
 1491              	.LFB30:
1070:Generated_Source\PSoC4/PWM_Red.c **** 
1071:Generated_Source\PSoC4/PWM_Red.c **** 
1072:Generated_Source\PSoC4/PWM_Red.c **** /*******************************************************************************
1073:Generated_Source\PSoC4/PWM_Red.c **** * Function Name: PWM_Red_SetReloadMode
1074:Generated_Source\PSoC4/PWM_Red.c **** ********************************************************************************
ARM GAS  C:\Users\ADMINI~1\AppData\Local\Temp\ccuQ0kDm.s 			page 46


1075:Generated_Source\PSoC4/PWM_Red.c **** *
1076:Generated_Source\PSoC4/PWM_Red.c **** * Summary:
1077:Generated_Source\PSoC4/PWM_Red.c **** *  Sets the reload trigger mode. For Quadrature Decoder mode this is the index
1078:Generated_Source\PSoC4/PWM_Red.c **** *  input.
1079:Generated_Source\PSoC4/PWM_Red.c **** *
1080:Generated_Source\PSoC4/PWM_Red.c **** * Parameters:
1081:Generated_Source\PSoC4/PWM_Red.c **** *  triggerMode: Enumerated trigger mode value
1082:Generated_Source\PSoC4/PWM_Red.c **** *   Values:
1083:Generated_Source\PSoC4/PWM_Red.c **** *     - PWM_Red_TRIG_LEVEL     - Level
1084:Generated_Source\PSoC4/PWM_Red.c **** *     - PWM_Red_TRIG_RISING    - Rising edge
1085:Generated_Source\PSoC4/PWM_Red.c **** *     - PWM_Red_TRIG_FALLING   - Falling edge
1086:Generated_Source\PSoC4/PWM_Red.c **** *     - PWM_Red_TRIG_BOTH      - Both rising and falling edge
1087:Generated_Source\PSoC4/PWM_Red.c **** *
1088:Generated_Source\PSoC4/PWM_Red.c **** * Return:
1089:Generated_Source\PSoC4/PWM_Red.c **** *  None
1090:Generated_Source\PSoC4/PWM_Red.c **** *
1091:Generated_Source\PSoC4/PWM_Red.c **** *******************************************************************************/
1092:Generated_Source\PSoC4/PWM_Red.c **** void PWM_Red_SetReloadMode(uint32 triggerMode)
1093:Generated_Source\PSoC4/PWM_Red.c **** {
 1492              		.loc 1 1093 0
 1493              		.cfi_startproc
 1494              		@ args = 0, pretend = 0, frame = 16
 1495              		@ frame_needed = 1, uses_anonymous_args = 0
 1496 0000 90B5     		push	{r4, r7, lr}
 1497              		.cfi_def_cfa_offset 12
 1498              		.cfi_offset 4, -12
 1499              		.cfi_offset 7, -8
 1500              		.cfi_offset 14, -4
 1501 0002 85B0     		sub	sp, sp, #20
 1502              		.cfi_def_cfa_offset 32
 1503 0004 00AF     		add	r7, sp, #0
 1504              		.cfi_def_cfa_register 7
 1505 0006 7860     		str	r0, [r7, #4]
1094:Generated_Source\PSoC4/PWM_Red.c ****     uint8 enableInterrupts;
1095:Generated_Source\PSoC4/PWM_Red.c **** 
1096:Generated_Source\PSoC4/PWM_Red.c ****     enableInterrupts = CyEnterCriticalSection();
 1506              		.loc 1 1096 0
 1507 0008 0F23     		movs	r3, #15
 1508 000a FC18     		adds	r4, r7, r3
 1509 000c FFF7FEFF 		bl	CyEnterCriticalSection
 1510 0010 0300     		movs	r3, r0
 1511 0012 2370     		strb	r3, [r4]
1097:Generated_Source\PSoC4/PWM_Red.c **** 
1098:Generated_Source\PSoC4/PWM_Red.c ****     PWM_Red_TRIG_CONTROL1_REG &= (uint32)~PWM_Red_RELOAD_MASK;
 1512              		.loc 1 1098 0
 1513 0014 0B4B     		ldr	r3, .L97
 1514 0016 0B4A     		ldr	r2, .L97
 1515 0018 1268     		ldr	r2, [r2]
 1516 001a 3021     		movs	r1, #48
 1517 001c 8A43     		bics	r2, r1
 1518 001e 1A60     		str	r2, [r3]
1099:Generated_Source\PSoC4/PWM_Red.c ****     PWM_Red_TRIG_CONTROL1_REG |= ((uint32)(triggerMode << PWM_Red_RELOAD_SHIFT));
 1519              		.loc 1 1099 0
 1520 0020 084B     		ldr	r3, .L97
 1521 0022 084A     		ldr	r2, .L97
 1522 0024 1168     		ldr	r1, [r2]
 1523 0026 7A68     		ldr	r2, [r7, #4]
ARM GAS  C:\Users\ADMINI~1\AppData\Local\Temp\ccuQ0kDm.s 			page 47


 1524 0028 1201     		lsls	r2, r2, #4
 1525 002a 0A43     		orrs	r2, r1
 1526 002c 1A60     		str	r2, [r3]
1100:Generated_Source\PSoC4/PWM_Red.c **** 
1101:Generated_Source\PSoC4/PWM_Red.c ****     CyExitCriticalSection(enableInterrupts);
 1527              		.loc 1 1101 0
 1528 002e 0F23     		movs	r3, #15
 1529 0030 FB18     		adds	r3, r7, r3
 1530 0032 1B78     		ldrb	r3, [r3]
 1531 0034 1800     		movs	r0, r3
 1532 0036 FFF7FEFF 		bl	CyExitCriticalSection
1102:Generated_Source\PSoC4/PWM_Red.c **** }
 1533              		.loc 1 1102 0
 1534 003a C046     		nop
 1535 003c BD46     		mov	sp, r7
 1536 003e 05B0     		add	sp, sp, #20
 1537              		@ sp needed
 1538 0040 90BD     		pop	{r4, r7, pc}
 1539              	.L98:
 1540 0042 C046     		.align	2
 1541              	.L97:
 1542 0044 64012040 		.word	1075839332
 1543              		.cfi_endproc
 1544              	.LFE30:
 1545              		.size	PWM_Red_SetReloadMode, .-PWM_Red_SetReloadMode
 1546              		.section	.text.PWM_Red_SetStartMode,"ax",%progbits
 1547              		.align	2
 1548              		.global	PWM_Red_SetStartMode
 1549              		.code	16
 1550              		.thumb_func
 1551              		.type	PWM_Red_SetStartMode, %function
 1552              	PWM_Red_SetStartMode:
 1553              	.LFB31:
1103:Generated_Source\PSoC4/PWM_Red.c **** 
1104:Generated_Source\PSoC4/PWM_Red.c **** 
1105:Generated_Source\PSoC4/PWM_Red.c **** /*******************************************************************************
1106:Generated_Source\PSoC4/PWM_Red.c **** * Function Name: PWM_Red_SetStartMode
1107:Generated_Source\PSoC4/PWM_Red.c **** ********************************************************************************
1108:Generated_Source\PSoC4/PWM_Red.c **** *
1109:Generated_Source\PSoC4/PWM_Red.c **** * Summary:
1110:Generated_Source\PSoC4/PWM_Red.c **** *  Sets the start trigger mode. For Quadrature Decoder mode this is the
1111:Generated_Source\PSoC4/PWM_Red.c **** *  phiB input.
1112:Generated_Source\PSoC4/PWM_Red.c **** *
1113:Generated_Source\PSoC4/PWM_Red.c **** * Parameters:
1114:Generated_Source\PSoC4/PWM_Red.c **** *  triggerMode: Enumerated trigger mode value
1115:Generated_Source\PSoC4/PWM_Red.c **** *   Values:
1116:Generated_Source\PSoC4/PWM_Red.c **** *     - PWM_Red_TRIG_LEVEL     - Level
1117:Generated_Source\PSoC4/PWM_Red.c **** *     - PWM_Red_TRIG_RISING    - Rising edge
1118:Generated_Source\PSoC4/PWM_Red.c **** *     - PWM_Red_TRIG_FALLING   - Falling edge
1119:Generated_Source\PSoC4/PWM_Red.c **** *     - PWM_Red_TRIG_BOTH      - Both rising and falling edge
1120:Generated_Source\PSoC4/PWM_Red.c **** *
1121:Generated_Source\PSoC4/PWM_Red.c **** * Return:
1122:Generated_Source\PSoC4/PWM_Red.c **** *  None
1123:Generated_Source\PSoC4/PWM_Red.c **** *
1124:Generated_Source\PSoC4/PWM_Red.c **** *******************************************************************************/
1125:Generated_Source\PSoC4/PWM_Red.c **** void PWM_Red_SetStartMode(uint32 triggerMode)
1126:Generated_Source\PSoC4/PWM_Red.c **** {
ARM GAS  C:\Users\ADMINI~1\AppData\Local\Temp\ccuQ0kDm.s 			page 48


 1554              		.loc 1 1126 0
 1555              		.cfi_startproc
 1556              		@ args = 0, pretend = 0, frame = 16
 1557              		@ frame_needed = 1, uses_anonymous_args = 0
 1558 0000 90B5     		push	{r4, r7, lr}
 1559              		.cfi_def_cfa_offset 12
 1560              		.cfi_offset 4, -12
 1561              		.cfi_offset 7, -8
 1562              		.cfi_offset 14, -4
 1563 0002 85B0     		sub	sp, sp, #20
 1564              		.cfi_def_cfa_offset 32
 1565 0004 00AF     		add	r7, sp, #0
 1566              		.cfi_def_cfa_register 7
 1567 0006 7860     		str	r0, [r7, #4]
1127:Generated_Source\PSoC4/PWM_Red.c ****     uint8 enableInterrupts;
1128:Generated_Source\PSoC4/PWM_Red.c **** 
1129:Generated_Source\PSoC4/PWM_Red.c ****     enableInterrupts = CyEnterCriticalSection();
 1568              		.loc 1 1129 0
 1569 0008 0F23     		movs	r3, #15
 1570 000a FC18     		adds	r4, r7, r3
 1571 000c FFF7FEFF 		bl	CyEnterCriticalSection
 1572 0010 0300     		movs	r3, r0
 1573 0012 2370     		strb	r3, [r4]
1130:Generated_Source\PSoC4/PWM_Red.c **** 
1131:Generated_Source\PSoC4/PWM_Red.c ****     PWM_Red_TRIG_CONTROL1_REG &= (uint32)~PWM_Red_START_MASK;
 1574              		.loc 1 1131 0
 1575 0014 0B4B     		ldr	r3, .L100
 1576 0016 0B4A     		ldr	r2, .L100
 1577 0018 1268     		ldr	r2, [r2]
 1578 001a 0B49     		ldr	r1, .L100+4
 1579 001c 0A40     		ands	r2, r1
 1580 001e 1A60     		str	r2, [r3]
1132:Generated_Source\PSoC4/PWM_Red.c ****     PWM_Red_TRIG_CONTROL1_REG |= ((uint32)(triggerMode << PWM_Red_START_SHIFT));
 1581              		.loc 1 1132 0
 1582 0020 084B     		ldr	r3, .L100
 1583 0022 084A     		ldr	r2, .L100
 1584 0024 1168     		ldr	r1, [r2]
 1585 0026 7A68     		ldr	r2, [r7, #4]
 1586 0028 1202     		lsls	r2, r2, #8
 1587 002a 0A43     		orrs	r2, r1
 1588 002c 1A60     		str	r2, [r3]
1133:Generated_Source\PSoC4/PWM_Red.c **** 
1134:Generated_Source\PSoC4/PWM_Red.c ****     CyExitCriticalSection(enableInterrupts);
 1589              		.loc 1 1134 0
 1590 002e 0F23     		movs	r3, #15
 1591 0030 FB18     		adds	r3, r7, r3
 1592 0032 1B78     		ldrb	r3, [r3]
 1593 0034 1800     		movs	r0, r3
 1594 0036 FFF7FEFF 		bl	CyExitCriticalSection
1135:Generated_Source\PSoC4/PWM_Red.c **** }
 1595              		.loc 1 1135 0
 1596 003a C046     		nop
 1597 003c BD46     		mov	sp, r7
 1598 003e 05B0     		add	sp, sp, #20
 1599              		@ sp needed
 1600 0040 90BD     		pop	{r4, r7, pc}
 1601              	.L101:
ARM GAS  C:\Users\ADMINI~1\AppData\Local\Temp\ccuQ0kDm.s 			page 49


 1602 0042 C046     		.align	2
 1603              	.L100:
 1604 0044 64012040 		.word	1075839332
 1605 0048 FFFCFFFF 		.word	-769
 1606              		.cfi_endproc
 1607              	.LFE31:
 1608              		.size	PWM_Red_SetStartMode, .-PWM_Red_SetStartMode
 1609              		.section	.text.PWM_Red_SetStopMode,"ax",%progbits
 1610              		.align	2
 1611              		.global	PWM_Red_SetStopMode
 1612              		.code	16
 1613              		.thumb_func
 1614              		.type	PWM_Red_SetStopMode, %function
 1615              	PWM_Red_SetStopMode:
 1616              	.LFB32:
1136:Generated_Source\PSoC4/PWM_Red.c **** 
1137:Generated_Source\PSoC4/PWM_Red.c **** 
1138:Generated_Source\PSoC4/PWM_Red.c **** /*******************************************************************************
1139:Generated_Source\PSoC4/PWM_Red.c **** * Function Name: PWM_Red_SetStopMode
1140:Generated_Source\PSoC4/PWM_Red.c **** ********************************************************************************
1141:Generated_Source\PSoC4/PWM_Red.c **** *
1142:Generated_Source\PSoC4/PWM_Red.c **** * Summary:
1143:Generated_Source\PSoC4/PWM_Red.c **** *  Sets the stop trigger mode. For PWM mode this is the kill input.
1144:Generated_Source\PSoC4/PWM_Red.c **** *
1145:Generated_Source\PSoC4/PWM_Red.c **** * Parameters:
1146:Generated_Source\PSoC4/PWM_Red.c **** *  triggerMode: Enumerated trigger mode value
1147:Generated_Source\PSoC4/PWM_Red.c **** *   Values:
1148:Generated_Source\PSoC4/PWM_Red.c **** *     - PWM_Red_TRIG_LEVEL     - Level
1149:Generated_Source\PSoC4/PWM_Red.c **** *     - PWM_Red_TRIG_RISING    - Rising edge
1150:Generated_Source\PSoC4/PWM_Red.c **** *     - PWM_Red_TRIG_FALLING   - Falling edge
1151:Generated_Source\PSoC4/PWM_Red.c **** *     - PWM_Red_TRIG_BOTH      - Both rising and falling edge
1152:Generated_Source\PSoC4/PWM_Red.c **** *
1153:Generated_Source\PSoC4/PWM_Red.c **** * Return:
1154:Generated_Source\PSoC4/PWM_Red.c **** *  None
1155:Generated_Source\PSoC4/PWM_Red.c **** *
1156:Generated_Source\PSoC4/PWM_Red.c **** *******************************************************************************/
1157:Generated_Source\PSoC4/PWM_Red.c **** void PWM_Red_SetStopMode(uint32 triggerMode)
1158:Generated_Source\PSoC4/PWM_Red.c **** {
 1617              		.loc 1 1158 0
 1618              		.cfi_startproc
 1619              		@ args = 0, pretend = 0, frame = 16
 1620              		@ frame_needed = 1, uses_anonymous_args = 0
 1621 0000 90B5     		push	{r4, r7, lr}
 1622              		.cfi_def_cfa_offset 12
 1623              		.cfi_offset 4, -12
 1624              		.cfi_offset 7, -8
 1625              		.cfi_offset 14, -4
 1626 0002 85B0     		sub	sp, sp, #20
 1627              		.cfi_def_cfa_offset 32
 1628 0004 00AF     		add	r7, sp, #0
 1629              		.cfi_def_cfa_register 7
 1630 0006 7860     		str	r0, [r7, #4]
1159:Generated_Source\PSoC4/PWM_Red.c ****     uint8 enableInterrupts;
1160:Generated_Source\PSoC4/PWM_Red.c **** 
1161:Generated_Source\PSoC4/PWM_Red.c ****     enableInterrupts = CyEnterCriticalSection();
 1631              		.loc 1 1161 0
 1632 0008 0F23     		movs	r3, #15
ARM GAS  C:\Users\ADMINI~1\AppData\Local\Temp\ccuQ0kDm.s 			page 50


 1633 000a FC18     		adds	r4, r7, r3
 1634 000c FFF7FEFF 		bl	CyEnterCriticalSection
 1635 0010 0300     		movs	r3, r0
 1636 0012 2370     		strb	r3, [r4]
1162:Generated_Source\PSoC4/PWM_Red.c **** 
1163:Generated_Source\PSoC4/PWM_Red.c ****     PWM_Red_TRIG_CONTROL1_REG &= (uint32)~PWM_Red_STOP_MASK;
 1637              		.loc 1 1163 0
 1638 0014 0B4B     		ldr	r3, .L103
 1639 0016 0B4A     		ldr	r2, .L103
 1640 0018 1268     		ldr	r2, [r2]
 1641 001a C021     		movs	r1, #192
 1642 001c 8A43     		bics	r2, r1
 1643 001e 1A60     		str	r2, [r3]
1164:Generated_Source\PSoC4/PWM_Red.c ****     PWM_Red_TRIG_CONTROL1_REG |= ((uint32)(triggerMode << PWM_Red_STOP_SHIFT));
 1644              		.loc 1 1164 0
 1645 0020 084B     		ldr	r3, .L103
 1646 0022 084A     		ldr	r2, .L103
 1647 0024 1168     		ldr	r1, [r2]
 1648 0026 7A68     		ldr	r2, [r7, #4]
 1649 0028 9201     		lsls	r2, r2, #6
 1650 002a 0A43     		orrs	r2, r1
 1651 002c 1A60     		str	r2, [r3]
1165:Generated_Source\PSoC4/PWM_Red.c **** 
1166:Generated_Source\PSoC4/PWM_Red.c ****     CyExitCriticalSection(enableInterrupts);
 1652              		.loc 1 1166 0
 1653 002e 0F23     		movs	r3, #15
 1654 0030 FB18     		adds	r3, r7, r3
 1655 0032 1B78     		ldrb	r3, [r3]
 1656 0034 1800     		movs	r0, r3
 1657 0036 FFF7FEFF 		bl	CyExitCriticalSection
1167:Generated_Source\PSoC4/PWM_Red.c **** }
 1658              		.loc 1 1167 0
 1659 003a C046     		nop
 1660 003c BD46     		mov	sp, r7
 1661 003e 05B0     		add	sp, sp, #20
 1662              		@ sp needed
 1663 0040 90BD     		pop	{r4, r7, pc}
 1664              	.L104:
 1665 0042 C046     		.align	2
 1666              	.L103:
 1667 0044 64012040 		.word	1075839332
 1668              		.cfi_endproc
 1669              	.LFE32:
 1670              		.size	PWM_Red_SetStopMode, .-PWM_Red_SetStopMode
 1671              		.section	.text.PWM_Red_SetCountMode,"ax",%progbits
 1672              		.align	2
 1673              		.global	PWM_Red_SetCountMode
 1674              		.code	16
 1675              		.thumb_func
 1676              		.type	PWM_Red_SetCountMode, %function
 1677              	PWM_Red_SetCountMode:
 1678              	.LFB33:
1168:Generated_Source\PSoC4/PWM_Red.c **** 
1169:Generated_Source\PSoC4/PWM_Red.c **** 
1170:Generated_Source\PSoC4/PWM_Red.c **** /*******************************************************************************
1171:Generated_Source\PSoC4/PWM_Red.c **** * Function Name: PWM_Red_SetCountMode
1172:Generated_Source\PSoC4/PWM_Red.c **** ********************************************************************************
ARM GAS  C:\Users\ADMINI~1\AppData\Local\Temp\ccuQ0kDm.s 			page 51


1173:Generated_Source\PSoC4/PWM_Red.c **** *
1174:Generated_Source\PSoC4/PWM_Red.c **** * Summary:
1175:Generated_Source\PSoC4/PWM_Red.c **** *  Sets the count trigger mode. For Quadrature Decoder mode this is the phiA
1176:Generated_Source\PSoC4/PWM_Red.c **** *  input.
1177:Generated_Source\PSoC4/PWM_Red.c **** *
1178:Generated_Source\PSoC4/PWM_Red.c **** * Parameters:
1179:Generated_Source\PSoC4/PWM_Red.c **** *  triggerMode: Enumerated trigger mode value
1180:Generated_Source\PSoC4/PWM_Red.c **** *   Values:
1181:Generated_Source\PSoC4/PWM_Red.c **** *     - PWM_Red_TRIG_LEVEL     - Level
1182:Generated_Source\PSoC4/PWM_Red.c **** *     - PWM_Red_TRIG_RISING    - Rising edge
1183:Generated_Source\PSoC4/PWM_Red.c **** *     - PWM_Red_TRIG_FALLING   - Falling edge
1184:Generated_Source\PSoC4/PWM_Red.c **** *     - PWM_Red_TRIG_BOTH      - Both rising and falling edge
1185:Generated_Source\PSoC4/PWM_Red.c **** *
1186:Generated_Source\PSoC4/PWM_Red.c **** * Return:
1187:Generated_Source\PSoC4/PWM_Red.c **** *  None
1188:Generated_Source\PSoC4/PWM_Red.c **** *
1189:Generated_Source\PSoC4/PWM_Red.c **** *******************************************************************************/
1190:Generated_Source\PSoC4/PWM_Red.c **** void PWM_Red_SetCountMode(uint32 triggerMode)
1191:Generated_Source\PSoC4/PWM_Red.c **** {
 1679              		.loc 1 1191 0
 1680              		.cfi_startproc
 1681              		@ args = 0, pretend = 0, frame = 16
 1682              		@ frame_needed = 1, uses_anonymous_args = 0
 1683 0000 90B5     		push	{r4, r7, lr}
 1684              		.cfi_def_cfa_offset 12
 1685              		.cfi_offset 4, -12
 1686              		.cfi_offset 7, -8
 1687              		.cfi_offset 14, -4
 1688 0002 85B0     		sub	sp, sp, #20
 1689              		.cfi_def_cfa_offset 32
 1690 0004 00AF     		add	r7, sp, #0
 1691              		.cfi_def_cfa_register 7
 1692 0006 7860     		str	r0, [r7, #4]
1192:Generated_Source\PSoC4/PWM_Red.c ****     uint8 enableInterrupts;
1193:Generated_Source\PSoC4/PWM_Red.c **** 
1194:Generated_Source\PSoC4/PWM_Red.c ****     enableInterrupts = CyEnterCriticalSection();
 1693              		.loc 1 1194 0
 1694 0008 0F23     		movs	r3, #15
 1695 000a FC18     		adds	r4, r7, r3
 1696 000c FFF7FEFF 		bl	CyEnterCriticalSection
 1697 0010 0300     		movs	r3, r0
 1698 0012 2370     		strb	r3, [r4]
1195:Generated_Source\PSoC4/PWM_Red.c **** 
1196:Generated_Source\PSoC4/PWM_Red.c ****     PWM_Red_TRIG_CONTROL1_REG &= (uint32)~PWM_Red_COUNT_MASK;
 1699              		.loc 1 1196 0
 1700 0014 0B4B     		ldr	r3, .L106
 1701 0016 0B4A     		ldr	r2, .L106
 1702 0018 1268     		ldr	r2, [r2]
 1703 001a 0C21     		movs	r1, #12
 1704 001c 8A43     		bics	r2, r1
 1705 001e 1A60     		str	r2, [r3]
1197:Generated_Source\PSoC4/PWM_Red.c ****     PWM_Red_TRIG_CONTROL1_REG |= ((uint32)(triggerMode << PWM_Red_COUNT_SHIFT));
 1706              		.loc 1 1197 0
 1707 0020 084B     		ldr	r3, .L106
 1708 0022 084A     		ldr	r2, .L106
 1709 0024 1168     		ldr	r1, [r2]
 1710 0026 7A68     		ldr	r2, [r7, #4]
ARM GAS  C:\Users\ADMINI~1\AppData\Local\Temp\ccuQ0kDm.s 			page 52


 1711 0028 9200     		lsls	r2, r2, #2
 1712 002a 0A43     		orrs	r2, r1
 1713 002c 1A60     		str	r2, [r3]
1198:Generated_Source\PSoC4/PWM_Red.c **** 
1199:Generated_Source\PSoC4/PWM_Red.c ****     CyExitCriticalSection(enableInterrupts);
 1714              		.loc 1 1199 0
 1715 002e 0F23     		movs	r3, #15
 1716 0030 FB18     		adds	r3, r7, r3
 1717 0032 1B78     		ldrb	r3, [r3]
 1718 0034 1800     		movs	r0, r3
 1719 0036 FFF7FEFF 		bl	CyExitCriticalSection
1200:Generated_Source\PSoC4/PWM_Red.c **** }
 1720              		.loc 1 1200 0
 1721 003a C046     		nop
 1722 003c BD46     		mov	sp, r7
 1723 003e 05B0     		add	sp, sp, #20
 1724              		@ sp needed
 1725 0040 90BD     		pop	{r4, r7, pc}
 1726              	.L107:
 1727 0042 C046     		.align	2
 1728              	.L106:
 1729 0044 64012040 		.word	1075839332
 1730              		.cfi_endproc
 1731              	.LFE33:
 1732              		.size	PWM_Red_SetCountMode, .-PWM_Red_SetCountMode
 1733              		.section	.text.PWM_Red_TriggerCommand,"ax",%progbits
 1734              		.align	2
 1735              		.global	PWM_Red_TriggerCommand
 1736              		.code	16
 1737              		.thumb_func
 1738              		.type	PWM_Red_TriggerCommand, %function
 1739              	PWM_Red_TriggerCommand:
 1740              	.LFB34:
1201:Generated_Source\PSoC4/PWM_Red.c **** 
1202:Generated_Source\PSoC4/PWM_Red.c **** 
1203:Generated_Source\PSoC4/PWM_Red.c **** /*******************************************************************************
1204:Generated_Source\PSoC4/PWM_Red.c **** * Function Name: PWM_Red_TriggerCommand
1205:Generated_Source\PSoC4/PWM_Red.c **** ********************************************************************************
1206:Generated_Source\PSoC4/PWM_Red.c **** *
1207:Generated_Source\PSoC4/PWM_Red.c **** * Summary:
1208:Generated_Source\PSoC4/PWM_Red.c **** *  Triggers the designated command to occur on the designated TCPWM instances.
1209:Generated_Source\PSoC4/PWM_Red.c **** *  The mask can be used to apply this command simultaneously to more than one
1210:Generated_Source\PSoC4/PWM_Red.c **** *  instance.  This allows multiple TCPWM instances to be synchronized.
1211:Generated_Source\PSoC4/PWM_Red.c **** *
1212:Generated_Source\PSoC4/PWM_Red.c **** * Parameters:
1213:Generated_Source\PSoC4/PWM_Red.c **** *  mask: A combination of mask bits for each instance of the TCPWM that the
1214:Generated_Source\PSoC4/PWM_Red.c **** *        command should apply to.  This function from one instance can be used
1215:Generated_Source\PSoC4/PWM_Red.c **** *        to apply the command to any of the instances in the design.
1216:Generated_Source\PSoC4/PWM_Red.c **** *        The mask value for a specific instance is available with the MASK
1217:Generated_Source\PSoC4/PWM_Red.c **** *        define.
1218:Generated_Source\PSoC4/PWM_Red.c **** *  command: Enumerated command values. Capture command only applicable for
1219:Generated_Source\PSoC4/PWM_Red.c **** *           Timer/Counter with Capture and PWM modes.
1220:Generated_Source\PSoC4/PWM_Red.c **** *   Values:
1221:Generated_Source\PSoC4/PWM_Red.c **** *     - PWM_Red_CMD_CAPTURE    - Trigger Capture command
1222:Generated_Source\PSoC4/PWM_Red.c **** *     - PWM_Red_CMD_RELOAD     - Trigger Reload command
1223:Generated_Source\PSoC4/PWM_Red.c **** *     - PWM_Red_CMD_STOP       - Trigger Stop command
1224:Generated_Source\PSoC4/PWM_Red.c **** *     - PWM_Red_CMD_START      - Trigger Start command
ARM GAS  C:\Users\ADMINI~1\AppData\Local\Temp\ccuQ0kDm.s 			page 53


1225:Generated_Source\PSoC4/PWM_Red.c **** *
1226:Generated_Source\PSoC4/PWM_Red.c **** * Return:
1227:Generated_Source\PSoC4/PWM_Red.c **** *  None
1228:Generated_Source\PSoC4/PWM_Red.c **** *
1229:Generated_Source\PSoC4/PWM_Red.c **** *******************************************************************************/
1230:Generated_Source\PSoC4/PWM_Red.c **** void PWM_Red_TriggerCommand(uint32 mask, uint32 command)
1231:Generated_Source\PSoC4/PWM_Red.c **** {
 1741              		.loc 1 1231 0
 1742              		.cfi_startproc
 1743              		@ args = 0, pretend = 0, frame = 16
 1744              		@ frame_needed = 1, uses_anonymous_args = 0
 1745 0000 90B5     		push	{r4, r7, lr}
 1746              		.cfi_def_cfa_offset 12
 1747              		.cfi_offset 4, -12
 1748              		.cfi_offset 7, -8
 1749              		.cfi_offset 14, -4
 1750 0002 85B0     		sub	sp, sp, #20
 1751              		.cfi_def_cfa_offset 32
 1752 0004 00AF     		add	r7, sp, #0
 1753              		.cfi_def_cfa_register 7
 1754 0006 7860     		str	r0, [r7, #4]
 1755 0008 3960     		str	r1, [r7]
1232:Generated_Source\PSoC4/PWM_Red.c ****     uint8 enableInterrupts;
1233:Generated_Source\PSoC4/PWM_Red.c **** 
1234:Generated_Source\PSoC4/PWM_Red.c ****     enableInterrupts = CyEnterCriticalSection();
 1756              		.loc 1 1234 0
 1757 000a 0F23     		movs	r3, #15
 1758 000c FC18     		adds	r4, r7, r3
 1759 000e FFF7FEFF 		bl	CyEnterCriticalSection
 1760 0012 0300     		movs	r3, r0
 1761 0014 2370     		strb	r3, [r4]
1235:Generated_Source\PSoC4/PWM_Red.c **** 
1236:Generated_Source\PSoC4/PWM_Red.c ****     PWM_Red_COMMAND_REG = ((uint32)(mask << command));
 1762              		.loc 1 1236 0
 1763 0016 084B     		ldr	r3, .L109
 1764 0018 7968     		ldr	r1, [r7, #4]
 1765 001a 3A68     		ldr	r2, [r7]
 1766 001c 9140     		lsls	r1, r1, r2
 1767 001e 0A00     		movs	r2, r1
 1768 0020 1A60     		str	r2, [r3]
1237:Generated_Source\PSoC4/PWM_Red.c **** 
1238:Generated_Source\PSoC4/PWM_Red.c ****     CyExitCriticalSection(enableInterrupts);
 1769              		.loc 1 1238 0
 1770 0022 0F23     		movs	r3, #15
 1771 0024 FB18     		adds	r3, r7, r3
 1772 0026 1B78     		ldrb	r3, [r3]
 1773 0028 1800     		movs	r0, r3
 1774 002a FFF7FEFF 		bl	CyExitCriticalSection
1239:Generated_Source\PSoC4/PWM_Red.c **** }
 1775              		.loc 1 1239 0
 1776 002e C046     		nop
 1777 0030 BD46     		mov	sp, r7
 1778 0032 05B0     		add	sp, sp, #20
 1779              		@ sp needed
 1780 0034 90BD     		pop	{r4, r7, pc}
 1781              	.L110:
 1782 0036 C046     		.align	2
ARM GAS  C:\Users\ADMINI~1\AppData\Local\Temp\ccuQ0kDm.s 			page 54


 1783              	.L109:
 1784 0038 08002040 		.word	1075838984
 1785              		.cfi_endproc
 1786              	.LFE34:
 1787              		.size	PWM_Red_TriggerCommand, .-PWM_Red_TriggerCommand
 1788              		.section	.text.PWM_Red_ReadStatus,"ax",%progbits
 1789              		.align	2
 1790              		.global	PWM_Red_ReadStatus
 1791              		.code	16
 1792              		.thumb_func
 1793              		.type	PWM_Red_ReadStatus, %function
 1794              	PWM_Red_ReadStatus:
 1795              	.LFB35:
1240:Generated_Source\PSoC4/PWM_Red.c **** 
1241:Generated_Source\PSoC4/PWM_Red.c **** 
1242:Generated_Source\PSoC4/PWM_Red.c **** /*******************************************************************************
1243:Generated_Source\PSoC4/PWM_Red.c **** * Function Name: PWM_Red_ReadStatus
1244:Generated_Source\PSoC4/PWM_Red.c **** ********************************************************************************
1245:Generated_Source\PSoC4/PWM_Red.c **** *
1246:Generated_Source\PSoC4/PWM_Red.c **** * Summary:
1247:Generated_Source\PSoC4/PWM_Red.c **** *  Reads the status of the PWM_Red.
1248:Generated_Source\PSoC4/PWM_Red.c **** *
1249:Generated_Source\PSoC4/PWM_Red.c **** * Parameters:
1250:Generated_Source\PSoC4/PWM_Red.c **** *  None
1251:Generated_Source\PSoC4/PWM_Red.c **** *
1252:Generated_Source\PSoC4/PWM_Red.c **** * Return:
1253:Generated_Source\PSoC4/PWM_Red.c **** *  Status
1254:Generated_Source\PSoC4/PWM_Red.c **** *   Values:
1255:Generated_Source\PSoC4/PWM_Red.c **** *     - PWM_Red_STATUS_DOWN    - Set if counting down
1256:Generated_Source\PSoC4/PWM_Red.c **** *     - PWM_Red_STATUS_RUNNING - Set if counter is running
1257:Generated_Source\PSoC4/PWM_Red.c **** *
1258:Generated_Source\PSoC4/PWM_Red.c **** *******************************************************************************/
1259:Generated_Source\PSoC4/PWM_Red.c **** uint32 PWM_Red_ReadStatus(void)
1260:Generated_Source\PSoC4/PWM_Red.c **** {
 1796              		.loc 1 1260 0
 1797              		.cfi_startproc
 1798              		@ args = 0, pretend = 0, frame = 0
 1799              		@ frame_needed = 1, uses_anonymous_args = 0
 1800 0000 80B5     		push	{r7, lr}
 1801              		.cfi_def_cfa_offset 8
 1802              		.cfi_offset 7, -8
 1803              		.cfi_offset 14, -4
 1804 0002 00AF     		add	r7, sp, #0
 1805              		.cfi_def_cfa_register 7
1261:Generated_Source\PSoC4/PWM_Red.c ****     return ((PWM_Red_STATUS_REG >> PWM_Red_RUNNING_STATUS_SHIFT) |
 1806              		.loc 1 1261 0
 1807 0004 054B     		ldr	r3, .L113
 1808 0006 1B68     		ldr	r3, [r3]
 1809 0008 9A0F     		lsrs	r2, r3, #30
1262:Generated_Source\PSoC4/PWM_Red.c ****             (PWM_Red_STATUS_REG & PWM_Red_STATUS_DOWN));
 1810              		.loc 1 1262 0
 1811 000a 044B     		ldr	r3, .L113
 1812 000c 1B68     		ldr	r3, [r3]
 1813 000e 0121     		movs	r1, #1
 1814 0010 0B40     		ands	r3, r1
1261:Generated_Source\PSoC4/PWM_Red.c ****     return ((PWM_Red_STATUS_REG >> PWM_Red_RUNNING_STATUS_SHIFT) |
 1815              		.loc 1 1261 0
ARM GAS  C:\Users\ADMINI~1\AppData\Local\Temp\ccuQ0kDm.s 			page 55


 1816 0012 1343     		orrs	r3, r2
1263:Generated_Source\PSoC4/PWM_Red.c **** }
 1817              		.loc 1 1263 0
 1818 0014 1800     		movs	r0, r3
 1819 0016 BD46     		mov	sp, r7
 1820              		@ sp needed
 1821 0018 80BD     		pop	{r7, pc}
 1822              	.L114:
 1823 001a C046     		.align	2
 1824              	.L113:
 1825 001c 44012040 		.word	1075839300
 1826              		.cfi_endproc
 1827              	.LFE35:
 1828              		.size	PWM_Red_ReadStatus, .-PWM_Red_ReadStatus
 1829              		.section	.text.PWM_Red_SetInterruptMode,"ax",%progbits
 1830              		.align	2
 1831              		.global	PWM_Red_SetInterruptMode
 1832              		.code	16
 1833              		.thumb_func
 1834              		.type	PWM_Red_SetInterruptMode, %function
 1835              	PWM_Red_SetInterruptMode:
 1836              	.LFB36:
1264:Generated_Source\PSoC4/PWM_Red.c **** 
1265:Generated_Source\PSoC4/PWM_Red.c **** 
1266:Generated_Source\PSoC4/PWM_Red.c **** /*******************************************************************************
1267:Generated_Source\PSoC4/PWM_Red.c **** * Function Name: PWM_Red_SetInterruptMode
1268:Generated_Source\PSoC4/PWM_Red.c **** ********************************************************************************
1269:Generated_Source\PSoC4/PWM_Red.c **** *
1270:Generated_Source\PSoC4/PWM_Red.c **** * Summary:
1271:Generated_Source\PSoC4/PWM_Red.c **** *  Sets the interrupt mask to control which interrupt
1272:Generated_Source\PSoC4/PWM_Red.c **** *  requests generate the interrupt signal.
1273:Generated_Source\PSoC4/PWM_Red.c **** *
1274:Generated_Source\PSoC4/PWM_Red.c **** * Parameters:
1275:Generated_Source\PSoC4/PWM_Red.c **** *   interruptMask: Mask of bits to be enabled
1276:Generated_Source\PSoC4/PWM_Red.c **** *   Values:
1277:Generated_Source\PSoC4/PWM_Red.c **** *     - PWM_Red_INTR_MASK_TC       - Terminal count mask
1278:Generated_Source\PSoC4/PWM_Red.c **** *     - PWM_Red_INTR_MASK_CC_MATCH - Compare count / capture mask
1279:Generated_Source\PSoC4/PWM_Red.c **** *
1280:Generated_Source\PSoC4/PWM_Red.c **** * Return:
1281:Generated_Source\PSoC4/PWM_Red.c **** *  None
1282:Generated_Source\PSoC4/PWM_Red.c **** *
1283:Generated_Source\PSoC4/PWM_Red.c **** *******************************************************************************/
1284:Generated_Source\PSoC4/PWM_Red.c **** void PWM_Red_SetInterruptMode(uint32 interruptMask)
1285:Generated_Source\PSoC4/PWM_Red.c **** {
 1837              		.loc 1 1285 0
 1838              		.cfi_startproc
 1839              		@ args = 0, pretend = 0, frame = 8
 1840              		@ frame_needed = 1, uses_anonymous_args = 0
 1841 0000 80B5     		push	{r7, lr}
 1842              		.cfi_def_cfa_offset 8
 1843              		.cfi_offset 7, -8
 1844              		.cfi_offset 14, -4
 1845 0002 82B0     		sub	sp, sp, #8
 1846              		.cfi_def_cfa_offset 16
 1847 0004 00AF     		add	r7, sp, #0
 1848              		.cfi_def_cfa_register 7
 1849 0006 7860     		str	r0, [r7, #4]
ARM GAS  C:\Users\ADMINI~1\AppData\Local\Temp\ccuQ0kDm.s 			page 56


1286:Generated_Source\PSoC4/PWM_Red.c ****     PWM_Red_INTERRUPT_MASK_REG =  interruptMask;
 1850              		.loc 1 1286 0
 1851 0008 034B     		ldr	r3, .L116
 1852 000a 7A68     		ldr	r2, [r7, #4]
 1853 000c 1A60     		str	r2, [r3]
1287:Generated_Source\PSoC4/PWM_Red.c **** }
 1854              		.loc 1 1287 0
 1855 000e C046     		nop
 1856 0010 BD46     		mov	sp, r7
 1857 0012 02B0     		add	sp, sp, #8
 1858              		@ sp needed
 1859 0014 80BD     		pop	{r7, pc}
 1860              	.L117:
 1861 0016 C046     		.align	2
 1862              	.L116:
 1863 0018 78012040 		.word	1075839352
 1864              		.cfi_endproc
 1865              	.LFE36:
 1866              		.size	PWM_Red_SetInterruptMode, .-PWM_Red_SetInterruptMode
 1867              		.section	.text.PWM_Red_GetInterruptSourceMasked,"ax",%progbits
 1868              		.align	2
 1869              		.global	PWM_Red_GetInterruptSourceMasked
 1870              		.code	16
 1871              		.thumb_func
 1872              		.type	PWM_Red_GetInterruptSourceMasked, %function
 1873              	PWM_Red_GetInterruptSourceMasked:
 1874              	.LFB37:
1288:Generated_Source\PSoC4/PWM_Red.c **** 
1289:Generated_Source\PSoC4/PWM_Red.c **** 
1290:Generated_Source\PSoC4/PWM_Red.c **** /*******************************************************************************
1291:Generated_Source\PSoC4/PWM_Red.c **** * Function Name: PWM_Red_GetInterruptSourceMasked
1292:Generated_Source\PSoC4/PWM_Red.c **** ********************************************************************************
1293:Generated_Source\PSoC4/PWM_Red.c **** *
1294:Generated_Source\PSoC4/PWM_Red.c **** * Summary:
1295:Generated_Source\PSoC4/PWM_Red.c **** *  Gets the interrupt requests masked by the interrupt mask.
1296:Generated_Source\PSoC4/PWM_Red.c **** *
1297:Generated_Source\PSoC4/PWM_Red.c **** * Parameters:
1298:Generated_Source\PSoC4/PWM_Red.c **** *   None
1299:Generated_Source\PSoC4/PWM_Red.c **** *
1300:Generated_Source\PSoC4/PWM_Red.c **** * Return:
1301:Generated_Source\PSoC4/PWM_Red.c **** *  Masked interrupt source
1302:Generated_Source\PSoC4/PWM_Red.c **** *   Values:
1303:Generated_Source\PSoC4/PWM_Red.c **** *     - PWM_Red_INTR_MASK_TC       - Terminal count mask
1304:Generated_Source\PSoC4/PWM_Red.c **** *     - PWM_Red_INTR_MASK_CC_MATCH - Compare count / capture mask
1305:Generated_Source\PSoC4/PWM_Red.c **** *
1306:Generated_Source\PSoC4/PWM_Red.c **** *******************************************************************************/
1307:Generated_Source\PSoC4/PWM_Red.c **** uint32 PWM_Red_GetInterruptSourceMasked(void)
1308:Generated_Source\PSoC4/PWM_Red.c **** {
 1875              		.loc 1 1308 0
 1876              		.cfi_startproc
 1877              		@ args = 0, pretend = 0, frame = 0
 1878              		@ frame_needed = 1, uses_anonymous_args = 0
 1879 0000 80B5     		push	{r7, lr}
 1880              		.cfi_def_cfa_offset 8
 1881              		.cfi_offset 7, -8
 1882              		.cfi_offset 14, -4
 1883 0002 00AF     		add	r7, sp, #0
ARM GAS  C:\Users\ADMINI~1\AppData\Local\Temp\ccuQ0kDm.s 			page 57


 1884              		.cfi_def_cfa_register 7
1309:Generated_Source\PSoC4/PWM_Red.c ****     return (PWM_Red_INTERRUPT_MASKED_REG);
 1885              		.loc 1 1309 0
 1886 0004 024B     		ldr	r3, .L120
 1887 0006 1B68     		ldr	r3, [r3]
1310:Generated_Source\PSoC4/PWM_Red.c **** }
 1888              		.loc 1 1310 0
 1889 0008 1800     		movs	r0, r3
 1890 000a BD46     		mov	sp, r7
 1891              		@ sp needed
 1892 000c 80BD     		pop	{r7, pc}
 1893              	.L121:
 1894 000e C046     		.align	2
 1895              	.L120:
 1896 0010 7C012040 		.word	1075839356
 1897              		.cfi_endproc
 1898              	.LFE37:
 1899              		.size	PWM_Red_GetInterruptSourceMasked, .-PWM_Red_GetInterruptSourceMasked
 1900              		.section	.text.PWM_Red_GetInterruptSource,"ax",%progbits
 1901              		.align	2
 1902              		.global	PWM_Red_GetInterruptSource
 1903              		.code	16
 1904              		.thumb_func
 1905              		.type	PWM_Red_GetInterruptSource, %function
 1906              	PWM_Red_GetInterruptSource:
 1907              	.LFB38:
1311:Generated_Source\PSoC4/PWM_Red.c **** 
1312:Generated_Source\PSoC4/PWM_Red.c **** 
1313:Generated_Source\PSoC4/PWM_Red.c **** /*******************************************************************************
1314:Generated_Source\PSoC4/PWM_Red.c **** * Function Name: PWM_Red_GetInterruptSource
1315:Generated_Source\PSoC4/PWM_Red.c **** ********************************************************************************
1316:Generated_Source\PSoC4/PWM_Red.c **** *
1317:Generated_Source\PSoC4/PWM_Red.c **** * Summary:
1318:Generated_Source\PSoC4/PWM_Red.c **** *  Gets the interrupt requests (without masking).
1319:Generated_Source\PSoC4/PWM_Red.c **** *
1320:Generated_Source\PSoC4/PWM_Red.c **** * Parameters:
1321:Generated_Source\PSoC4/PWM_Red.c **** *  None
1322:Generated_Source\PSoC4/PWM_Red.c **** *
1323:Generated_Source\PSoC4/PWM_Red.c **** * Return:
1324:Generated_Source\PSoC4/PWM_Red.c **** *  Interrupt request value
1325:Generated_Source\PSoC4/PWM_Red.c **** *   Values:
1326:Generated_Source\PSoC4/PWM_Red.c **** *     - PWM_Red_INTR_MASK_TC       - Terminal count mask
1327:Generated_Source\PSoC4/PWM_Red.c **** *     - PWM_Red_INTR_MASK_CC_MATCH - Compare count / capture mask
1328:Generated_Source\PSoC4/PWM_Red.c **** *
1329:Generated_Source\PSoC4/PWM_Red.c **** *******************************************************************************/
1330:Generated_Source\PSoC4/PWM_Red.c **** uint32 PWM_Red_GetInterruptSource(void)
1331:Generated_Source\PSoC4/PWM_Red.c **** {
 1908              		.loc 1 1331 0
 1909              		.cfi_startproc
 1910              		@ args = 0, pretend = 0, frame = 0
 1911              		@ frame_needed = 1, uses_anonymous_args = 0
 1912 0000 80B5     		push	{r7, lr}
 1913              		.cfi_def_cfa_offset 8
 1914              		.cfi_offset 7, -8
 1915              		.cfi_offset 14, -4
 1916 0002 00AF     		add	r7, sp, #0
 1917              		.cfi_def_cfa_register 7
ARM GAS  C:\Users\ADMINI~1\AppData\Local\Temp\ccuQ0kDm.s 			page 58


1332:Generated_Source\PSoC4/PWM_Red.c ****     return (PWM_Red_INTERRUPT_REQ_REG);
 1918              		.loc 1 1332 0
 1919 0004 024B     		ldr	r3, .L124
 1920 0006 1B68     		ldr	r3, [r3]
1333:Generated_Source\PSoC4/PWM_Red.c **** }
 1921              		.loc 1 1333 0
 1922 0008 1800     		movs	r0, r3
 1923 000a BD46     		mov	sp, r7
 1924              		@ sp needed
 1925 000c 80BD     		pop	{r7, pc}
 1926              	.L125:
 1927 000e C046     		.align	2
 1928              	.L124:
 1929 0010 70012040 		.word	1075839344
 1930              		.cfi_endproc
 1931              	.LFE38:
 1932              		.size	PWM_Red_GetInterruptSource, .-PWM_Red_GetInterruptSource
 1933              		.section	.text.PWM_Red_ClearInterrupt,"ax",%progbits
 1934              		.align	2
 1935              		.global	PWM_Red_ClearInterrupt
 1936              		.code	16
 1937              		.thumb_func
 1938              		.type	PWM_Red_ClearInterrupt, %function
 1939              	PWM_Red_ClearInterrupt:
 1940              	.LFB39:
1334:Generated_Source\PSoC4/PWM_Red.c **** 
1335:Generated_Source\PSoC4/PWM_Red.c **** 
1336:Generated_Source\PSoC4/PWM_Red.c **** /*******************************************************************************
1337:Generated_Source\PSoC4/PWM_Red.c **** * Function Name: PWM_Red_ClearInterrupt
1338:Generated_Source\PSoC4/PWM_Red.c **** ********************************************************************************
1339:Generated_Source\PSoC4/PWM_Red.c **** *
1340:Generated_Source\PSoC4/PWM_Red.c **** * Summary:
1341:Generated_Source\PSoC4/PWM_Red.c **** *  Clears the interrupt request.
1342:Generated_Source\PSoC4/PWM_Red.c **** *
1343:Generated_Source\PSoC4/PWM_Red.c **** * Parameters:
1344:Generated_Source\PSoC4/PWM_Red.c **** *   interruptMask: Mask of interrupts to clear
1345:Generated_Source\PSoC4/PWM_Red.c **** *   Values:
1346:Generated_Source\PSoC4/PWM_Red.c **** *     - PWM_Red_INTR_MASK_TC       - Terminal count mask
1347:Generated_Source\PSoC4/PWM_Red.c **** *     - PWM_Red_INTR_MASK_CC_MATCH - Compare count / capture mask
1348:Generated_Source\PSoC4/PWM_Red.c **** *
1349:Generated_Source\PSoC4/PWM_Red.c **** * Return:
1350:Generated_Source\PSoC4/PWM_Red.c **** *  None
1351:Generated_Source\PSoC4/PWM_Red.c **** *
1352:Generated_Source\PSoC4/PWM_Red.c **** *******************************************************************************/
1353:Generated_Source\PSoC4/PWM_Red.c **** void PWM_Red_ClearInterrupt(uint32 interruptMask)
1354:Generated_Source\PSoC4/PWM_Red.c **** {
 1941              		.loc 1 1354 0
 1942              		.cfi_startproc
 1943              		@ args = 0, pretend = 0, frame = 8
 1944              		@ frame_needed = 1, uses_anonymous_args = 0
 1945 0000 80B5     		push	{r7, lr}
 1946              		.cfi_def_cfa_offset 8
 1947              		.cfi_offset 7, -8
 1948              		.cfi_offset 14, -4
 1949 0002 82B0     		sub	sp, sp, #8
 1950              		.cfi_def_cfa_offset 16
 1951 0004 00AF     		add	r7, sp, #0
ARM GAS  C:\Users\ADMINI~1\AppData\Local\Temp\ccuQ0kDm.s 			page 59


 1952              		.cfi_def_cfa_register 7
 1953 0006 7860     		str	r0, [r7, #4]
1355:Generated_Source\PSoC4/PWM_Red.c ****     PWM_Red_INTERRUPT_REQ_REG = interruptMask;
 1954              		.loc 1 1355 0
 1955 0008 034B     		ldr	r3, .L127
 1956 000a 7A68     		ldr	r2, [r7, #4]
 1957 000c 1A60     		str	r2, [r3]
1356:Generated_Source\PSoC4/PWM_Red.c **** }
 1958              		.loc 1 1356 0
 1959 000e C046     		nop
 1960 0010 BD46     		mov	sp, r7
 1961 0012 02B0     		add	sp, sp, #8
 1962              		@ sp needed
 1963 0014 80BD     		pop	{r7, pc}
 1964              	.L128:
 1965 0016 C046     		.align	2
 1966              	.L127:
 1967 0018 70012040 		.word	1075839344
 1968              		.cfi_endproc
 1969              	.LFE39:
 1970              		.size	PWM_Red_ClearInterrupt, .-PWM_Red_ClearInterrupt
 1971              		.section	.text.PWM_Red_SetInterrupt,"ax",%progbits
 1972              		.align	2
 1973              		.global	PWM_Red_SetInterrupt
 1974              		.code	16
 1975              		.thumb_func
 1976              		.type	PWM_Red_SetInterrupt, %function
 1977              	PWM_Red_SetInterrupt:
 1978              	.LFB40:
1357:Generated_Source\PSoC4/PWM_Red.c **** 
1358:Generated_Source\PSoC4/PWM_Red.c **** 
1359:Generated_Source\PSoC4/PWM_Red.c **** /*******************************************************************************
1360:Generated_Source\PSoC4/PWM_Red.c **** * Function Name: PWM_Red_SetInterrupt
1361:Generated_Source\PSoC4/PWM_Red.c **** ********************************************************************************
1362:Generated_Source\PSoC4/PWM_Red.c **** *
1363:Generated_Source\PSoC4/PWM_Red.c **** * Summary:
1364:Generated_Source\PSoC4/PWM_Red.c **** *  Sets a software interrupt request.
1365:Generated_Source\PSoC4/PWM_Red.c **** *
1366:Generated_Source\PSoC4/PWM_Red.c **** * Parameters:
1367:Generated_Source\PSoC4/PWM_Red.c **** *   interruptMask: Mask of interrupts to set
1368:Generated_Source\PSoC4/PWM_Red.c **** *   Values:
1369:Generated_Source\PSoC4/PWM_Red.c **** *     - PWM_Red_INTR_MASK_TC       - Terminal count mask
1370:Generated_Source\PSoC4/PWM_Red.c **** *     - PWM_Red_INTR_MASK_CC_MATCH - Compare count / capture mask
1371:Generated_Source\PSoC4/PWM_Red.c **** *
1372:Generated_Source\PSoC4/PWM_Red.c **** * Return:
1373:Generated_Source\PSoC4/PWM_Red.c **** *  None
1374:Generated_Source\PSoC4/PWM_Red.c **** *
1375:Generated_Source\PSoC4/PWM_Red.c **** *******************************************************************************/
1376:Generated_Source\PSoC4/PWM_Red.c **** void PWM_Red_SetInterrupt(uint32 interruptMask)
1377:Generated_Source\PSoC4/PWM_Red.c **** {
 1979              		.loc 1 1377 0
 1980              		.cfi_startproc
 1981              		@ args = 0, pretend = 0, frame = 8
 1982              		@ frame_needed = 1, uses_anonymous_args = 0
 1983 0000 80B5     		push	{r7, lr}
 1984              		.cfi_def_cfa_offset 8
 1985              		.cfi_offset 7, -8
ARM GAS  C:\Users\ADMINI~1\AppData\Local\Temp\ccuQ0kDm.s 			page 60


 1986              		.cfi_offset 14, -4
 1987 0002 82B0     		sub	sp, sp, #8
 1988              		.cfi_def_cfa_offset 16
 1989 0004 00AF     		add	r7, sp, #0
 1990              		.cfi_def_cfa_register 7
 1991 0006 7860     		str	r0, [r7, #4]
1378:Generated_Source\PSoC4/PWM_Red.c ****     PWM_Red_INTERRUPT_SET_REG = interruptMask;
 1992              		.loc 1 1378 0
 1993 0008 034B     		ldr	r3, .L130
 1994 000a 7A68     		ldr	r2, [r7, #4]
 1995 000c 1A60     		str	r2, [r3]
1379:Generated_Source\PSoC4/PWM_Red.c **** }
 1996              		.loc 1 1379 0
 1997 000e C046     		nop
 1998 0010 BD46     		mov	sp, r7
 1999 0012 02B0     		add	sp, sp, #8
 2000              		@ sp needed
 2001 0014 80BD     		pop	{r7, pc}
 2002              	.L131:
 2003 0016 C046     		.align	2
 2004              	.L130:
 2005 0018 74012040 		.word	1075839348
 2006              		.cfi_endproc
 2007              	.LFE40:
 2008              		.size	PWM_Red_SetInterrupt, .-PWM_Red_SetInterrupt
 2009              		.text
 2010              	.Letext0:
 2011              		.file 2 "Generated_Source\\PSoC4\\cytypes.h"