ARM GAS  C:\Users\ADMINI~1\AppData\Local\Temp\ccaiKB0o.s 			page 1


   1              		.syntax unified
   2              		.cpu cortex-m0
   3              		.fpu softvfp
   4              		.eabi_attribute 20, 1
   5              		.eabi_attribute 21, 1
   6              		.eabi_attribute 23, 3
   7              		.eabi_attribute 24, 1
   8              		.eabi_attribute 25, 1
   9              		.eabi_attribute 26, 1
  10              		.eabi_attribute 30, 6
  11              		.eabi_attribute 34, 0
  12              		.eabi_attribute 18, 4
  13              		.thumb
  14              		.syntax unified
  15              		.file	"SW2.c"
  16              		.text
  17              	.Ltext0:
  18              		.cfi_sections	.debug_frame
  19              		.section	.text.SW2_Write,"ax",%progbits
  20              		.align	2
  21              		.global	SW2_Write
  22              		.code	16
  23              		.thumb_func
  24              		.type	SW2_Write, %function
  25              	SW2_Write:
  26              	.LFB0:
  27              		.file 1 "Generated_Source\\PSoC4\\SW2.c"
   1:Generated_Source\PSoC4/SW2.c **** /*******************************************************************************
   2:Generated_Source\PSoC4/SW2.c **** * File Name: SW2.c  
   3:Generated_Source\PSoC4/SW2.c **** * Version 2.10
   4:Generated_Source\PSoC4/SW2.c **** *
   5:Generated_Source\PSoC4/SW2.c **** * Description:
   6:Generated_Source\PSoC4/SW2.c **** *  This file contains API to enable firmware control of a Pins component.
   7:Generated_Source\PSoC4/SW2.c **** *
   8:Generated_Source\PSoC4/SW2.c **** * Note:
   9:Generated_Source\PSoC4/SW2.c **** *
  10:Generated_Source\PSoC4/SW2.c **** ********************************************************************************
  11:Generated_Source\PSoC4/SW2.c **** * Copyright 2008-2014, Cypress Semiconductor Corporation.  All rights reserved.
  12:Generated_Source\PSoC4/SW2.c **** * You may use this file only in accordance with the license, terms, conditions, 
  13:Generated_Source\PSoC4/SW2.c **** * disclaimers, and limitations in the end user license agreement accompanying 
  14:Generated_Source\PSoC4/SW2.c **** * the software package with which this file was provided.
  15:Generated_Source\PSoC4/SW2.c **** *******************************************************************************/
  16:Generated_Source\PSoC4/SW2.c **** 
  17:Generated_Source\PSoC4/SW2.c **** #include "cytypes.h"
  18:Generated_Source\PSoC4/SW2.c **** #include "SW2.h"
  19:Generated_Source\PSoC4/SW2.c **** 
  20:Generated_Source\PSoC4/SW2.c **** #define SetP4PinDriveMode(shift, mode)  \
  21:Generated_Source\PSoC4/SW2.c ****     do { \
  22:Generated_Source\PSoC4/SW2.c ****         SW2_PC =   (SW2_PC & \
  23:Generated_Source\PSoC4/SW2.c ****                                 (uint32)(~(uint32)(SW2_DRIVE_MODE_IND_MASK << (SW2_DRIVE_MODE_BITS 
  24:Generated_Source\PSoC4/SW2.c ****                                 (uint32)((uint32)(mode) << (SW2_DRIVE_MODE_BITS * (shift))); \
  25:Generated_Source\PSoC4/SW2.c ****     } while (0)
  26:Generated_Source\PSoC4/SW2.c **** 
  27:Generated_Source\PSoC4/SW2.c **** 
  28:Generated_Source\PSoC4/SW2.c **** /*******************************************************************************
  29:Generated_Source\PSoC4/SW2.c **** * Function Name: SW2_Write
  30:Generated_Source\PSoC4/SW2.c **** ********************************************************************************
ARM GAS  C:\Users\ADMINI~1\AppData\Local\Temp\ccaiKB0o.s 			page 2


  31:Generated_Source\PSoC4/SW2.c **** *
  32:Generated_Source\PSoC4/SW2.c **** * Summary:
  33:Generated_Source\PSoC4/SW2.c **** *  Assign a new value to the digital port's data output register.  
  34:Generated_Source\PSoC4/SW2.c **** *
  35:Generated_Source\PSoC4/SW2.c **** * Parameters:  
  36:Generated_Source\PSoC4/SW2.c **** *  prtValue:  The value to be assigned to the Digital Port. 
  37:Generated_Source\PSoC4/SW2.c **** *
  38:Generated_Source\PSoC4/SW2.c **** * Return: 
  39:Generated_Source\PSoC4/SW2.c **** *  None 
  40:Generated_Source\PSoC4/SW2.c **** *  
  41:Generated_Source\PSoC4/SW2.c **** *******************************************************************************/
  42:Generated_Source\PSoC4/SW2.c **** void SW2_Write(uint8 value) 
  43:Generated_Source\PSoC4/SW2.c **** {
  28              		.loc 1 43 0
  29              		.cfi_startproc
  30              		@ args = 0, pretend = 0, frame = 16
  31              		@ frame_needed = 1, uses_anonymous_args = 0
  32 0000 80B5     		push	{r7, lr}
  33              		.cfi_def_cfa_offset 8
  34              		.cfi_offset 7, -8
  35              		.cfi_offset 14, -4
  36 0002 84B0     		sub	sp, sp, #16
  37              		.cfi_def_cfa_offset 24
  38 0004 00AF     		add	r7, sp, #0
  39              		.cfi_def_cfa_register 7
  40 0006 0200     		movs	r2, r0
  41 0008 FB1D     		adds	r3, r7, #7
  42 000a 1A70     		strb	r2, [r3]
  44:Generated_Source\PSoC4/SW2.c ****     uint8 drVal = (uint8)(SW2_DR & (uint8)(~SW2_MASK));
  43              		.loc 1 44 0
  44 000c 0D4B     		ldr	r3, .L2
  45 000e 1B68     		ldr	r3, [r3]
  46 0010 DAB2     		uxtb	r2, r3
  47 0012 0F23     		movs	r3, #15
  48 0014 FB18     		adds	r3, r7, r3
  49 0016 7F21     		movs	r1, #127
  50 0018 0A40     		ands	r2, r1
  51 001a 1A70     		strb	r2, [r3]
  45:Generated_Source\PSoC4/SW2.c ****     drVal = (drVal | ((uint8)(value << SW2_SHIFT) & SW2_MASK));
  52              		.loc 1 45 0
  53 001c FB1D     		adds	r3, r7, #7
  54 001e 1B78     		ldrb	r3, [r3]
  55 0020 DB01     		lsls	r3, r3, #7
  56 0022 D9B2     		uxtb	r1, r3
  57 0024 0F23     		movs	r3, #15
  58 0026 FB18     		adds	r3, r7, r3
  59 0028 0F22     		movs	r2, #15
  60 002a BA18     		adds	r2, r7, r2
  61 002c 1278     		ldrb	r2, [r2]
  62 002e 0A43     		orrs	r2, r1
  63 0030 1A70     		strb	r2, [r3]
  46:Generated_Source\PSoC4/SW2.c ****     SW2_DR = (uint32)drVal;
  64              		.loc 1 46 0
  65 0032 044B     		ldr	r3, .L2
  66 0034 0F22     		movs	r2, #15
  67 0036 BA18     		adds	r2, r7, r2
  68 0038 1278     		ldrb	r2, [r2]
ARM GAS  C:\Users\ADMINI~1\AppData\Local\Temp\ccaiKB0o.s 			page 3


  69 003a 1A60     		str	r2, [r3]
  47:Generated_Source\PSoC4/SW2.c **** }
  70              		.loc 1 47 0
  71 003c C046     		nop
  72 003e BD46     		mov	sp, r7
  73 0040 04B0     		add	sp, sp, #16
  74              		@ sp needed
  75 0042 80BD     		pop	{r7, pc}
  76              	.L3:
  77              		.align	2
  78              	.L2:
  79 0044 00000440 		.word	1074003968
  80              		.cfi_endproc
  81              	.LFE0:
  82              		.size	SW2_Write, .-SW2_Write
  83              		.section	.text.SW2_SetDriveMode,"ax",%progbits
  84              		.align	2
  85              		.global	SW2_SetDriveMode
  86              		.code	16
  87              		.thumb_func
  88              		.type	SW2_SetDriveMode, %function
  89              	SW2_SetDriveMode:
  90              	.LFB1:
  48:Generated_Source\PSoC4/SW2.c **** 
  49:Generated_Source\PSoC4/SW2.c **** 
  50:Generated_Source\PSoC4/SW2.c **** /*******************************************************************************
  51:Generated_Source\PSoC4/SW2.c **** * Function Name: SW2_SetDriveMode
  52:Generated_Source\PSoC4/SW2.c **** ********************************************************************************
  53:Generated_Source\PSoC4/SW2.c **** *
  54:Generated_Source\PSoC4/SW2.c **** * Summary:
  55:Generated_Source\PSoC4/SW2.c **** *  Change the drive mode on the pins of the port.
  56:Generated_Source\PSoC4/SW2.c **** * 
  57:Generated_Source\PSoC4/SW2.c **** * Parameters:  
  58:Generated_Source\PSoC4/SW2.c **** *  mode:  Change the pins to one of the following drive modes.
  59:Generated_Source\PSoC4/SW2.c **** *
  60:Generated_Source\PSoC4/SW2.c **** *  SW2_DM_STRONG     Strong Drive 
  61:Generated_Source\PSoC4/SW2.c **** *  SW2_DM_OD_HI      Open Drain, Drives High 
  62:Generated_Source\PSoC4/SW2.c **** *  SW2_DM_OD_LO      Open Drain, Drives Low 
  63:Generated_Source\PSoC4/SW2.c **** *  SW2_DM_RES_UP     Resistive Pull Up 
  64:Generated_Source\PSoC4/SW2.c **** *  SW2_DM_RES_DWN    Resistive Pull Down 
  65:Generated_Source\PSoC4/SW2.c **** *  SW2_DM_RES_UPDWN  Resistive Pull Up/Down 
  66:Generated_Source\PSoC4/SW2.c **** *  SW2_DM_DIG_HIZ    High Impedance Digital 
  67:Generated_Source\PSoC4/SW2.c **** *  SW2_DM_ALG_HIZ    High Impedance Analog 
  68:Generated_Source\PSoC4/SW2.c **** *
  69:Generated_Source\PSoC4/SW2.c **** * Return: 
  70:Generated_Source\PSoC4/SW2.c **** *  None
  71:Generated_Source\PSoC4/SW2.c **** *
  72:Generated_Source\PSoC4/SW2.c **** *******************************************************************************/
  73:Generated_Source\PSoC4/SW2.c **** void SW2_SetDriveMode(uint8 mode) 
  74:Generated_Source\PSoC4/SW2.c **** {
  91              		.loc 1 74 0
  92              		.cfi_startproc
  93              		@ args = 0, pretend = 0, frame = 8
  94              		@ frame_needed = 1, uses_anonymous_args = 0
  95 0000 80B5     		push	{r7, lr}
  96              		.cfi_def_cfa_offset 8
  97              		.cfi_offset 7, -8
ARM GAS  C:\Users\ADMINI~1\AppData\Local\Temp\ccaiKB0o.s 			page 4


  98              		.cfi_offset 14, -4
  99 0002 82B0     		sub	sp, sp, #8
 100              		.cfi_def_cfa_offset 16
 101 0004 00AF     		add	r7, sp, #0
 102              		.cfi_def_cfa_register 7
 103 0006 0200     		movs	r2, r0
 104 0008 FB1D     		adds	r3, r7, #7
 105 000a 1A70     		strb	r2, [r3]
  75:Generated_Source\PSoC4/SW2.c **** 	SetP4PinDriveMode(SW2__0__SHIFT, mode);
 106              		.loc 1 75 0
 107 000c 064B     		ldr	r3, .L5
 108 000e 064A     		ldr	r2, .L5
 109 0010 1268     		ldr	r2, [r2]
 110 0012 0649     		ldr	r1, .L5+4
 111 0014 1140     		ands	r1, r2
 112 0016 FA1D     		adds	r2, r7, #7
 113 0018 1278     		ldrb	r2, [r2]
 114 001a 5205     		lsls	r2, r2, #21
 115 001c 0A43     		orrs	r2, r1
 116 001e 1A60     		str	r2, [r3]
  76:Generated_Source\PSoC4/SW2.c **** }
 117              		.loc 1 76 0
 118 0020 C046     		nop
 119 0022 BD46     		mov	sp, r7
 120 0024 02B0     		add	sp, sp, #8
 121              		@ sp needed
 122 0026 80BD     		pop	{r7, pc}
 123              	.L6:
 124              		.align	2
 125              	.L5:
 126 0028 08000440 		.word	1074003976
 127 002c FFFF1FFF 		.word	-14680065
 128              		.cfi_endproc
 129              	.LFE1:
 130              		.size	SW2_SetDriveMode, .-SW2_SetDriveMode
 131              		.section	.text.SW2_Read,"ax",%progbits
 132              		.align	2
 133              		.global	SW2_Read
 134              		.code	16
 135              		.thumb_func
 136              		.type	SW2_Read, %function
 137              	SW2_Read:
 138              	.LFB2:
  77:Generated_Source\PSoC4/SW2.c **** 
  78:Generated_Source\PSoC4/SW2.c **** 
  79:Generated_Source\PSoC4/SW2.c **** /*******************************************************************************
  80:Generated_Source\PSoC4/SW2.c **** * Function Name: SW2_Read
  81:Generated_Source\PSoC4/SW2.c **** ********************************************************************************
  82:Generated_Source\PSoC4/SW2.c **** *
  83:Generated_Source\PSoC4/SW2.c **** * Summary:
  84:Generated_Source\PSoC4/SW2.c **** *  Read the current value on the pins of the Digital Port in right justified 
  85:Generated_Source\PSoC4/SW2.c **** *  form.
  86:Generated_Source\PSoC4/SW2.c **** *
  87:Generated_Source\PSoC4/SW2.c **** * Parameters:  
  88:Generated_Source\PSoC4/SW2.c **** *  None 
  89:Generated_Source\PSoC4/SW2.c **** *
  90:Generated_Source\PSoC4/SW2.c **** * Return: 
ARM GAS  C:\Users\ADMINI~1\AppData\Local\Temp\ccaiKB0o.s 			page 5


  91:Generated_Source\PSoC4/SW2.c **** *  Returns the current value of the Digital Port as a right justified number
  92:Generated_Source\PSoC4/SW2.c **** *  
  93:Generated_Source\PSoC4/SW2.c **** * Note:
  94:Generated_Source\PSoC4/SW2.c **** *  Macro SW2_ReadPS calls this function. 
  95:Generated_Source\PSoC4/SW2.c **** *  
  96:Generated_Source\PSoC4/SW2.c **** *******************************************************************************/
  97:Generated_Source\PSoC4/SW2.c **** uint8 SW2_Read(void) 
  98:Generated_Source\PSoC4/SW2.c **** {
 139              		.loc 1 98 0
 140              		.cfi_startproc
 141              		@ args = 0, pretend = 0, frame = 0
 142              		@ frame_needed = 1, uses_anonymous_args = 0
 143 0000 80B5     		push	{r7, lr}
 144              		.cfi_def_cfa_offset 8
 145              		.cfi_offset 7, -8
 146              		.cfi_offset 14, -4
 147 0002 00AF     		add	r7, sp, #0
 148              		.cfi_def_cfa_register 7
  99:Generated_Source\PSoC4/SW2.c ****     return (uint8)((SW2_PS & SW2_MASK) >> SW2_SHIFT);
 149              		.loc 1 99 0
 150 0004 044B     		ldr	r3, .L9
 151 0006 1B68     		ldr	r3, [r3]
 152 0008 8022     		movs	r2, #128
 153 000a 1340     		ands	r3, r2
 154 000c DB09     		lsrs	r3, r3, #7
 155 000e DBB2     		uxtb	r3, r3
 100:Generated_Source\PSoC4/SW2.c **** }
 156              		.loc 1 100 0
 157 0010 1800     		movs	r0, r3
 158 0012 BD46     		mov	sp, r7
 159              		@ sp needed
 160 0014 80BD     		pop	{r7, pc}
 161              	.L10:
 162 0016 C046     		.align	2
 163              	.L9:
 164 0018 04000440 		.word	1074003972
 165              		.cfi_endproc
 166              	.LFE2:
 167              		.size	SW2_Read, .-SW2_Read
 168              		.section	.text.SW2_ReadDataReg,"ax",%progbits
 169              		.align	2
 170              		.global	SW2_ReadDataReg
 171              		.code	16
 172              		.thumb_func
 173              		.type	SW2_ReadDataReg, %function
 174              	SW2_ReadDataReg:
 175              	.LFB3:
 101:Generated_Source\PSoC4/SW2.c **** 
 102:Generated_Source\PSoC4/SW2.c **** 
 103:Generated_Source\PSoC4/SW2.c **** /*******************************************************************************
 104:Generated_Source\PSoC4/SW2.c **** * Function Name: SW2_ReadDataReg
 105:Generated_Source\PSoC4/SW2.c **** ********************************************************************************
 106:Generated_Source\PSoC4/SW2.c **** *
 107:Generated_Source\PSoC4/SW2.c **** * Summary:
 108:Generated_Source\PSoC4/SW2.c **** *  Read the current value assigned to a Digital Port's data output register
 109:Generated_Source\PSoC4/SW2.c **** *
 110:Generated_Source\PSoC4/SW2.c **** * Parameters:  
ARM GAS  C:\Users\ADMINI~1\AppData\Local\Temp\ccaiKB0o.s 			page 6


 111:Generated_Source\PSoC4/SW2.c **** *  None 
 112:Generated_Source\PSoC4/SW2.c **** *
 113:Generated_Source\PSoC4/SW2.c **** * Return: 
 114:Generated_Source\PSoC4/SW2.c **** *  Returns the current value assigned to the Digital Port's data output register
 115:Generated_Source\PSoC4/SW2.c **** *  
 116:Generated_Source\PSoC4/SW2.c **** *******************************************************************************/
 117:Generated_Source\PSoC4/SW2.c **** uint8 SW2_ReadDataReg(void) 
 118:Generated_Source\PSoC4/SW2.c **** {
 176              		.loc 1 118 0
 177              		.cfi_startproc
 178              		@ args = 0, pretend = 0, frame = 0
 179              		@ frame_needed = 1, uses_anonymous_args = 0
 180 0000 80B5     		push	{r7, lr}
 181              		.cfi_def_cfa_offset 8
 182              		.cfi_offset 7, -8
 183              		.cfi_offset 14, -4
 184 0002 00AF     		add	r7, sp, #0
 185              		.cfi_def_cfa_register 7
 119:Generated_Source\PSoC4/SW2.c ****     return (uint8)((SW2_DR & SW2_MASK) >> SW2_SHIFT);
 186              		.loc 1 119 0
 187 0004 044B     		ldr	r3, .L13
 188 0006 1B68     		ldr	r3, [r3]
 189 0008 8022     		movs	r2, #128
 190 000a 1340     		ands	r3, r2
 191 000c DB09     		lsrs	r3, r3, #7
 192 000e DBB2     		uxtb	r3, r3
 120:Generated_Source\PSoC4/SW2.c **** }
 193              		.loc 1 120 0
 194 0010 1800     		movs	r0, r3
 195 0012 BD46     		mov	sp, r7
 196              		@ sp needed
 197 0014 80BD     		pop	{r7, pc}
 198              	.L14:
 199 0016 C046     		.align	2
 200              	.L13:
 201 0018 00000440 		.word	1074003968
 202              		.cfi_endproc
 203              	.LFE3:
 204              		.size	SW2_ReadDataReg, .-SW2_ReadDataReg
 205              		.section	.text.SW2_ClearInterrupt,"ax",%progbits
 206              		.align	2
 207              		.global	SW2_ClearInterrupt
 208              		.code	16
 209              		.thumb_func
 210              		.type	SW2_ClearInterrupt, %function
 211              	SW2_ClearInterrupt:
 212              	.LFB4:
 121:Generated_Source\PSoC4/SW2.c **** 
 122:Generated_Source\PSoC4/SW2.c **** 
 123:Generated_Source\PSoC4/SW2.c **** /* If Interrupts Are Enabled for this Pins component */ 
 124:Generated_Source\PSoC4/SW2.c **** #if defined(SW2_INTSTAT) 
 125:Generated_Source\PSoC4/SW2.c **** 
 126:Generated_Source\PSoC4/SW2.c ****     /*******************************************************************************
 127:Generated_Source\PSoC4/SW2.c ****     * Function Name: SW2_ClearInterrupt
 128:Generated_Source\PSoC4/SW2.c ****     ********************************************************************************
 129:Generated_Source\PSoC4/SW2.c ****     *
 130:Generated_Source\PSoC4/SW2.c ****     * Summary:
ARM GAS  C:\Users\ADMINI~1\AppData\Local\Temp\ccaiKB0o.s 			page 7


 131:Generated_Source\PSoC4/SW2.c ****     *  Clears any active interrupts attached to port and returns the value of the 
 132:Generated_Source\PSoC4/SW2.c ****     *  interrupt status register.
 133:Generated_Source\PSoC4/SW2.c ****     *
 134:Generated_Source\PSoC4/SW2.c ****     * Parameters:  
 135:Generated_Source\PSoC4/SW2.c ****     *  None 
 136:Generated_Source\PSoC4/SW2.c ****     *
 137:Generated_Source\PSoC4/SW2.c ****     * Return: 
 138:Generated_Source\PSoC4/SW2.c ****     *  Returns the value of the interrupt status register
 139:Generated_Source\PSoC4/SW2.c ****     *  
 140:Generated_Source\PSoC4/SW2.c ****     *******************************************************************************/
 141:Generated_Source\PSoC4/SW2.c ****     uint8 SW2_ClearInterrupt(void) 
 142:Generated_Source\PSoC4/SW2.c ****     {
 213              		.loc 1 142 0
 214              		.cfi_startproc
 215              		@ args = 0, pretend = 0, frame = 8
 216              		@ frame_needed = 1, uses_anonymous_args = 0
 217 0000 80B5     		push	{r7, lr}
 218              		.cfi_def_cfa_offset 8
 219              		.cfi_offset 7, -8
 220              		.cfi_offset 14, -4
 221 0002 82B0     		sub	sp, sp, #8
 222              		.cfi_def_cfa_offset 16
 223 0004 00AF     		add	r7, sp, #0
 224              		.cfi_def_cfa_register 7
 143:Generated_Source\PSoC4/SW2.c **** 		uint8 maskedStatus = (uint8)(SW2_INTSTAT & SW2_MASK);
 225              		.loc 1 143 0
 226 0006 094B     		ldr	r3, .L17
 227 0008 1B68     		ldr	r3, [r3]
 228 000a DAB2     		uxtb	r2, r3
 229 000c FB1D     		adds	r3, r7, #7
 230 000e 7F21     		movs	r1, #127
 231 0010 8A43     		bics	r2, r1
 232 0012 1A70     		strb	r2, [r3]
 144:Generated_Source\PSoC4/SW2.c **** 		SW2_INTSTAT = maskedStatus;
 233              		.loc 1 144 0
 234 0014 054B     		ldr	r3, .L17
 235 0016 FA1D     		adds	r2, r7, #7
 236 0018 1278     		ldrb	r2, [r2]
 237 001a 1A60     		str	r2, [r3]
 145:Generated_Source\PSoC4/SW2.c ****         return maskedStatus >> SW2_SHIFT;
 238              		.loc 1 145 0
 239 001c FB1D     		adds	r3, r7, #7
 240 001e 1B78     		ldrb	r3, [r3]
 241 0020 DB09     		lsrs	r3, r3, #7
 242 0022 DBB2     		uxtb	r3, r3
 146:Generated_Source\PSoC4/SW2.c ****     }
 243              		.loc 1 146 0
 244 0024 1800     		movs	r0, r3
 245 0026 BD46     		mov	sp, r7
 246 0028 02B0     		add	sp, sp, #8
 247              		@ sp needed
 248 002a 80BD     		pop	{r7, pc}
 249              	.L18:
 250              		.align	2
 251              	.L17:
 252 002c 10000440 		.word	1074003984
 253              		.cfi_endproc
ARM GAS  C:\Users\ADMINI~1\AppData\Local\Temp\ccaiKB0o.s 			page 8


 254              	.LFE4:
 255              		.size	SW2_ClearInterrupt, .-SW2_ClearInterrupt
 256              		.text
 257              	.Letext0:
 258              		.file 2 "Generated_Source\\PSoC4\\cytypes.h"