ARM GAS  C:\Users\ADMINI~1\AppData\Local\Temp\ccxz1S6I.s 			page 1


   1              		.syntax unified
   2              		.cpu cortex-m0
   3              		.fpu softvfp
   4              		.eabi_attribute 20, 1
   5              		.eabi_attribute 21, 1
   6              		.eabi_attribute 23, 3
   7              		.eabi_attribute 24, 1
   8              		.eabi_attribute 25, 1
   9              		.eabi_attribute 26, 1
  10              		.eabi_attribute 30, 6
  11              		.eabi_attribute 34, 0
  12              		.eabi_attribute 18, 4
  13              		.thumb
  14              		.syntax unified
  15              		.file	"Temp_Sensor.c"
  16              		.text
  17              	.Ltext0:
  18              		.cfi_sections	.debug_frame
  19              		.global	Temp_Sensor_initVar
  20              		.bss
  21              		.type	Temp_Sensor_initVar, %object
  22              		.size	Temp_Sensor_initVar, 1
  23              	Temp_Sensor_initVar:
  24 0000 00       		.space	1
  25              		.comm	Temp_Sensor_lo,2,4
  26              		.comm	Temp_Sensor_hi,2,4
  27              		.comm	Temp_Sensor_busyFlag,1,1
  28              		.comm	Temp_Sensor_contMode,1,1
  29              		.section	.text.Temp_Sensor_Start,"ax",%progbits
  30              		.align	2
  31              		.global	Temp_Sensor_Start
  32              		.code	16
  33              		.thumb_func
  34              		.type	Temp_Sensor_Start, %function
  35              	Temp_Sensor_Start:
  36              	.LFB1:
  37              		.file 1 "Generated_Source\\PSoC4\\Temp_Sensor.c"
   1:Generated_Source\PSoC4/Temp_Sensor.c **** /*******************************************************************************
   2:Generated_Source\PSoC4/Temp_Sensor.c **** * File Name: Temp_Sensor.c
   3:Generated_Source\PSoC4/Temp_Sensor.c **** * Version 1.10
   4:Generated_Source\PSoC4/Temp_Sensor.c **** *
   5:Generated_Source\PSoC4/Temp_Sensor.c **** * Description:
   6:Generated_Source\PSoC4/Temp_Sensor.c **** *  This file provides all API functionality of the Temp_Sensor component.
   7:Generated_Source\PSoC4/Temp_Sensor.c **** *
   8:Generated_Source\PSoC4/Temp_Sensor.c **** * Note:
   9:Generated_Source\PSoC4/Temp_Sensor.c **** *  None
  10:Generated_Source\PSoC4/Temp_Sensor.c **** *
  11:Generated_Source\PSoC4/Temp_Sensor.c **** ********************************************************************************
  12:Generated_Source\PSoC4/Temp_Sensor.c **** * Copyright 2012-2013, Cypress Semiconductor Corporation.  All rights reserved.
  13:Generated_Source\PSoC4/Temp_Sensor.c **** * You may use this file only in accordance with the license, terms, conditions,
  14:Generated_Source\PSoC4/Temp_Sensor.c **** * disclaimers, and limitations in the end user license agreement accompanying
  15:Generated_Source\PSoC4/Temp_Sensor.c **** * the software package with which this file was provided.
  16:Generated_Source\PSoC4/Temp_Sensor.c **** *******************************************************************************/
  17:Generated_Source\PSoC4/Temp_Sensor.c **** 
  18:Generated_Source\PSoC4/Temp_Sensor.c **** #include "Temp_Sensor_PVT.h"
  19:Generated_Source\PSoC4/Temp_Sensor.c **** 
  20:Generated_Source\PSoC4/Temp_Sensor.c **** 
ARM GAS  C:\Users\ADMINI~1\AppData\Local\Temp\ccxz1S6I.s 			page 2


  21:Generated_Source\PSoC4/Temp_Sensor.c **** /*******************************************************************************
  22:Generated_Source\PSoC4/Temp_Sensor.c **** * Variables
  23:Generated_Source\PSoC4/Temp_Sensor.c **** ********************************************************************************/
  24:Generated_Source\PSoC4/Temp_Sensor.c **** uint8  Temp_Sensor_initVar = 0u;
  25:Generated_Source\PSoC4/Temp_Sensor.c **** volatile uint16 Temp_Sensor_lo[Temp_Sensor_CUSTOM_NUM_SENSORS];
  26:Generated_Source\PSoC4/Temp_Sensor.c **** volatile uint16 Temp_Sensor_hi[Temp_Sensor_CUSTOM_NUM_SENSORS];
  27:Generated_Source\PSoC4/Temp_Sensor.c **** volatile uint8  Temp_Sensor_busyFlag;
  28:Generated_Source\PSoC4/Temp_Sensor.c **** volatile uint8  Temp_Sensor_contMode;
  29:Generated_Source\PSoC4/Temp_Sensor.c **** 
  30:Generated_Source\PSoC4/Temp_Sensor.c **** 
  31:Generated_Source\PSoC4/Temp_Sensor.c **** /*******************************************************************************
  32:Generated_Source\PSoC4/Temp_Sensor.c **** * Function Name: Temp_Sensor_Start
  33:Generated_Source\PSoC4/Temp_Sensor.c **** ********************************************************************************
  34:Generated_Source\PSoC4/Temp_Sensor.c **** *
  35:Generated_Source\PSoC4/Temp_Sensor.c **** * Summary:
  36:Generated_Source\PSoC4/Temp_Sensor.c **** * Starts the component. Calls the Temp_Sensor_Init() API if the component
  37:Generated_Source\PSoC4/Temp_Sensor.c **** * has not been initialized before. Calls the enable API.
  38:Generated_Source\PSoC4/Temp_Sensor.c **** *
  39:Generated_Source\PSoC4/Temp_Sensor.c **** * Parameters:
  40:Generated_Source\PSoC4/Temp_Sensor.c **** *  None
  41:Generated_Source\PSoC4/Temp_Sensor.c **** *
  42:Generated_Source\PSoC4/Temp_Sensor.c **** * Return:
  43:Generated_Source\PSoC4/Temp_Sensor.c **** *  None
  44:Generated_Source\PSoC4/Temp_Sensor.c **** *
  45:Generated_Source\PSoC4/Temp_Sensor.c **** * Global Variables:
  46:Generated_Source\PSoC4/Temp_Sensor.c **** *  Temp_Sensor_initVar - used to check initial configuration, modified on
  47:Generated_Source\PSoC4/Temp_Sensor.c **** *  first function call.
  48:Generated_Source\PSoC4/Temp_Sensor.c **** *
  49:Generated_Source\PSoC4/Temp_Sensor.c **** *******************************************************************************/
  50:Generated_Source\PSoC4/Temp_Sensor.c **** void Temp_Sensor_Start(void) 
  51:Generated_Source\PSoC4/Temp_Sensor.c **** {
  38              		.loc 1 51 0
  39              		.cfi_startproc
  40              		@ args = 0, pretend = 0, frame = 0
  41              		@ frame_needed = 1, uses_anonymous_args = 0
  42 0000 80B5     		push	{r7, lr}
  43              		.cfi_def_cfa_offset 8
  44              		.cfi_offset 7, -8
  45              		.cfi_offset 14, -4
  46 0002 00AF     		add	r7, sp, #0
  47              		.cfi_def_cfa_register 7
  52:Generated_Source\PSoC4/Temp_Sensor.c ****     /* If not already initialized, then initialize hardware and software */
  53:Generated_Source\PSoC4/Temp_Sensor.c ****     if(0u == Temp_Sensor_initVar)
  48              		.loc 1 53 0
  49 0004 064B     		ldr	r3, .L3
  50 0006 1B78     		ldrb	r3, [r3]
  51 0008 002B     		cmp	r3, #0
  52 000a 04D1     		bne	.L2
  54:Generated_Source\PSoC4/Temp_Sensor.c ****     {
  55:Generated_Source\PSoC4/Temp_Sensor.c ****         Temp_Sensor_Init();
  53              		.loc 1 55 0
  54 000c FFF7FEFF 		bl	Temp_Sensor_Init
  56:Generated_Source\PSoC4/Temp_Sensor.c ****         Temp_Sensor_initVar = 1u;
  55              		.loc 1 56 0
  56 0010 034B     		ldr	r3, .L3
  57 0012 0122     		movs	r2, #1
  58 0014 1A70     		strb	r2, [r3]
ARM GAS  C:\Users\ADMINI~1\AppData\Local\Temp\ccxz1S6I.s 			page 3


  59              	.L2:
  57:Generated_Source\PSoC4/Temp_Sensor.c ****     }
  58:Generated_Source\PSoC4/Temp_Sensor.c ****     Temp_Sensor_Enable();
  60              		.loc 1 58 0
  61 0016 FFF7FEFF 		bl	Temp_Sensor_Enable
  59:Generated_Source\PSoC4/Temp_Sensor.c **** }
  62              		.loc 1 59 0
  63 001a C046     		nop
  64 001c BD46     		mov	sp, r7
  65              		@ sp needed
  66 001e 80BD     		pop	{r7, pc}
  67              	.L4:
  68              		.align	2
  69              	.L3:
  70 0020 00000000 		.word	Temp_Sensor_initVar
  71              		.cfi_endproc
  72              	.LFE1:
  73              		.size	Temp_Sensor_Start, .-Temp_Sensor_Start
  74              		.section	.text.Temp_Sensor_Stop,"ax",%progbits
  75              		.align	2
  76              		.global	Temp_Sensor_Stop
  77              		.code	16
  78              		.thumb_func
  79              		.type	Temp_Sensor_Stop, %function
  80              	Temp_Sensor_Stop:
  81              	.LFB2:
  60:Generated_Source\PSoC4/Temp_Sensor.c **** 
  61:Generated_Source\PSoC4/Temp_Sensor.c **** 
  62:Generated_Source\PSoC4/Temp_Sensor.c **** /*******************************************************************************
  63:Generated_Source\PSoC4/Temp_Sensor.c **** * Function Name: Temp_Sensor_Stop
  64:Generated_Source\PSoC4/Temp_Sensor.c **** ********************************************************************************
  65:Generated_Source\PSoC4/Temp_Sensor.c **** *
  66:Generated_Source\PSoC4/Temp_Sensor.c **** * Summary:
  67:Generated_Source\PSoC4/Temp_Sensor.c **** *  Disables and stops the component.
  68:Generated_Source\PSoC4/Temp_Sensor.c **** *
  69:Generated_Source\PSoC4/Temp_Sensor.c **** * Parameters:
  70:Generated_Source\PSoC4/Temp_Sensor.c **** *  None
  71:Generated_Source\PSoC4/Temp_Sensor.c **** *
  72:Generated_Source\PSoC4/Temp_Sensor.c **** * Return:
  73:Generated_Source\PSoC4/Temp_Sensor.c **** *  None
  74:Generated_Source\PSoC4/Temp_Sensor.c **** *
  75:Generated_Source\PSoC4/Temp_Sensor.c **** * Global Variables:
  76:Generated_Source\PSoC4/Temp_Sensor.c **** *  Temp_Sensor_busyFlag - used for reflect sensor masuring.
  77:Generated_Source\PSoC4/Temp_Sensor.c **** *
  78:Generated_Source\PSoC4/Temp_Sensor.c **** ***************u****************************************************************/
  79:Generated_Source\PSoC4/Temp_Sensor.c **** void Temp_Sensor_Stop(void) 
  80:Generated_Source\PSoC4/Temp_Sensor.c **** {
  82              		.loc 1 80 0
  83              		.cfi_startproc
  84              		@ args = 0, pretend = 0, frame = 8
  85              		@ frame_needed = 1, uses_anonymous_args = 0
  86 0000 90B5     		push	{r4, r7, lr}
  87              		.cfi_def_cfa_offset 12
  88              		.cfi_offset 4, -12
  89              		.cfi_offset 7, -8
  90              		.cfi_offset 14, -4
  91 0002 83B0     		sub	sp, sp, #12
ARM GAS  C:\Users\ADMINI~1\AppData\Local\Temp\ccxz1S6I.s 			page 4


  92              		.cfi_def_cfa_offset 24
  93 0004 00AF     		add	r7, sp, #0
  94              		.cfi_def_cfa_register 7
  81:Generated_Source\PSoC4/Temp_Sensor.c ****     uint8 enableInterrupts;
  82:Generated_Source\PSoC4/Temp_Sensor.c **** 
  83:Generated_Source\PSoC4/Temp_Sensor.c ****     /* Change shared regs, need to be safety */
  84:Generated_Source\PSoC4/Temp_Sensor.c ****     enableInterrupts = CyEnterCriticalSection();
  95              		.loc 1 84 0
  96 0006 FC1D     		adds	r4, r7, #7
  97 0008 FFF7FEFF 		bl	CyEnterCriticalSection
  98 000c 0300     		movs	r3, r0
  99 000e 2370     		strb	r3, [r4]
  85:Generated_Source\PSoC4/Temp_Sensor.c **** 
  86:Generated_Source\PSoC4/Temp_Sensor.c ****     Temp_Sensor_CONTROL_REG = (Temp_Sensor_CONTROL_REG & Temp_Sensor_CTRL_EOC_TRIG);
 100              		.loc 1 86 0
 101 0010 0A4A     		ldr	r2, .L6
 102 0012 0A4B     		ldr	r3, .L6
 103 0014 1B78     		ldrb	r3, [r3]
 104 0016 DBB2     		uxtb	r3, r3
 105 0018 0921     		movs	r1, #9
 106 001a 0B40     		ands	r3, r1
 107 001c DBB2     		uxtb	r3, r3
 108 001e 1370     		strb	r3, [r2]
  87:Generated_Source\PSoC4/Temp_Sensor.c ****  
  88:Generated_Source\PSoC4/Temp_Sensor.c ****     Temp_Sensor_EOC_ISR_Disable();
 109              		.loc 1 88 0
 110 0020 FFF7FEFF 		bl	Temp_Sensor_EOC_ISR_Disable
  89:Generated_Source\PSoC4/Temp_Sensor.c **** 
  90:Generated_Source\PSoC4/Temp_Sensor.c ****     Temp_Sensor_busyFlag = 0u;
 111              		.loc 1 90 0
 112 0024 064B     		ldr	r3, .L6+4
 113 0026 0022     		movs	r2, #0
 114 0028 1A70     		strb	r2, [r3]
  91:Generated_Source\PSoC4/Temp_Sensor.c **** 
  92:Generated_Source\PSoC4/Temp_Sensor.c ****     /* shared regs config are done */
  93:Generated_Source\PSoC4/Temp_Sensor.c ****     CyExitCriticalSection(enableInterrupts);
 115              		.loc 1 93 0
 116 002a FB1D     		adds	r3, r7, #7
 117 002c 1B78     		ldrb	r3, [r3]
 118 002e 1800     		movs	r0, r3
 119 0030 FFF7FEFF 		bl	CyExitCriticalSection
  94:Generated_Source\PSoC4/Temp_Sensor.c **** }
 120              		.loc 1 94 0
 121 0034 C046     		nop
 122 0036 BD46     		mov	sp, r7
 123 0038 03B0     		add	sp, sp, #12
 124              		@ sp needed
 125 003a 90BD     		pop	{r4, r7, pc}
 126              	.L7:
 127              		.align	2
 128              	.L6:
 129 003c 71000F40 		.word	1074724977
 130 0040 00000000 		.word	Temp_Sensor_busyFlag
 131              		.cfi_endproc
 132              	.LFE2:
 133              		.size	Temp_Sensor_Stop, .-Temp_Sensor_Stop
 134              		.section	.text.Temp_Sensor_Init,"ax",%progbits
ARM GAS  C:\Users\ADMINI~1\AppData\Local\Temp\ccxz1S6I.s 			page 5


 135              		.align	2
 136              		.global	Temp_Sensor_Init
 137              		.code	16
 138              		.thumb_func
 139              		.type	Temp_Sensor_Init, %function
 140              	Temp_Sensor_Init:
 141              	.LFB3:
  95:Generated_Source\PSoC4/Temp_Sensor.c **** 
  96:Generated_Source\PSoC4/Temp_Sensor.c **** /*******************************************************************************
  97:Generated_Source\PSoC4/Temp_Sensor.c **** * Function Name: Temp_Sensor_Init()
  98:Generated_Source\PSoC4/Temp_Sensor.c **** ********************************************************************************
  99:Generated_Source\PSoC4/Temp_Sensor.c **** *
 100:Generated_Source\PSoC4/Temp_Sensor.c **** * Summary:
 101:Generated_Source\PSoC4/Temp_Sensor.c **** *  Initializes the component.
 102:Generated_Source\PSoC4/Temp_Sensor.c **** *
 103:Generated_Source\PSoC4/Temp_Sensor.c **** * Parameters:
 104:Generated_Source\PSoC4/Temp_Sensor.c **** *  None
 105:Generated_Source\PSoC4/Temp_Sensor.c **** *
 106:Generated_Source\PSoC4/Temp_Sensor.c **** * Return:
 107:Generated_Source\PSoC4/Temp_Sensor.c **** *  None
 108:Generated_Source\PSoC4/Temp_Sensor.c **** *
 109:Generated_Source\PSoC4/Temp_Sensor.c **** * Side Effects:
 110:Generated_Source\PSoC4/Temp_Sensor.c **** *  None
 111:Generated_Source\PSoC4/Temp_Sensor.c **** *
 112:Generated_Source\PSoC4/Temp_Sensor.c **** * Global Variables:
 113:Generated_Source\PSoC4/Temp_Sensor.c **** *  Temp_Sensor_busyFlag - used for reflect sensor masuring.
 114:Generated_Source\PSoC4/Temp_Sensor.c **** *  Temp_Sensor_contMode - used for reflect modes of operation used:
 115:Generated_Source\PSoC4/Temp_Sensor.c **** *     - Temp_Sensor_MODE_CONTINUOUS.
 116:Generated_Source\PSoC4/Temp_Sensor.c **** *     - Temp_Sensor_MODE_ONESHOT.
 117:Generated_Source\PSoC4/Temp_Sensor.c **** *
 118:Generated_Source\PSoC4/Temp_Sensor.c **** ********************************************************************************/
 119:Generated_Source\PSoC4/Temp_Sensor.c **** void Temp_Sensor_Init(void) 
 120:Generated_Source\PSoC4/Temp_Sensor.c **** {
 142              		.loc 1 120 0
 143              		.cfi_startproc
 144              		@ args = 0, pretend = 0, frame = 0
 145              		@ frame_needed = 1, uses_anonymous_args = 0
 146 0000 80B5     		push	{r7, lr}
 147              		.cfi_def_cfa_offset 8
 148              		.cfi_offset 7, -8
 149              		.cfi_offset 14, -4
 150 0002 00AF     		add	r7, sp, #0
 151              		.cfi_def_cfa_register 7
 121:Generated_Source\PSoC4/Temp_Sensor.c ****     Temp_Sensor_contMode = Temp_Sensor_CUSTOM_CONTINUOUS_MODE;
 152              		.loc 1 121 0
 153 0004 044B     		ldr	r3, .L9
 154 0006 0022     		movs	r2, #0
 155 0008 1A70     		strb	r2, [r3]
 122:Generated_Source\PSoC4/Temp_Sensor.c ****     Temp_Sensor_busyFlag = 0u;
 156              		.loc 1 122 0
 157 000a 044B     		ldr	r3, .L9+4
 158 000c 0022     		movs	r2, #0
 159 000e 1A70     		strb	r2, [r3]
 123:Generated_Source\PSoC4/Temp_Sensor.c **** }
 160              		.loc 1 123 0
 161 0010 C046     		nop
 162 0012 BD46     		mov	sp, r7
ARM GAS  C:\Users\ADMINI~1\AppData\Local\Temp\ccxz1S6I.s 			page 6


 163              		@ sp needed
 164 0014 80BD     		pop	{r7, pc}
 165              	.L10:
 166 0016 C046     		.align	2
 167              	.L9:
 168 0018 00000000 		.word	Temp_Sensor_contMode
 169 001c 00000000 		.word	Temp_Sensor_busyFlag
 170              		.cfi_endproc
 171              	.LFE3:
 172              		.size	Temp_Sensor_Init, .-Temp_Sensor_Init
 173              		.section	.text.Temp_Sensor_Enable,"ax",%progbits
 174              		.align	2
 175              		.global	Temp_Sensor_Enable
 176              		.code	16
 177              		.thumb_func
 178              		.type	Temp_Sensor_Enable, %function
 179              	Temp_Sensor_Enable:
 180              	.LFB4:
 124:Generated_Source\PSoC4/Temp_Sensor.c **** 
 125:Generated_Source\PSoC4/Temp_Sensor.c **** 
 126:Generated_Source\PSoC4/Temp_Sensor.c **** /*******************************************************************************
 127:Generated_Source\PSoC4/Temp_Sensor.c **** * Function Name: Temp_Sensor_Enable()
 128:Generated_Source\PSoC4/Temp_Sensor.c **** ********************************************************************************
 129:Generated_Source\PSoC4/Temp_Sensor.c **** *
 130:Generated_Source\PSoC4/Temp_Sensor.c **** * Summary:
 131:Generated_Source\PSoC4/Temp_Sensor.c **** *  Enables the component.
 132:Generated_Source\PSoC4/Temp_Sensor.c **** *
 133:Generated_Source\PSoC4/Temp_Sensor.c **** * Parameters:
 134:Generated_Source\PSoC4/Temp_Sensor.c **** *  None
 135:Generated_Source\PSoC4/Temp_Sensor.c **** *
 136:Generated_Source\PSoC4/Temp_Sensor.c **** * Return:
 137:Generated_Source\PSoC4/Temp_Sensor.c **** *  None
 138:Generated_Source\PSoC4/Temp_Sensor.c **** *
 139:Generated_Source\PSoC4/Temp_Sensor.c **** * Side Effects:
 140:Generated_Source\PSoC4/Temp_Sensor.c **** *  None
 141:Generated_Source\PSoC4/Temp_Sensor.c **** *
 142:Generated_Source\PSoC4/Temp_Sensor.c **** ********************************************************************************/
 143:Generated_Source\PSoC4/Temp_Sensor.c **** void Temp_Sensor_Enable(void) 
 144:Generated_Source\PSoC4/Temp_Sensor.c **** {
 181              		.loc 1 144 0
 182              		.cfi_startproc
 183              		@ args = 0, pretend = 0, frame = 8
 184              		@ frame_needed = 1, uses_anonymous_args = 0
 185 0000 90B5     		push	{r4, r7, lr}
 186              		.cfi_def_cfa_offset 12
 187              		.cfi_offset 4, -12
 188              		.cfi_offset 7, -8
 189              		.cfi_offset 14, -4
 190 0002 83B0     		sub	sp, sp, #12
 191              		.cfi_def_cfa_offset 24
 192 0004 00AF     		add	r7, sp, #0
 193              		.cfi_def_cfa_register 7
 145:Generated_Source\PSoC4/Temp_Sensor.c ****     uint8 enableInterrupts;
 146:Generated_Source\PSoC4/Temp_Sensor.c **** 
 147:Generated_Source\PSoC4/Temp_Sensor.c ****     /* Change shared regs, need to be safety */
 148:Generated_Source\PSoC4/Temp_Sensor.c ****     enableInterrupts = CyEnterCriticalSection();
 194              		.loc 1 148 0
ARM GAS  C:\Users\ADMINI~1\AppData\Local\Temp\ccxz1S6I.s 			page 7


 195 0006 FC1D     		adds	r4, r7, #7
 196 0008 FFF7FEFF 		bl	CyEnterCriticalSection
 197 000c 0300     		movs	r3, r0
 198 000e 2370     		strb	r3, [r4]
 149:Generated_Source\PSoC4/Temp_Sensor.c **** 
 150:Generated_Source\PSoC4/Temp_Sensor.c ****     /* Setup the number of Sensors from the customizer */
 151:Generated_Source\PSoC4/Temp_Sensor.c ****     Temp_Sensor_CONTROL_REG = ((Temp_Sensor_CONTROL_REG & Temp_Sensor_CTRL_EOC_TRIG) | 
 199              		.loc 1 151 0
 200 0010 1449     		ldr	r1, .L12
 201 0012 144B     		ldr	r3, .L12
 202 0014 1B78     		ldrb	r3, [r3]
 203 0016 DBB2     		uxtb	r3, r3
 204 0018 0922     		movs	r2, #9
 205 001a 1340     		ands	r3, r2
 206 001c DBB2     		uxtb	r3, r3
 207 001e 8022     		movs	r2, #128
 208 0020 5242     		rsbs	r2, r2, #0
 209 0022 1343     		orrs	r3, r2
 210 0024 DBB2     		uxtb	r3, r3
 211 0026 0B70     		strb	r3, [r1]
 152:Generated_Source\PSoC4/Temp_Sensor.c ****                                    ((uint8)((Temp_Sensor_CUSTOM_NUM_SENSORS - 1u)  << 
 153:Generated_Source\PSoC4/Temp_Sensor.c ****                                              Temp_Sensor_CTRL_REG_SNS_SHIFT))  |
 154:Generated_Source\PSoC4/Temp_Sensor.c ****                                              Temp_Sensor_CTRL_REG_ENABLE);
 155:Generated_Source\PSoC4/Temp_Sensor.c **** 
 156:Generated_Source\PSoC4/Temp_Sensor.c ****     /* Reset Timer FIFOs */
 157:Generated_Source\PSoC4/Temp_Sensor.c ****     CY_SET_REG16(Temp_Sensor_FIFO_AUXCTL_PTR, (CY_GET_REG16(Temp_Sensor_FIFO_AUXCTL_PTR) |
 212              		.loc 1 157 0
 213 0028 0F4A     		ldr	r2, .L12+4
 214 002a 0F4B     		ldr	r3, .L12+4
 215 002c 1B88     		ldrh	r3, [r3]
 216 002e 9BB2     		uxth	r3, r3
 217 0030 0E49     		ldr	r1, .L12+8
 218 0032 0B43     		orrs	r3, r1
 219 0034 9BB2     		uxth	r3, r3
 220 0036 1380     		strh	r3, [r2]
 158:Generated_Source\PSoC4/Temp_Sensor.c ****                                                                  Temp_Sensor_FIFO_CLEAR_MASK));
 159:Generated_Source\PSoC4/Temp_Sensor.c ****     CY_SET_REG16(Temp_Sensor_FIFO_AUXCTL_PTR, (CY_GET_REG16(Temp_Sensor_FIFO_AUXCTL_PTR) &
 221              		.loc 1 159 0
 222 0038 0B4A     		ldr	r2, .L12+4
 223 003a 0B4B     		ldr	r3, .L12+4
 224 003c 1B88     		ldrh	r3, [r3]
 225 003e 9BB2     		uxth	r3, r3
 226 0040 0B49     		ldr	r1, .L12+12
 227 0042 0B40     		ands	r3, r1
 228 0044 9BB2     		uxth	r3, r3
 229 0046 1380     		strh	r3, [r2]
 160:Generated_Source\PSoC4/Temp_Sensor.c ****                                                                  (uint16)~Temp_Sensor_FIFO_CLEAR_MA
 161:Generated_Source\PSoC4/Temp_Sensor.c **** 
 162:Generated_Source\PSoC4/Temp_Sensor.c ****     /* shared regs config are done */
 163:Generated_Source\PSoC4/Temp_Sensor.c ****     CyExitCriticalSection(enableInterrupts);
 230              		.loc 1 163 0
 231 0048 FB1D     		adds	r3, r7, #7
 232 004a 1B78     		ldrb	r3, [r3]
 233 004c 1800     		movs	r0, r3
 234 004e FFF7FEFF 		bl	CyExitCriticalSection
 164:Generated_Source\PSoC4/Temp_Sensor.c **** 
 165:Generated_Source\PSoC4/Temp_Sensor.c ****     /* Enable the buried ISR component */
ARM GAS  C:\Users\ADMINI~1\AppData\Local\Temp\ccxz1S6I.s 			page 8


 166:Generated_Source\PSoC4/Temp_Sensor.c ****     Temp_Sensor_EOC_ISR_StartEx(&Temp_Sensor_EOC_ISR_Int);
 235              		.loc 1 166 0
 236 0052 084B     		ldr	r3, .L12+16
 237 0054 1800     		movs	r0, r3
 238 0056 FFF7FEFF 		bl	Temp_Sensor_EOC_ISR_StartEx
 167:Generated_Source\PSoC4/Temp_Sensor.c **** }
 239              		.loc 1 167 0
 240 005a C046     		nop
 241 005c BD46     		mov	sp, r7
 242 005e 03B0     		add	sp, sp, #12
 243              		@ sp needed
 244 0060 90BD     		pop	{r4, r7, pc}
 245              	.L13:
 246 0062 C046     		.align	2
 247              	.L12:
 248 0064 71000F40 		.word	1074724977
 249 0068 24110F40 		.word	1074729252
 250 006c 03030000 		.word	771
 251 0070 FCFCFFFF 		.word	-772
 252 0074 00000000 		.word	Temp_Sensor_EOC_ISR_Int
 253              		.cfi_endproc
 254              	.LFE4:
 255              		.size	Temp_Sensor_Enable, .-Temp_Sensor_Enable
 256              		.section	.text.Temp_Sensor_Trigger,"ax",%progbits
 257              		.align	2
 258              		.global	Temp_Sensor_Trigger
 259              		.code	16
 260              		.thumb_func
 261              		.type	Temp_Sensor_Trigger, %function
 262              	Temp_Sensor_Trigger:
 263              	.LFB5:
 168:Generated_Source\PSoC4/Temp_Sensor.c **** 
 169:Generated_Source\PSoC4/Temp_Sensor.c **** 
 170:Generated_Source\PSoC4/Temp_Sensor.c **** /*******************************************************************************
 171:Generated_Source\PSoC4/Temp_Sensor.c **** * Function Name: Temp_Sensor_Trigger
 172:Generated_Source\PSoC4/Temp_Sensor.c **** ********************************************************************************
 173:Generated_Source\PSoC4/Temp_Sensor.c **** *
 174:Generated_Source\PSoC4/Temp_Sensor.c **** * Summary:
 175:Generated_Source\PSoC4/Temp_Sensor.c **** *  Provides a valid strobe/trigger output on the conv terminal.
 176:Generated_Source\PSoC4/Temp_Sensor.c **** *
 177:Generated_Source\PSoC4/Temp_Sensor.c **** * Parameters:
 178:Generated_Source\PSoC4/Temp_Sensor.c **** *  None
 179:Generated_Source\PSoC4/Temp_Sensor.c **** *
 180:Generated_Source\PSoC4/Temp_Sensor.c **** * Return:
 181:Generated_Source\PSoC4/Temp_Sensor.c **** *  None
 182:Generated_Source\PSoC4/Temp_Sensor.c **** *
 183:Generated_Source\PSoC4/Temp_Sensor.c **** * Global Variables:
 184:Generated_Source\PSoC4/Temp_Sensor.c **** *  Temp_Sensor_busyFlag - used for reflect sensor masuring.
 185:Generated_Source\PSoC4/Temp_Sensor.c **** *
 186:Generated_Source\PSoC4/Temp_Sensor.c **** *******************************************************************************/
 187:Generated_Source\PSoC4/Temp_Sensor.c **** void Temp_Sensor_Trigger(void) 
 188:Generated_Source\PSoC4/Temp_Sensor.c **** {
 264              		.loc 1 188 0
 265              		.cfi_startproc
 266              		@ args = 0, pretend = 0, frame = 8
 267              		@ frame_needed = 1, uses_anonymous_args = 0
 268 0000 90B5     		push	{r4, r7, lr}
ARM GAS  C:\Users\ADMINI~1\AppData\Local\Temp\ccxz1S6I.s 			page 9


 269              		.cfi_def_cfa_offset 12
 270              		.cfi_offset 4, -12
 271              		.cfi_offset 7, -8
 272              		.cfi_offset 14, -4
 273 0002 83B0     		sub	sp, sp, #12
 274              		.cfi_def_cfa_offset 24
 275 0004 00AF     		add	r7, sp, #0
 276              		.cfi_def_cfa_register 7
 189:Generated_Source\PSoC4/Temp_Sensor.c ****     uint8 enableInterrupts;
 190:Generated_Source\PSoC4/Temp_Sensor.c **** 
 191:Generated_Source\PSoC4/Temp_Sensor.c ****     if( 0u == Temp_Sensor_busyFlag)
 277              		.loc 1 191 0
 278 0006 0F4B     		ldr	r3, .L17
 279 0008 1B78     		ldrb	r3, [r3]
 280 000a DBB2     		uxtb	r3, r3
 281 000c 002B     		cmp	r3, #0
 282 000e 14D1     		bne	.L16
 192:Generated_Source\PSoC4/Temp_Sensor.c ****     {
 193:Generated_Source\PSoC4/Temp_Sensor.c ****         /* Change shared regs, need to be safety */
 194:Generated_Source\PSoC4/Temp_Sensor.c ****         enableInterrupts = CyEnterCriticalSection();
 283              		.loc 1 194 0
 284 0010 FC1D     		adds	r4, r7, #7
 285 0012 FFF7FEFF 		bl	CyEnterCriticalSection
 286 0016 0300     		movs	r3, r0
 287 0018 2370     		strb	r3, [r4]
 195:Generated_Source\PSoC4/Temp_Sensor.c **** 
 196:Generated_Source\PSoC4/Temp_Sensor.c ****         /* Generate a CONV strobe */
 197:Generated_Source\PSoC4/Temp_Sensor.c ****         Temp_Sensor_CONTROL_REG ^= Temp_Sensor_CTRL_TRIG;
 288              		.loc 1 197 0
 289 001a 0B4A     		ldr	r2, .L17+4
 290 001c 0A4B     		ldr	r3, .L17+4
 291 001e 1B78     		ldrb	r3, [r3]
 292 0020 DBB2     		uxtb	r3, r3
 293 0022 0121     		movs	r1, #1
 294 0024 4B40     		eors	r3, r1
 295 0026 DBB2     		uxtb	r3, r3
 296 0028 1370     		strb	r3, [r2]
 198:Generated_Source\PSoC4/Temp_Sensor.c **** 
 199:Generated_Source\PSoC4/Temp_Sensor.c ****         Temp_Sensor_busyFlag = 1u;
 297              		.loc 1 199 0
 298 002a 064B     		ldr	r3, .L17
 299 002c 0122     		movs	r2, #1
 300 002e 1A70     		strb	r2, [r3]
 200:Generated_Source\PSoC4/Temp_Sensor.c **** 
 201:Generated_Source\PSoC4/Temp_Sensor.c ****         /* shared regs config are done */
 202:Generated_Source\PSoC4/Temp_Sensor.c ****         CyExitCriticalSection(enableInterrupts);
 301              		.loc 1 202 0
 302 0030 FB1D     		adds	r3, r7, #7
 303 0032 1B78     		ldrb	r3, [r3]
 304 0034 1800     		movs	r0, r3
 305 0036 FFF7FEFF 		bl	CyExitCriticalSection
 306              	.L16:
 203:Generated_Source\PSoC4/Temp_Sensor.c ****     }
 204:Generated_Source\PSoC4/Temp_Sensor.c ****     else
 205:Generated_Source\PSoC4/Temp_Sensor.c ****     {
 206:Generated_Source\PSoC4/Temp_Sensor.c ****         /* Do nothing */
 207:Generated_Source\PSoC4/Temp_Sensor.c ****     }
ARM GAS  C:\Users\ADMINI~1\AppData\Local\Temp\ccxz1S6I.s 			page 10


 208:Generated_Source\PSoC4/Temp_Sensor.c **** 
 209:Generated_Source\PSoC4/Temp_Sensor.c **** }
 307              		.loc 1 209 0
 308 003a C046     		nop
 309 003c BD46     		mov	sp, r7
 310 003e 03B0     		add	sp, sp, #12
 311              		@ sp needed
 312 0040 90BD     		pop	{r4, r7, pc}
 313              	.L18:
 314 0042 C046     		.align	2
 315              	.L17:
 316 0044 00000000 		.word	Temp_Sensor_busyFlag
 317 0048 71000F40 		.word	1074724977
 318              		.cfi_endproc
 319              	.LFE5:
 320              		.size	Temp_Sensor_Trigger, .-Temp_Sensor_Trigger
 321              		.global	__aeabi_idiv
 322              		.section	.text.Temp_Sensor_GetTemperature,"ax",%progbits
 323              		.align	2
 324              		.global	Temp_Sensor_GetTemperature
 325              		.code	16
 326              		.thumb_func
 327              		.type	Temp_Sensor_GetTemperature, %function
 328              	Temp_Sensor_GetTemperature:
 329              	.LFB6:
 210:Generated_Source\PSoC4/Temp_Sensor.c **** 
 211:Generated_Source\PSoC4/Temp_Sensor.c **** 
 212:Generated_Source\PSoC4/Temp_Sensor.c **** /*******************************************************************************
 213:Generated_Source\PSoC4/Temp_Sensor.c **** * Function Name: Temp_Sensor_GetTemperature
 214:Generated_Source\PSoC4/Temp_Sensor.c **** ********************************************************************************
 215:Generated_Source\PSoC4/Temp_Sensor.c **** *
 216:Generated_Source\PSoC4/Temp_Sensor.c **** * Summary:
 217:Generated_Source\PSoC4/Temp_Sensor.c **** *  Calculates the temperature in degrees Celsius.
 218:Generated_Source\PSoC4/Temp_Sensor.c **** *
 219:Generated_Source\PSoC4/Temp_Sensor.c **** * Parameters:
 220:Generated_Source\PSoC4/Temp_Sensor.c **** *  uint8 SensorNum. The TMP05 sensor number from 0..3.
 221:Generated_Source\PSoC4/Temp_Sensor.c **** *
 222:Generated_Source\PSoC4/Temp_Sensor.c **** * Return:
 223:Generated_Source\PSoC4/Temp_Sensor.c **** *  int16 Temperature in 1/100ths degrees C of the requested sensor.
 224:Generated_Source\PSoC4/Temp_Sensor.c **** *
 225:Generated_Source\PSoC4/Temp_Sensor.c **** *******************************************************************************/
 226:Generated_Source\PSoC4/Temp_Sensor.c **** int16 Temp_Sensor_GetTemperature(uint8 sensorNum) 
 227:Generated_Source\PSoC4/Temp_Sensor.c **** {
 330              		.loc 1 227 0
 331              		.cfi_startproc
 332              		@ args = 0, pretend = 0, frame = 16
 333              		@ frame_needed = 1, uses_anonymous_args = 0
 334 0000 80B5     		push	{r7, lr}
 335              		.cfi_def_cfa_offset 8
 336              		.cfi_offset 7, -8
 337              		.cfi_offset 14, -4
 338 0002 84B0     		sub	sp, sp, #16
 339              		.cfi_def_cfa_offset 24
 340 0004 00AF     		add	r7, sp, #0
 341              		.cfi_def_cfa_register 7
 342 0006 0200     		movs	r2, r0
 343 0008 FB1D     		adds	r3, r7, #7
ARM GAS  C:\Users\ADMINI~1\AppData\Local\Temp\ccxz1S6I.s 			page 11


 344 000a 1A70     		strb	r2, [r3]
 228:Generated_Source\PSoC4/Temp_Sensor.c ****     uint16 hi_temp;
 229:Generated_Source\PSoC4/Temp_Sensor.c ****     uint16 lo_temp;
 230:Generated_Source\PSoC4/Temp_Sensor.c ****     
 231:Generated_Source\PSoC4/Temp_Sensor.c ****     Temp_Sensor_EOC_ISR_Disable();
 345              		.loc 1 231 0
 346 000c FFF7FEFF 		bl	Temp_Sensor_EOC_ISR_Disable
 232:Generated_Source\PSoC4/Temp_Sensor.c ****     hi_temp = Temp_Sensor_hi[sensorNum];
 347              		.loc 1 232 0
 348 0010 FB1D     		adds	r3, r7, #7
 349 0012 1978     		ldrb	r1, [r3]
 350 0014 0E23     		movs	r3, #14
 351 0016 FB18     		adds	r3, r7, r3
 352 0018 114A     		ldr	r2, .L21
 353 001a 4900     		lsls	r1, r1, #1
 354 001c 8A5A     		ldrh	r2, [r1, r2]
 355 001e 1A80     		strh	r2, [r3]
 233:Generated_Source\PSoC4/Temp_Sensor.c ****     lo_temp = Temp_Sensor_lo[sensorNum];
 356              		.loc 1 233 0
 357 0020 FB1D     		adds	r3, r7, #7
 358 0022 1978     		ldrb	r1, [r3]
 359 0024 0C23     		movs	r3, #12
 360 0026 FB18     		adds	r3, r7, r3
 361 0028 0E4A     		ldr	r2, .L21+4
 362 002a 4900     		lsls	r1, r1, #1
 363 002c 8A5A     		ldrh	r2, [r1, r2]
 364 002e 1A80     		strh	r2, [r3]
 234:Generated_Source\PSoC4/Temp_Sensor.c ****     Temp_Sensor_EOC_ISR_Enable();
 365              		.loc 1 234 0
 366 0030 FFF7FEFF 		bl	Temp_Sensor_EOC_ISR_Enable
 235:Generated_Source\PSoC4/Temp_Sensor.c ****     
 236:Generated_Source\PSoC4/Temp_Sensor.c ****     /* Calculates temp for each sensor based on mathematical equation shown in TMP05 datasheet */
 237:Generated_Source\PSoC4/Temp_Sensor.c ****     return ((int16)((Temp_Sensor_SCALED_CONST_TMP1 - 
 238:Generated_Source\PSoC4/Temp_Sensor.c **** 		   ((Temp_Sensor_SCALED_CONST_TMP2 * (int32) hi_temp) / (int32) lo_temp))));
 367              		.loc 1 238 0
 368 0034 0E23     		movs	r3, #14
 369 0036 FB18     		adds	r3, r7, r3
 370 0038 1B88     		ldrh	r3, [r3]
 371 003a 0B4A     		ldr	r2, .L21+8
 372 003c 5A43     		muls	r2, r3
 373 003e 0C23     		movs	r3, #12
 374 0040 FB18     		adds	r3, r7, r3
 375 0042 1B88     		ldrh	r3, [r3]
 376 0044 1900     		movs	r1, r3
 377 0046 1000     		movs	r0, r2
 378 0048 FFF7FEFF 		bl	__aeabi_idiv
 379 004c 0300     		movs	r3, r0
 237:Generated_Source\PSoC4/Temp_Sensor.c **** 		   ((Temp_Sensor_SCALED_CONST_TMP2 * (int32) hi_temp) / (int32) lo_temp))));
 380              		.loc 1 237 0
 381 004e 9BB2     		uxth	r3, r3
 382 0050 064A     		ldr	r2, .L21+12
 383 0052 D31A     		subs	r3, r2, r3
 384 0054 9BB2     		uxth	r3, r3
 385 0056 1BB2     		sxth	r3, r3
 239:Generated_Source\PSoC4/Temp_Sensor.c **** }
 386              		.loc 1 239 0
 387 0058 1800     		movs	r0, r3
ARM GAS  C:\Users\ADMINI~1\AppData\Local\Temp\ccxz1S6I.s 			page 12


 388 005a BD46     		mov	sp, r7
 389 005c 04B0     		add	sp, sp, #16
 390              		@ sp needed
 391 005e 80BD     		pop	{r7, pc}
 392              	.L22:
 393              		.align	2
 394              	.L21:
 395 0060 00000000 		.word	Temp_Sensor_hi
 396 0064 00000000 		.word	Temp_Sensor_lo
 397 0068 5C250100 		.word	75100
 398 006c 74A4FFFF 		.word	-23436
 399              		.cfi_endproc
 400              	.LFE6:
 401              		.size	Temp_Sensor_GetTemperature, .-Temp_Sensor_GetTemperature
 402              		.section	.text.Temp_Sensor_ConversionStatus,"ax",%progbits
 403              		.align	2
 404              		.global	Temp_Sensor_ConversionStatus
 405              		.code	16
 406              		.thumb_func
 407              		.type	Temp_Sensor_ConversionStatus, %function
 408              	Temp_Sensor_ConversionStatus:
 409              	.LFB7:
 240:Generated_Source\PSoC4/Temp_Sensor.c **** 
 241:Generated_Source\PSoC4/Temp_Sensor.c **** 
 242:Generated_Source\PSoC4/Temp_Sensor.c **** /*******************************************************************************
 243:Generated_Source\PSoC4/Temp_Sensor.c **** * Function Name: Temp_Sensor_ConversionStatus
 244:Generated_Source\PSoC4/Temp_Sensor.c **** ********************************************************************************
 245:Generated_Source\PSoC4/Temp_Sensor.c **** *
 246:Generated_Source\PSoC4/Temp_Sensor.c **** * Summary:
 247:Generated_Source\PSoC4/Temp_Sensor.c **** *  Enables firmware to synchronize with the hardware.
 248:Generated_Source\PSoC4/Temp_Sensor.c **** *
 249:Generated_Source\PSoC4/Temp_Sensor.c **** * Parameters:
 250:Generated_Source\PSoC4/Temp_Sensor.c **** *  None
 251:Generated_Source\PSoC4/Temp_Sensor.c **** *
 252:Generated_Source\PSoC4/Temp_Sensor.c **** * Return:
 253:Generated_Source\PSoC4/Temp_Sensor.c **** *  uint8 status code:
 254:Generated_Source\PSoC4/Temp_Sensor.c **** *   Temp_Sensor_STATUS_IN_PROGRESS - Conversion in progress.
 255:Generated_Source\PSoC4/Temp_Sensor.c **** *   Temp_Sensor_STATUS_COMPLETE - Conversion complete.
 256:Generated_Source\PSoC4/Temp_Sensor.c **** *   Temp_Sensor_STATUS_ERROR - Sensor Error.
 257:Generated_Source\PSoC4/Temp_Sensor.c **** *
 258:Generated_Source\PSoC4/Temp_Sensor.c **** *******************************************************************************/
 259:Generated_Source\PSoC4/Temp_Sensor.c **** uint8 Temp_Sensor_ConversionStatus(void) 
 260:Generated_Source\PSoC4/Temp_Sensor.c **** {
 410              		.loc 1 260 0
 411              		.cfi_startproc
 412              		@ args = 0, pretend = 0, frame = 0
 413              		@ frame_needed = 1, uses_anonymous_args = 0
 414 0000 80B5     		push	{r7, lr}
 415              		.cfi_def_cfa_offset 8
 416              		.cfi_offset 7, -8
 417              		.cfi_offset 14, -4
 418 0002 00AF     		add	r7, sp, #0
 419              		.cfi_def_cfa_register 7
 261:Generated_Source\PSoC4/Temp_Sensor.c ****     return (Temp_Sensor_STATUS_REG & Temp_Sensor_STATUS_CLR_MASK);
 420              		.loc 1 261 0
 421 0004 044B     		ldr	r3, .L25
 422 0006 1B78     		ldrb	r3, [r3]
ARM GAS  C:\Users\ADMINI~1\AppData\Local\Temp\ccxz1S6I.s 			page 13


 423 0008 DBB2     		uxtb	r3, r3
 424 000a 0322     		movs	r2, #3
 425 000c 1340     		ands	r3, r2
 426 000e DBB2     		uxtb	r3, r3
 262:Generated_Source\PSoC4/Temp_Sensor.c **** }
 427              		.loc 1 262 0
 428 0010 1800     		movs	r0, r3
 429 0012 BD46     		mov	sp, r7
 430              		@ sp needed
 431 0014 80BD     		pop	{r7, pc}
 432              	.L26:
 433 0016 C046     		.align	2
 434              	.L25:
 435 0018 63000F40 		.word	1074724963
 436              		.cfi_endproc
 437              	.LFE7:
 438              		.size	Temp_Sensor_ConversionStatus, .-Temp_Sensor_ConversionStatus
 439              		.section	.text.Temp_Sensor_SetMode,"ax",%progbits
 440              		.align	2
 441              		.global	Temp_Sensor_SetMode
 442              		.code	16
 443              		.thumb_func
 444              		.type	Temp_Sensor_SetMode, %function
 445              	Temp_Sensor_SetMode:
 446              	.LFB8:
 263:Generated_Source\PSoC4/Temp_Sensor.c **** 
 264:Generated_Source\PSoC4/Temp_Sensor.c **** 
 265:Generated_Source\PSoC4/Temp_Sensor.c **** /*******************************************************************************
 266:Generated_Source\PSoC4/Temp_Sensor.c **** * Function Name: Temp_Sensor_SetMode
 267:Generated_Source\PSoC4/Temp_Sensor.c **** ********************************************************************************
 268:Generated_Source\PSoC4/Temp_Sensor.c **** *
 269:Generated_Source\PSoC4/Temp_Sensor.c **** * Summary:
 270:Generated_Source\PSoC4/Temp_Sensor.c **** *  Sets the operating mode of the component.
 271:Generated_Source\PSoC4/Temp_Sensor.c **** *
 272:Generated_Source\PSoC4/Temp_Sensor.c **** * Parameters:
 273:Generated_Source\PSoC4/Temp_Sensor.c **** *  uint8 mode: operating mode:
 274:Generated_Source\PSoC4/Temp_Sensor.c **** *   Temp_Sensor_MODE_CONTINUOUS - Continuous mode.
 275:Generated_Source\PSoC4/Temp_Sensor.c **** *   Temp_Sensor_MODE_ONESHOT - One-shot mode.
 276:Generated_Source\PSoC4/Temp_Sensor.c **** *
 277:Generated_Source\PSoC4/Temp_Sensor.c **** * Return:
 278:Generated_Source\PSoC4/Temp_Sensor.c **** *  None
 279:Generated_Source\PSoC4/Temp_Sensor.c **** *
 280:Generated_Source\PSoC4/Temp_Sensor.c **** * Global Variables:
 281:Generated_Source\PSoC4/Temp_Sensor.c **** *  Temp_Sensor_contMode - used for reflect modes of operation used:
 282:Generated_Source\PSoC4/Temp_Sensor.c **** *     - Temp_Sensor_MODE_CONTINUOUS.
 283:Generated_Source\PSoC4/Temp_Sensor.c **** *     - Temp_Sensor_MODE_ONESHOT.
 284:Generated_Source\PSoC4/Temp_Sensor.c **** *
 285:Generated_Source\PSoC4/Temp_Sensor.c **** *******************************************************************************/
 286:Generated_Source\PSoC4/Temp_Sensor.c **** void Temp_Sensor_SetMode(uint8 mode) 
 287:Generated_Source\PSoC4/Temp_Sensor.c **** {
 447              		.loc 1 287 0
 448              		.cfi_startproc
 449              		@ args = 0, pretend = 0, frame = 8
 450              		@ frame_needed = 1, uses_anonymous_args = 0
 451 0000 80B5     		push	{r7, lr}
 452              		.cfi_def_cfa_offset 8
 453              		.cfi_offset 7, -8
ARM GAS  C:\Users\ADMINI~1\AppData\Local\Temp\ccxz1S6I.s 			page 14


 454              		.cfi_offset 14, -4
 455 0002 82B0     		sub	sp, sp, #8
 456              		.cfi_def_cfa_offset 16
 457 0004 00AF     		add	r7, sp, #0
 458              		.cfi_def_cfa_register 7
 459 0006 0200     		movs	r2, r0
 460 0008 FB1D     		adds	r3, r7, #7
 461 000a 1A70     		strb	r2, [r3]
 288:Generated_Source\PSoC4/Temp_Sensor.c ****    Temp_Sensor_contMode = mode;
 462              		.loc 1 288 0
 463 000c 034B     		ldr	r3, .L28
 464 000e FA1D     		adds	r2, r7, #7
 465 0010 1278     		ldrb	r2, [r2]
 466 0012 1A70     		strb	r2, [r3]
 289:Generated_Source\PSoC4/Temp_Sensor.c **** }
 467              		.loc 1 289 0
 468 0014 C046     		nop
 469 0016 BD46     		mov	sp, r7
 470 0018 02B0     		add	sp, sp, #8
 471              		@ sp needed
 472 001a 80BD     		pop	{r7, pc}
 473              	.L29:
 474              		.align	2
 475              	.L28:
 476 001c 00000000 		.word	Temp_Sensor_contMode
 477              		.cfi_endproc
 478              	.LFE8:
 479              		.size	Temp_Sensor_SetMode, .-Temp_Sensor_SetMode
 480              		.section	.text.Temp_Sensor_DiscoverSensors,"ax",%progbits
 481              		.align	2
 482              		.global	Temp_Sensor_DiscoverSensors
 483              		.code	16
 484              		.thumb_func
 485              		.type	Temp_Sensor_DiscoverSensors, %function
 486              	Temp_Sensor_DiscoverSensors:
 487              	.LFB9:
 290:Generated_Source\PSoC4/Temp_Sensor.c **** 
 291:Generated_Source\PSoC4/Temp_Sensor.c **** 
 292:Generated_Source\PSoC4/Temp_Sensor.c **** /*******************************************************************************
 293:Generated_Source\PSoC4/Temp_Sensor.c **** * Function Name: Temp_Sensor_DiscoverSensors
 294:Generated_Source\PSoC4/Temp_Sensor.c **** ********************************************************************************
 295:Generated_Source\PSoC4/Temp_Sensor.c **** *
 296:Generated_Source\PSoC4/Temp_Sensor.c **** * Summary:
 297:Generated_Source\PSoC4/Temp_Sensor.c **** *  This API is provided for applications that might have a variable number of
 298:Generated_Source\PSoC4/Temp_Sensor.c **** *  temperature sensors connected. It automatically detects how many temperature
 299:Generated_Source\PSoC4/Temp_Sensor.c **** *  sensors are daisy-chained to the component. The algorithm starts by checking
 300:Generated_Source\PSoC4/Temp_Sensor.c **** *  to see if the number of sensors actually connected matches the NumSensors
 301:Generated_Source\PSoC4/Temp_Sensor.c **** *  parameter setting in the Basic Tab of the component customizer. If not,
 302:Generated_Source\PSoC4/Temp_Sensor.c **** *  it will retry assuming 1 less sensor is connected. This process will repeat
 303:Generated_Source\PSoC4/Temp_Sensor.c **** *  until the actual number of sensors connected is known.
 304:Generated_Source\PSoC4/Temp_Sensor.c **** *  Confirming whether or not a sensor is attached or not takes a few hundred
 305:Generated_Source\PSoC4/Temp_Sensor.c **** *  milliseconds per sensor per iteration of the algorithm. To limit the
 306:Generated_Source\PSoC4/Temp_Sensor.c **** *  sensing time, reduce the NumSensors parameter setting in the General Tab
 307:Generated_Source\PSoC4/Temp_Sensor.c **** *  of the component customizer to the maximum number of possible sensors
 308:Generated_Source\PSoC4/Temp_Sensor.c **** *  in the system.
 309:Generated_Source\PSoC4/Temp_Sensor.c **** *
 310:Generated_Source\PSoC4/Temp_Sensor.c **** * Parameters:
ARM GAS  C:\Users\ADMINI~1\AppData\Local\Temp\ccxz1S6I.s 			page 15


 311:Generated_Source\PSoC4/Temp_Sensor.c **** *  None
 312:Generated_Source\PSoC4/Temp_Sensor.c **** *
 313:Generated_Source\PSoC4/Temp_Sensor.c **** * Return:
 314:Generated_Source\PSoC4/Temp_Sensor.c **** *  uint8 representing the number of sensors actually connected (0..4).
 315:Generated_Source\PSoC4/Temp_Sensor.c **** *
 316:Generated_Source\PSoC4/Temp_Sensor.c **** * Global Variables:
 317:Generated_Source\PSoC4/Temp_Sensor.c **** *  Temp_Sensor_contMode - used for reflect modes of operation used:
 318:Generated_Source\PSoC4/Temp_Sensor.c **** *     - Temp_Sensor_MODE_CONTINUOUS.
 319:Generated_Source\PSoC4/Temp_Sensor.c **** *     - Temp_Sensor_MODE_ONESHOT.
 320:Generated_Source\PSoC4/Temp_Sensor.c **** *
 321:Generated_Source\PSoC4/Temp_Sensor.c **** *******************************************************************************/
 322:Generated_Source\PSoC4/Temp_Sensor.c **** uint8 Temp_Sensor_DiscoverSensors(void) 
 323:Generated_Source\PSoC4/Temp_Sensor.c **** {
 488              		.loc 1 323 0
 489              		.cfi_startproc
 490              		@ args = 0, pretend = 0, frame = 8
 491              		@ frame_needed = 1, uses_anonymous_args = 0
 492 0000 90B5     		push	{r4, r7, lr}
 493              		.cfi_def_cfa_offset 12
 494              		.cfi_offset 4, -12
 495              		.cfi_offset 7, -8
 496              		.cfi_offset 14, -4
 497 0002 83B0     		sub	sp, sp, #12
 498              		.cfi_def_cfa_offset 24
 499 0004 00AF     		add	r7, sp, #0
 500              		.cfi_def_cfa_register 7
 324:Generated_Source\PSoC4/Temp_Sensor.c ****     uint8 sensorCount = Temp_Sensor_CUSTOM_NUM_SENSORS;
 501              		.loc 1 324 0
 502 0006 FB1D     		adds	r3, r7, #7
 503 0008 0122     		movs	r2, #1
 504 000a 1A70     		strb	r2, [r3]
 325:Generated_Source\PSoC4/Temp_Sensor.c ****     uint8 enableInterrupts;
 326:Generated_Source\PSoC4/Temp_Sensor.c ****     uint8 eocRegStatus;
 327:Generated_Source\PSoC4/Temp_Sensor.c ****     uint8 contFlag;
 328:Generated_Source\PSoC4/Temp_Sensor.c **** 
 329:Generated_Source\PSoC4/Temp_Sensor.c ****     if (0u != (Temp_Sensor_MODE_CONTINUOUS & Temp_Sensor_contMode))
 505              		.loc 1 329 0
 506 000c 3D4B     		ldr	r3, .L41
 507 000e 1B78     		ldrb	r3, [r3]
 508 0010 DBB2     		uxtb	r3, r3
 509 0012 0122     		movs	r2, #1
 510 0014 1340     		ands	r3, r2
 511 0016 DBB2     		uxtb	r3, r3
 512 0018 002B     		cmp	r3, #0
 513 001a 06D0     		beq	.L31
 330:Generated_Source\PSoC4/Temp_Sensor.c ****     {
 331:Generated_Source\PSoC4/Temp_Sensor.c ****         Temp_Sensor_contMode = Temp_Sensor_MODE_ONESHOT;
 514              		.loc 1 331 0
 515 001c 394B     		ldr	r3, .L41
 516 001e 0022     		movs	r2, #0
 517 0020 1A70     		strb	r2, [r3]
 332:Generated_Source\PSoC4/Temp_Sensor.c ****         contFlag = 1u;
 518              		.loc 1 332 0
 519 0022 7B1D     		adds	r3, r7, #5
 520 0024 0122     		movs	r2, #1
 521 0026 1A70     		strb	r2, [r3]
 522 0028 02E0     		b	.L32
ARM GAS  C:\Users\ADMINI~1\AppData\Local\Temp\ccxz1S6I.s 			page 16


 523              	.L31:
 333:Generated_Source\PSoC4/Temp_Sensor.c ****     }
 334:Generated_Source\PSoC4/Temp_Sensor.c ****     else
 335:Generated_Source\PSoC4/Temp_Sensor.c ****     {
 336:Generated_Source\PSoC4/Temp_Sensor.c ****         contFlag = 0u;
 524              		.loc 1 336 0
 525 002a 7B1D     		adds	r3, r7, #5
 526 002c 0022     		movs	r2, #0
 527 002e 1A70     		strb	r2, [r3]
 528              	.L32:
 337:Generated_Source\PSoC4/Temp_Sensor.c ****     }
 338:Generated_Source\PSoC4/Temp_Sensor.c **** 
 339:Generated_Source\PSoC4/Temp_Sensor.c ****     /* Change shared regs, need to be safety */
 340:Generated_Source\PSoC4/Temp_Sensor.c ****     enableInterrupts = CyEnterCriticalSection();
 529              		.loc 1 340 0
 530 0030 3C1D     		adds	r4, r7, #4
 531 0032 FFF7FEFF 		bl	CyEnterCriticalSection
 532 0036 0300     		movs	r3, r0
 533 0038 2370     		strb	r3, [r4]
 341:Generated_Source\PSoC4/Temp_Sensor.c **** 
 342:Generated_Source\PSoC4/Temp_Sensor.c ****     /* Setup the number of Sensors from the customizer */
 343:Generated_Source\PSoC4/Temp_Sensor.c ****     Temp_Sensor_CONTROL_REG = ((Temp_Sensor_CONTROL_REG & Temp_Sensor_CTRL_NUM_SNS_MASK) | 
 534              		.loc 1 343 0
 535 003a 334A     		ldr	r2, .L41+4
 536 003c 324B     		ldr	r3, .L41+4
 537 003e 1B78     		ldrb	r3, [r3]
 538 0040 DBB2     		uxtb	r3, r3
 539 0042 0621     		movs	r1, #6
 540 0044 8B43     		bics	r3, r1
 541 0046 DBB2     		uxtb	r3, r3
 542 0048 1370     		strb	r3, [r2]
 344:Generated_Source\PSoC4/Temp_Sensor.c ****                                    (uint8)((Temp_Sensor_CUSTOM_NUM_SENSORS - 1u) << 
 345:Generated_Source\PSoC4/Temp_Sensor.c ****                                             Temp_Sensor_CTRL_REG_SNS_SHIFT));
 346:Generated_Source\PSoC4/Temp_Sensor.c ****                                      
 347:Generated_Source\PSoC4/Temp_Sensor.c ****     /* shared regs config are done */
 348:Generated_Source\PSoC4/Temp_Sensor.c ****     CyExitCriticalSection(enableInterrupts);
 543              		.loc 1 348 0
 544 004a 3B1D     		adds	r3, r7, #4
 545 004c 1B78     		ldrb	r3, [r3]
 546 004e 1800     		movs	r0, r3
 547 0050 FFF7FEFF 		bl	CyExitCriticalSection
 349:Generated_Source\PSoC4/Temp_Sensor.c **** 
 350:Generated_Source\PSoC4/Temp_Sensor.c ****     /* Start conversion */
 351:Generated_Source\PSoC4/Temp_Sensor.c ****     Temp_Sensor_Trigger();
 548              		.loc 1 351 0
 549 0054 FFF7FEFF 		bl	Temp_Sensor_Trigger
 550              	.L33:
 352:Generated_Source\PSoC4/Temp_Sensor.c **** 
 353:Generated_Source\PSoC4/Temp_Sensor.c ****     /* Wait for conversion complete or error */
 354:Generated_Source\PSoC4/Temp_Sensor.c ****     do
 355:Generated_Source\PSoC4/Temp_Sensor.c ****     {
 356:Generated_Source\PSoC4/Temp_Sensor.c ****         eocRegStatus = Temp_Sensor_ConversionStatus();
 551              		.loc 1 356 0 discriminator 1
 552 0058 BC1D     		adds	r4, r7, #6
 553 005a FFF7FEFF 		bl	Temp_Sensor_ConversionStatus
 554 005e 0300     		movs	r3, r0
 555 0060 2370     		strb	r3, [r4]
ARM GAS  C:\Users\ADMINI~1\AppData\Local\Temp\ccxz1S6I.s 			page 17


 357:Generated_Source\PSoC4/Temp_Sensor.c ****     }
 358:Generated_Source\PSoC4/Temp_Sensor.c ****     while (eocRegStatus == Temp_Sensor_STATUS_IN_PROGRESS);
 556              		.loc 1 358 0 discriminator 1
 557 0062 BB1D     		adds	r3, r7, #6
 558 0064 1B78     		ldrb	r3, [r3]
 559 0066 002B     		cmp	r3, #0
 560 0068 F6D0     		beq	.L33
 359:Generated_Source\PSoC4/Temp_Sensor.c **** 
 360:Generated_Source\PSoC4/Temp_Sensor.c ****     /* Error returned, re-try with 1 less sensor */
 361:Generated_Source\PSoC4/Temp_Sensor.c ****     if (0u != (eocRegStatus & Temp_Sensor_STATUS_ERR))
 561              		.loc 1 361 0
 562 006a BB1D     		adds	r3, r7, #6
 563 006c 1B78     		ldrb	r3, [r3]
 564 006e 0222     		movs	r2, #2
 565 0070 1340     		ands	r3, r2
 566 0072 39D0     		beq	.L34
 567              	.L38:
 362:Generated_Source\PSoC4/Temp_Sensor.c ****     {
 363:Generated_Source\PSoC4/Temp_Sensor.c ****         do
 364:Generated_Source\PSoC4/Temp_Sensor.c ****         {
 365:Generated_Source\PSoC4/Temp_Sensor.c ****             sensorCount--;
 568              		.loc 1 365 0
 569 0074 FB1D     		adds	r3, r7, #7
 570 0076 1A78     		ldrb	r2, [r3]
 571 0078 FB1D     		adds	r3, r7, #7
 572 007a 013A     		subs	r2, r2, #1
 573 007c 1A70     		strb	r2, [r3]
 366:Generated_Source\PSoC4/Temp_Sensor.c **** 
 367:Generated_Source\PSoC4/Temp_Sensor.c ****             if (0u == sensorCount)
 574              		.loc 1 367 0
 575 007e FB1D     		adds	r3, r7, #7
 576 0080 1B78     		ldrb	r3, [r3]
 577 0082 002B     		cmp	r3, #0
 578 0084 03D1     		bne	.L35
 368:Generated_Source\PSoC4/Temp_Sensor.c ****             {
 369:Generated_Source\PSoC4/Temp_Sensor.c ****                 eocRegStatus = 0u;
 579              		.loc 1 369 0
 580 0086 BB1D     		adds	r3, r7, #6
 581 0088 0022     		movs	r2, #0
 582 008a 1A70     		strb	r2, [r3]
 583 008c 27E0     		b	.L36
 584              	.L35:
 370:Generated_Source\PSoC4/Temp_Sensor.c ****             }
 371:Generated_Source\PSoC4/Temp_Sensor.c ****             else
 372:Generated_Source\PSoC4/Temp_Sensor.c ****             {
 373:Generated_Source\PSoC4/Temp_Sensor.c ****                 /* Change shared regs, need to be safety */
 374:Generated_Source\PSoC4/Temp_Sensor.c ****                 enableInterrupts = CyEnterCriticalSection();
 585              		.loc 1 374 0
 586 008e 3C1D     		adds	r4, r7, #4
 587 0090 FFF7FEFF 		bl	CyEnterCriticalSection
 588 0094 0300     		movs	r3, r0
 589 0096 2370     		strb	r3, [r4]
 375:Generated_Source\PSoC4/Temp_Sensor.c **** 
 376:Generated_Source\PSoC4/Temp_Sensor.c ****                 Temp_Sensor_CONTROL_REG = ((Temp_Sensor_CONTROL_REG & Temp_Sensor_CTRL_NUM_SNS_MASK
 590              		.loc 1 376 0
 591 0098 1B49     		ldr	r1, .L41+4
 592 009a 1B4B     		ldr	r3, .L41+4
ARM GAS  C:\Users\ADMINI~1\AppData\Local\Temp\ccxz1S6I.s 			page 18


 593 009c 1B78     		ldrb	r3, [r3]
 594 009e DBB2     		uxtb	r3, r3
 595 00a0 5BB2     		sxtb	r3, r3
 596 00a2 0622     		movs	r2, #6
 597 00a4 9343     		bics	r3, r2
 598 00a6 5AB2     		sxtb	r2, r3
 377:Generated_Source\PSoC4/Temp_Sensor.c ****                                                (uint8)((sensorCount - 1u) << Temp_Sensor_CTRL_REG_S
 599              		.loc 1 377 0
 600 00a8 FB1D     		adds	r3, r7, #7
 601 00aa 1B78     		ldrb	r3, [r3]
 602 00ac 013B     		subs	r3, r3, #1
 603 00ae DBB2     		uxtb	r3, r3
 604 00b0 DB18     		adds	r3, r3, r3
 605 00b2 DBB2     		uxtb	r3, r3
 376:Generated_Source\PSoC4/Temp_Sensor.c ****                                                (uint8)((sensorCount - 1u) << Temp_Sensor_CTRL_REG_S
 606              		.loc 1 376 0
 607 00b4 5BB2     		sxtb	r3, r3
 608 00b6 1343     		orrs	r3, r2
 609 00b8 5BB2     		sxtb	r3, r3
 610 00ba DBB2     		uxtb	r3, r3
 611 00bc 0B70     		strb	r3, [r1]
 378:Generated_Source\PSoC4/Temp_Sensor.c **** 
 379:Generated_Source\PSoC4/Temp_Sensor.c ****                 /* shared regs config are done */
 380:Generated_Source\PSoC4/Temp_Sensor.c ****                 CyExitCriticalSection(enableInterrupts);
 612              		.loc 1 380 0
 613 00be 3B1D     		adds	r3, r7, #4
 614 00c0 1B78     		ldrb	r3, [r3]
 615 00c2 1800     		movs	r0, r3
 616 00c4 FFF7FEFF 		bl	CyExitCriticalSection
 381:Generated_Source\PSoC4/Temp_Sensor.c **** 
 382:Generated_Source\PSoC4/Temp_Sensor.c ****                  /* Start conversion */
 383:Generated_Source\PSoC4/Temp_Sensor.c ****                 Temp_Sensor_Trigger();
 617              		.loc 1 383 0
 618 00c8 FFF7FEFF 		bl	Temp_Sensor_Trigger
 619              	.L37:
 384:Generated_Source\PSoC4/Temp_Sensor.c **** 
 385:Generated_Source\PSoC4/Temp_Sensor.c ****                 /* Wait for conversion complete or error */
 386:Generated_Source\PSoC4/Temp_Sensor.c ****                 do
 387:Generated_Source\PSoC4/Temp_Sensor.c ****                 {
 388:Generated_Source\PSoC4/Temp_Sensor.c ****                     eocRegStatus = Temp_Sensor_ConversionStatus();
 620              		.loc 1 388 0 discriminator 1
 621 00cc BC1D     		adds	r4, r7, #6
 622 00ce FFF7FEFF 		bl	Temp_Sensor_ConversionStatus
 623 00d2 0300     		movs	r3, r0
 624 00d4 2370     		strb	r3, [r4]
 389:Generated_Source\PSoC4/Temp_Sensor.c ****                 }
 390:Generated_Source\PSoC4/Temp_Sensor.c ****                 while (eocRegStatus == Temp_Sensor_STATUS_IN_PROGRESS);
 625              		.loc 1 390 0 discriminator 1
 626 00d6 BB1D     		adds	r3, r7, #6
 627 00d8 1B78     		ldrb	r3, [r3]
 628 00da 002B     		cmp	r3, #0
 629 00dc F6D0     		beq	.L37
 630              	.L36:
 391:Generated_Source\PSoC4/Temp_Sensor.c ****             }
 392:Generated_Source\PSoC4/Temp_Sensor.c ****         }
 393:Generated_Source\PSoC4/Temp_Sensor.c ****         while (0u != (eocRegStatus & Temp_Sensor_STATUS_ERR));
 631              		.loc 1 393 0
ARM GAS  C:\Users\ADMINI~1\AppData\Local\Temp\ccxz1S6I.s 			page 19


 632 00de BB1D     		adds	r3, r7, #6
 633 00e0 1B78     		ldrb	r3, [r3]
 634 00e2 0222     		movs	r2, #2
 635 00e4 1340     		ands	r3, r2
 636 00e6 C5D1     		bne	.L38
 637              	.L34:
 394:Generated_Source\PSoC4/Temp_Sensor.c ****     }
 395:Generated_Source\PSoC4/Temp_Sensor.c **** 
 396:Generated_Source\PSoC4/Temp_Sensor.c ****     if (0u != contFlag)
 638              		.loc 1 396 0
 639 00e8 7B1D     		adds	r3, r7, #5
 640 00ea 1B78     		ldrb	r3, [r3]
 641 00ec 002B     		cmp	r3, #0
 642 00ee 02D0     		beq	.L39
 397:Generated_Source\PSoC4/Temp_Sensor.c ****     {
 398:Generated_Source\PSoC4/Temp_Sensor.c ****         Temp_Sensor_contMode = Temp_Sensor_MODE_CONTINUOUS;
 643              		.loc 1 398 0
 644 00f0 044B     		ldr	r3, .L41
 645 00f2 0122     		movs	r2, #1
 646 00f4 1A70     		strb	r2, [r3]
 647              	.L39:
 399:Generated_Source\PSoC4/Temp_Sensor.c ****     }
 400:Generated_Source\PSoC4/Temp_Sensor.c **** 
 401:Generated_Source\PSoC4/Temp_Sensor.c ****     return (sensorCount);
 648              		.loc 1 401 0
 649 00f6 FB1D     		adds	r3, r7, #7
 650 00f8 1B78     		ldrb	r3, [r3]
 402:Generated_Source\PSoC4/Temp_Sensor.c **** }
 651              		.loc 1 402 0
 652 00fa 1800     		movs	r0, r3
 653 00fc BD46     		mov	sp, r7
 654 00fe 03B0     		add	sp, sp, #12
 655              		@ sp needed
 656 0100 90BD     		pop	{r4, r7, pc}
 657              	.L42:
 658 0102 C046     		.align	2
 659              	.L41:
 660 0104 00000000 		.word	Temp_Sensor_contMode
 661 0108 71000F40 		.word	1074724977
 662              		.cfi_endproc
 663              	.LFE9:
 664              		.size	Temp_Sensor_DiscoverSensors, .-Temp_Sensor_DiscoverSensors
 665              		.text
 666              	.Letext0:
 667              		.file 2 "Generated_Source\\PSoC4\\cytypes.h"